///////////////////////////////////////////////////////////////////////////////
//
// IAR C/C++ Compiler V9.30.3.3983 for 8051               13/Mar/2017  16:39:06
// Copyright 2004-2016 IAR Systems AB.
// Standalone license - IAR Embedded Workbench for 8051
//
//    Core               =  plain
//    Code model         =  banked
//    Data model         =  large
//    Calling convention =  xdata reentrant
//    Constant location  =  data_rom
//    Dptr setup         =  1,16
//                          
//    Source file        =  
//        D:\GitHub\TripleS_Zigbee\Projects\zstack\HomeAutomation\MY-SOURCE\uti.c
//    Command line       =  
//        -f
//        D:\GitHub\TripleS_Zigbee\Projects\zstack\HomeAutomation\SampleThermostat\CC2530DB\..\..\..\Tools\CC2530DB\f8wCoord.cfg
//        (-DCPU32MHZ -DROOT=__near_func -DMAC_CFG_APP_PENDING_QUEUE=TRUE
//        -DMAC_CFG_TX_DATA_MAX=5 -DMAC_CFG_TX_MAX=8 -DMAC_CFG_RX_MAX=5
//        -DZDO_COORDINATOR -DRTR_NWK) -f
//        D:\GitHub\TripleS_Zigbee\Projects\zstack\HomeAutomation\SampleThermostat\CC2530DB\..\..\..\Tools\CC2530DB\f8wConfig.cfg
//        (-DZIGBEEPRO -DSECURE=1 -DZG_SECURE_DYNAMIC=0 -DREFLECTOR
//        -DDEFAULT_CHANLIST=0x00000800 -DZDAPP_CONFIG_PAN_ID=0xFAFA
//        -DNWK_START_DELAY=100 -DEXTENDED_JOINING_RANDOM_MASK=0x007F
//        -DBEACON_REQUEST_DELAY=100 -DBEACON_REQ_DELAY_MASK=0x00FF
//        -DLINK_STATUS_JITTER_MASK=0x007F -DROUTE_EXPIRY_TIME=30
//        -DAPSC_ACK_WAIT_DURATION_POLLED=3000 -DNWK_INDIRECT_MSG_TIMEOUT=7
//        -DMAX_RREQ_ENTRIES=8 -DAPSC_MAX_FRAME_RETRIES=3
//        -DNWK_MAX_DATA_RETRIES=2 -DMAX_POLL_FAILURE_RETRIES=2 -DMAX_BCAST=9
//        -DAPS_MAX_GROUPS=16 -DMAX_RTG_ENTRIES=40 -DNWK_MAX_BINDING_ENTRIES=4
//        -DMAX_BINDING_CLUSTER_IDS=4 "-DDEFAULT_KEY={0x01, 0x03, 0x05, 0x07,
//        0x09, 0x0B, 0x0D, 0x0F, 0x00, 0x02, 0x04, 0x06, 0x08, 0x0A, 0x0C,
//        0x0D}" -DMAC_MAX_FRAME_SIZE=116 -DZDNWKMGR_MIN_TRANSMISSIONS=20
//        "-DCONST=const __code" -DGENERIC=__generic -DRFD_RCVC_ALWAYS_ON=FALSE
//        -DPOLL_RATE=1000 -DQUEUED_POLL_RATE=100 -DRESPONSE_POLL_RATE=100
//        -DREJOIN_POLL_RATE=440 -DREJOIN_BACKOFF=900000 -DREJOIN_SCAN=900000)
//        -f
//        D:\GitHub\TripleS_Zigbee\Projects\zstack\HomeAutomation\SampleThermostat\CC2530DB\..\..\..\Tools\CC2530DB\f8wZCL.cfg
//        D:\GitHub\TripleS_Zigbee\Projects\zstack\HomeAutomation\MY-SOURCE\uti.c
//        -D COORDINATOR -D SECURE=1 -D TC_LINKKEY_JOIN -D NV_INIT -D
//        NV_RESTORE -D xHOLD_AUTO_START -D ZTOOL_P1 -D MT_TASK -D MT_APP_FUNC
//        -D MT_SYS_FUNC -D MT_ZDO_FUNC -D LCD_SUPPORTED=DEBUG -D
//        MULTICAST_ENABLED=FALSE -D ZCL_READ -D ZCL_WRITE -D ZCL_REPORT -D
//        ZCL_EZMODE -D ZCL_BASIC -D ZCL_IDENTIFY -D ZCL_ON_OFF -D
//        ZCL_HVAC_CLUSTER -D xHAL_UART=TRUE -D xHAL_UART_DMA=1 -lC
//        D:\GitHub\TripleS_Zigbee\Projects\zstack\HomeAutomation\SampleThermostat\CC2530DB\CoordinatorEB\List
//        -lA
//        D:\GitHub\TripleS_Zigbee\Projects\zstack\HomeAutomation\SampleThermostat\CC2530DB\CoordinatorEB\List
//        --diag_suppress Pe001,Pa010 -o
//        D:\GitHub\TripleS_Zigbee\Projects\zstack\HomeAutomation\SampleThermostat\CC2530DB\CoordinatorEB\Obj
//        -e --debug --core=plain --dptr=16,1 --data_model=large
//        --code_model=banked --calling_convention=xdata_reentrant
//        --place_constants=data_rom --nr_virtual_regs 16 -I
//        D:\GitHub\TripleS_Zigbee\Projects\zstack\HomeAutomation\SampleThermostat\CC2530DB\
//        -I
//        D:\GitHub\TripleS_Zigbee\Projects\zstack\HomeAutomation\SampleThermostat\CC2530DB\..\Source\
//        -I
//        D:\GitHub\TripleS_Zigbee\Projects\zstack\HomeAutomation\SampleThermostat\CC2530DB\..\..\Source\
//        -I
//        D:\GitHub\TripleS_Zigbee\Projects\zstack\HomeAutomation\SampleThermostat\CC2530DB\..\..\..\HomeAutomation\MY-SOURCE\
//        -I
//        D:\GitHub\TripleS_Zigbee\Projects\zstack\HomeAutomation\SampleThermostat\CC2530DB\..\..\..\ZMain\TI2530DB\
//        -I
//        D:\GitHub\TripleS_Zigbee\Projects\zstack\HomeAutomation\SampleThermostat\CC2530DB\..\..\..\..\..\Components\hal\include\
//        -I
//        D:\GitHub\TripleS_Zigbee\Projects\zstack\HomeAutomation\SampleThermostat\CC2530DB\..\..\..\..\..\Components\hal\target\CC2530EB\
//        -I
//        D:\GitHub\TripleS_Zigbee\Projects\zstack\HomeAutomation\SampleThermostat\CC2530DB\..\..\..\..\..\Components\mac\include\
//        -I
//        D:\GitHub\TripleS_Zigbee\Projects\zstack\HomeAutomation\SampleThermostat\CC2530DB\..\..\..\..\..\Components\mac\high_level\
//        -I
//        D:\GitHub\TripleS_Zigbee\Projects\zstack\HomeAutomation\SampleThermostat\CC2530DB\..\..\..\..\..\Components\mac\low_level\srf04\
//        -I
//        D:\GitHub\TripleS_Zigbee\Projects\zstack\HomeAutomation\SampleThermostat\CC2530DB\..\..\..\..\..\Components\mac\low_level\srf04\single_chip\
//        -I
//        D:\GitHub\TripleS_Zigbee\Projects\zstack\HomeAutomation\SampleThermostat\CC2530DB\..\..\..\..\..\Components\mt\
//        -I
//        D:\GitHub\TripleS_Zigbee\Projects\zstack\HomeAutomation\SampleThermostat\CC2530DB\..\..\..\..\..\Components\osal\include\
//        -I
//        D:\GitHub\TripleS_Zigbee\Projects\zstack\HomeAutomation\SampleThermostat\CC2530DB\..\..\..\..\..\Components\services\saddr\
//        -I
//        D:\GitHub\TripleS_Zigbee\Projects\zstack\HomeAutomation\SampleThermostat\CC2530DB\..\..\..\..\..\Components\services\sdata\
//        -I
//        D:\GitHub\TripleS_Zigbee\Projects\zstack\HomeAutomation\SampleThermostat\CC2530DB\..\..\..\..\..\Components\stack\af\
//        -I
//        D:\GitHub\TripleS_Zigbee\Projects\zstack\HomeAutomation\SampleThermostat\CC2530DB\..\..\..\..\..\Components\stack\nwk\
//        -I
//        D:\GitHub\TripleS_Zigbee\Projects\zstack\HomeAutomation\SampleThermostat\CC2530DB\..\..\..\..\..\Components\stack\sapi\
//        -I
//        D:\GitHub\TripleS_Zigbee\Projects\zstack\HomeAutomation\SampleThermostat\CC2530DB\..\..\..\..\..\Components\stack\sec\
//        -I
//        D:\GitHub\TripleS_Zigbee\Projects\zstack\HomeAutomation\SampleThermostat\CC2530DB\..\..\..\..\..\Components\stack\sys\
//        -I
//        D:\GitHub\TripleS_Zigbee\Projects\zstack\HomeAutomation\SampleThermostat\CC2530DB\..\..\..\..\..\Components\stack\zcl\
//        -I
//        D:\GitHub\TripleS_Zigbee\Projects\zstack\HomeAutomation\SampleThermostat\CC2530DB\..\..\..\..\..\Components\stack\zdo\
//        -I
//        D:\GitHub\TripleS_Zigbee\Projects\zstack\HomeAutomation\SampleThermostat\CC2530DB\..\..\..\..\..\Components\zmac\
//        -I
//        D:\GitHub\TripleS_Zigbee\Projects\zstack\HomeAutomation\SampleThermostat\CC2530DB\..\..\..\..\..\Components\zmac\f8w\
//        -Ohz --require_prototypes
//    List file          =  
//        D:\GitHub\TripleS_Zigbee\Projects\zstack\HomeAutomation\SampleThermostat\CC2530DB\CoordinatorEB\List\uti.s51
//
///////////////////////////////////////////////////////////////////////////////

        NAME uti

        RTMODEL "__SystemLibrary", "CLib"
        RTMODEL "__calling_convention", "xdata_reentrant"
        RTMODEL "__code_model", "banked"
        RTMODEL "__core", "plain"
        RTMODEL "__data_model", "large"
        RTMODEL "__dptr_size", "16"
        RTMODEL "__extended_stack", "disabled"
        RTMODEL "__location_for_constants", "data"
        RTMODEL "__number_of_dptrs", "1"
        RTMODEL "__rt_version", "1"

        RSEG DOVERLAY:DATA:NOROOT(0)
        RSEG IOVERLAY:IDATA:NOROOT(0)
        RSEG ISTACK:IDATA:NOROOT(0)
        RSEG PSTACK:XDATA:NOROOT(0)
        RSEG XSTACK:XDATA:NOROOT(0)

        EXTERN ?BDISPATCH
        EXTERN ?BRET
        EXTERN __INIT_XDATA_Z

        PUBLIC `??Int16ToString::?relay`
        FUNCTION `??Int16ToString::?relay`,0203H
        PUBLIC `??Int8ToString::?relay`
        FUNCTION `??Int8ToString::?relay`,0203H
        PUBLIC Int16ToString
        FUNCTION Int16ToString,0203H
        ARGFRAME XSTACK, 0, STACK
        LOCFRAME ISTACK, 2, STACK
        PUBLIC Int8ToString
        FUNCTION Int8ToString,0203H
        ARGFRAME XSTACK, 0, STACK
        LOCFRAME ISTACK, 2, STACK
        
          CFI Names cfiNames0
          CFI StackFrame CFA_SP SP IDATA
          CFI StackFrame CFA_PSP16 PSP16 XDATA
          CFI StackFrame CFA_XSP16 XSP16 XDATA
          CFI StaticOverlayFrame CFA_IOVERLAY IOVERLAY
          CFI StaticOverlayFrame CFA_DOVERLAY DOVERLAY
          CFI Resource `PSW.CY`:1, `B.BR0`:1, `B.BR1`:1, `B.BR2`:1, `B.BR3`:1
          CFI Resource `B.BR4`:1, `B.BR5`:1, `B.BR6`:1, `B.BR7`:1, `VB.BR8`:1
          CFI Resource `VB.BR9`:1, `VB.BR10`:1, `VB.BR11`:1, `VB.BR12`:1
          CFI Resource `VB.BR13`:1, `VB.BR14`:1, `VB.BR15`:1, VB:8, B:8, A:8
          CFI Resource PSW:8, DPL0:8, DPH0:8, R0:8, R1:8, R2:8, R3:8, R4:8, R5:8
          CFI Resource R6:8, R7:8, V0:8, V1:8, V2:8, V3:8, V4:8, V5:8, V6:8, V7:8
          CFI Resource V8:8, V9:8, V10:8, V11:8, V12:8, V13:8, V14:8, V15:8, SP:8
          CFI Resource PSPH:8, PSPL:8, PSP16:16, XSPH:8, XSPL:8, XSP16:16
          CFI VirtualResource ?RET:24
          CFI Resource ?BRET_EXT:8
          CFI VirtualResource ?RET_HIGH:8, ?RET_LOW:8
          CFI ResourceParts PSP16 PSPH, PSPL
          CFI ResourceParts XSP16 XSPH, XSPL
          CFI ResourceParts ?RET ?BRET_EXT, ?RET_HIGH, ?RET_LOW
          CFI EndNames cfiNames0
        
          CFI Common cfiCommon0 Using cfiNames0
          CFI CodeAlign 1
          CFI DataAlign -1
          CFI ReturnAddress ?RET CODE
          CFI CFA_DOVERLAY Used
          CFI CFA_IOVERLAY Used
          CFI CFA_SP SP+-3
          CFI CFA_PSP16 PSP16+0
          CFI CFA_XSP16 XSP16+0
          CFI `PSW.CY` SameValue
          CFI `B.BR0` SameValue
          CFI `B.BR1` SameValue
          CFI `B.BR2` SameValue
          CFI `B.BR3` SameValue
          CFI `B.BR4` SameValue
          CFI `B.BR5` SameValue
          CFI `B.BR6` SameValue
          CFI `B.BR7` SameValue
          CFI `VB.BR8` SameValue
          CFI `VB.BR9` SameValue
          CFI `VB.BR10` SameValue
          CFI `VB.BR11` SameValue
          CFI `VB.BR12` SameValue
          CFI `VB.BR13` SameValue
          CFI `VB.BR14` SameValue
          CFI `VB.BR15` SameValue
          CFI VB SameValue
          CFI B Undefined
          CFI A Undefined
          CFI PSW SameValue
          CFI DPL0 SameValue
          CFI DPH0 SameValue
          CFI R0 Undefined
          CFI R1 Undefined
          CFI R2 Undefined
          CFI R3 Undefined
          CFI R4 Undefined
          CFI R5 Undefined
          CFI R6 SameValue
          CFI R7 SameValue
          CFI V0 SameValue
          CFI V1 SameValue
          CFI V2 SameValue
          CFI V3 SameValue
          CFI V4 SameValue
          CFI V5 SameValue
          CFI V6 SameValue
          CFI V7 SameValue
          CFI V8 SameValue
          CFI V9 SameValue
          CFI V10 SameValue
          CFI V11 SameValue
          CFI V12 SameValue
          CFI V13 SameValue
          CFI V14 SameValue
          CFI V15 SameValue
          CFI PSPH Undefined
          CFI PSPL Undefined
          CFI XSPH Undefined
          CFI XSPL Undefined
          CFI ?RET Concat
          CFI ?BRET_EXT Frame(CFA_SP, 3)
          CFI ?RET_HIGH Frame(CFA_SP, 2)
          CFI ?RET_LOW Frame(CFA_SP, 1)
          CFI EndCommon cfiCommon0
        
Int16ToString       SYMBOL "Int16ToString"
`??Int16ToString::?relay` SYMBOL "?relay", Int16ToString
Int8ToString        SYMBOL "Int8ToString"
`??Int8ToString::?relay` SYMBOL "?relay", Int8ToString

// D:\GitHub\TripleS_Zigbee\Projects\zstack\HomeAutomation\MY-SOURCE\uti.c
//    1 #include "uti.h"
//    2 #include "ZComDef.h"
//    3 

        RSEG BANKED_CODE:HUGECODE:NOROOT(0)
//    4 uint8 * Int16ToString(uint16 value)
Int16ToString:
          CFI Block cfiBlock0 Using cfiCommon0
          CFI Function Int16ToString
        CODE
//    5 {
        PUSH    DPL
          CFI DPL0 Frame(CFA_SP, 4)
          CFI CFA_SP SP+-4
        PUSH    DPH
          CFI DPH0 Frame(CFA_SP, 5)
          CFI CFA_SP SP+-5
        ; Saved register size: 2
        ; Auto size: 0
//    6   uint8 t = (uint8)(value&0x00FF);
        MOV     A,R2
        MOV     R0,A
//    7   uint8 t1 = (uint8)(value>>8);
        MOV     A,R3
        MOV     R1,A
//    8   static uint8 a[4];
//    9   a[3] = (t&0x0F);
        MOV     A,#0xf
        ANL     A,R0
        MOV     DPTR,#??a + 3
        MOVX    @DPTR,A
//   10   a[2] = (t>>4);
        MOV     A,R0
        SWAP    A
        ANL     A,#0xf
        MOV     DPTR,#??a + 2
        MOVX    @DPTR,A
//   11   a[1] = (t1&0x0F);
        MOV     A,#0xf
        ANL     A,R1
        MOV     DPTR,#??a + 1
        MOVX    @DPTR,A
//   12   a[0] = (t1>>4); 
        MOV     A,R1
        SWAP    A
        ANL     A,#0xf
        MOV     DPTR,#??a
        MOVX    @DPTR,A
//   13   for (uint8 i = 0; i < 4; i++){
        MOV     R2,#0x0
//   14     if (a[i] > 9){
??Int16ToString_0:
        MOV     A,R2
        MOV     R0,A
        MOV     A,#??a & 0xff
        ADD     A,R0
        MOV     DPL,A
        CLR     A
        ADDC    A,#(??a >> 8) & 0xff
        MOV     DPH,A
        MOVX    A,@DPTR
        CLR     C
        SUBB    A,#0xa
        MOVX    A,@DPTR
        JC      ??Int16ToString_1
//   15       a[i] = a[i] + 55;
        ADD     A,#0x37
        SJMP    ??Int16ToString_2
//   16     }
//   17     else{
//   18       a[i] = a[i] + 48;
??Int16ToString_1:
        ADD     A,#0x30
??Int16ToString_2:
        MOVX    @DPTR,A
//   19     }
//   20   }
        INC     R2
        MOV     A,R2
        CLR     C
        SUBB    A,#0x4
        JC      ??Int16ToString_0
//   21   return a;
        MOV     R2,#??a & 0xff
        MOV     R3,#(??a >> 8) & 0xff
          CFI EndBlock cfiBlock0
        REQUIRE ?Subroutine0
        ; // Fall through to label ?Subroutine0
//   22 }

        RSEG BANKED_CODE:HUGECODE:NOROOT(0)
?Subroutine0:
          CFI Block cfiBlock1 Using cfiCommon0
          CFI NoFunction
          CFI CFA_SP SP+-5
          CFI DPL0 Frame(CFA_SP, 4)
          CFI DPH0 Frame(CFA_SP, 5)
        POP     DPH
          CFI CFA_SP SP+-4
          CFI DPH0 SameValue
        POP     DPL
          CFI CFA_SP SP+-3
          CFI DPL0 SameValue
        LJMP    ?BRET
          CFI EndBlock cfiBlock1

        RSEG XDATA_Z:XDATA:NOROOT(0)
        DATA32
??a:
        DS 4
        REQUIRE __INIT_XDATA_Z
//   23 

        RSEG BANKED_CODE:HUGECODE:NOROOT(0)
//   24 uint8* Int8ToString(uint8 value)
Int8ToString:
          CFI Block cfiBlock2 Using cfiCommon0
          CFI Function Int8ToString
        CODE
//   25 {
        PUSH    DPL
          CFI DPL0 Frame(CFA_SP, 4)
          CFI CFA_SP SP+-4
        PUSH    DPH
          CFI DPH0 Frame(CFA_SP, 5)
          CFI CFA_SP SP+-5
        ; Saved register size: 2
        ; Auto size: 0
//   26   static uint8 a[2];
//   27   a[1] = value&0x0F;
        MOV     A,#0xf
        ANL     A,R1
        MOV     DPTR,#??a_1 + 1
        MOVX    @DPTR,A
//   28   a[0] = value>>4;
        MOV     A,R1
        SWAP    A
        ANL     A,#0xf
        MOV     DPTR,#??a_1
        MOVX    @DPTR,A
//   29   for (uint8 i = 0; i < 2; i++){
        MOV     R0,#0x0
//   30     if (a[i] > 9){
??Int8ToString_0:
        MOV     A,R0
        MOV     R2,A
        MOV     A,#??a_1 & 0xff
        ADD     A,R2
        MOV     DPL,A
        CLR     A
        ADDC    A,#(??a_1 >> 8) & 0xff
        MOV     DPH,A
        MOVX    A,@DPTR
        CLR     C
        SUBB    A,#0xa
        MOVX    A,@DPTR
        JC      ??Int8ToString_1
//   31       a[i] = a[i] + 55;
        ADD     A,#0x37
        SJMP    ??Int8ToString_2
//   32     }
//   33     else{
//   34       a[i] = a[i] + 48;
??Int8ToString_1:
        ADD     A,#0x30
??Int8ToString_2:
        MOVX    @DPTR,A
//   35     }
//   36   }
        INC     R0
        MOV     A,R0
        CLR     C
        SUBB    A,#0x2
        JC      ??Int8ToString_0
//   37   return a;
        MOV     R2,#??a_1 & 0xff
        MOV     R3,#(??a_1 >> 8) & 0xff
        SJMP    ?Subroutine0
//   38 }
          CFI EndBlock cfiBlock2

        RSEG XDATA_Z:XDATA:NOROOT(0)
        DATA16
??a_1:
        DS 2
        REQUIRE __INIT_XDATA_Z

        RSEG BANK_RELAYS:CODE:REORDER:NOROOT(0)
`??Int16ToString::?relay`:
        CODE
        LCALL   ?BDISPATCH
        DATA24
        DC24    Int16ToString

        RSEG BANK_RELAYS:CODE:REORDER:NOROOT(0)
`??Int8ToString::?relay`:
        CODE
        LCALL   ?BDISPATCH
        DATA24
        DC24    Int8ToString

        END
// 
// 144 bytes in segment BANKED_CODE
//  12 bytes in segment BANK_RELAYS
//   6 bytes in segment XDATA_Z
// 
//  12 bytes of CODE     memory
// 144 bytes of HUGECODE memory
//   6 bytes of XDATA    memory
//
//Errors: none
//Warnings: none
