///////////////////////////////////////////////////////////////////////////////
//
// IAR C/C++ Compiler V9.30.3.3983 for 8051               14/Mar/2017  17:15:58
// Copyright 2004-2016 IAR Systems AB.
// Standalone license - IAR Embedded Workbench for 8051
//
//    Core               =  plain
//    Code model         =  banked
//    Data model         =  large
//    Calling convention =  xdata reentrant
//    Constant location  =  data_rom
//    Dptr setup         =  1,16
//                          
//    Source file        =  
//        D:\GitHub\TripleS_Zigbee\Projects\zstack\HomeAutomation\SampleThermostat\Source\zcl_samplethermostat.c
//    Command line       =  
//        -f
//        D:\GitHub\TripleS_Zigbee\Projects\zstack\HomeAutomation\SampleThermostat\CC2530DB\..\..\..\Tools\CC2530DB\f8wCoord.cfg
//        (-DCPU32MHZ -DROOT=__near_func -DMAC_CFG_APP_PENDING_QUEUE=TRUE
//        -DMAC_CFG_TX_DATA_MAX=5 -DMAC_CFG_TX_MAX=8 -DMAC_CFG_RX_MAX=5
//        -DZDO_COORDINATOR -DRTR_NWK) -f
//        D:\GitHub\TripleS_Zigbee\Projects\zstack\HomeAutomation\SampleThermostat\CC2530DB\..\..\..\Tools\CC2530DB\f8wConfig.cfg
//        (-DZIGBEEPRO -DSECURE=1 -DZG_SECURE_DYNAMIC=0 -DREFLECTOR
//        -DDEFAULT_CHANLIST=0x00000800 -DZDAPP_CONFIG_PAN_ID=0xFAFA
//        -DNWK_START_DELAY=100 -DEXTENDED_JOINING_RANDOM_MASK=0x007F
//        -DBEACON_REQUEST_DELAY=100 -DBEACON_REQ_DELAY_MASK=0x00FF
//        -DLINK_STATUS_JITTER_MASK=0x007F -DROUTE_EXPIRY_TIME=30
//        -DAPSC_ACK_WAIT_DURATION_POLLED=3000 -DNWK_INDIRECT_MSG_TIMEOUT=7
//        -DMAX_RREQ_ENTRIES=8 -DAPSC_MAX_FRAME_RETRIES=3
//        -DNWK_MAX_DATA_RETRIES=2 -DMAX_POLL_FAILURE_RETRIES=2 -DMAX_BCAST=9
//        -DAPS_MAX_GROUPS=16 -DMAX_RTG_ENTRIES=40 -DNWK_MAX_BINDING_ENTRIES=4
//        -DMAX_BINDING_CLUSTER_IDS=4 "-DDEFAULT_KEY={0x01, 0x03, 0x05, 0x07,
//        0x09, 0x0B, 0x0D, 0x0F, 0x00, 0x02, 0x04, 0x06, 0x08, 0x0A, 0x0C,
//        0x0D}" -DMAC_MAX_FRAME_SIZE=116 -DZDNWKMGR_MIN_TRANSMISSIONS=20
//        "-DCONST=const __code" -DGENERIC=__generic -DRFD_RCVC_ALWAYS_ON=FALSE
//        -DPOLL_RATE=1000 -DQUEUED_POLL_RATE=100 -DRESPONSE_POLL_RATE=100
//        -DREJOIN_POLL_RATE=440 -DREJOIN_BACKOFF=900000 -DREJOIN_SCAN=900000)
//        -f
//        D:\GitHub\TripleS_Zigbee\Projects\zstack\HomeAutomation\SampleThermostat\CC2530DB\..\..\..\Tools\CC2530DB\f8wZCL.cfg
//        D:\GitHub\TripleS_Zigbee\Projects\zstack\HomeAutomation\SampleThermostat\Source\zcl_samplethermostat.c
//        -D COORDINATOR -D SECURE=1 -D TC_LINKKEY_JOIN -D NV_INIT -D
//        NV_RESTORE -D xHOLD_AUTO_START -D ZTOOL_P1 -D MT_TASK -D MT_APP_FUNC
//        -D MT_SYS_FUNC -D MT_ZDO_FUNC -D LCD_SUPPORTED=DEBUG -D
//        MULTICAST_ENABLED=FALSE -D ZCL_READ -D ZCL_WRITE -D ZCL_REPORT -D
//        ZCL_EZMODE -D ZCL_BASIC -D ZCL_IDENTIFY -D ZCL_ON_OFF -D
//        ZCL_HVAC_CLUSTER -D xHAL_UART=TRUE -D xHAL_UART_DMA=1 -lC
//        D:\GitHub\TripleS_Zigbee\Projects\zstack\HomeAutomation\SampleThermostat\CC2530DB\CoordinatorEB\List
//        -lA
//        D:\GitHub\TripleS_Zigbee\Projects\zstack\HomeAutomation\SampleThermostat\CC2530DB\CoordinatorEB\List
//        --diag_suppress Pe001,Pa010 -o
//        D:\GitHub\TripleS_Zigbee\Projects\zstack\HomeAutomation\SampleThermostat\CC2530DB\CoordinatorEB\Obj
//        -e --debug --core=plain --dptr=16,1 --data_model=large
//        --code_model=banked --calling_convention=xdata_reentrant
//        --place_constants=data_rom --nr_virtual_regs 16 -I
//        D:\GitHub\TripleS_Zigbee\Projects\zstack\HomeAutomation\SampleThermostat\CC2530DB\
//        -I
//        D:\GitHub\TripleS_Zigbee\Projects\zstack\HomeAutomation\SampleThermostat\CC2530DB\..\Source\
//        -I
//        D:\GitHub\TripleS_Zigbee\Projects\zstack\HomeAutomation\SampleThermostat\CC2530DB\..\..\Source\
//        -I
//        D:\GitHub\TripleS_Zigbee\Projects\zstack\HomeAutomation\SampleThermostat\CC2530DB\..\..\..\HomeAutomation\MY-SOURCE\
//        -I
//        D:\GitHub\TripleS_Zigbee\Projects\zstack\HomeAutomation\SampleThermostat\CC2530DB\..\..\..\ZMain\TI2530DB\
//        -I
//        D:\GitHub\TripleS_Zigbee\Projects\zstack\HomeAutomation\SampleThermostat\CC2530DB\..\..\..\..\..\Components\hal\include\
//        -I
//        D:\GitHub\TripleS_Zigbee\Projects\zstack\HomeAutomation\SampleThermostat\CC2530DB\..\..\..\..\..\Components\hal\target\CC2530EB\
//        -I
//        D:\GitHub\TripleS_Zigbee\Projects\zstack\HomeAutomation\SampleThermostat\CC2530DB\..\..\..\..\..\Components\mac\include\
//        -I
//        D:\GitHub\TripleS_Zigbee\Projects\zstack\HomeAutomation\SampleThermostat\CC2530DB\..\..\..\..\..\Components\mac\high_level\
//        -I
//        D:\GitHub\TripleS_Zigbee\Projects\zstack\HomeAutomation\SampleThermostat\CC2530DB\..\..\..\..\..\Components\mac\low_level\srf04\
//        -I
//        D:\GitHub\TripleS_Zigbee\Projects\zstack\HomeAutomation\SampleThermostat\CC2530DB\..\..\..\..\..\Components\mac\low_level\srf04\single_chip\
//        -I
//        D:\GitHub\TripleS_Zigbee\Projects\zstack\HomeAutomation\SampleThermostat\CC2530DB\..\..\..\..\..\Components\mt\
//        -I
//        D:\GitHub\TripleS_Zigbee\Projects\zstack\HomeAutomation\SampleThermostat\CC2530DB\..\..\..\..\..\Components\osal\include\
//        -I
//        D:\GitHub\TripleS_Zigbee\Projects\zstack\HomeAutomation\SampleThermostat\CC2530DB\..\..\..\..\..\Components\services\saddr\
//        -I
//        D:\GitHub\TripleS_Zigbee\Projects\zstack\HomeAutomation\SampleThermostat\CC2530DB\..\..\..\..\..\Components\services\sdata\
//        -I
//        D:\GitHub\TripleS_Zigbee\Projects\zstack\HomeAutomation\SampleThermostat\CC2530DB\..\..\..\..\..\Components\stack\af\
//        -I
//        D:\GitHub\TripleS_Zigbee\Projects\zstack\HomeAutomation\SampleThermostat\CC2530DB\..\..\..\..\..\Components\stack\nwk\
//        -I
//        D:\GitHub\TripleS_Zigbee\Projects\zstack\HomeAutomation\SampleThermostat\CC2530DB\..\..\..\..\..\Components\stack\sapi\
//        -I
//        D:\GitHub\TripleS_Zigbee\Projects\zstack\HomeAutomation\SampleThermostat\CC2530DB\..\..\..\..\..\Components\stack\sec\
//        -I
//        D:\GitHub\TripleS_Zigbee\Projects\zstack\HomeAutomation\SampleThermostat\CC2530DB\..\..\..\..\..\Components\stack\sys\
//        -I
//        D:\GitHub\TripleS_Zigbee\Projects\zstack\HomeAutomation\SampleThermostat\CC2530DB\..\..\..\..\..\Components\stack\zcl\
//        -I
//        D:\GitHub\TripleS_Zigbee\Projects\zstack\HomeAutomation\SampleThermostat\CC2530DB\..\..\..\..\..\Components\stack\zdo\
//        -I
//        D:\GitHub\TripleS_Zigbee\Projects\zstack\HomeAutomation\SampleThermostat\CC2530DB\..\..\..\..\..\Components\zmac\
//        -I
//        D:\GitHub\TripleS_Zigbee\Projects\zstack\HomeAutomation\SampleThermostat\CC2530DB\..\..\..\..\..\Components\zmac\f8w\
//        -Ohz --require_prototypes
//    List file          =  
//        D:\GitHub\TripleS_Zigbee\Projects\zstack\HomeAutomation\SampleThermostat\CC2530DB\CoordinatorEB\List\zcl_samplethermostat.s51
//
///////////////////////////////////////////////////////////////////////////////

        NAME zcl_samplethermostat

        RTMODEL "__SystemLibrary", "CLib"
        RTMODEL "__calling_convention", "xdata_reentrant"
        RTMODEL "__code_model", "banked"
        RTMODEL "__core", "plain"
        RTMODEL "__data_model", "large"
        RTMODEL "__dptr_size", "16"
        RTMODEL "__extended_stack", "disabled"
        RTMODEL "__location_for_constants", "data"
        RTMODEL "__number_of_dptrs", "1"
        RTMODEL "__rt_version", "1"

        RSEG DOVERLAY:DATA:NOROOT(0)
        RSEG IOVERLAY:IDATA:NOROOT(0)
        RSEG ISTACK:IDATA:NOROOT(0)
        RSEG PSTACK:XDATA:NOROOT(0)
        RSEG XSTACK:XDATA:NOROOT(0)

        EXTERN ?V0
        EXTERN ?V1
        EXTERN ?V2
        EXTERN ?V3
        EXTERN ?V4
        EXTERN ?V5
        EXTERN ?V6
        EXTERN ?V7
        EXTERN ?V8
        EXTERN ?V9
        EXTERN ?V10
        EXTERN ?V11
        EXTERN ?V12
        EXTERN ?V13
        EXTERN ?V14
        EXTERN ?V15
        EXTERN ?ALLOC_XSTACK8
        EXTERN ?BANKED_ENTER_XDATA
        EXTERN ?BANKED_LEAVE_XDATA
        EXTERN ?BDISPATCH
        EXTERN ?BRET
        EXTERN ?DEALLOC_XSTACK8
        EXTERN ?PUSH_XSTACK8_X_FOUR
        EXTERN ?PUSH_XSTACK8_X_TWO
        EXTERN ?PUSH_XSTACK_I_ONE
        EXTERN ?PUSH_XSTACK_I_THREE
        EXTERN ?PUSH_XSTACK_I_TWO
        EXTERN ?S_DIV_MOD
        EXTERN ?XSP
        EXTERN ?XSTACK_DISP0_8
        EXTERN ?XSTACK_DISP100_8
        EXTERN ?XSTACK_DISP101_8
        EXTERN ?XSTACK_DISP102_8
        EXTERN __INIT_XDATA_I
        EXTERN __INIT_XDATA_Z

        FUNCTION `??zclSampleThermostat_BasicResetCB::?relay`,0203H
        PUBLIC `??zclSampleThermostat_BindingProcess::?relay`
        FUNCTION `??zclSampleThermostat_BindingProcess::?relay`,0203H
        FUNCTION `??zclSampleThermostat_EZModeCB::?relay`,0203H
        FUNCTION `??zclSampleThermostat_HandleKeys::?relay`,0203H
        FUNCTION `??zclSampleThermostat_IdentifyCB::?relay`,0203H
        FUNCTION `??zclSampleThermostat_IdentifyQueryRspCB::?rela`,0203H
        PUBLIC `??zclSampleThermostat_Init::?relay`
        FUNCTION `??zclSampleThermostat_Init::?relay`,0203H
        PUBLIC `??zclSampleThermostat_LcdDisplayCoolMode::?rela`
        FUNCTION `??zclSampleThermostat_LcdDisplayCoolMode::?rela`,0203H
        PUBLIC `??zclSampleThermostat_LcdDisplayHeatMode::?rela`
        FUNCTION `??zclSampleThermostat_LcdDisplayHeatMode::?rela`,0203H
        PUBLIC `??zclSampleThermostat_LcdDisplayHelpMode::?rela`
        FUNCTION `??zclSampleThermostat_LcdDisplayHelpMode::?rela`,0203H
        PUBLIC `??zclSampleThermostat_LcdDisplayMainMode::?rela`
        FUNCTION `??zclSampleThermostat_LcdDisplayMainMode::?rela`,0203H
        PUBLIC `??zclSampleThermostat_LcdDisplayUpdate::?relay`
        FUNCTION `??zclSampleThermostat_LcdDisplayUpdate::?relay`,0203H
        FUNCTION `??zclSampleThermostat_ProcessAppMsg::?relay`,0203H
        FUNCTION `??zclSampleThermostat_ProcessFoundationMsg::?re`,0203H
        FUNCTION ??zclSampleThermostat_ProcessIdentifyTimeChange,0203H
        FUNCTION `??zclSampleThermostat_ProcessInReportCmd::?rela`,0203H
        PUBLIC `??zclSampleThermostat_SendC::?relay`
        FUNCTION `??zclSampleThermostat_SendC::?relay`,0203H
        PUBLIC `??zclSampleThermostat_SendFreeData::?relay`
        FUNCTION `??zclSampleThermostat_SendFreeData::?relay`,0203H
        PUBLIC `??zclSampleThermostat_event_loop::?relay`
        FUNCTION `??zclSampleThermostat_event_loop::?relay`,0203H
        PUBWEAK __Constant_1388
        PUBWEAK __Constant_2710
        PUBWEAK __Constant_3e8
        PUBWEAK __Constant_a
        PUBWEAK __Constant_bb8
        PUBLIC giThermostatScreenMode
        PUBLIC sClearLine
        PUBLIC sDeviceName
        PUBLIC sStoreCoolTemp
        PUBLIC sStoreHeatTemp
        PUBLIC sSwCoolSet
        PUBLIC sSwEZMode
        PUBLIC sSwHeatSet
        PUBLIC sSwHelp
        PUBLIC sTempLine2
        PUBLIC sTempLine3
        PUBLIC zclSampleThermostatSeqNum
        FUNCTION zclSampleThermostat_BasicResetCB,021603H
        ARGFRAME XSTACK, 29, STACK
        ARGFRAME IOVERLAY, 0, STATIC
        ARGFRAME DOVERLAY, 0, STATIC
        LOCFRAME ISTACK, 2, STACK
        PUBLIC zclSampleThermostat_BindingProcess
        FUNCTION zclSampleThermostat_BindingProcess,021203H
        ARGFRAME XSTACK, 16, STACK
        ARGFRAME IOVERLAY, 0, STATIC
        ARGFRAME DOVERLAY, 0, STATIC
        LOCFRAME ISTACK, 2, STACK
        LOCFRAME XSTACK, 9, STACK
        PUBLIC zclSampleThermostat_DstAddr
        FUNCTION zclSampleThermostat_EZModeCB,0a1603H
        ARGFRAME XSTACK, 0, STACK
        LOCFRAME XSTACK, 39, STACK
        FUNCTION zclSampleThermostat_HandleKeys,0a1203H
        ARGFRAME XSTACK, 16, STACK
        ARGFRAME IOVERLAY, 0, STATIC
        ARGFRAME DOVERLAY, 0, STATIC
        LOCFRAME XSTACK, 29, STACK
        FUNCTION zclSampleThermostat_IdentifyCB,021603H
        ARGFRAME XSTACK, 0, STACK
        LOCFRAME ISTACK, 2, STACK
        FUNCTION zclSampleThermostat_IdentifyQueryRspCB,021603H
        ARGFRAME XSTACK, 0, STACK
        LOCFRAME ISTACK, 2, STACK
        LOCFRAME XSTACK, 2, STACK
        PUBLIC zclSampleThermostat_Init
        FUNCTION zclSampleThermostat_Init,0a1203H
        ARGFRAME XSTACK, 0, STACK
        LOCFRAME XSTACK, 14, STACK
        PUBLIC zclSampleThermostat_LcdDisplayCoolMode
        FUNCTION zclSampleThermostat_LcdDisplayCoolMode,0a1203H
        ARGFRAME XSTACK, 0, STACK
        ARGFRAME IOVERLAY, 0, STATIC
        ARGFRAME DOVERLAY, 0, STATIC
        LOCFRAME XSTACK, 30, STACK
        PUBLIC zclSampleThermostat_LcdDisplayHeatMode
        FUNCTION zclSampleThermostat_LcdDisplayHeatMode,0a1203H
        ARGFRAME XSTACK, 0, STACK
        ARGFRAME IOVERLAY, 0, STATIC
        ARGFRAME DOVERLAY, 0, STATIC
        LOCFRAME XSTACK, 30, STACK
        PUBLIC zclSampleThermostat_LcdDisplayHelpMode
        FUNCTION zclSampleThermostat_LcdDisplayHelpMode,021203H
        ARGFRAME XSTACK, 0, STACK
        ARGFRAME IOVERLAY, 0, STATIC
        ARGFRAME DOVERLAY, 0, STATIC
        LOCFRAME ISTACK, 2, STACK
        PUBLIC zclSampleThermostat_LcdDisplayMainMode
        FUNCTION zclSampleThermostat_LcdDisplayMainMode,0a1203H
        ARGFRAME XSTACK, 0, STACK
        ARGFRAME IOVERLAY, 0, STATIC
        ARGFRAME DOVERLAY, 0, STATIC
        LOCFRAME XSTACK, 30, STACK
        PUBLIC zclSampleThermostat_LcdDisplayUpdate
        FUNCTION zclSampleThermostat_LcdDisplayUpdate,021203H
        ARGFRAME XSTACK, 29, STACK
        ARGFRAME IOVERLAY, 0, STATIC
        ARGFRAME DOVERLAY, 0, STATIC
        LOCFRAME ISTACK, 4, STACK
        PUBLIC zclSampleThermostat_NwkState
        FUNCTION zclSampleThermostat_ProcessAppMsg,0a1203H
        ARGFRAME XSTACK, 16, STACK
        ARGFRAME IOVERLAY, 0, STATIC
        ARGFRAME DOVERLAY, 0, STATIC
        LOCFRAME ISTACK, 1, STACK
        LOCFRAME XSTACK, 52, STACK
        FUNCTION zclSampleThermostat_ProcessFoundationMsg,0a1203H
        ARGFRAME XSTACK, 45, STACK
        ARGFRAME IOVERLAY, 0, STATIC
        ARGFRAME DOVERLAY, 0, STATIC
        LOCFRAME XSTACK, 29, STACK
        FUNCTION zclSampleThermostat_ProcessIdentifyTimeChange,021203H
        ARGFRAME XSTACK, 35, STACK
        ARGFRAME IOVERLAY, 0, STATIC
        ARGFRAME DOVERLAY, 0, STATIC
        LOCFRAME ISTACK, 2, STACK
        LOCFRAME XSTACK, 4, STACK
        FUNCTION zclSampleThermostat_ProcessInReportCmd,0a1203H
        ARGFRAME XSTACK, 16, STACK
        ARGFRAME IOVERLAY, 0, STATIC
        ARGFRAME DOVERLAY, 0, STATIC
        LOCFRAME ISTACK, 1, STACK
        LOCFRAME XSTACK, 62, STACK
        PUBLIC zclSampleThermostat_SendC
        FUNCTION zclSampleThermostat_SendC,0a1203H
        ARGFRAME XSTACK, 0, STACK
        LOCFRAME ISTACK, 1, STACK
        LOCFRAME XSTACK, 46, STACK
        PUBLIC zclSampleThermostat_SendFreeData
        FUNCTION zclSampleThermostat_SendFreeData,0a1203H
        ARGFRAME XSTACK, 0, STACK
        LOCFRAME XSTACK, 29, STACK
        PUBLIC zclSampleThermostat_TaskID
        PUBLIC zclSampleThermostat_event_loop
        FUNCTION zclSampleThermostat_event_loop,0a1203H
        ARGFRAME XSTACK, 0, STACK
        LOCFRAME XSTACK, 20, STACK
        
          CFI Names cfiNames0
          CFI StackFrame CFA_SP SP IDATA
          CFI StackFrame CFA_PSP16 PSP16 XDATA
          CFI StackFrame CFA_XSP16 XSP16 XDATA
          CFI StaticOverlayFrame CFA_IOVERLAY IOVERLAY
          CFI StaticOverlayFrame CFA_DOVERLAY DOVERLAY
          CFI Resource `PSW.CY`:1, `B.BR0`:1, `B.BR1`:1, `B.BR2`:1, `B.BR3`:1
          CFI Resource `B.BR4`:1, `B.BR5`:1, `B.BR6`:1, `B.BR7`:1, `VB.BR8`:1
          CFI Resource `VB.BR9`:1, `VB.BR10`:1, `VB.BR11`:1, `VB.BR12`:1
          CFI Resource `VB.BR13`:1, `VB.BR14`:1, `VB.BR15`:1, VB:8, B:8, A:8
          CFI Resource PSW:8, DPL0:8, DPH0:8, R0:8, R1:8, R2:8, R3:8, R4:8, R5:8
          CFI Resource R6:8, R7:8, V0:8, V1:8, V2:8, V3:8, V4:8, V5:8, V6:8, V7:8
          CFI Resource V8:8, V9:8, V10:8, V11:8, V12:8, V13:8, V14:8, V15:8, SP:8
          CFI Resource PSPH:8, PSPL:8, PSP16:16, XSPH:8, XSPL:8, XSP16:16
          CFI VirtualResource ?RET:24
          CFI Resource ?BRET_EXT:8
          CFI VirtualResource ?RET_HIGH:8, ?RET_LOW:8
          CFI ResourceParts PSP16 PSPH, PSPL
          CFI ResourceParts XSP16 XSPH, XSPL
          CFI ResourceParts ?RET ?BRET_EXT, ?RET_HIGH, ?RET_LOW
          CFI EndNames cfiNames0
        
          CFI Common cfiCommon0 Using cfiNames0
          CFI CodeAlign 1
          CFI DataAlign -1
          CFI ReturnAddress ?RET CODE
          CFI CFA_DOVERLAY Used
          CFI CFA_IOVERLAY Used
          CFI CFA_SP SP+-3
          CFI CFA_PSP16 PSP16+0
          CFI CFA_XSP16 XSP16+0
          CFI `PSW.CY` SameValue
          CFI `B.BR0` SameValue
          CFI `B.BR1` SameValue
          CFI `B.BR2` SameValue
          CFI `B.BR3` SameValue
          CFI `B.BR4` SameValue
          CFI `B.BR5` SameValue
          CFI `B.BR6` SameValue
          CFI `B.BR7` SameValue
          CFI `VB.BR8` SameValue
          CFI `VB.BR9` SameValue
          CFI `VB.BR10` SameValue
          CFI `VB.BR11` SameValue
          CFI `VB.BR12` SameValue
          CFI `VB.BR13` SameValue
          CFI `VB.BR14` SameValue
          CFI `VB.BR15` SameValue
          CFI VB SameValue
          CFI B Undefined
          CFI A Undefined
          CFI PSW SameValue
          CFI DPL0 SameValue
          CFI DPH0 SameValue
          CFI R0 Undefined
          CFI R1 Undefined
          CFI R2 Undefined
          CFI R3 Undefined
          CFI R4 Undefined
          CFI R5 Undefined
          CFI R6 SameValue
          CFI R7 SameValue
          CFI V0 SameValue
          CFI V1 SameValue
          CFI V2 SameValue
          CFI V3 SameValue
          CFI V4 SameValue
          CFI V5 SameValue
          CFI V6 SameValue
          CFI V7 SameValue
          CFI V8 SameValue
          CFI V9 SameValue
          CFI V10 SameValue
          CFI V11 SameValue
          CFI V12 SameValue
          CFI V13 SameValue
          CFI V14 SameValue
          CFI V15 SameValue
          CFI PSPH Undefined
          CFI PSPL Undefined
          CFI XSPH Undefined
          CFI XSPL Undefined
          CFI ?RET Concat
          CFI ?BRET_EXT Frame(CFA_SP, 3)
          CFI ?RET_HIGH Frame(CFA_SP, 2)
          CFI ?RET_LOW Frame(CFA_SP, 1)
          CFI EndCommon cfiCommon0
        
        
          CFI Common cfiCommon1 Using cfiNames0
          CFI CodeAlign 1
          CFI DataAlign -1
          CFI ReturnAddress ?RET CODE
          CFI CFA_DOVERLAY Used
          CFI CFA_IOVERLAY Used
          CFI CFA_SP SP+-2
          CFI CFA_PSP16 PSP16+0
          CFI CFA_XSP16 XSP16+0
          CFI `PSW.CY` SameValue
          CFI `B.BR0` SameValue
          CFI `B.BR1` SameValue
          CFI `B.BR2` SameValue
          CFI `B.BR3` SameValue
          CFI `B.BR4` SameValue
          CFI `B.BR5` SameValue
          CFI `B.BR6` SameValue
          CFI `B.BR7` SameValue
          CFI `VB.BR8` SameValue
          CFI `VB.BR9` SameValue
          CFI `VB.BR10` SameValue
          CFI `VB.BR11` SameValue
          CFI `VB.BR12` SameValue
          CFI `VB.BR13` SameValue
          CFI `VB.BR14` SameValue
          CFI `VB.BR15` SameValue
          CFI VB SameValue
          CFI B SameValue
          CFI A SameValue
          CFI PSW SameValue
          CFI DPL0 SameValue
          CFI DPH0 SameValue
          CFI R0 SameValue
          CFI R1 SameValue
          CFI R2 SameValue
          CFI R3 SameValue
          CFI R4 SameValue
          CFI R5 SameValue
          CFI R6 SameValue
          CFI R7 SameValue
          CFI V0 SameValue
          CFI V1 SameValue
          CFI V2 SameValue
          CFI V3 SameValue
          CFI V4 SameValue
          CFI V5 SameValue
          CFI V6 SameValue
          CFI V7 SameValue
          CFI V8 SameValue
          CFI V9 SameValue
          CFI V10 SameValue
          CFI V11 SameValue
          CFI V12 SameValue
          CFI V13 SameValue
          CFI V14 SameValue
          CFI V15 SameValue
          CFI PSPH Undefined
          CFI PSPL Undefined
          CFI XSPH Undefined
          CFI XSPL Undefined
          CFI ?RET Concat
          CFI ?BRET_EXT SameValue
          CFI ?RET_HIGH Frame(CFA_SP, 2)
          CFI ?RET_LOW Frame(CFA_SP, 1)
          CFI EndCommon cfiCommon1
        
GPIO_init           SYMBOL "GPIO_init"
`??GPIO_init::?relay` SYMBOL "?relay", GPIO_init
GetBindingTableEntry SYMBOL "GetBindingTableEntry"
`??GetBindingTableEntry::?relay` SYMBOL "?relay", GetBindingTableEntry
HalLcdWriteString   SYMBOL "HalLcdWriteString"
`??HalLcdWriteString::?relay` SYMBOL "?relay", HalLcdWriteString
HalLedBlink         SYMBOL "HalLedBlink"
`??HalLedBlink::?relay` SYMBOL "?relay", HalLedBlink
HalLedSet           SYMBOL "HalLedSet"
`??HalLedSet::?relay` SYMBOL "?relay", HalLedSet
HalUARTWrite        SYMBOL "HalUARTWrite"
`??HalUARTWrite::?relay` SYMBOL "?relay", HalUARTWrite
MT_SysCommandProcessing SYMBOL "MT_SysCommandProcessing"
`??MT_SysCommandProcessing::?relay` SYMBOL "?relay", MT_SysCommandProcessing
NLME_GetCoordShortAddr SYMBOL "NLME_GetCoordShortAddr"
`??NLME_GetCoordShortAddr::?relay` SYMBOL "?relay", NLME_GetCoordShortAddr
NLME_GetShortAddr   SYMBOL "NLME_GetShortAddr"
`??NLME_GetShortAddr::?relay` SYMBOL "?relay", NLME_GetShortAddr
RegisterForKeys     SYMBOL "RegisterForKeys"
`??RegisterForKeys::?relay` SYMBOL "?relay", RegisterForKeys
UART_DebugPrint     SYMBOL "UART_DebugPrint"
`??UART_DebugPrint::?relay` SYMBOL "?relay", UART_DebugPrint
UART_Init           SYMBOL "UART_Init"
`??UART_Init::?relay` SYMBOL "?relay", UART_Init
UART_ParseRxPackage SYMBOL "UART_ParseRxPackage"
`??UART_ParseRxPackage::?relay` SYMBOL "?relay", UART_ParseRxPackage
UART_ZCmdPrint      SYMBOL "UART_ZCmdPrint"
`??UART_ZCmdPrint::?relay` SYMBOL "?relay", UART_ZCmdPrint
UART_ZCmdPrintBuffer SYMBOL "UART_ZCmdPrintBuffer"
`??UART_ZCmdPrintBuffer::?relay` SYMBOL "?relay", UART_ZCmdPrintBuffer
UART_ZCmdPrintNum   SYMBOL "UART_ZCmdPrintNum"
`??UART_ZCmdPrintNum::?relay` SYMBOL "?relay", UART_ZCmdPrintNum
UART_ZCmdPrintString SYMBOL "UART_ZCmdPrintString"
`??UART_ZCmdPrintString::?relay` SYMBOL "?relay", UART_ZCmdPrintString
ZCMD_ReplyCMD       SYMBOL "ZCMD_ReplyCMD"
`??ZCMD_ReplyCMD::?relay` SYMBOL "?relay", ZCMD_ReplyCMD
ZDO_ParseEPListRsp  SYMBOL "ZDO_ParseEPListRsp"
`??ZDO_ParseEPListRsp::?relay` SYMBOL "?relay", ZDO_ParseEPListRsp
ZDO_RegisterForZDOMsg SYMBOL "ZDO_RegisterForZDOMsg"
`??ZDO_RegisterForZDOMsg::?relay` SYMBOL "?relay", ZDO_RegisterForZDOMsg
ZDP_MgmtPermitJoinReq SYMBOL "ZDP_MgmtPermitJoinReq"
`??ZDP_MgmtPermitJoinReq::?relay` SYMBOL "?relay", ZDP_MgmtPermitJoinReq
_ltoa               SYMBOL "_ltoa"
`??_ltoa::?relay`   SYMBOL "?relay", _ltoa
afRegister          SYMBOL "afRegister"
`??afRegister::?relay` SYMBOL "?relay", afRegister
bindCapacity        SYMBOL "bindCapacity"
`??bindCapacity::?relay` SYMBOL "?relay", bindCapacity
osal_mem_alloc      SYMBOL "osal_mem_alloc"
`??osal_mem_alloc::?relay` SYMBOL "?relay", osal_mem_alloc
osal_mem_free       SYMBOL "osal_mem_free"
`??osal_mem_free::?relay` SYMBOL "?relay", osal_mem_free
osal_memcpy         SYMBOL "osal_memcpy"
`??osal_memcpy::?relay` SYMBOL "?relay", osal_memcpy
osal_msg_deallocate SYMBOL "osal_msg_deallocate"
`??osal_msg_deallocate::?relay` SYMBOL "?relay", osal_msg_deallocate
osal_msg_receive    SYMBOL "osal_msg_receive"
`??osal_msg_receive::?relay` SYMBOL "?relay", osal_msg_receive
osal_set_event      SYMBOL "osal_set_event"
`??osal_set_event::?relay` SYMBOL "?relay", osal_set_event
osal_start_timerEx  SYMBOL "osal_start_timerEx"
`??osal_start_timerEx::?relay` SYMBOL "?relay", osal_start_timerEx
osal_stop_timerEx   SYMBOL "osal_stop_timerEx"
`??osal_stop_timerEx::?relay` SYMBOL "?relay", osal_stop_timerEx
zclGeneral_RegisterCmdCallbacks SYMBOL "zclGeneral_RegisterCmdCallbacks"
`??zclGeneral_RegisterCmdCallbacks::?relay` SYMBOL "?relay", zclGeneral_RegisterCmdCallbacks
zclHA_Init          SYMBOL "zclHA_Init"
`??zclHA_Init::?relay` SYMBOL "?relay", zclHA_Init
zclHA_LcdStatusLine1 SYMBOL "zclHA_LcdStatusLine1"
`??zclHA_LcdStatusLine1::?relay` SYMBOL "?relay", zclHA_LcdStatusLine1
zclHA_uint16toa     SYMBOL "zclHA_uint16toa"
`??zclHA_uint16toa::?relay` SYMBOL "?relay", zclHA_uint16toa
zclParseHdr         SYMBOL "zclParseHdr"
`??zclParseHdr::?relay` SYMBOL "?relay", zclParseHdr
zclParseInConfigReportCmd SYMBOL "zclParseInConfigReportCmd"
`??zclParseInConfigReportCmd::?relay` SYMBOL "?relay", zclParseInConfigReportCmd
zclParseInReadCmd   SYMBOL "zclParseInReadCmd"
`??zclParseInReadCmd::?relay` SYMBOL "?relay", zclParseInReadCmd
zclParseInReadReportCfgCmd SYMBOL "zclParseInReadReportCfgCmd"
`??zclParseInReadReportCfgCmd::?relay` SYMBOL "?relay", zclParseInReadReportCfgCmd
zclParseInReportCmd SYMBOL "zclParseInReportCmd"
`??zclParseInReportCmd::?relay` SYMBOL "?relay", zclParseInReportCmd
zclParseInWriteCmd  SYMBOL "zclParseInWriteCmd"
`??zclParseInWriteCmd::?relay` SYMBOL "?relay", zclParseInWriteCmd
zcl_EZModeAction    SYMBOL "zcl_EZModeAction"
`??zcl_EZModeAction::?relay` SYMBOL "?relay", zcl_EZModeAction
zcl_InvokeEZMode    SYMBOL "zcl_InvokeEZMode"
`??zcl_InvokeEZMode::?relay` SYMBOL "?relay", zcl_InvokeEZMode
zcl_RegisterEZMode  SYMBOL "zcl_RegisterEZMode"
`??zcl_RegisterEZMode::?relay` SYMBOL "?relay", zcl_RegisterEZMode
zcl_SendCommand     SYMBOL "zcl_SendCommand"
`??zcl_SendCommand::?relay` SYMBOL "?relay", zcl_SendCommand
zcl_SendConfigReportCmd SYMBOL "zcl_SendConfigReportCmd"
`??zcl_SendConfigReportCmd::?relay` SYMBOL "?relay", zcl_SendConfigReportCmd
zcl_SendRead        SYMBOL "zcl_SendRead"
`??zcl_SendRead::?relay` SYMBOL "?relay", zcl_SendRead
zcl_SendReadReportCfgCmd SYMBOL "zcl_SendReadReportCfgCmd"
`??zcl_SendReadReportCfgCmd::?relay` SYMBOL "?relay", zcl_SendReadReportCfgCmd
zcl_SendReportCmd   SYMBOL "zcl_SendReportCmd"
`??zcl_SendReportCmd::?relay` SYMBOL "?relay", zcl_SendReportCmd
zcl_SendWriteRequest SYMBOL "zcl_SendWriteRequest"
`??zcl_SendWriteRequest::?relay` SYMBOL "?relay", zcl_SendWriteRequest
zcl_registerAttrList SYMBOL "zcl_registerAttrList"
`??zcl_registerAttrList::?relay` SYMBOL "?relay", zcl_registerAttrList
zcl_registerForMsg  SYMBOL "zcl_registerForMsg"
`??zcl_registerForMsg::?relay` SYMBOL "?relay", zcl_registerForMsg
zgWriteStartupOptions SYMBOL "zgWriteStartupOptions"
`??zgWriteStartupOptions::?relay` SYMBOL "?relay", zgWriteStartupOptions
zclSampleThermostat_BindingProcess SYMBOL "zclSampleThermostat_BindingProcess"
`??zclSampleThermostat_BindingProcess::?relay` SYMBOL "?relay", zclSampleThermostat_BindingProcess
zclSampleThermostat_Init SYMBOL "zclSampleThermostat_Init"
`??zclSampleThermostat_Init::?relay` SYMBOL "?relay", zclSampleThermostat_Init
zclSampleThermostat_LcdDisplayCoolMode SYMBOL "zclSampleThermostat_LcdDisplayCoolMode"
`??zclSampleThermostat_LcdDisplayCoolMode::?rela` SYMBOL "?relay", zclSampleThermostat_LcdDisplayCoolMode
zclSampleThermostat_LcdDisplayHeatMode SYMBOL "zclSampleThermostat_LcdDisplayHeatMode"
`??zclSampleThermostat_LcdDisplayHeatMode::?rela` SYMBOL "?relay", zclSampleThermostat_LcdDisplayHeatMode
zclSampleThermostat_LcdDisplayHelpMode SYMBOL "zclSampleThermostat_LcdDisplayHelpMode"
`??zclSampleThermostat_LcdDisplayHelpMode::?rela` SYMBOL "?relay", zclSampleThermostat_LcdDisplayHelpMode
zclSampleThermostat_LcdDisplayMainMode SYMBOL "zclSampleThermostat_LcdDisplayMainMode"
`??zclSampleThermostat_LcdDisplayMainMode::?rela` SYMBOL "?relay", zclSampleThermostat_LcdDisplayMainMode
zclSampleThermostat_LcdDisplayUpdate SYMBOL "zclSampleThermostat_LcdDisplayUpdate"
`??zclSampleThermostat_LcdDisplayUpdate::?relay` SYMBOL "?relay", zclSampleThermostat_LcdDisplayUpdate
zclSampleThermostat_SendC SYMBOL "zclSampleThermostat_SendC"
`??zclSampleThermostat_SendC::?relay` SYMBOL "?relay", zclSampleThermostat_SendC
zclSampleThermostat_SendFreeData SYMBOL "zclSampleThermostat_SendFreeData"
`??zclSampleThermostat_SendFreeData::?relay` SYMBOL "?relay", zclSampleThermostat_SendFreeData
zclSampleThermostat_event_loop SYMBOL "zclSampleThermostat_event_loop"
`??zclSampleThermostat_event_loop::?relay` SYMBOL "?relay", zclSampleThermostat_event_loop

        EXTERN `??GPIO_init::?relay`
        FUNCTION `??GPIO_init::?relay`,00H
        EXTERN `??GetBindingTableEntry::?relay`
        FUNCTION `??GetBindingTableEntry::?relay`,00H
        EXTERN `??HalLcdWriteString::?relay`
        FUNCTION `??HalLcdWriteString::?relay`,00H
        EXTERN `??HalLedBlink::?relay`
        FUNCTION `??HalLedBlink::?relay`,00H
        EXTERN `??HalLedSet::?relay`
        FUNCTION `??HalLedSet::?relay`,00H
        EXTERN `??HalUARTWrite::?relay`
        FUNCTION `??HalUARTWrite::?relay`,00H
        EXTERN `??MT_SysCommandProcessing::?relay`
        FUNCTION `??MT_SysCommandProcessing::?relay`,00H
        EXTERN `??NLME_GetCoordShortAddr::?relay`
        FUNCTION `??NLME_GetCoordShortAddr::?relay`,00H
        EXTERN `??NLME_GetShortAddr::?relay`
        FUNCTION `??NLME_GetShortAddr::?relay`,00H
        EXTERN `??RegisterForKeys::?relay`
        FUNCTION `??RegisterForKeys::?relay`,00H
        EXTERN `??UART_DebugPrint::?relay`
        FUNCTION `??UART_DebugPrint::?relay`,00H
        EXTERN `??UART_Init::?relay`
        FUNCTION `??UART_Init::?relay`,00H
        EXTERN `??UART_ParseRxPackage::?relay`
        FUNCTION `??UART_ParseRxPackage::?relay`,00H
        EXTERN `??UART_ZCmdPrint::?relay`
        FUNCTION `??UART_ZCmdPrint::?relay`,00H
        EXTERN `??UART_ZCmdPrintBuffer::?relay`
        FUNCTION `??UART_ZCmdPrintBuffer::?relay`,00H
        EXTERN `??UART_ZCmdPrintNum::?relay`
        FUNCTION `??UART_ZCmdPrintNum::?relay`,00H
        EXTERN `??UART_ZCmdPrintString::?relay`
        FUNCTION `??UART_ZCmdPrintString::?relay`,00H
        EXTERN `??ZCMD_ReplyCMD::?relay`
        FUNCTION `??ZCMD_ReplyCMD::?relay`,00H
        EXTERN `??ZDO_ParseEPListRsp::?relay`
        FUNCTION `??ZDO_ParseEPListRsp::?relay`,00H
        EXTERN `??ZDO_RegisterForZDOMsg::?relay`
        FUNCTION `??ZDO_RegisterForZDOMsg::?relay`,00H
        EXTERN `??ZDP_MgmtPermitJoinReq::?relay`
        FUNCTION `??ZDP_MgmtPermitJoinReq::?relay`,00H
        EXTERN `??_ltoa::?relay`
        FUNCTION `??_ltoa::?relay`,00H
        EXTERN `??afRegister::?relay`
        FUNCTION `??afRegister::?relay`,00H
        EXTERN `??bindCapacity::?relay`
        FUNCTION `??bindCapacity::?relay`,00H
        EXTERN `??osal_mem_alloc::?relay`
        FUNCTION `??osal_mem_alloc::?relay`,00H
        EXTERN `??osal_mem_free::?relay`
        FUNCTION `??osal_mem_free::?relay`,00H
        EXTERN `??osal_memcpy::?relay`
        FUNCTION `??osal_memcpy::?relay`,00H
        EXTERN `??osal_msg_deallocate::?relay`
        FUNCTION `??osal_msg_deallocate::?relay`,00H
        EXTERN `??osal_msg_receive::?relay`
        FUNCTION `??osal_msg_receive::?relay`,00H
        EXTERN `??osal_set_event::?relay`
        FUNCTION `??osal_set_event::?relay`,00H
        EXTERN `??osal_start_timerEx::?relay`
        FUNCTION `??osal_start_timerEx::?relay`,00H
        EXTERN `??osal_stop_timerEx::?relay`
        FUNCTION `??osal_stop_timerEx::?relay`,00H
        EXTERN `??zclGeneral_RegisterCmdCallbacks::?relay`
        FUNCTION `??zclGeneral_RegisterCmdCallbacks::?relay`,00H
        EXTERN `??zclHA_Init::?relay`
        FUNCTION `??zclHA_Init::?relay`,00H
        EXTERN `??zclHA_LcdStatusLine1::?relay`
        FUNCTION `??zclHA_LcdStatusLine1::?relay`,00H
        EXTERN `??zclHA_uint16toa::?relay`
        FUNCTION `??zclHA_uint16toa::?relay`,00H
        EXTERN `??zclParseHdr::?relay`
        FUNCTION `??zclParseHdr::?relay`,00H
        EXTERN `??zclParseInConfigReportCmd::?relay`
        FUNCTION `??zclParseInConfigReportCmd::?relay`,00H
        EXTERN `??zclParseInReadCmd::?relay`
        FUNCTION `??zclParseInReadCmd::?relay`,00H
        EXTERN `??zclParseInReadReportCfgCmd::?relay`
        FUNCTION `??zclParseInReadReportCfgCmd::?relay`,00H
        EXTERN `??zclParseInReportCmd::?relay`
        FUNCTION `??zclParseInReportCmd::?relay`,00H
        EXTERN `??zclParseInWriteCmd::?relay`
        FUNCTION `??zclParseInWriteCmd::?relay`,00H
        EXTERN `??zcl_EZModeAction::?relay`
        FUNCTION `??zcl_EZModeAction::?relay`,00H
        EXTERN `??zcl_InvokeEZMode::?relay`
        FUNCTION `??zcl_InvokeEZMode::?relay`,00H
        EXTERN `??zcl_RegisterEZMode::?relay`
        FUNCTION `??zcl_RegisterEZMode::?relay`,00H
        EXTERN `??zcl_SendCommand::?relay`
        FUNCTION `??zcl_SendCommand::?relay`,00H
        EXTERN `??zcl_SendConfigReportCmd::?relay`
        FUNCTION `??zcl_SendConfigReportCmd::?relay`,00H
        EXTERN `??zcl_SendRead::?relay`
        FUNCTION `??zcl_SendRead::?relay`,00H
        EXTERN `??zcl_SendReadReportCfgCmd::?relay`
        FUNCTION `??zcl_SendReadReportCfgCmd::?relay`,00H
        EXTERN `??zcl_SendReportCmd::?relay`
        FUNCTION `??zcl_SendReportCmd::?relay`,00H
        EXTERN `??zcl_SendWriteRequest::?relay`
        FUNCTION `??zcl_SendWriteRequest::?relay`,00H
        EXTERN `??zcl_registerAttrList::?relay`
        FUNCTION `??zcl_registerAttrList::?relay`,00H
        EXTERN `??zcl_registerForMsg::?relay`
        FUNCTION `??zcl_registerForMsg::?relay`,00H
        EXTERN `??zgWriteStartupOptions::?relay`
        FUNCTION `??zgWriteStartupOptions::?relay`,00H
        EXTERN FLAG_BINDING
        EXTERN FLAG_ECHO_RDATA
        EXTERN FLAG_HARD_BINDING
        EXTERN FLAG_JOIN_CONFIRM
        EXTERN Free_Data
        EXTERN Free_Data_Size
        EXTERN GPIO_init
        FUNCTION GPIO_init,0202H
        ARGFRAME ISTACK, 0, STACK
        ARGFRAME PSTACK, 0, STACK
        ARGFRAME XSTACK, 10, STACK
        ARGFRAME IOVERLAY, 0, STATIC
        ARGFRAME DOVERLAY, 0, STATIC
        EXTERN GetBindingTableEntry
        FUNCTION GetBindingTableEntry,0202H
        ARGFRAME ISTACK, 0, STACK
        ARGFRAME PSTACK, 0, STACK
        ARGFRAME XSTACK, 29, STACK
        ARGFRAME IOVERLAY, 0, STATIC
        ARGFRAME DOVERLAY, 0, STATIC
        EXTERN HalLcdWriteString
        FUNCTION HalLcdWriteString,0202H
        ARGFRAME ISTACK, 2, STACK
        ARGFRAME PSTACK, 0, STACK
        ARGFRAME XSTACK, 35, STACK
        ARGFRAME IOVERLAY, 0, STATIC
        ARGFRAME DOVERLAY, 0, STATIC
        EXTERN HalLedBlink
        FUNCTION HalLedBlink,0202H
        ARGFRAME ISTACK, 2, STACK
        ARGFRAME PSTACK, 0, STACK
        ARGFRAME XSTACK, 62, STACK
        ARGFRAME IOVERLAY, 0, STATIC
        ARGFRAME DOVERLAY, 0, STATIC
        EXTERN HalLedSet
        FUNCTION HalLedSet,0202H
        ARGFRAME ISTACK, 2, STACK
        ARGFRAME PSTACK, 0, STACK
        ARGFRAME XSTACK, 0, STACK
        ARGFRAME IOVERLAY, 0, STATIC
        ARGFRAME DOVERLAY, 0, STATIC
        EXTERN HalUARTWrite
        FUNCTION HalUARTWrite,0202H
        ARGFRAME ISTACK, 0, STACK
        ARGFRAME PSTACK, 0, STACK
        ARGFRAME XSTACK, 62, STACK
        ARGFRAME IOVERLAY, 0, STATIC
        ARGFRAME DOVERLAY, 0, STATIC
        EXTERN MT_SysCommandProcessing
        FUNCTION MT_SysCommandProcessing,0202H
        ARGFRAME ISTACK, 2, STACK
        ARGFRAME PSTACK, 0, STACK
        ARGFRAME XSTACK, 0, STACK
        ARGFRAME IOVERLAY, 0, STATIC
        ARGFRAME DOVERLAY, 0, STATIC
        EXTERN NLME_GetCoordShortAddr
        FUNCTION NLME_GetCoordShortAddr,0202H
        ARGFRAME ISTACK, 0, STACK
        ARGFRAME PSTACK, 0, STACK
        ARGFRAME XSTACK, 41, STACK
        ARGFRAME IOVERLAY, 0, STATIC
        ARGFRAME DOVERLAY, 0, STATIC
        EXTERN NLME_GetShortAddr
        FUNCTION NLME_GetShortAddr,0202H
        ARGFRAME ISTACK, 0, STACK
        ARGFRAME PSTACK, 0, STACK
        ARGFRAME XSTACK, 29, STACK
        ARGFRAME IOVERLAY, 0, STATIC
        ARGFRAME DOVERLAY, 0, STATIC
        EXTERN RegisterForKeys
        FUNCTION RegisterForKeys,0202H
        ARGFRAME ISTACK, 0, STACK
        ARGFRAME PSTACK, 0, STACK
        ARGFRAME XSTACK, 10, STACK
        ARGFRAME IOVERLAY, 0, STATIC
        ARGFRAME DOVERLAY, 0, STATIC
        EXTERN UART_DebugPrint
        FUNCTION UART_DebugPrint,0202H
        ARGFRAME ISTACK, 0, STACK
        ARGFRAME PSTACK, 0, STACK
        ARGFRAME XSTACK, 29, STACK
        ARGFRAME IOVERLAY, 0, STATIC
        ARGFRAME DOVERLAY, 0, STATIC
        EXTERN UART_Init
        FUNCTION UART_Init,0202H
        ARGFRAME ISTACK, 0, STACK
        ARGFRAME PSTACK, 0, STACK
        ARGFRAME XSTACK, 10, STACK
        ARGFRAME IOVERLAY, 0, STATIC
        ARGFRAME DOVERLAY, 0, STATIC
        EXTERN UART_ParseRxPackage
        FUNCTION UART_ParseRxPackage,0202H
        ARGFRAME ISTACK, 0, STACK
        ARGFRAME PSTACK, 0, STACK
        ARGFRAME XSTACK, 16, STACK
        ARGFRAME IOVERLAY, 0, STATIC
        ARGFRAME DOVERLAY, 0, STATIC
        EXTERN UART_ZCmdPrint
        FUNCTION UART_ZCmdPrint,0202H
        ARGFRAME ISTACK, 0, STACK
        ARGFRAME PSTACK, 0, STACK
        ARGFRAME XSTACK, 62, STACK
        ARGFRAME IOVERLAY, 0, STATIC
        ARGFRAME DOVERLAY, 0, STATIC
        EXTERN UART_ZCmdPrintBuffer
        FUNCTION UART_ZCmdPrintBuffer,0202H
        ARGFRAME ISTACK, 0, STACK
        ARGFRAME PSTACK, 0, STACK
        ARGFRAME XSTACK, 62, STACK
        ARGFRAME IOVERLAY, 0, STATIC
        ARGFRAME DOVERLAY, 0, STATIC
        EXTERN UART_ZCmdPrintNum
        FUNCTION UART_ZCmdPrintNum,0202H
        ARGFRAME ISTACK, 0, STACK
        ARGFRAME PSTACK, 0, STACK
        ARGFRAME XSTACK, 62, STACK
        ARGFRAME IOVERLAY, 0, STATIC
        ARGFRAME DOVERLAY, 0, STATIC
        EXTERN UART_ZCmdPrintString
        FUNCTION UART_ZCmdPrintString,0202H
        ARGFRAME ISTACK, 0, STACK
        ARGFRAME PSTACK, 0, STACK
        ARGFRAME XSTACK, 62, STACK
        ARGFRAME IOVERLAY, 0, STATIC
        ARGFRAME DOVERLAY, 0, STATIC
        EXTERN ZCMD_ReplyCMD
        FUNCTION ZCMD_ReplyCMD,0202H
        ARGFRAME ISTACK, 0, STACK
        ARGFRAME PSTACK, 0, STACK
        ARGFRAME XSTACK, 16, STACK
        ARGFRAME IOVERLAY, 0, STATIC
        ARGFRAME DOVERLAY, 0, STATIC
        EXTERN ZDO_ParseEPListRsp
        FUNCTION ZDO_ParseEPListRsp,0202H
        ARGFRAME ISTACK, 0, STACK
        ARGFRAME PSTACK, 0, STACK
        ARGFRAME XSTACK, 16, STACK
        ARGFRAME IOVERLAY, 0, STATIC
        ARGFRAME DOVERLAY, 0, STATIC
        EXTERN ZDO_RegisterForZDOMsg
        FUNCTION ZDO_RegisterForZDOMsg,0202H
        ARGFRAME ISTACK, 0, STACK
        ARGFRAME PSTACK, 0, STACK
        ARGFRAME XSTACK, 10, STACK
        ARGFRAME IOVERLAY, 0, STATIC
        ARGFRAME DOVERLAY, 0, STATIC
        EXTERN ZDP_MgmtPermitJoinReq
        FUNCTION ZDP_MgmtPermitJoinReq,0202H
        ARGFRAME ISTACK, 0, STACK
        ARGFRAME PSTACK, 0, STACK
        ARGFRAME XSTACK, 29, STACK
        ARGFRAME IOVERLAY, 0, STATIC
        ARGFRAME DOVERLAY, 0, STATIC
        EXTERN _ltoa
        FUNCTION _ltoa,0202H
        ARGFRAME ISTACK, 0, STACK
        ARGFRAME PSTACK, 0, STACK
        ARGFRAME XSTACK, 37, STACK
        ARGFRAME IOVERLAY, 0, STATIC
        ARGFRAME DOVERLAY, 0, STATIC
        EXTERN afRegister
        FUNCTION afRegister,0202H
        ARGFRAME ISTACK, 0, STACK
        ARGFRAME PSTACK, 0, STACK
        ARGFRAME XSTACK, 10, STACK
        ARGFRAME IOVERLAY, 0, STATIC
        ARGFRAME DOVERLAY, 0, STATIC
        EXTERN bindCapacity
        FUNCTION bindCapacity,0202H
        ARGFRAME ISTACK, 0, STACK
        ARGFRAME PSTACK, 0, STACK
        ARGFRAME XSTACK, 29, STACK
        ARGFRAME IOVERLAY, 0, STATIC
        ARGFRAME DOVERLAY, 0, STATIC
        EXTERN msg_RSSI
        EXTERN osal_mem_alloc
        FUNCTION osal_mem_alloc,0202H
        ARGFRAME ISTACK, 0, STACK
        ARGFRAME PSTACK, 0, STACK
        ARGFRAME XSTACK, 41, STACK
        ARGFRAME IOVERLAY, 0, STATIC
        ARGFRAME DOVERLAY, 0, STATIC
        EXTERN osal_mem_free
        FUNCTION osal_mem_free,0202H
        ARGFRAME ISTACK, 0, STACK
        ARGFRAME PSTACK, 0, STACK
        ARGFRAME XSTACK, 41, STACK
        ARGFRAME IOVERLAY, 0, STATIC
        ARGFRAME DOVERLAY, 0, STATIC
        EXTERN osal_memcpy
        FUNCTION osal_memcpy,0202H
        ARGFRAME ISTACK, 0, STACK
        ARGFRAME PSTACK, 0, STACK
        ARGFRAME XSTACK, 38, STACK
        ARGFRAME IOVERLAY, 0, STATIC
        ARGFRAME DOVERLAY, 0, STATIC
        EXTERN osal_msg_deallocate
        FUNCTION osal_msg_deallocate,0202H
        ARGFRAME ISTACK, 0, STACK
        ARGFRAME PSTACK, 0, STACK
        ARGFRAME XSTACK, 16, STACK
        ARGFRAME IOVERLAY, 0, STATIC
        ARGFRAME DOVERLAY, 0, STATIC
        EXTERN osal_msg_receive
        FUNCTION osal_msg_receive,0202H
        ARGFRAME ISTACK, 0, STACK
        ARGFRAME PSTACK, 0, STACK
        ARGFRAME XSTACK, 16, STACK
        ARGFRAME IOVERLAY, 0, STATIC
        ARGFRAME DOVERLAY, 0, STATIC
        EXTERN osal_set_event
        FUNCTION osal_set_event,0202H
        ARGFRAME ISTACK, 0, STACK
        ARGFRAME PSTACK, 0, STACK
        ARGFRAME XSTACK, 16, STACK
        ARGFRAME IOVERLAY, 0, STATIC
        ARGFRAME DOVERLAY, 0, STATIC
        EXTERN osal_start_timerEx
        FUNCTION osal_start_timerEx,0202H
        ARGFRAME ISTACK, 2, STACK
        ARGFRAME PSTACK, 0, STACK
        ARGFRAME XSTACK, 39, STACK
        ARGFRAME IOVERLAY, 0, STATIC
        ARGFRAME DOVERLAY, 0, STATIC
        EXTERN osal_stop_timerEx
        FUNCTION osal_stop_timerEx,0202H
        ARGFRAME ISTACK, 2, STACK
        ARGFRAME PSTACK, 0, STACK
        ARGFRAME XSTACK, 0, STACK
        ARGFRAME IOVERLAY, 0, STATIC
        ARGFRAME DOVERLAY, 0, STATIC
        EXTERN zclGeneral_RegisterCmdCallbacks
        FUNCTION zclGeneral_RegisterCmdCallbacks,0202H
        ARGFRAME ISTACK, 0, STACK
        ARGFRAME PSTACK, 0, STACK
        ARGFRAME XSTACK, 10, STACK
        ARGFRAME IOVERLAY, 0, STATIC
        ARGFRAME DOVERLAY, 0, STATIC
        EXTERN zclHA_Init
        FUNCTION zclHA_Init,0202H
        ARGFRAME ISTACK, 0, STACK
        ARGFRAME PSTACK, 0, STACK
        ARGFRAME XSTACK, 10, STACK
        ARGFRAME IOVERLAY, 0, STATIC
        ARGFRAME DOVERLAY, 0, STATIC
        EXTERN zclHA_LcdStatusLine1
        FUNCTION zclHA_LcdStatusLine1,0202H
        ARGFRAME ISTACK, 0, STACK
        ARGFRAME PSTACK, 0, STACK
        ARGFRAME XSTACK, 27, STACK
        ARGFRAME IOVERLAY, 0, STATIC
        ARGFRAME DOVERLAY, 0, STATIC
        EXTERN zclHA_uint16toa
        FUNCTION zclHA_uint16toa,0202H
        ARGFRAME ISTACK, 0, STACK
        ARGFRAME PSTACK, 0, STACK
        ARGFRAME XSTACK, 35, STACK
        ARGFRAME IOVERLAY, 0, STATIC
        ARGFRAME DOVERLAY, 0, STATIC
        EXTERN zclParseHdr
        FUNCTION zclParseHdr,0202H
        ARGFRAME ISTACK, 0, STACK
        ARGFRAME PSTACK, 0, STACK
        ARGFRAME XSTACK, 41, STACK
        ARGFRAME IOVERLAY, 0, STATIC
        ARGFRAME DOVERLAY, 0, STATIC
        EXTERN zclParseInConfigReportCmd
        FUNCTION zclParseInConfigReportCmd,0202H
        ARGFRAME ISTACK, 0, STACK
        ARGFRAME PSTACK, 0, STACK
        ARGFRAME XSTACK, 18, STACK
        ARGFRAME IOVERLAY, 0, STATIC
        ARGFRAME DOVERLAY, 0, STATIC
        EXTERN zclParseInReadCmd
        FUNCTION zclParseInReadCmd,0202H
        ARGFRAME ISTACK, 0, STACK
        ARGFRAME PSTACK, 0, STACK
        ARGFRAME XSTACK, 18, STACK
        ARGFRAME IOVERLAY, 0, STATIC
        ARGFRAME DOVERLAY, 0, STATIC
        EXTERN zclParseInReadReportCfgCmd
        FUNCTION zclParseInReadReportCfgCmd,0202H
        ARGFRAME ISTACK, 0, STACK
        ARGFRAME PSTACK, 0, STACK
        ARGFRAME XSTACK, 18, STACK
        ARGFRAME IOVERLAY, 0, STATIC
        ARGFRAME DOVERLAY, 0, STATIC
        EXTERN zclParseInReportCmd
        FUNCTION zclParseInReportCmd,0202H
        ARGFRAME ISTACK, 0, STACK
        ARGFRAME PSTACK, 0, STACK
        ARGFRAME XSTACK, 18, STACK
        ARGFRAME IOVERLAY, 0, STATIC
        ARGFRAME DOVERLAY, 0, STATIC
        EXTERN zclParseInWriteCmd
        FUNCTION zclParseInWriteCmd,0202H
        ARGFRAME ISTACK, 0, STACK
        ARGFRAME PSTACK, 0, STACK
        ARGFRAME XSTACK, 18, STACK
        ARGFRAME IOVERLAY, 0, STATIC
        ARGFRAME DOVERLAY, 0, STATIC
        EXTERN zclSampleThermostat_Attrs
        EXTERN zclSampleThermostat_IdentifyTime
        EXTERN zclSampleThermostat_LocalTemperature
        EXTERN zclSampleThermostat_OccupiedCoolingSetpoint
        EXTERN zclSampleThermostat_OccupiedHeatingSetpoint
        EXTERN zclSampleThermostat_OnOff
        EXTERN zclSampleThermostat_SimpleDesc
        EXTERN zclSampleThermostat_SystemMode
        EXTERN zcl_EZModeAction
        FUNCTION zcl_EZModeAction,0202H
        ARGFRAME ISTACK, 2, STACK
        ARGFRAME PSTACK, 0, STACK
        ARGFRAME XSTACK, 16, STACK
        ARGFRAME IOVERLAY, 0, STATIC
        ARGFRAME DOVERLAY, 0, STATIC
        EXTERN zcl_InvokeEZMode
        FUNCTION zcl_InvokeEZMode,0202H
        ARGFRAME ISTACK, 2, STACK
        ARGFRAME PSTACK, 0, STACK
        ARGFRAME XSTACK, 29, STACK
        ARGFRAME IOVERLAY, 0, STATIC
        ARGFRAME DOVERLAY, 0, STATIC
        EXTERN zcl_RegisterEZMode
        FUNCTION zcl_RegisterEZMode,0202H
        ARGFRAME ISTACK, 0, STACK
        ARGFRAME PSTACK, 0, STACK
        ARGFRAME XSTACK, 10, STACK
        ARGFRAME IOVERLAY, 0, STATIC
        ARGFRAME DOVERLAY, 0, STATIC
        EXTERN zcl_SendCommand
        FUNCTION zcl_SendCommand,0202H
        ARGFRAME ISTACK, 0, STACK
        ARGFRAME PSTACK, 0, STACK
        ARGFRAME XSTACK, 52, STACK
        ARGFRAME IOVERLAY, 0, STATIC
        ARGFRAME DOVERLAY, 0, STATIC
        EXTERN zcl_SendConfigReportCmd
        FUNCTION zcl_SendConfigReportCmd,0202H
        ARGFRAME ISTACK, 0, STACK
        ARGFRAME PSTACK, 0, STACK
        ARGFRAME XSTACK, 23, STACK
        ARGFRAME IOVERLAY, 0, STATIC
        ARGFRAME DOVERLAY, 0, STATIC
        EXTERN zcl_SendRead
        FUNCTION zcl_SendRead,0202H
        ARGFRAME ISTACK, 0, STACK
        ARGFRAME PSTACK, 0, STACK
        ARGFRAME XSTACK, 23, STACK
        ARGFRAME IOVERLAY, 0, STATIC
        ARGFRAME DOVERLAY, 0, STATIC
        EXTERN zcl_SendReadReportCfgCmd
        FUNCTION zcl_SendReadReportCfgCmd,0202H
        ARGFRAME ISTACK, 0, STACK
        ARGFRAME PSTACK, 0, STACK
        ARGFRAME XSTACK, 23, STACK
        ARGFRAME IOVERLAY, 0, STATIC
        ARGFRAME DOVERLAY, 0, STATIC
        EXTERN zcl_SendReportCmd
        FUNCTION zcl_SendReportCmd,0202H
        ARGFRAME ISTACK, 0, STACK
        ARGFRAME PSTACK, 0, STACK
        ARGFRAME XSTACK, 46, STACK
        ARGFRAME IOVERLAY, 0, STATIC
        ARGFRAME DOVERLAY, 0, STATIC
        EXTERN zcl_SendWriteRequest
        FUNCTION zcl_SendWriteRequest,0202H
        ARGFRAME ISTACK, 0, STACK
        ARGFRAME PSTACK, 0, STACK
        ARGFRAME XSTACK, 24, STACK
        ARGFRAME IOVERLAY, 0, STATIC
        ARGFRAME DOVERLAY, 0, STATIC
        EXTERN zcl_registerAttrList
        FUNCTION zcl_registerAttrList,0202H
        ARGFRAME ISTACK, 0, STACK
        ARGFRAME PSTACK, 0, STACK
        ARGFRAME XSTACK, 10, STACK
        ARGFRAME IOVERLAY, 0, STATIC
        ARGFRAME DOVERLAY, 0, STATIC
        EXTERN zcl_registerForMsg
        FUNCTION zcl_registerForMsg,0202H
        ARGFRAME ISTACK, 0, STACK
        ARGFRAME PSTACK, 0, STACK
        ARGFRAME XSTACK, 10, STACK
        ARGFRAME IOVERLAY, 0, STATIC
        ARGFRAME DOVERLAY, 0, STATIC
        EXTERN zgWriteStartupOptions
        FUNCTION zgWriteStartupOptions,0202H
        ARGFRAME ISTACK, 2, STACK
        ARGFRAME PSTACK, 0, STACK
        ARGFRAME XSTACK, 0, STACK
        ARGFRAME IOVERLAY, 0, STATIC
        ARGFRAME DOVERLAY, 0, STATIC

// D:\GitHub\TripleS_Zigbee\Projects\zstack\HomeAutomation\SampleThermostat\Source\zcl_samplethermostat.c
//    1 /**************************************************************************************************
//    2   Filename:       zcl_samplethermostat.c
//    3   Revised:        $Date: 2014-10-24 16:04:46 -0700 (Fri, 24 Oct 2014) $
//    4   Revision:       $Revision: 40796 $
//    5 
//    6   Description:    Zigbee Cluster Library - sample device application.
//    7 
//    8 
//    9   Copyright 2013 - 2014 Texas Instruments Incorporated. All rights reserved.
//   10 
//   11   IMPORTANT: Your use of this Software is limited to those specific rights
//   12   granted under the terms of a software license agreement between the user
//   13   who downloaded the software, his/her employer (which must be your employer)
//   14   and Texas Instruments Incorporated (the "License").  You may not use this
//   15   Software unless you agree to abide by the terms of the License. The License
//   16   limits your use, and you acknowledge, that the Software may not be modified,
//   17   copied or distributed unless embedded on a Texas Instruments microcontroller
//   18   or used solely and exclusively in conjunction with a Texas Instruments radio
//   19   frequency transceiver, which is integrated into your product.  Other than for
//   20   the foregoing purpose, you may not use, reproduce, copy, prepare derivative
//   21   works of, modify, distribute, perform, display or sell this Software and/or
//   22   its documentation for any purpose.
//   23 
//   24   YOU FURTHER ACKNOWLEDGE AND AGREE THAT THE SOFTWARE AND DOCUMENTATION ARE
//   25   PROVIDED “AS IS” WITHOUT WARRANTY OF ANY KIND, EITHER EXPRESS OR IMPLIED,
//   26   INCLUDING WITHOUT LIMITATION, ANY WARRANTY OF MERCHANTABILITY, TITLE,
//   27   NON-INFRINGEMENT AND FITNESS FOR A PARTICULAR PURPOSE. IN NO EVENT SHALL
//   28   TEXAS INSTRUMENTS OR ITS LICENSORS BE LIABLE OR OBLIGATED UNDER CONTRACT,
//   29   NEGLIGENCE, STRICT LIABILITY, CONTRIBUTION, BREACH OF WARRANTY, OR OTHER
//   30   LEGAL EQUITABLE THEORY ANY DIRECT OR INDIRECT DAMAGES OR EXPENSES
//   31   INCLUDING BUT NOT LIMITED TO ANY INCIDENTAL, SPECIAL, INDIRECT, PUNITIVE
//   32   OR CONSEQUENTIAL DAMAGES, LOST PROFITS OR LOST DATA, COST OF PROCUREMENT
//   33   OF SUBSTITUTE GOODS, TECHNOLOGY, SERVICES, OR ANY CLAIMS BY THIRD PARTIES
//   34   (INCLUDING BUT NOT LIMITED TO ANY DEFENSE THEREOF), OR OTHER SIMILAR COSTS.
//   35 
//   36   Should you have any questions regarding your right to use this Software,
//   37   contact Texas Instruments Incorporated at www.TI.com.
//   38 **************************************************************************************************/
//   39 
//   40 /*********************************************************************
//   41   This device will act as a thermostat.
//   42 
//   43   SCREEN MODES
//   44   ----------------------------------------
//   45   Main:
//   46     - SW1: Set heating setpoint
//   47     - SW2: Invoke EZMode
//   48     - SW3: Set cooling setpoint
//   49     - SW4: Enable/Disable Permit Join
//   50     - SW5: Go to Help screen
//   51 
//   52   Heating Setpoint or Cooling Setpoint:
//   53     - SW1: Increase temperature
//   54     - SW3: Decrease temperature
//   55     - SW5: Save temperature
//   56   ----------------------------------------
//   57 *********************************************************************/
//   58 
//   59 /*********************************************************************
//   60  * INCLUDES
//   61  */
//   62 #include "ZComDef.h"
//   63 #include "OSAL.h"
//   64 #include "AF.h"
//   65 #include "ZDApp.h"
//   66 #include "ZDObject.h"
//   67 #include "MT_APP.h"
//   68 #include "MT_SYS.h"
//   69 
//   70 #include "zcl.h"
//   71 #include "zcl_general.h"
//   72 #include "zcl_ha.h"
//   73 #include "zcl_ezmode.h"
//   74 #include "zcl_hvac.h"
//   75 #include "zcl_ms.h"
//   76 
//   77 #include "zcl_samplethermostat.h"
//   78 
//   79 #include "onboard.h"
//   80 
//   81 /* HAL */
//   82 #include "hal_lcd.h"
//   83 #include "hal_led.h"
//   84 #include "hal_key.h"
//   85 
//   86 /* MY INCLUDES */
//   87 #include "MS_UART.h"
//   88 #include "MS_UART_CMD.h"
//   89 #include "MS_GPIO.h"
//   90 #include "uti.h"
//   91 
//   92 #if ( defined (ZGP_DEVICE_TARGET) || defined (ZGP_DEVICE_TARGETPLUS) \ 
//   93       || defined (ZGP_DEVICE_COMBO) || defined (ZGP_DEVICE_COMBO_MIN) )
//   94 #include "zgp_translationtable.h"
//   95   #if (SUPPORTED_S_FEATURE(SUPP_ZGP_FEATURE_TRANSLATION_TABLE))
//   96     #define ZGP_AUTO_TT
//   97   #endif
//   98 #endif
//   99 
//  100 
//  101 /*********************************************************************
//  102  * MACROS
//  103  */
//  104 
//  105 /*********************************************************************
//  106  * CONSTANTS
//  107  */
//  108 
//  109 /*********************************************************************
//  110  * TYPEDEFS
//  111  */
//  112 
//  113 /*********************************************************************
//  114  * GLOBAL VARIABLES
//  115  */

        RSEG XDATA_Z:XDATA:NOROOT(0)
        DATA8
//  116 byte zclSampleThermostat_TaskID;
zclSampleThermostat_TaskID:
        DS 1
        REQUIRE __INIT_XDATA_Z

        RSEG XDATA_Z:XDATA:NOROOT(0)
        DATA8
//  117 uint8 zclSampleThermostatSeqNum;
zclSampleThermostatSeqNum:
        DS 1
        REQUIRE __INIT_XDATA_Z
//  118 

        RSEG XDATA_Z:XDATA:NOROOT(0)
        DATA8
//  119 static byte gPermitDuration = 0x00;
gPermitDuration:
        DS 1
        REQUIRE __INIT_XDATA_Z
//  120 
//  121 /*********************************************************************
//  122  * GLOBAL FUNCTIONS
//  123  */
//  124 
//  125 /*********************************************************************
//  126  * LOCAL VARIABLES
//  127  */

        RSEG XDATA_Z:XDATA:NOROOT(0)
        DATA8
//  128 afAddrType_t zclSampleThermostat_DstAddr;
zclSampleThermostat_DstAddr:
        DS 12
        REQUIRE __INIT_XDATA_Z
//  129 
//  130 #ifdef ZCL_EZMODE
//  131 static void zclSampleThermostat_ProcessZDOMsgs( zdoIncomingMsg_t *pMsg );
//  132 static void zclSampleThermostat_EZModeCB( zlcEZMode_State_t state, zclEZMode_CBData_t *pData );
//  133 

        RSEG XDATA_ROM_C:CONST:REORDER:NOROOT(0)
        DATA8
//  134 static const zclEZMode_RegisterData_t zclSampleThermostat_RegisterEZModeData =
zclSampleThermostat_RegisterEZModeData:
        DATA16
        DW zclSampleThermostat_TaskID
        DW 8
        DW 4
        DW zclSampleThermostatSeqNum
        DW `??zclSampleThermostat_EZModeCB::?relay`
//  135 {
//  136   &zclSampleThermostat_TaskID,
//  137   SAMPLETHERMOSTAT_EZMODE_NEXTSTATE_EVT,
//  138   SAMPLETHERMOSTAT_EZMODE_TIMEOUT_EVT,
//  139   &zclSampleThermostatSeqNum,
//  140   zclSampleThermostat_EZModeCB
//  141 };
//  142 
//  143 // NOT ZCL_EZMODE, Use EndDeviceBind
//  144 #else
//  145 
//  146 static cId_t bindingOutClusters[] =
//  147 {
//  148   ZCL_CLUSTER_ID_HVAC_THERMOSTAT
//  149 };
//  150 #define ZCLSAMPLETHERMOSTAT_BINDINGLIST_OUT     1
//  151 
//  152 static cId_t bindingInClusters[] =
//  153 {
//  154   ZCL_CLUSTER_ID_HVAC_THERMOSTAT,
//  155   ZCL_CLUSTER_ID_MS_TEMPERATURE_MEASUREMENT
//  156 };
//  157 #define ZCLSAMPLETHERMOSTAT_BINDINGLIST_IN      2
//  158 #endif
//  159 

        RSEG XDATA_Z:XDATA:NOROOT(0)
        DATA8
//  160 uint8 giThermostatScreenMode = THERMOSTAT_MAINMODE;   // display the main screen mode first
giThermostatScreenMode:
        DS 1
        REQUIRE __INIT_XDATA_Z
//  161 

        RSEG XDATA_I:XDATA:NOROOT(0)
//  162 devStates_t zclSampleThermostat_NwkState = DEV_INIT;
zclSampleThermostat_NwkState:
        DATA8
        DS 1
        REQUIRE `?<Initializer for zclSampleThermostat_NwkState`
        REQUIRE __INIT_XDATA_I
//  163 

        RSEG XDATA_I:XDATA:NOROOT(0)
//  164 static uint8 aProcessCmd[] = { 1, 0, 0, 0 }; // used for reset command, { length + cmd0 + cmd1 + data }
aProcessCmd:
        DATA32
        DS 4
        REQUIRE `?<Initializer for aProcessCmd>`
        REQUIRE __INIT_XDATA_I
//  165 
//  166 // Test Endpoint to allow SYS_APP_MSGs

        RSEG XDATA_I:XDATA:NOROOT(0)
//  167 static endPointDesc_t sampleThermostat_TestEp =
sampleThermostat_TestEp:
        DATA8
        DS 6
        REQUIRE `?<Initializer for sampleThermostat_TestEp>`
        REQUIRE __INIT_XDATA_I
//  168 {
//  169   20,                                 // Test endpoint
//  170   &zclSampleThermostat_TaskID,
//  171   (SimpleDescriptionFormat_t *)NULL,  // No Simple description for this test endpoint
//  172   (afNetworkLatencyReq_t)0            // No Network Latency req
//  173 };
//  174 
//  175 /*********************************************************************
//  176  * LOCAL FUNCTIONS
//  177  */
//  178 #ifndef COORDINATOR
//  179 static void zclSampleThermostat_RollCall(void);
//  180 #endif
//  181 
//  182 static void zclSampleThermostat_HandleKeys( byte shift, byte keys );
//  183 static void zclSampleThermostat_BasicResetCB( void );
//  184 static void zclSampleThermostat_IdentifyCB( zclIdentify_t *pCmd );
//  185 static void zclSampleThermostat_IdentifyQueryRspCB( zclIdentifyQueryRsp_t *pRsp );
//  186 static void zclSampleThermostat_ProcessIdentifyTimeChange( void );
//  187 static void zclSampleThermostat_ProcessAppMsg( uint8 srcEP, uint8 len, uint8 *msg );
//  188 static void zclSampleThermostat_ProcessFoundationMsg( afAddrType_t *dstAddr, uint16 clusterID,
//  189                                                       zclFrameHdr_t *hdr, zclParseCmd_t *pParseCmd );
//  190 
//  191 // app display functions
//  192 void zclSampleThermostat_LcdDisplayUpdate(void);
//  193 void zclSampleThermostat_LcdDisplayMainMode(void);
//  194 void zclSampleThermostat_LcdDisplayHeatMode(void);
//  195 void zclSampleThermostat_LcdDisplayCoolMode(void);
//  196 void zclSampleThermostat_LcdDisplayHelpMode(void);
//  197 
//  198 // Functions to process ZCL Foundation incoming Command/Response messages
//  199 static void zclSampleThermostat_ProcessIncomingMsg( zclIncomingMsg_t *msg );
//  200 #ifdef ZCL_READ
//  201 static uint8 zclSampleThermostat_ProcessInReadRspCmd( zclIncomingMsg_t *pInMsg );
//  202 #endif
//  203 #ifdef ZCL_WRITE
//  204 static uint8 zclSampleThermostat_ProcessInWriteRspCmd( zclIncomingMsg_t *pInMsg );
//  205 #endif
//  206 #ifdef ZCL_REPORT
//  207 static void zclSampleThermostat_ProcessInReportCmd( zclIncomingMsg_t *pInMsg );
//  208 #endif
//  209 static uint8 zclSampleThermostat_ProcessInDefaultRspCmd( zclIncomingMsg_t *pInMsg );
//  210 
//  211 /*********************************************************************
//  212  * STATUS STRINGS
//  213  */
//  214 #ifdef LCD_SUPPORTED

        RSEG XDATA_ROM_C:CONST:REORDER:NOROOT(0)
        DATA16
//  215 const char sClearLine[]     = " ";
sClearLine:
        DB " "

        RSEG XDATA_ROM_C:CONST:REORDER:NOROOT(0)
        DATA8
//  216 const char sDeviceName[]    = "   Thermostat";
sDeviceName:
        DB "   Thermostat"

        RSEG XDATA_ROM_C:CONST:REORDER:NOROOT(0)
        DATA8
//  217 const char sSwHeatSet[]     = "SW1: Set Heating";
sSwHeatSet:
        DB "SW1: Set Heating"

        RSEG XDATA_ROM_C:CONST:REORDER:NOROOT(0)
        DATA8
//  218 const char sSwEZMode[]      = "SW2: EZ-Mode";
sSwEZMode:
        DB "SW2: EZ-Mode"

        RSEG XDATA_ROM_C:CONST:REORDER:NOROOT(0)
        DATA8
//  219 const char sSwCoolSet[]     = "SW3: Set Cooling";
sSwCoolSet:
        DB "SW3: Set Cooling"

        RSEG XDATA_ROM_C:CONST:REORDER:NOROOT(0)
        DATA8
//  220 const char sTempLine2[]     = "SW1:+";
sTempLine2:
        DB "SW1:+"

        RSEG XDATA_ROM_C:CONST:REORDER:NOROOT(0)
        DATA8
//  221 const char sTempLine3[]     = "SW3:-  SW5:Enter";
sTempLine3:
        DB "SW3:-  SW5:Enter"

        RSEG XDATA_ROM_C:CONST:REORDER:NOROOT(0)
        DATA8
//  222 const char sSwHelp[]        = "SW5: Help";
sSwHelp:
        DB "SW5: Help"

        RSEG XDATA_ROM_C:CONST:REORDER:NOROOT(0)
        DATA8
//  223 const char sStoreHeatTemp[] = "HEAT TEMP SAVED";
sStoreHeatTemp:
        DB "HEAT TEMP SAVED"

        RSEG XDATA_ROM_C:CONST:REORDER:NOROOT(0)
        DATA8
//  224 const char sStoreCoolTemp[] = "COOL TEMP SAVED";
sStoreCoolTemp:
        DB "COOL TEMP SAVED"
//  225 #endif
//  226 
//  227 /*********************************************************************
//  228  * ZCL General Profile Callback table
//  229  */

        RSEG XDATA_I:XDATA:NOROOT(0)
//  230 static zclGeneral_AppCallbacks_t zclSampleThermostat_CmdCallbacks =
zclSampleThermostat_CmdCallbacks:
        DATA8
        DS 24
        REQUIRE `?<Initializer for zclSampleThermostat_CmdCallb`
        REQUIRE __INIT_XDATA_I
//  231 {
//  232   zclSampleThermostat_BasicResetCB,            // Basic Cluster Reset command
//  233   zclSampleThermostat_IdentifyCB,              // Identify command
//  234 #ifdef ZCL_EZMODE
//  235   NULL,                                        // Identify EZ-Mode Invoke command
//  236   NULL,                                        // Identify Update Commission State command
//  237 #endif
//  238   NULL,                                        // Identify Trigger Effect command
//  239   zclSampleThermostat_IdentifyQueryRspCB,      // Identify Query Response command
//  240   NULL,             				                   // On/Off cluster command
//  241   NULL,                                        // On/Off cluster enhanced command Off with Effect
//  242   NULL,                                        // On/Off cluster enhanced command On with Recall Global Scene
//  243   NULL,                                        // On/Off cluster enhanced command On with Timed Off
//  244 #ifdef ZCL_LEVEL_CTRL
//  245   NULL,                                        // Level Control Move to Level command
//  246   NULL,                                        // Level Control Move command
//  247   NULL,                                        // Level Control Step command
//  248   NULL,                                        // Level Control Stop command
//  249 #endif
//  250 #ifdef ZCL_GROUPS
//  251   NULL,                                        // Group Response commands
//  252 #endif
//  253 #ifdef ZCL_SCENES
//  254   NULL,                                        // Scene Store Request command
//  255   NULL,                                        // Scene Recall Request command
//  256   NULL,                                        // Scene Response command
//  257 #endif
//  258 #ifdef ZCL_ALARMS
//  259   NULL,                                        // Alarm (Response) commands
//  260 #endif
//  261 #ifdef SE_UK_EXT
//  262   NULL,                                        // Get Event Log command
//  263   NULL,                                        // Publish Event Log command
//  264 #endif
//  265   NULL,                                        // RSSI Location command
//  266   NULL                                         // RSSI Location Response command
//  267 };
//  268 
//  269 /*********************************************************************
//  270  * @fn          zclSampleThermostat_Init
//  271  *
//  272  * @brief       Initialization function for the zclGeneral layer.
//  273  *
//  274  * @param       none
//  275  *
//  276  * @return      none
//  277  */

        RSEG BANKED_CODE:HUGECODE:NOROOT(0)
//  278 void zclSampleThermostat_Init( byte task_id )
zclSampleThermostat_Init:
          CFI Block cfiBlock0 Using cfiCommon0
          CFI Function zclSampleThermostat_Init
        CODE
//  279 {
        FUNCALL zclSampleThermostat_Init, zclHA_Init
        LOCFRAME ISTACK, 0, STACK
        LOCFRAME PSTACK, 0, STACK
        LOCFRAME XSTACK, 10, STACK
        LOCFRAME IOVERLAY, 0, STATIC
        LOCFRAME DOVERLAY, 0, STATIC
        ARGFRAME ISTACK, 0, STACK
        ARGFRAME PSTACK, 0, STACK
        ARGFRAME XSTACK, 10, STACK
        ARGFRAME IOVERLAY, 0, STATIC
        ARGFRAME DOVERLAY, 0, STATIC
        FUNCALL zclSampleThermostat_Init, zclGeneral_RegisterCmdCallbacks
        LOCFRAME ISTACK, 0, STACK
        LOCFRAME PSTACK, 0, STACK
        LOCFRAME XSTACK, 10, STACK
        LOCFRAME IOVERLAY, 0, STATIC
        LOCFRAME DOVERLAY, 0, STATIC
        ARGFRAME ISTACK, 0, STACK
        ARGFRAME PSTACK, 0, STACK
        ARGFRAME XSTACK, 10, STACK
        ARGFRAME IOVERLAY, 0, STATIC
        ARGFRAME DOVERLAY, 0, STATIC
        FUNCALL zclSampleThermostat_Init, zcl_registerAttrList
        LOCFRAME ISTACK, 0, STACK
        LOCFRAME PSTACK, 0, STACK
        LOCFRAME XSTACK, 10, STACK
        LOCFRAME IOVERLAY, 0, STATIC
        LOCFRAME DOVERLAY, 0, STATIC
        ARGFRAME ISTACK, 0, STACK
        ARGFRAME PSTACK, 0, STACK
        ARGFRAME XSTACK, 10, STACK
        ARGFRAME IOVERLAY, 0, STATIC
        ARGFRAME DOVERLAY, 0, STATIC
        FUNCALL zclSampleThermostat_Init, zcl_registerForMsg
        LOCFRAME ISTACK, 0, STACK
        LOCFRAME PSTACK, 0, STACK
        LOCFRAME XSTACK, 10, STACK
        LOCFRAME IOVERLAY, 0, STATIC
        LOCFRAME DOVERLAY, 0, STATIC
        ARGFRAME ISTACK, 0, STACK
        ARGFRAME PSTACK, 0, STACK
        ARGFRAME XSTACK, 10, STACK
        ARGFRAME IOVERLAY, 0, STATIC
        ARGFRAME DOVERLAY, 0, STATIC
        FUNCALL zclSampleThermostat_Init, zcl_RegisterEZMode
        LOCFRAME ISTACK, 0, STACK
        LOCFRAME PSTACK, 0, STACK
        LOCFRAME XSTACK, 10, STACK
        LOCFRAME IOVERLAY, 0, STATIC
        LOCFRAME DOVERLAY, 0, STATIC
        ARGFRAME ISTACK, 0, STACK
        ARGFRAME PSTACK, 0, STACK
        ARGFRAME XSTACK, 10, STACK
        ARGFRAME IOVERLAY, 0, STATIC
        ARGFRAME DOVERLAY, 0, STATIC
        FUNCALL zclSampleThermostat_Init, ZDO_RegisterForZDOMsg
        LOCFRAME ISTACK, 0, STACK
        LOCFRAME PSTACK, 0, STACK
        LOCFRAME XSTACK, 10, STACK
        LOCFRAME IOVERLAY, 0, STATIC
        LOCFRAME DOVERLAY, 0, STATIC
        ARGFRAME ISTACK, 0, STACK
        ARGFRAME PSTACK, 0, STACK
        ARGFRAME XSTACK, 10, STACK
        ARGFRAME IOVERLAY, 0, STATIC
        ARGFRAME DOVERLAY, 0, STATIC
        FUNCALL zclSampleThermostat_Init, RegisterForKeys
        LOCFRAME ISTACK, 0, STACK
        LOCFRAME PSTACK, 0, STACK
        LOCFRAME XSTACK, 10, STACK
        LOCFRAME IOVERLAY, 0, STATIC
        LOCFRAME DOVERLAY, 0, STATIC
        ARGFRAME ISTACK, 0, STACK
        ARGFRAME PSTACK, 0, STACK
        ARGFRAME XSTACK, 10, STACK
        ARGFRAME IOVERLAY, 0, STATIC
        ARGFRAME DOVERLAY, 0, STATIC
        FUNCALL zclSampleThermostat_Init, afRegister
        LOCFRAME ISTACK, 0, STACK
        LOCFRAME PSTACK, 0, STACK
        LOCFRAME XSTACK, 10, STACK
        LOCFRAME IOVERLAY, 0, STATIC
        LOCFRAME DOVERLAY, 0, STATIC
        ARGFRAME ISTACK, 0, STACK
        ARGFRAME PSTACK, 0, STACK
        ARGFRAME XSTACK, 10, STACK
        ARGFRAME IOVERLAY, 0, STATIC
        ARGFRAME DOVERLAY, 0, STATIC
        FUNCALL zclSampleThermostat_Init, ZDO_RegisterForZDOMsg
        LOCFRAME ISTACK, 0, STACK
        LOCFRAME PSTACK, 0, STACK
        LOCFRAME XSTACK, 10, STACK
        LOCFRAME IOVERLAY, 0, STATIC
        LOCFRAME DOVERLAY, 0, STATIC
        ARGFRAME ISTACK, 0, STACK
        ARGFRAME PSTACK, 0, STACK
        ARGFRAME XSTACK, 10, STACK
        ARGFRAME IOVERLAY, 0, STATIC
        ARGFRAME DOVERLAY, 0, STATIC
        FUNCALL zclSampleThermostat_Init, ZDO_RegisterForZDOMsg
        LOCFRAME ISTACK, 0, STACK
        LOCFRAME PSTACK, 0, STACK
        LOCFRAME XSTACK, 10, STACK
        LOCFRAME IOVERLAY, 0, STATIC
        LOCFRAME DOVERLAY, 0, STATIC
        ARGFRAME ISTACK, 0, STACK
        ARGFRAME PSTACK, 0, STACK
        ARGFRAME XSTACK, 10, STACK
        ARGFRAME IOVERLAY, 0, STATIC
        ARGFRAME DOVERLAY, 0, STATIC
        FUNCALL zclSampleThermostat_Init, HalLcdWriteString
        LOCFRAME ISTACK, 0, STACK
        LOCFRAME PSTACK, 0, STACK
        LOCFRAME XSTACK, 10, STACK
        LOCFRAME IOVERLAY, 0, STATIC
        LOCFRAME DOVERLAY, 0, STATIC
        ARGFRAME ISTACK, 0, STACK
        ARGFRAME PSTACK, 0, STACK
        ARGFRAME XSTACK, 10, STACK
        ARGFRAME IOVERLAY, 0, STATIC
        ARGFRAME DOVERLAY, 0, STATIC
        FUNCALL zclSampleThermostat_Init, UART_Init
        LOCFRAME ISTACK, 0, STACK
        LOCFRAME PSTACK, 0, STACK
        LOCFRAME XSTACK, 10, STACK
        LOCFRAME IOVERLAY, 0, STATIC
        LOCFRAME DOVERLAY, 0, STATIC
        ARGFRAME ISTACK, 0, STACK
        ARGFRAME PSTACK, 0, STACK
        ARGFRAME XSTACK, 10, STACK
        ARGFRAME IOVERLAY, 0, STATIC
        ARGFRAME DOVERLAY, 0, STATIC
        FUNCALL zclSampleThermostat_Init, GPIO_init
        LOCFRAME ISTACK, 0, STACK
        LOCFRAME PSTACK, 0, STACK
        LOCFRAME XSTACK, 10, STACK
        LOCFRAME IOVERLAY, 0, STATIC
        LOCFRAME DOVERLAY, 0, STATIC
        ARGFRAME ISTACK, 0, STACK
        ARGFRAME PSTACK, 0, STACK
        ARGFRAME XSTACK, 10, STACK
        ARGFRAME IOVERLAY, 0, STATIC
        ARGFRAME DOVERLAY, 0, STATIC
        FUNCALL zclSampleThermostat_Init, osal_start_timerEx
        LOCFRAME ISTACK, 0, STACK
        LOCFRAME PSTACK, 0, STACK
        LOCFRAME XSTACK, 14, STACK
        LOCFRAME IOVERLAY, 0, STATIC
        LOCFRAME DOVERLAY, 0, STATIC
        ARGFRAME ISTACK, 0, STACK
        ARGFRAME PSTACK, 0, STACK
        ARGFRAME XSTACK, 14, STACK
        ARGFRAME IOVERLAY, 0, STATIC
        ARGFRAME DOVERLAY, 0, STATIC
        FUNCALL zclSampleThermostat_Init, osal_start_timerEx
        LOCFRAME ISTACK, 0, STACK
        LOCFRAME PSTACK, 0, STACK
        LOCFRAME XSTACK, 14, STACK
        LOCFRAME IOVERLAY, 0, STATIC
        LOCFRAME DOVERLAY, 0, STATIC
        ARGFRAME ISTACK, 0, STACK
        ARGFRAME PSTACK, 0, STACK
        ARGFRAME XSTACK, 14, STACK
        ARGFRAME IOVERLAY, 0, STATIC
        ARGFRAME DOVERLAY, 0, STATIC
        FUNCALL zclSampleThermostat_Init, NLME_GetShortAddr
        LOCFRAME ISTACK, 0, STACK
        LOCFRAME PSTACK, 0, STACK
        LOCFRAME XSTACK, 10, STACK
        LOCFRAME IOVERLAY, 0, STATIC
        LOCFRAME DOVERLAY, 0, STATIC
        ARGFRAME ISTACK, 0, STACK
        ARGFRAME PSTACK, 0, STACK
        ARGFRAME XSTACK, 10, STACK
        ARGFRAME IOVERLAY, 0, STATIC
        ARGFRAME DOVERLAY, 0, STATIC
        FUNCALL zclSampleThermostat_Init, osal_set_event
        LOCFRAME ISTACK, 0, STACK
        LOCFRAME PSTACK, 0, STACK
        LOCFRAME XSTACK, 10, STACK
        LOCFRAME IOVERLAY, 0, STATIC
        LOCFRAME DOVERLAY, 0, STATIC
        ARGFRAME ISTACK, 0, STACK
        ARGFRAME PSTACK, 0, STACK
        ARGFRAME XSTACK, 10, STACK
        ARGFRAME IOVERLAY, 0, STATIC
        ARGFRAME DOVERLAY, 0, STATIC
        REQUIRE ?V0
        REQUIRE ?V1
        MOV     A,#-0xa
        LCALL   ?BANKED_ENTER_XDATA
          CFI DPH0 load(1, XDATA, add(CFA_XSP16, literal(-1)))
          CFI DPL0 load(1, XDATA, add(CFA_XSP16, literal(-2)))
          CFI ?BRET_EXT load(1, XDATA, add(CFA_XSP16, literal(-3)))
          CFI ?RET_HIGH load(1, XDATA, add(CFA_XSP16, literal(-4)))
          CFI ?RET_LOW load(1, XDATA, add(CFA_XSP16, literal(-5)))
          CFI R7 load(1, XDATA, add(CFA_XSP16, literal(-6)))
          CFI V1 load(1, XDATA, add(CFA_XSP16, literal(-7)))
          CFI V0 load(1, XDATA, add(CFA_XSP16, literal(-8)))
          CFI VB load(1, XDATA, add(CFA_XSP16, literal(-9)))
          CFI R6 load(1, XDATA, add(CFA_XSP16, literal(-10)))
          CFI CFA_SP SP+0
          CFI CFA_XSP16 add(XSP16, 10)
        ; Saved register size: 10
        ; Auto size: 0
        MOV     A,R1
        MOV     R6,A
//  280   zclSampleThermostat_TaskID = task_id;
        MOV     DPTR,#zclSampleThermostat_TaskID
        MOVX    @DPTR,A
//  281 
//  282   // Set destination address to indirect
//  283   zclSampleThermostat_DstAddr.addrMode = (afAddrMode_t)AddrNotPresent;
        MOV     DPTR,#zclSampleThermostat_DstAddr + 8
        CLR     A
        MOVX    @DPTR,A
//  284   zclSampleThermostat_DstAddr.endPoint = 0;
        INC     DPTR
        MOVX    @DPTR,A
//  285   zclSampleThermostat_DstAddr.addr.shortAddr = 0;
        MOV     DPTR,#zclSampleThermostat_DstAddr
        MOVX    @DPTR,A
        INC     DPTR
        MOVX    @DPTR,A
//  286 
//  287   // This app is part of the Home Automation Profile
//  288   zclHA_Init( &zclSampleThermostat_SimpleDesc );
        ; Setup parameters for call to function zclHA_Init
        MOV     R2,#zclSampleThermostat_SimpleDesc & 0xff
        MOV     R3,#(zclSampleThermostat_SimpleDesc >> 8) & 0xff
        LCALL   `??zclHA_Init::?relay`; Banked call to: zclHA_Init
//  289 
//  290   // Register the ZCL General Cluster Library callback functions
//  291   zclGeneral_RegisterCmdCallbacks( SAMPLETHERMOSTAT_ENDPOINT, &zclSampleThermostat_CmdCallbacks );
        ; Setup parameters for call to function zclGeneral_RegisterCmdCallbacks
        MOV     R2,#zclSampleThermostat_CmdCallbacks & 0xff
        MOV     R3,#(zclSampleThermostat_CmdCallbacks >> 8) & 0xff
        MOV     R1,#0x8
        LCALL   `??zclGeneral_RegisterCmdCallbacks::?relay`; Banked call to: zclGeneral_RegisterCmdCallbacks
//  292 
//  293   // Register the application's attribute list
//  294   zcl_registerAttrList( SAMPLETHERMOSTAT_ENDPOINT, SAMPLETHERMOSTAT_MAX_ATTRIBUTES, zclSampleThermostat_Attrs );
        ; Setup parameters for call to function zcl_registerAttrList
        MOV     R4,#zclSampleThermostat_Attrs & 0xff
        MOV     R5,#(zclSampleThermostat_Attrs >> 8) & 0xff
        MOV     R2,#0x16
        MOV     R1,#0x8
        LCALL   `??zcl_registerAttrList::?relay`; Banked call to: zcl_registerAttrList
//  295 
//  296   // Register the Application to receive the unprocessed Foundation command/response messages
//  297   zcl_registerForMsg( zclSampleThermostat_TaskID );
        ; Setup parameters for call to function zcl_registerForMsg
        MOV     DPTR,#zclSampleThermostat_TaskID
        MOVX    A,@DPTR
        MOV     R1,A
        LCALL   `??zcl_registerForMsg::?relay`; Banked call to: zcl_registerForMsg
//  298 
//  299 	#ifdef ZCL_EZMODE
//  300   // Register EZ-Mode
//  301   zcl_RegisterEZMode( &zclSampleThermostat_RegisterEZModeData );
        ; Setup parameters for call to function zcl_RegisterEZMode
        MOV     R2,#zclSampleThermostat_RegisterEZModeData & 0xff
        MOV     R3,#(zclSampleThermostat_RegisterEZModeData >> 8) & 0xff
        LCALL   `??zcl_RegisterEZMode::?relay`; Banked call to: zcl_RegisterEZMode
//  302 
//  303   // Register with the ZDO to receive Match Descriptor Responses
//  304   ZDO_RegisterForZDOMsg(task_id, Match_Desc_rsp);
        ; Setup parameters for call to function ZDO_RegisterForZDOMsg
        MOV     R2,#0x6
        MOV     R3,#-0x80
        MOV     A,R6
        MOV     R1,A
        LCALL   `??ZDO_RegisterForZDOMsg::?relay`; Banked call to: ZDO_RegisterForZDOMsg
//  305 	#endif
//  306 
//  307   // Register for all key events - This app will handle all key events
//  308   RegisterForKeys( zclSampleThermostat_TaskID );
        ; Setup parameters for call to function RegisterForKeys
        MOV     DPTR,#zclSampleThermostat_TaskID
        MOVX    A,@DPTR
        MOV     R1,A
        LCALL   `??RegisterForKeys::?relay`; Banked call to: RegisterForKeys
//  309 
//  310   // Register for a test endpoint
//  311   afRegister( &sampleThermostat_TestEp );
        ; Setup parameters for call to function afRegister
        MOV     R2,#sampleThermostat_TestEp & 0xff
        MOV     R3,#(sampleThermostat_TestEp >> 8) & 0xff
        LCALL   `??afRegister::?relay`; Banked call to: afRegister
//  312 
//  313   ZDO_RegisterForZDOMsg( zclSampleThermostat_TaskID, End_Device_Bind_rsp );
        ; Setup parameters for call to function ZDO_RegisterForZDOMsg
        MOV     R2,#0x20
        MOV     R3,#-0x80
        MOV     DPTR,#zclSampleThermostat_TaskID
        MOVX    A,@DPTR
        MOV     R1,A
        LCALL   `??ZDO_RegisterForZDOMsg::?relay`; Banked call to: ZDO_RegisterForZDOMsg
//  314   ZDO_RegisterForZDOMsg( zclSampleThermostat_TaskID, Match_Desc_rsp );
        ; Setup parameters for call to function ZDO_RegisterForZDOMsg
        MOV     R2,#0x6
        MOV     R3,#-0x80
        MOV     DPTR,#zclSampleThermostat_TaskID
        MOVX    A,@DPTR
        MOV     R1,A
        LCALL   `??ZDO_RegisterForZDOMsg::?relay`; Banked call to: ZDO_RegisterForZDOMsg
//  315 
//  316 	#ifdef LCD_SUPPORTED
//  317   // display the device name
//  318   HalLcdWriteString( (char *)sDeviceName, HAL_LCD_LINE_3 );
        ; Setup parameters for call to function HalLcdWriteString
        MOV     R1,#0x3
        MOV     R2,#sDeviceName & 0xff
        MOV     R3,#(sDeviceName >> 8) & 0xff
        LCALL   `??HalLcdWriteString::?relay`; Banked call to: HalLcdWriteString
//  319 	#endif
//  320 
//  321 	#ifdef ZGP_AUTO_TT
//  322   zgpTranslationTable_RegisterEP( &zclSampleThermostat_SimpleDesc );
//  323 	#endif
//  324 
//  325 	UART_Init(HAL_UART_PORT_0);
        ; Setup parameters for call to function UART_Init
        MOV     R1,#0x0
        LCALL   `??UART_Init::?relay`; Banked call to: UART_Init
//  326 	// cho nay khai bao gpio
//  327 	GPIO_init();
        ; Setup parameters for call to function GPIO_init
        LCALL   `??GPIO_init::?relay`; Banked call to: GPIO_init
//  328 	
//  329 	// Set timer for first UART Reply CMD event
//  330 	osal_start_timerEx( zclSampleThermostat_TaskID, SAMPLETHERMOSTAT_UART_REPLY_CMD_EVT, UART_PARSE_RX_PACKAGE_EVT_PERIOD );
        ; Setup parameters for call to function osal_start_timerEx
        MOV     DPTR,#__Constant_a
        LCALL   ?PUSH_XSTACK8_X_FOUR
          CFI CFA_XSP16 add(XSP16, 14)
        MOV     R2,#0x40
        MOV     R3,#0x0
        MOV     DPTR,#zclSampleThermostat_TaskID
        MOVX    A,@DPTR
        MOV     R1,A
        LCALL   `??osal_start_timerEx::?relay`; Banked call to: osal_start_timerEx
        MOV     A,#0x4
        LCALL   ?DEALLOC_XSTACK8
          CFI CFA_XSP16 add(XSP16, 10)
//  331 
//  332 	// Set timer for first Check System event
//  333 	osal_start_timerEx( zclSampleThermostat_TaskID, SAMPLETHERMOSTAT_CHECK_SYSTEM_EVT, CHECK_SYSTEM_EVT_PERIOD );
        ; Setup parameters for call to function osal_start_timerEx
        MOV     DPTR,#__Constant_2710
        LCALL   ?PUSH_XSTACK8_X_FOUR
          CFI CFA_XSP16 add(XSP16, 14)
        MOV     R2,#-0x80
        MOV     R3,#0x0
        MOV     DPTR,#zclSampleThermostat_TaskID
        MOVX    A,@DPTR
        MOV     R1,A
        LCALL   `??osal_start_timerEx::?relay`; Banked call to: osal_start_timerEx
        MOV     A,#0x4
        LCALL   ?DEALLOC_XSTACK8
          CFI CFA_XSP16 add(XSP16, 10)
//  334 
//  335 	// Set timer for first Join Setup event
//  336 	if (NLME_GetShortAddr() != 0xFFFE)
        ; Setup parameters for call to function NLME_GetShortAddr
        LCALL   `??NLME_GetShortAddr::?relay`; Banked call to: NLME_GetShortAddr
        MOV     ?V0,R2
        MOV     ?V1,R3
        MOV     A,#-0x2
        XRL     A,?V0
        JNZ     ??zclSampleThermostat_Init_0
        MOV     A,#-0x1
        XRL     A,?V1
??zclSampleThermostat_Init_0:
        JZ      ??zclSampleThermostat_Init_1
//  337 	{
//  338 		osal_set_event( zclSampleThermostat_TaskID, SAMPLETHERMOSTAT_JOIN_SETUP_EVT );
        ; Setup parameters for call to function osal_set_event
        MOV     R2,#0x20
        MOV     R3,#0x0
        MOV     DPTR,#zclSampleThermostat_TaskID
        MOVX    A,@DPTR
        MOV     R1,A
        LCALL   `??osal_set_event::?relay`; Banked call to: osal_set_event
//  339 	}
//  340 	
//  341 }
??zclSampleThermostat_Init_1:
        MOV     R7,#0x2
        LJMP    ?BANKED_LEAVE_XDATA
          CFI EndBlock cfiBlock0
//  342 
//  343 /*********************************************************************
//  344  * @fn          zclSample_event_loop
//  345  *
//  346  * @brief       Event Loop Processor for zclGeneral.
//  347  *
//  348  * @param       none
//  349  *
//  350  * @return      none
//  351  */

        RSEG BANKED_CODE:HUGECODE:NOROOT(0)
//  352 uint16 zclSampleThermostat_event_loop( uint8 task_id, uint16 events )
zclSampleThermostat_event_loop:
          CFI Block cfiBlock1 Using cfiCommon0
          CFI Function zclSampleThermostat_event_loop
        CODE
//  353 {
        FUNCALL zclSampleThermostat_event_loop, zclSampleThermostat_ProcessIdentifyTimeChange
        LOCFRAME ISTACK, 0, STACK
        LOCFRAME PSTACK, 0, STACK
        LOCFRAME XSTACK, 16, STACK
        LOCFRAME IOVERLAY, 0, STATIC
        LOCFRAME DOVERLAY, 0, STATIC
        ARGFRAME ISTACK, 0, STACK
        ARGFRAME PSTACK, 0, STACK
        ARGFRAME XSTACK, 16, STACK
        ARGFRAME IOVERLAY, 0, STATIC
        ARGFRAME DOVERLAY, 0, STATIC
        FUNCALL zclSampleThermostat_event_loop, UART_DebugPrint
        LOCFRAME ISTACK, 0, STACK
        LOCFRAME PSTACK, 0, STACK
        LOCFRAME XSTACK, 16, STACK
        LOCFRAME IOVERLAY, 0, STATIC
        LOCFRAME DOVERLAY, 0, STATIC
        ARGFRAME ISTACK, 0, STACK
        ARGFRAME PSTACK, 0, STACK
        ARGFRAME XSTACK, 16, STACK
        ARGFRAME IOVERLAY, 0, STATIC
        ARGFRAME DOVERLAY, 0, STATIC
        FUNCALL zclSampleThermostat_event_loop, zclSampleThermostat_LcdDisplayUpdate
        LOCFRAME ISTACK, 0, STACK
        LOCFRAME PSTACK, 0, STACK
        LOCFRAME XSTACK, 16, STACK
        LOCFRAME IOVERLAY, 0, STATIC
        LOCFRAME DOVERLAY, 0, STATIC
        ARGFRAME ISTACK, 0, STACK
        ARGFRAME PSTACK, 0, STACK
        ARGFRAME XSTACK, 16, STACK
        ARGFRAME IOVERLAY, 0, STATIC
        ARGFRAME DOVERLAY, 0, STATIC
        FUNCALL zclSampleThermostat_event_loop, zcl_EZModeAction
        LOCFRAME ISTACK, 0, STACK
        LOCFRAME PSTACK, 0, STACK
        LOCFRAME XSTACK, 16, STACK
        LOCFRAME IOVERLAY, 0, STATIC
        LOCFRAME DOVERLAY, 0, STATIC
        ARGFRAME ISTACK, 0, STACK
        ARGFRAME PSTACK, 0, STACK
        ARGFRAME XSTACK, 16, STACK
        ARGFRAME IOVERLAY, 0, STATIC
        ARGFRAME DOVERLAY, 0, STATIC
        FUNCALL zclSampleThermostat_event_loop, UART_DebugPrint
        LOCFRAME ISTACK, 0, STACK
        LOCFRAME PSTACK, 0, STACK
        LOCFRAME XSTACK, 16, STACK
        LOCFRAME IOVERLAY, 0, STATIC
        LOCFRAME DOVERLAY, 0, STATIC
        ARGFRAME ISTACK, 0, STACK
        ARGFRAME PSTACK, 0, STACK
        ARGFRAME XSTACK, 16, STACK
        ARGFRAME IOVERLAY, 0, STATIC
        ARGFRAME DOVERLAY, 0, STATIC
        FUNCALL zclSampleThermostat_event_loop, osal_msg_deallocate
        LOCFRAME ISTACK, 0, STACK
        LOCFRAME PSTACK, 0, STACK
        LOCFRAME XSTACK, 16, STACK
        LOCFRAME IOVERLAY, 0, STATIC
        LOCFRAME DOVERLAY, 0, STATIC
        ARGFRAME ISTACK, 0, STACK
        ARGFRAME PSTACK, 0, STACK
        ARGFRAME XSTACK, 16, STACK
        ARGFRAME IOVERLAY, 0, STATIC
        ARGFRAME DOVERLAY, 0, STATIC
        FUNCALL zclSampleThermostat_event_loop, osal_msg_receive
        LOCFRAME ISTACK, 0, STACK
        LOCFRAME PSTACK, 0, STACK
        LOCFRAME XSTACK, 16, STACK
        LOCFRAME IOVERLAY, 0, STATIC
        LOCFRAME DOVERLAY, 0, STATIC
        ARGFRAME ISTACK, 0, STACK
        ARGFRAME PSTACK, 0, STACK
        ARGFRAME XSTACK, 16, STACK
        ARGFRAME IOVERLAY, 0, STATIC
        ARGFRAME DOVERLAY, 0, STATIC
        FUNCALL zclSampleThermostat_event_loop, ZDO_ParseEPListRsp
        LOCFRAME ISTACK, 0, STACK
        LOCFRAME PSTACK, 0, STACK
        LOCFRAME XSTACK, 16, STACK
        LOCFRAME IOVERLAY, 0, STATIC
        LOCFRAME DOVERLAY, 0, STATIC
        ARGFRAME ISTACK, 0, STACK
        ARGFRAME PSTACK, 0, STACK
        ARGFRAME XSTACK, 16, STACK
        ARGFRAME IOVERLAY, 0, STATIC
        ARGFRAME DOVERLAY, 0, STATIC
        FUNCALL zclSampleThermostat_event_loop, zcl_EZModeAction
        LOCFRAME ISTACK, 0, STACK
        LOCFRAME PSTACK, 0, STACK
        LOCFRAME XSTACK, 16, STACK
        LOCFRAME IOVERLAY, 0, STATIC
        LOCFRAME DOVERLAY, 0, STATIC
        ARGFRAME ISTACK, 0, STACK
        ARGFRAME PSTACK, 0, STACK
        ARGFRAME XSTACK, 16, STACK
        ARGFRAME IOVERLAY, 0, STATIC
        ARGFRAME DOVERLAY, 0, STATIC
        FUNCALL zclSampleThermostat_event_loop, osal_mem_free
        LOCFRAME ISTACK, 0, STACK
        LOCFRAME PSTACK, 0, STACK
        LOCFRAME XSTACK, 16, STACK
        LOCFRAME IOVERLAY, 0, STATIC
        LOCFRAME DOVERLAY, 0, STATIC
        ARGFRAME ISTACK, 0, STACK
        ARGFRAME PSTACK, 0, STACK
        ARGFRAME XSTACK, 16, STACK
        ARGFRAME IOVERLAY, 0, STATIC
        ARGFRAME DOVERLAY, 0, STATIC
        FUNCALL zclSampleThermostat_event_loop, UART_DebugPrint
        LOCFRAME ISTACK, 0, STACK
        LOCFRAME PSTACK, 0, STACK
        LOCFRAME XSTACK, 16, STACK
        LOCFRAME IOVERLAY, 0, STATIC
        LOCFRAME DOVERLAY, 0, STATIC
        ARGFRAME ISTACK, 0, STACK
        ARGFRAME PSTACK, 0, STACK
        ARGFRAME XSTACK, 16, STACK
        ARGFRAME IOVERLAY, 0, STATIC
        ARGFRAME DOVERLAY, 0, STATIC
        FUNCALL zclSampleThermostat_event_loop, zclSampleThermostat_ProcessAppMsg
        LOCFRAME ISTACK, 0, STACK
        LOCFRAME PSTACK, 0, STACK
        LOCFRAME XSTACK, 16, STACK
        LOCFRAME IOVERLAY, 0, STATIC
        LOCFRAME DOVERLAY, 0, STATIC
        ARGFRAME ISTACK, 0, STACK
        ARGFRAME PSTACK, 0, STACK
        ARGFRAME XSTACK, 16, STACK
        ARGFRAME IOVERLAY, 0, STATIC
        ARGFRAME DOVERLAY, 0, STATIC
        FUNCALL zclSampleThermostat_event_loop, UART_DebugPrint
        LOCFRAME ISTACK, 0, STACK
        LOCFRAME PSTACK, 0, STACK
        LOCFRAME XSTACK, 16, STACK
        LOCFRAME IOVERLAY, 0, STATIC
        LOCFRAME DOVERLAY, 0, STATIC
        ARGFRAME ISTACK, 0, STACK
        ARGFRAME PSTACK, 0, STACK
        ARGFRAME XSTACK, 16, STACK
        ARGFRAME IOVERLAY, 0, STATIC
        ARGFRAME DOVERLAY, 0, STATIC
        FUNCALL zclSampleThermostat_event_loop, zclSampleThermostat_ProcessInReportCmd
        LOCFRAME ISTACK, 0, STACK
        LOCFRAME PSTACK, 0, STACK
        LOCFRAME XSTACK, 16, STACK
        LOCFRAME IOVERLAY, 0, STATIC
        LOCFRAME DOVERLAY, 0, STATIC
        ARGFRAME ISTACK, 0, STACK
        ARGFRAME PSTACK, 0, STACK
        ARGFRAME XSTACK, 16, STACK
        ARGFRAME IOVERLAY, 0, STATIC
        ARGFRAME DOVERLAY, 0, STATIC
        FUNCALL zclSampleThermostat_event_loop, osal_mem_free
        LOCFRAME ISTACK, 0, STACK
        LOCFRAME PSTACK, 0, STACK
        LOCFRAME XSTACK, 16, STACK
        LOCFRAME IOVERLAY, 0, STATIC
        LOCFRAME DOVERLAY, 0, STATIC
        ARGFRAME ISTACK, 0, STACK
        ARGFRAME PSTACK, 0, STACK
        ARGFRAME XSTACK, 16, STACK
        ARGFRAME IOVERLAY, 0, STATIC
        ARGFRAME DOVERLAY, 0, STATIC
        FUNCALL zclSampleThermostat_event_loop, UART_DebugPrint
        LOCFRAME ISTACK, 0, STACK
        LOCFRAME PSTACK, 0, STACK
        LOCFRAME XSTACK, 16, STACK
        LOCFRAME IOVERLAY, 0, STATIC
        LOCFRAME DOVERLAY, 0, STATIC
        ARGFRAME ISTACK, 0, STACK
        ARGFRAME PSTACK, 0, STACK
        ARGFRAME XSTACK, 16, STACK
        ARGFRAME IOVERLAY, 0, STATIC
        ARGFRAME DOVERLAY, 0, STATIC
        FUNCALL zclSampleThermostat_event_loop, zclSampleThermostat_HandleKeys
        LOCFRAME ISTACK, 0, STACK
        LOCFRAME PSTACK, 0, STACK
        LOCFRAME XSTACK, 16, STACK
        LOCFRAME IOVERLAY, 0, STATIC
        LOCFRAME DOVERLAY, 0, STATIC
        ARGFRAME ISTACK, 0, STACK
        ARGFRAME PSTACK, 0, STACK
        ARGFRAME XSTACK, 16, STACK
        ARGFRAME IOVERLAY, 0, STATIC
        ARGFRAME DOVERLAY, 0, STATIC
        FUNCALL zclSampleThermostat_event_loop, UART_DebugPrint
        LOCFRAME ISTACK, 0, STACK
        LOCFRAME PSTACK, 0, STACK
        LOCFRAME XSTACK, 16, STACK
        LOCFRAME IOVERLAY, 0, STATIC
        LOCFRAME DOVERLAY, 0, STATIC
        ARGFRAME ISTACK, 0, STACK
        ARGFRAME PSTACK, 0, STACK
        ARGFRAME XSTACK, 16, STACK
        ARGFRAME IOVERLAY, 0, STATIC
        ARGFRAME DOVERLAY, 0, STATIC
        FUNCALL zclSampleThermostat_event_loop, zclSampleThermostat_LcdDisplayUpdate
        LOCFRAME ISTACK, 0, STACK
        LOCFRAME PSTACK, 0, STACK
        LOCFRAME XSTACK, 16, STACK
        LOCFRAME IOVERLAY, 0, STATIC
        LOCFRAME DOVERLAY, 0, STATIC
        ARGFRAME ISTACK, 0, STACK
        ARGFRAME PSTACK, 0, STACK
        ARGFRAME XSTACK, 16, STACK
        ARGFRAME IOVERLAY, 0, STATIC
        ARGFRAME DOVERLAY, 0, STATIC
        FUNCALL zclSampleThermostat_event_loop, UART_DebugPrint
        LOCFRAME ISTACK, 0, STACK
        LOCFRAME PSTACK, 0, STACK
        LOCFRAME XSTACK, 16, STACK
        LOCFRAME IOVERLAY, 0, STATIC
        LOCFRAME DOVERLAY, 0, STATIC
        ARGFRAME ISTACK, 0, STACK
        ARGFRAME PSTACK, 0, STACK
        ARGFRAME XSTACK, 16, STACK
        ARGFRAME IOVERLAY, 0, STATIC
        ARGFRAME DOVERLAY, 0, STATIC
        FUNCALL zclSampleThermostat_event_loop, zcl_EZModeAction
        LOCFRAME ISTACK, 0, STACK
        LOCFRAME PSTACK, 0, STACK
        LOCFRAME XSTACK, 16, STACK
        LOCFRAME IOVERLAY, 0, STATIC
        LOCFRAME DOVERLAY, 0, STATIC
        ARGFRAME ISTACK, 0, STACK
        ARGFRAME PSTACK, 0, STACK
        ARGFRAME XSTACK, 16, STACK
        ARGFRAME IOVERLAY, 0, STATIC
        ARGFRAME DOVERLAY, 0, STATIC
        FUNCALL zclSampleThermostat_event_loop, UART_DebugPrint
        LOCFRAME ISTACK, 0, STACK
        LOCFRAME PSTACK, 0, STACK
        LOCFRAME XSTACK, 16, STACK
        LOCFRAME IOVERLAY, 0, STATIC
        LOCFRAME DOVERLAY, 0, STATIC
        ARGFRAME ISTACK, 0, STACK
        ARGFRAME PSTACK, 0, STACK
        ARGFRAME XSTACK, 16, STACK
        ARGFRAME IOVERLAY, 0, STATIC
        ARGFRAME DOVERLAY, 0, STATIC
        FUNCALL zclSampleThermostat_event_loop, zcl_EZModeAction
        LOCFRAME ISTACK, 0, STACK
        LOCFRAME PSTACK, 0, STACK
        LOCFRAME XSTACK, 16, STACK
        LOCFRAME IOVERLAY, 0, STATIC
        LOCFRAME DOVERLAY, 0, STATIC
        ARGFRAME ISTACK, 0, STACK
        ARGFRAME PSTACK, 0, STACK
        ARGFRAME XSTACK, 16, STACK
        ARGFRAME IOVERLAY, 0, STATIC
        ARGFRAME DOVERLAY, 0, STATIC
        FUNCALL zclSampleThermostat_event_loop, UART_DebugPrint
        LOCFRAME ISTACK, 0, STACK
        LOCFRAME PSTACK, 0, STACK
        LOCFRAME XSTACK, 16, STACK
        LOCFRAME IOVERLAY, 0, STATIC
        LOCFRAME DOVERLAY, 0, STATIC
        ARGFRAME ISTACK, 0, STACK
        ARGFRAME PSTACK, 0, STACK
        ARGFRAME XSTACK, 16, STACK
        ARGFRAME IOVERLAY, 0, STATIC
        ARGFRAME DOVERLAY, 0, STATIC
        FUNCALL zclSampleThermostat_event_loop, zclSampleThermostat_BindingProcess
        LOCFRAME ISTACK, 0, STACK
        LOCFRAME PSTACK, 0, STACK
        LOCFRAME XSTACK, 16, STACK
        LOCFRAME IOVERLAY, 0, STATIC
        LOCFRAME DOVERLAY, 0, STATIC
        ARGFRAME ISTACK, 0, STACK
        ARGFRAME PSTACK, 0, STACK
        ARGFRAME XSTACK, 16, STACK
        ARGFRAME IOVERLAY, 0, STATIC
        ARGFRAME DOVERLAY, 0, STATIC
        FUNCALL zclSampleThermostat_event_loop, osal_start_timerEx
        LOCFRAME ISTACK, 0, STACK
        LOCFRAME PSTACK, 0, STACK
        LOCFRAME XSTACK, 20, STACK
        LOCFRAME IOVERLAY, 0, STATIC
        LOCFRAME DOVERLAY, 0, STATIC
        ARGFRAME ISTACK, 0, STACK
        ARGFRAME PSTACK, 0, STACK
        ARGFRAME XSTACK, 20, STACK
        ARGFRAME IOVERLAY, 0, STATIC
        ARGFRAME DOVERLAY, 0, STATIC
        FUNCALL zclSampleThermostat_event_loop, zclSampleThermostat_BindingProcess
        LOCFRAME ISTACK, 0, STACK
        LOCFRAME PSTACK, 0, STACK
        LOCFRAME XSTACK, 16, STACK
        LOCFRAME IOVERLAY, 0, STATIC
        LOCFRAME DOVERLAY, 0, STATIC
        ARGFRAME ISTACK, 0, STACK
        ARGFRAME PSTACK, 0, STACK
        ARGFRAME XSTACK, 16, STACK
        ARGFRAME IOVERLAY, 0, STATIC
        ARGFRAME DOVERLAY, 0, STATIC
        FUNCALL zclSampleThermostat_event_loop, UART_DebugPrint
        LOCFRAME ISTACK, 0, STACK
        LOCFRAME PSTACK, 0, STACK
        LOCFRAME XSTACK, 16, STACK
        LOCFRAME IOVERLAY, 0, STATIC
        LOCFRAME DOVERLAY, 0, STATIC
        ARGFRAME ISTACK, 0, STACK
        ARGFRAME PSTACK, 0, STACK
        ARGFRAME XSTACK, 16, STACK
        ARGFRAME IOVERLAY, 0, STATIC
        ARGFRAME DOVERLAY, 0, STATIC
        FUNCALL zclSampleThermostat_event_loop, UART_ParseRxPackage
        LOCFRAME ISTACK, 0, STACK
        LOCFRAME PSTACK, 0, STACK
        LOCFRAME XSTACK, 16, STACK
        LOCFRAME IOVERLAY, 0, STATIC
        LOCFRAME DOVERLAY, 0, STATIC
        ARGFRAME ISTACK, 0, STACK
        ARGFRAME PSTACK, 0, STACK
        ARGFRAME XSTACK, 16, STACK
        ARGFRAME IOVERLAY, 0, STATIC
        ARGFRAME DOVERLAY, 0, STATIC
        FUNCALL zclSampleThermostat_event_loop, ZCMD_ReplyCMD
        LOCFRAME ISTACK, 0, STACK
        LOCFRAME PSTACK, 0, STACK
        LOCFRAME XSTACK, 16, STACK
        LOCFRAME IOVERLAY, 0, STATIC
        LOCFRAME DOVERLAY, 0, STATIC
        ARGFRAME ISTACK, 0, STACK
        ARGFRAME PSTACK, 0, STACK
        ARGFRAME XSTACK, 16, STACK
        ARGFRAME IOVERLAY, 0, STATIC
        ARGFRAME DOVERLAY, 0, STATIC
        FUNCALL zclSampleThermostat_event_loop, osal_start_timerEx
        LOCFRAME ISTACK, 0, STACK
        LOCFRAME PSTACK, 0, STACK
        LOCFRAME XSTACK, 20, STACK
        LOCFRAME IOVERLAY, 0, STATIC
        LOCFRAME DOVERLAY, 0, STATIC
        ARGFRAME ISTACK, 0, STACK
        ARGFRAME PSTACK, 0, STACK
        ARGFRAME XSTACK, 20, STACK
        ARGFRAME IOVERLAY, 0, STATIC
        ARGFRAME DOVERLAY, 0, STATIC
        FUNCALL zclSampleThermostat_event_loop, osal_set_event
        LOCFRAME ISTACK, 0, STACK
        LOCFRAME PSTACK, 0, STACK
        LOCFRAME XSTACK, 16, STACK
        LOCFRAME IOVERLAY, 0, STATIC
        LOCFRAME DOVERLAY, 0, STATIC
        ARGFRAME ISTACK, 0, STACK
        ARGFRAME PSTACK, 0, STACK
        ARGFRAME XSTACK, 16, STACK
        ARGFRAME IOVERLAY, 0, STATIC
        ARGFRAME DOVERLAY, 0, STATIC
        FUNCALL zclSampleThermostat_event_loop, osal_start_timerEx
        LOCFRAME ISTACK, 0, STACK
        LOCFRAME PSTACK, 0, STACK
        LOCFRAME XSTACK, 20, STACK
        LOCFRAME IOVERLAY, 0, STATIC
        LOCFRAME DOVERLAY, 0, STATIC
        ARGFRAME ISTACK, 0, STACK
        ARGFRAME PSTACK, 0, STACK
        ARGFRAME XSTACK, 20, STACK
        ARGFRAME IOVERLAY, 0, STATIC
        ARGFRAME DOVERLAY, 0, STATIC
        REQUIRE ?V0
        REQUIRE ?V1
        REQUIRE ?V2
        REQUIRE ?V3
        REQUIRE ?V4
        REQUIRE ?V5
        MOV     A,#-0xe
        LCALL   ?BANKED_ENTER_XDATA
          CFI DPH0 load(1, XDATA, add(CFA_XSP16, literal(-1)))
          CFI DPL0 load(1, XDATA, add(CFA_XSP16, literal(-2)))
          CFI ?BRET_EXT load(1, XDATA, add(CFA_XSP16, literal(-3)))
          CFI ?RET_HIGH load(1, XDATA, add(CFA_XSP16, literal(-4)))
          CFI ?RET_LOW load(1, XDATA, add(CFA_XSP16, literal(-5)))
          CFI R7 load(1, XDATA, add(CFA_XSP16, literal(-6)))
          CFI V5 load(1, XDATA, add(CFA_XSP16, literal(-7)))
          CFI V4 load(1, XDATA, add(CFA_XSP16, literal(-8)))
          CFI V3 load(1, XDATA, add(CFA_XSP16, literal(-9)))
          CFI V2 load(1, XDATA, add(CFA_XSP16, literal(-10)))
          CFI V1 load(1, XDATA, add(CFA_XSP16, literal(-11)))
          CFI V0 load(1, XDATA, add(CFA_XSP16, literal(-12)))
          CFI VB load(1, XDATA, add(CFA_XSP16, literal(-13)))
          CFI R6 load(1, XDATA, add(CFA_XSP16, literal(-14)))
          CFI CFA_SP SP+0
          CFI CFA_XSP16 add(XSP16, 14)
        ; Saved register size: 14
        ; Auto size: 2
        MOV     A,#-0x2
        LCALL   ?ALLOC_XSTACK8
          CFI CFA_XSP16 add(XSP16, 16)
        MOV     A,R2
        MOV     R6,A
        MOV     A,R3
        MOV     R7,A
//  354   afIncomingMSGPacket_t *MSGpkt;
//  355 
//  356   (void)task_id;  // Intentionally unreferenced parameter
//  357 
//  358 	/*--------------------------------------------------------------------------*/
//  359   if ( events & SYS_EVENT_MSG )
        ANL     A,#0x80
        JNZ     ??zclSampleThermostat_event_loop_0
//  360   {
//  361     while ( (MSGpkt = (afIncomingMSGPacket_t *)osal_msg_receive( zclSampleThermostat_TaskID )) )
//  362     {
//  363     	msg_RSSI = MSGpkt->rssi;
//  364 				
//  365       switch ( MSGpkt->hdr.event )
//  366       {
//  367 				#ifdef ZCL_EZMODE
//  368         case ZDO_CB_MSG:
//  369           zclSampleThermostat_ProcessZDOMsgs( (zdoIncomingMsg_t *)MSGpkt );
//  370 					UART_DebugPrint(HAL_UART_PORT_0, "[EVENT] ZDO_CB_MSG");
//  371           break;
//  372 				#endif
//  373 
//  374         case MT_SYS_APP_MSG:
//  375           // Message received from MT
//  376           zclSampleThermostat_ProcessAppMsg( ((mtSysAppMsg_t *)MSGpkt)->endpoint,
//  377                                           ((mtSysAppMsg_t *)MSGpkt)->appDataLen,
//  378                                           ((mtSysAppMsg_t *)MSGpkt)->appData );
//  379 					UART_DebugPrint(HAL_UART_PORT_0, "[EVENT] MT_SYS_APP_MSG");
//  380           break;
//  381 
//  382         case ZCL_INCOMING_MSG:
//  383           // Incoming ZCL Foundation command/response messages
//  384           zclSampleThermostat_ProcessIncomingMsg( (zclIncomingMsg_t *)MSGpkt );
//  385 					UART_DebugPrint(HAL_UART_PORT_0, "[EVENT] ZCL_INCOMING_MSG");
//  386           break;
//  387 
//  388         case KEY_CHANGE:
//  389           zclSampleThermostat_HandleKeys( ((keyChange_t *)MSGpkt)->state, ((keyChange_t *)MSGpkt)->keys );
//  390 					UART_DebugPrint(HAL_UART_PORT_0, "[EVENT] KEY_CHANGE");
//  391           break;
//  392 
//  393         case ZDO_STATE_CHANGE:
//  394           zclSampleThermostat_NwkState = (devStates_t)(MSGpkt->hdr.status);
//  395 
//  396 
//  397           // now on the network
//  398           if ( ( zclSampleThermostat_NwkState == DEV_ZB_COORD ) ||
//  399                ( zclSampleThermostat_NwkState == DEV_ROUTER )   ||
//  400                ( zclSampleThermostat_NwkState == DEV_END_DEVICE ) )
//  401           {
//  402 						#ifndef HOLD_AUTO_START
//  403             // display main mode
//  404             giThermostatScreenMode = THERMOSTAT_MAINMODE;
//  405             zclSampleThermostat_LcdDisplayUpdate();
//  406 						#endif
//  407 						#ifdef ZCL_EZMODE
//  408             zcl_EZModeAction( EZMODE_ACTION_NETWORK_STARTED, NULL );
//  409 						#endif  // ZCL_EZMODE
//  410 						
//  411 						UART_DebugPrint(HAL_UART_PORT_0, "[EVENT] ZDO_STATE_CHANGE");
//  412           }
//  413           break;
//  414 
//  415         default:
//  416           break;
//  417       }
//  418 
//  419       // Release the memory
//  420       osal_msg_deallocate( (uint8 *)MSGpkt );
//  421     }
//  422 
//  423     // return unprocessed events
//  424     return (events ^ SYS_EVENT_MSG);
//  425   }
//  426 
//  427 	/*--------------------------------------------------------------------------*/
//  428   if ( events & SAMPLETHERMOSTAT_IDENTIFY_TIMEOUT_EVT )
        MOV     A,R6
        MOV     C,0xE0 /* A   */.0
        JC      $+5
        LJMP    ??zclSampleThermostat_event_loop_1 & 0xFFFF
//  429   {
//  430     if ( zclSampleThermostat_IdentifyTime > 0 )
        LCALL   ?Subroutine15 & 0xFFFF
??CrossCallReturnLabel_56:
        JZ      ??zclSampleThermostat_event_loop_2
//  431     {
//  432       zclSampleThermostat_IdentifyTime--;
        MOV     DPTR,#zclSampleThermostat_IdentifyTime
        MOVX    A,@DPTR
        ADD     A,#-0x1
        MOVX    @DPTR,A
        INC     DPTR
        MOVX    A,@DPTR
        ADDC    A,#-0x1
        MOVX    @DPTR,A
//  433     }
//  434     zclSampleThermostat_ProcessIdentifyTimeChange();
??zclSampleThermostat_event_loop_2:
        ; Setup parameters for call to function zclSampleThermostat_ProcessIdentifyTimeChange
        LCALL   ??zclSampleThermostat_ProcessIdentifyTimeChange; Banked call to: zclSampleThermostat_ProcessIdentifyTimeChange
//  435 		
//  436 		UART_DebugPrint(HAL_UART_PORT_0, "[EVENT] SAMPLETHERMOSTAT_IDENTIFY_TIMEOUT_EVT");
        ; Setup parameters for call to function UART_DebugPrint
        MOV     R2,#`?<Constant "[EVENT] SAMPLETHERMOS...">` & 0xff
        MOV     R3,#(`?<Constant "[EVENT] SAMPLETHERMOS...">` >> 8) & 0xff
        MOV     R1,#0x0
        LCALL   `??UART_DebugPrint::?relay`; Banked call to: UART_DebugPrint
//  437 
//  438     return ( events ^ SAMPLETHERMOSTAT_IDENTIFY_TIMEOUT_EVT );
        MOV     A,R6
        XRL     A,#0x1
        LJMP    ??zclSampleThermostat_event_loop_3 & 0xFFFF
//  439   }
??zclSampleThermostat_event_loop_4:
        INC     DPTR
        MOVX    A,@DPTR
        MOV     DPTR,#zclSampleThermostat_NwkState
        MOVX    @DPTR,A
        XRL     A,#0x9
        JZ      ??zclSampleThermostat_event_loop_5
        MOVX    A,@DPTR
        XRL     A,#0x7
        JZ      ??zclSampleThermostat_event_loop_5
        MOVX    A,@DPTR
        XRL     A,#0x6
        JNZ     ??zclSampleThermostat_event_loop_6
??zclSampleThermostat_event_loop_5:
        MOV     DPTR,#giThermostatScreenMode
        CLR     A
        MOVX    @DPTR,A
        ; Setup parameters for call to function zclSampleThermostat_LcdDisplayUpdate
        LCALL   `??zclSampleThermostat_LcdDisplayUpdate::?relay`; Banked call to: zclSampleThermostat_LcdDisplayUpdate
        ; Setup parameters for call to function zcl_EZModeAction
        MOV     R2,#0x0
        MOV     R3,#0x0
        MOV     R1,#0x2
        LCALL   `??zcl_EZModeAction::?relay`; Banked call to: zcl_EZModeAction
        ; Setup parameters for call to function UART_DebugPrint
        MOV     R2,#`?<Constant "[EVENT] ZDO_STATE_CHANGE">` & 0xff
        MOV     R3,#(`?<Constant "[EVENT] ZDO_STATE_CHANGE">` >> 8) & 0xff
??zclSampleThermostat_event_loop_7:
        MOV     R1,#0x0
        LCALL   `??UART_DebugPrint::?relay`; Banked call to: UART_DebugPrint
??zclSampleThermostat_event_loop_6:
        ; Setup parameters for call to function osal_msg_deallocate
        MOV     R2,?V0
        MOV     R3,?V1
        LCALL   `??osal_msg_deallocate::?relay`; Banked call to: osal_msg_deallocate
??zclSampleThermostat_event_loop_0:
        ; Setup parameters for call to function osal_msg_receive
        MOV     DPTR,#zclSampleThermostat_TaskID
        MOVX    A,@DPTR
        MOV     R1,A
        LCALL   `??osal_msg_receive::?relay`; Banked call to: osal_msg_receive
        MOV     ?V0,R2
        MOV     ?V1,R3
        MOV     A,R2
        ORL     A,?V1
        JNZ     $+5
        LJMP    ??zclSampleThermostat_event_loop_8 & 0xFFFF
        MOV     A,R2
        ADD     A,#0x18
        MOV     DPL,A
        CLR     A
        ADDC    A,?V1
        MOV     DPH,A
        MOVX    A,@DPTR
        MOV     DPTR,#msg_RSSI
        MOVX    @DPTR,A
        MOV     DPL,R2
        MOV     DPH,R3
        MOVX    A,@DPTR
        ADD     A,#-0x23
        JZ      ??zclSampleThermostat_event_loop_9
        ADD     A,#-0x11
        JZ      ??zclSampleThermostat_event_loop_10
        ADD     A,#0x74
        JNZ     $+5
        LJMP    ??zclSampleThermostat_event_loop_11 & 0xFFFF
        ADD     A,#-0x11
        JZ      ??zclSampleThermostat_event_loop_4
        ADD     A,#-0x2
        JNZ     ??zclSampleThermostat_event_loop_6
        MOV     A,R2
        ADD     A,#0xc
        MOV     DPL,A
        CLR     A
        ADDC    A,?V1
        MOV     DPH,A
        MOVX    A,@DPTR
        XRL     A,#0x6
        JNZ     ??zclSampleThermostat_event_loop_12
        INC     DPTR
        MOVX    A,@DPTR
        XRL     A,#0x80
??zclSampleThermostat_event_loop_12:
        JNZ     ??zclSampleThermostat_event_loop_13
        ; Setup parameters for call to function ZDO_ParseEPListRsp
        LCALL   `??ZDO_ParseEPListRsp::?relay`; Banked call to: ZDO_ParseEPListRsp
        MOV     ?V2,R2
        MOV     ?V3,R3
        LCALL   ?Subroutine8 & 0xFFFF
??CrossCallReturnLabel_62:
        MOV     R1,#0x5
        LCALL   `??zcl_EZModeAction::?relay`; Banked call to: zcl_EZModeAction
        ; Setup parameters for call to function osal_mem_free
        MOV     R2,?V2
        MOV     R3,?V3
        LCALL   `??osal_mem_free::?relay`; Banked call to: osal_mem_free
??zclSampleThermostat_event_loop_13:
        ; Setup parameters for call to function UART_DebugPrint
        MOV     R2,#`?<Constant "[EVENT] ZDO_CB_MSG">` & 0xff
        MOV     R3,#(`?<Constant "[EVENT] ZDO_CB_MSG">` >> 8) & 0xff
        SJMP    ??zclSampleThermostat_event_loop_7
??zclSampleThermostat_event_loop_9:
        ; Setup parameters for call to function zclSampleThermostat_ProcessAppMsg
        INC     DPTR
        INC     DPTR
        INC     DPTR
        INC     DPTR
        MOVX    A,@DPTR
        MOV     R4,A
        INC     DPTR
        MOVX    A,@DPTR
        MOV     R5,A
        MOV     DPL,R2
        MOV     DPH,R3
        LCALL   ?Subroutine17 & 0xFFFF
??CrossCallReturnLabel_34:
        LCALL   `??zclSampleThermostat_ProcessAppMsg::?relay`; Banked call to: zclSampleThermostat_ProcessAppMsg
        ; Setup parameters for call to function UART_DebugPrint
        MOV     R2,#`?<Constant "[EVENT] MT_SYS_APP_MSG">` & 0xff
        MOV     R3,#(`?<Constant "[EVENT] MT_SYS_APP_MSG">` >> 8) & 0xff
        LJMP    ??zclSampleThermostat_event_loop_7 & 0xFFFF
??zclSampleThermostat_event_loop_10:
        MOV     A,R2
        ADD     A,#0x17
        MOV     ?V2,A
        CLR     A
        ADDC    A,?V1
        MOV     ?V3,A
        INC     DPTR
        INC     DPTR
        INC     DPTR
        INC     DPTR
        INC     DPTR
        INC     DPTR
        INC     DPTR
        MOVX    A,@DPTR
        DEC     A
        JZ      ??zclSampleThermostat_event_loop_14
        ADD     A,#-0x3
        JZ      ??zclSampleThermostat_event_loop_15
        ADD     A,#-0x6
        JNZ     ??zclSampleThermostat_event_loop_16
        ; Setup parameters for call to function zclSampleThermostat_ProcessInReportCmd
        LCALL   `??zclSampleThermostat_ProcessInReportCmd::?rela`; Banked call to: zclSampleThermostat_ProcessInReportCmd
        SJMP    ??zclSampleThermostat_event_loop_16
??zclSampleThermostat_event_loop_15:
        LCALL   ?Subroutine18 & 0xFFFF
??CrossCallReturnLabel_36:
        MOVX    A,@DPTR
        MOV     R1,A
        MOV     A,R0
        CLR     C
        SUBB    A,R1
        JNC     ??zclSampleThermostat_event_loop_16
        INC     R0
        SJMP    ??CrossCallReturnLabel_36
??zclSampleThermostat_event_loop_14:
        LCALL   ?Subroutine18 & 0xFFFF
??CrossCallReturnLabel_37:
        SJMP    ??zclSampleThermostat_event_loop_17
??zclSampleThermostat_event_loop_18:
        INC     R0
??zclSampleThermostat_event_loop_17:
        MOVX    A,@DPTR
        MOV     R1,A
        MOV     A,R0
        CLR     C
        SUBB    A,R1
        JC      ??zclSampleThermostat_event_loop_18
??zclSampleThermostat_event_loop_16:
        MOV     DPL,?V2
        MOV     DPH,?V3
        LCALL   ??Subroutine38_0 & 0xFFFF
??CrossCallReturnLabel_94:
        MOV     A,R2
        ORL     A,R3
        JZ      ??zclSampleThermostat_event_loop_19
        ; Setup parameters for call to function osal_mem_free
        LCALL   `??osal_mem_free::?relay`; Banked call to: osal_mem_free
??zclSampleThermostat_event_loop_19:
        ; Setup parameters for call to function UART_DebugPrint
        MOV     R2,#`?<Constant "[EVENT] ZCL_INCOMING_MSG">` & 0xff
        MOV     R3,#(`?<Constant "[EVENT] ZCL_INCOMING_MSG">` >> 8) & 0xff
        LJMP    ??zclSampleThermostat_event_loop_7 & 0xFFFF
??zclSampleThermostat_event_loop_11:
        ; Setup parameters for call to function zclSampleThermostat_HandleKeys
        LCALL   ?Subroutine17 & 0xFFFF
??CrossCallReturnLabel_35:
        LCALL   `??zclSampleThermostat_HandleKeys::?relay`; Banked call to: zclSampleThermostat_HandleKeys
        ; Setup parameters for call to function UART_DebugPrint
        MOV     R2,#`?<Constant "[EVENT] KEY_CHANGE">` & 0xff
        MOV     R3,#(`?<Constant "[EVENT] KEY_CHANGE">` >> 8) & 0xff
        LJMP    ??zclSampleThermostat_event_loop_7 & 0xFFFF
??zclSampleThermostat_event_loop_8:
        MOV     A,R6
        MOV     R2,A
        MOV     A,R7
        XRL     A,#0x80
        LJMP    ??zclSampleThermostat_event_loop_20 & 0xFFFF
//  440 
//  441 	/*--------------------------------------------------------------------------*/
//  442   if ( events & SAMPLETHERMOSTAT_MAIN_SCREEN_EVT )
??zclSampleThermostat_event_loop_1:
        ANL     A,#0x10
        JZ      ??zclSampleThermostat_event_loop_21
//  443   {
//  444     giThermostatScreenMode = THERMOSTAT_MAINMODE;
        MOV     DPTR,#giThermostatScreenMode
        CLR     A
        MOVX    @DPTR,A
//  445     zclSampleThermostat_LcdDisplayUpdate();
        ; Setup parameters for call to function zclSampleThermostat_LcdDisplayUpdate
        LCALL   `??zclSampleThermostat_LcdDisplayUpdate::?relay`; Banked call to: zclSampleThermostat_LcdDisplayUpdate
//  446 
//  447 		if (FLAG_BINDING)
        MOV     DPTR,#FLAG_BINDING
        MOVX    A,@DPTR
        JZ      ??zclSampleThermostat_event_loop_22
//  448 		{
//  449 			FLAG_BINDING = FALSE;		
        CLR     A
        MOVX    @DPTR,A
//  450 			if (FLAG_HARD_BINDING)
        MOV     DPTR,#FLAG_HARD_BINDING
        MOVX    A,@DPTR
        JZ      ??zclSampleThermostat_event_loop_22
//  451 			{
//  452 				FLAG_HARD_BINDING = FALSE;
        CLR     A
        MOVX    @DPTR,A
//  453 			}
//  454 		}
//  455 		UART_DebugPrint(HAL_UART_PORT_0, "[EVENT] SAMPLETHERMOSTAT_MAIN_SCREEN_EVT");
??zclSampleThermostat_event_loop_22:
        ; Setup parameters for call to function UART_DebugPrint
        MOV     R2,#`?<Constant "[EVENT] SAMPLETHERMOS...">_1` & 0xff
        MOV     R3,#(`?<Constant "[EVENT] SAMPLETHERMOS...">_1` >> 8) & 0xff
        MOV     R1,#0x0
        LCALL   `??UART_DebugPrint::?relay`; Banked call to: UART_DebugPrint
//  456 
//  457     return ( events ^ SAMPLETHERMOSTAT_MAIN_SCREEN_EVT );
        MOV     A,R6
        XRL     A,#0x10
        LJMP    ??zclSampleThermostat_event_loop_3 & 0xFFFF
//  458   }
//  459 
//  460 	/*--------------------------------------------------------------------------*/
//  461 	#ifdef ZCL_EZMODE
//  462   // going on to next state
//  463   if ( events & SAMPLETHERMOSTAT_EZMODE_NEXTSTATE_EVT )
??zclSampleThermostat_event_loop_21:
        MOV     A,R6
        ANL     A,#0x8
        JZ      ??zclSampleThermostat_event_loop_23
//  464   {
//  465     zcl_EZModeAction ( EZMODE_ACTION_PROCESS, NULL );   // going on to next state
        ; Setup parameters for call to function zcl_EZModeAction
        MOV     R2,#0x0
        MOV     R3,#0x0
        MOV     R1,#0x1
        LCALL   `??zcl_EZModeAction::?relay`; Banked call to: zcl_EZModeAction
//  466 
//  467 		UART_DebugPrint(HAL_UART_PORT_0, "[EVENT] SAMPLETHERMOSTAT_EZMODE_NEXTSTATE_EVT");
        ; Setup parameters for call to function UART_DebugPrint
        MOV     R2,#`?<Constant "[EVENT] SAMPLETHERMOS...">_2` & 0xff
        MOV     R3,#(`?<Constant "[EVENT] SAMPLETHERMOS...">_2` >> 8) & 0xff
        MOV     R1,#0x0
        LCALL   `??UART_DebugPrint::?relay`; Banked call to: UART_DebugPrint
//  468 		
//  469     return ( events ^ SAMPLETHERMOSTAT_EZMODE_NEXTSTATE_EVT );
        MOV     A,R6
        XRL     A,#0x8
        LJMP    ??zclSampleThermostat_event_loop_3 & 0xFFFF
//  470   }
//  471 
//  472 	/*--------------------------------------------------------------------------*/
//  473   // the overall EZMode timer expired, so we timed out
//  474   if ( events & SAMPLETHERMOSTAT_EZMODE_TIMEOUT_EVT )
??zclSampleThermostat_event_loop_23:
        MOV     A,R6
        ANL     A,#0x4
        JZ      ??zclSampleThermostat_event_loop_24
//  475   {
//  476     zcl_EZModeAction ( EZMODE_ACTION_TIMED_OUT, NULL ); // EZ-Mode timed out
        ; Setup parameters for call to function zcl_EZModeAction
        MOV     R2,#0x0
        MOV     R3,#0x0
        MOV     R1,#0x63
        LCALL   `??zcl_EZModeAction::?relay`; Banked call to: zcl_EZModeAction
//  477 
//  478 		UART_DebugPrint(HAL_UART_PORT_0, "[EVENT] SAMPLETHERMOSTAT_EZMODE_TIMEOUT_EVT");
        ; Setup parameters for call to function UART_DebugPrint
        MOV     R2,#`?<Constant "[EVENT] SAMPLETHERMOS...">_3` & 0xff
        MOV     R3,#(`?<Constant "[EVENT] SAMPLETHERMOS...">_3` >> 8) & 0xff
        MOV     R1,#0x0
        LCALL   `??UART_DebugPrint::?relay`; Banked call to: UART_DebugPrint
//  479 		
//  480     return ( events ^ SAMPLETHERMOSTAT_EZMODE_TIMEOUT_EVT );
        MOV     A,R6
        XRL     A,#0x4
        LJMP    ??zclSampleThermostat_event_loop_3 & 0xFFFF
//  481   }
//  482 	#endif // ZLC_EZMODE
//  483 
//  484 	/*--------------------------------------------------------------------------*/
//  485 	if ( events & SAMPLETHERMOSTAT_JOIN_SETUP_EVT )
??zclSampleThermostat_event_loop_24:
        MOV     A,R6
        ANL     A,#0x20
        JZ      ??zclSampleThermostat_event_loop_25
//  486   {
//  487 		if (FLAG_JOIN_CONFIRM == FALSE && FLAG_BINDING == FALSE)
        MOV     DPTR,#FLAG_JOIN_CONFIRM
        MOVX    A,@DPTR
        JNZ     ??zclSampleThermostat_event_loop_26
        MOV     DPTR,#FLAG_BINDING
        MOVX    A,@DPTR
        JNZ     ??zclSampleThermostat_event_loop_27
//  488 		{
//  489 			zclSampleThermostat_BindingProcess();
        ; Setup parameters for call to function zclSampleThermostat_BindingProcess
        LCALL   `??zclSampleThermostat_BindingProcess::?relay`; Banked call to: zclSampleThermostat_BindingProcess
//  490 			// Stop binding after 100ms (time for process...)
//  491 			osal_start_timerEx( zclSampleThermostat_TaskID, SAMPLETHERMOSTAT_JOIN_SETUP_EVT, 5000 );
        ; Setup parameters for call to function osal_start_timerEx
        MOV     DPTR,#__Constant_1388
        LCALL   ?PUSH_XSTACK8_X_FOUR
          CFI CFA_XSP16 add(XSP16, 20)
        MOV     R2,#0x20
        MOV     R3,#0x0
        MOV     DPTR,#zclSampleThermostat_TaskID
        MOVX    A,@DPTR
        MOV     R1,A
        LCALL   `??osal_start_timerEx::?relay`; Banked call to: osal_start_timerEx
        MOV     A,#0x4
        LCALL   ?DEALLOC_XSTACK8
          CFI CFA_XSP16 add(XSP16, 16)
        SJMP    ??zclSampleThermostat_event_loop_27
//  492 		}
//  493 		else if (FLAG_JOIN_CONFIRM == TRUE && FLAG_BINDING == TRUE)
??zclSampleThermostat_event_loop_26:
        XRL     A,#0x1
        JNZ     ??zclSampleThermostat_event_loop_27
        MOV     DPTR,#FLAG_BINDING
        MOVX    A,@DPTR
        XRL     A,#0x1
        JNZ     ??zclSampleThermostat_event_loop_27
//  494 		{
//  495 			zclSampleThermostat_BindingProcess();
        ; Setup parameters for call to function zclSampleThermostat_BindingProcess
        LCALL   `??zclSampleThermostat_BindingProcess::?relay`; Banked call to: zclSampleThermostat_BindingProcess
//  496 		}
//  497 		
//  498 		UART_DebugPrint(HAL_UART_PORT_0, "SAMPLETHERMOSTAT_JOIN_SETUP_EVT");
??zclSampleThermostat_event_loop_27:
        ; Setup parameters for call to function UART_DebugPrint
        MOV     R2,#`?<Constant "SAMPLETHERMOSTAT_JOIN...">` & 0xff
        MOV     R3,#(`?<Constant "SAMPLETHERMOSTAT_JOIN...">` >> 8) & 0xff
        MOV     R1,#0x0
        LCALL   `??UART_DebugPrint::?relay`; Banked call to: UART_DebugPrint
//  499 
//  500     return ( events ^ SAMPLETHERMOSTAT_JOIN_SETUP_EVT );
        MOV     A,R6
        XRL     A,#0x20
        SJMP    ??zclSampleThermostat_event_loop_3
//  501   }
//  502 
//  503 	/*--------------------------------------------------------------------------*/
//  504 	if ( events & SAMPLETHERMOSTAT_UART_REPLY_CMD_EVT )
??zclSampleThermostat_event_loop_25:
        MOV     A,R6
        ANL     A,#0x40
        JZ      ??zclSampleThermostat_event_loop_28
//  505   {
//  506 		// My apps
//  507 		if (UART_ParseRxPackage(HAL_UART_PORT_0))
        ; Setup parameters for call to function UART_ParseRxPackage
        MOV     R1,#0x0
        LCALL   `??UART_ParseRxPackage::?relay`; Banked call to: UART_ParseRxPackage
        MOV     A,R1
        JZ      ??zclSampleThermostat_event_loop_29
//  508 		{
//  509 			ZCMD_ReplyCMD();
        ; Setup parameters for call to function ZCMD_ReplyCMD
        LCALL   `??ZCMD_ReplyCMD::?relay`; Banked call to: ZCMD_ReplyCMD
//  510 		}
//  511 		
//  512 		// Restart timer
//  513     if ( UART_PARSE_RX_PACKAGE_EVT_PERIOD )
//  514     {
//  515       osal_start_timerEx( zclSampleThermostat_TaskID, SAMPLETHERMOSTAT_UART_REPLY_CMD_EVT, UART_PARSE_RX_PACKAGE_EVT_PERIOD );
??zclSampleThermostat_event_loop_29:
        ; Setup parameters for call to function osal_start_timerEx
        MOV     DPTR,#__Constant_a
        LCALL   ?PUSH_XSTACK8_X_FOUR
          CFI CFA_XSP16 add(XSP16, 20)
        MOV     R2,#0x40
        MOV     R3,#0x0
        MOV     DPTR,#zclSampleThermostat_TaskID
        MOVX    A,@DPTR
        MOV     R1,A
        LCALL   `??osal_start_timerEx::?relay`; Banked call to: osal_start_timerEx
        MOV     A,#0x4
        LCALL   ?DEALLOC_XSTACK8
          CFI CFA_XSP16 add(XSP16, 16)
//  516     }
//  517 		
//  518     return (events ^ SAMPLETHERMOSTAT_UART_REPLY_CMD_EVT);
        MOV     A,R6
        XRL     A,#0x40
        SJMP    ??zclSampleThermostat_event_loop_3
//  519   }
//  520 
//  521 	/*--------------------------------------------------------------------------*/
//  522 	if ( events & SAMPLETHERMOSTAT_CHECK_SYSTEM_EVT )
??zclSampleThermostat_event_loop_28:
        MOV     A,R6
        ANL     A,#0x80
        JZ      ??zclSampleThermostat_event_loop_30
//  523   {
//  524 		// My apps
//  525 		#ifndef COORDINATOR
//  526 		zclSampleThermostat_RollCall();
//  527 		#endif
//  528 		
//  529 		if ( (FLAG_JOIN_CONFIRM == FALSE) || (FLAG_JOIN_CONFIRM == TRUE && FLAG_BINDING == TRUE && FLAG_HARD_BINDING == FALSE) )
        MOV     DPTR,#FLAG_JOIN_CONFIRM
        MOVX    A,@DPTR
        JZ      ??zclSampleThermostat_event_loop_31
        XRL     A,#0x1
        JNZ     ??zclSampleThermostat_event_loop_32
        MOV     DPTR,#FLAG_BINDING
        MOVX    A,@DPTR
        XRL     A,#0x1
        JNZ     ??zclSampleThermostat_event_loop_32
        MOV     DPTR,#FLAG_HARD_BINDING
        MOVX    A,@DPTR
        JNZ     ??zclSampleThermostat_event_loop_32
//  530 		{
//  531 			osal_set_event( zclSampleThermostat_TaskID, SAMPLETHERMOSTAT_JOIN_SETUP_EVT );
??zclSampleThermostat_event_loop_31:
        ; Setup parameters for call to function osal_set_event
        MOV     R2,#0x20
        MOV     R3,#0x0
        MOV     DPTR,#zclSampleThermostat_TaskID
        MOVX    A,@DPTR
        MOV     R1,A
        LCALL   `??osal_set_event::?relay`; Banked call to: osal_set_event
//  532 		}
//  533 
//  534     // Restart timer
//  535     if ( CHECK_SYSTEM_EVT_PERIOD )
//  536     {
//  537       osal_start_timerEx( zclSampleThermostat_TaskID, SAMPLETHERMOSTAT_CHECK_SYSTEM_EVT, CHECK_SYSTEM_EVT_PERIOD );
??zclSampleThermostat_event_loop_32:
        ; Setup parameters for call to function osal_start_timerEx
        MOV     DPTR,#__Constant_2710
        LCALL   ?PUSH_XSTACK8_X_FOUR
          CFI CFA_XSP16 add(XSP16, 20)
        MOV     R2,#-0x80
        MOV     R3,#0x0
        MOV     DPTR,#zclSampleThermostat_TaskID
        MOVX    A,@DPTR
        MOV     R1,A
        LCALL   `??osal_start_timerEx::?relay`; Banked call to: osal_start_timerEx
        MOV     A,#0x4
        LCALL   ?DEALLOC_XSTACK8
          CFI CFA_XSP16 add(XSP16, 16)
//  538     }
//  539 			 
//  540     return (events ^ SAMPLETHERMOSTAT_CHECK_SYSTEM_EVT);
        MOV     A,R6
        XRL     A,#0x80
??zclSampleThermostat_event_loop_3:
        MOV     R2,A
        MOV     A,R7
??zclSampleThermostat_event_loop_20:
        MOV     R3,A
        SJMP    ??zclSampleThermostat_event_loop_33
//  541   }
//  542 	
//  543 	/*--------------------------------------------------------------------------*/
//  544 
//  545   // Discard unknown events
//  546   return 0;
??zclSampleThermostat_event_loop_30:
        MOV     R2,#0x0
        MOV     R3,#0x0
??zclSampleThermostat_event_loop_33:
        MOV     A,#0x2
        LCALL   ?DEALLOC_XSTACK8
          CFI CFA_XSP16 add(XSP16, 14)
        MOV     R7,#0x6
        LJMP    ?BANKED_LEAVE_XDATA
//  547 }
          CFI EndBlock cfiBlock1

        RSEG BANKED_CODE:HUGECODE:NOROOT(0)
?Subroutine18:
          CFI Block cfiCond2 Using cfiCommon0
          CFI Function zclSampleThermostat_event_loop
          CFI Conditional ??CrossCallReturnLabel_36
          CFI R6 load(1, XDATA, add(CFA_XSP16, literal(-14)))
          CFI VB load(1, XDATA, add(CFA_XSP16, literal(-13)))
          CFI V0 load(1, XDATA, add(CFA_XSP16, literal(-12)))
          CFI V1 load(1, XDATA, add(CFA_XSP16, literal(-11)))
          CFI V2 load(1, XDATA, add(CFA_XSP16, literal(-10)))
          CFI V3 load(1, XDATA, add(CFA_XSP16, literal(-9)))
          CFI V4 load(1, XDATA, add(CFA_XSP16, literal(-8)))
          CFI V5 load(1, XDATA, add(CFA_XSP16, literal(-7)))
          CFI R7 load(1, XDATA, add(CFA_XSP16, literal(-6)))
          CFI ?RET_LOW load(1, XDATA, add(CFA_XSP16, literal(-5)))
          CFI ?RET_HIGH load(1, XDATA, add(CFA_XSP16, literal(-4)))
          CFI ?BRET_EXT load(1, XDATA, add(CFA_XSP16, literal(-3)))
          CFI DPL0 load(1, XDATA, add(CFA_XSP16, literal(-2)))
          CFI DPH0 load(1, XDATA, add(CFA_XSP16, literal(-1)))
          CFI CFA_SP SP+-2
          CFI CFA_XSP16 add(XSP16, 16)
          CFI Block cfiCond3 Using cfiCommon0
          CFI (cfiCond3) Function zclSampleThermostat_event_loop
          CFI (cfiCond3) Conditional ??CrossCallReturnLabel_37
          CFI (cfiCond3) R6 load(1, XDATA, add(CFA_XSP16, literal(-14)))
          CFI (cfiCond3) VB load(1, XDATA, add(CFA_XSP16, literal(-13)))
          CFI (cfiCond3) V0 load(1, XDATA, add(CFA_XSP16, literal(-12)))
          CFI (cfiCond3) V1 load(1, XDATA, add(CFA_XSP16, literal(-11)))
          CFI (cfiCond3) V2 load(1, XDATA, add(CFA_XSP16, literal(-10)))
          CFI (cfiCond3) V3 load(1, XDATA, add(CFA_XSP16, literal(-9)))
          CFI (cfiCond3) V4 load(1, XDATA, add(CFA_XSP16, literal(-8)))
          CFI (cfiCond3) V5 load(1, XDATA, add(CFA_XSP16, literal(-7)))
          CFI (cfiCond3) R7 load(1, XDATA, add(CFA_XSP16, literal(-6)))
          CFI (cfiCond3) ?RET_LOW load(1, XDATA, add(CFA_XSP16, literal(-5)))
          CFI (cfiCond3) ?RET_HIGH load(1, XDATA, add(CFA_XSP16, literal(-4)))
          CFI (cfiCond3) ?BRET_EXT load(1, XDATA, add(CFA_XSP16, literal(-3)))
          CFI (cfiCond3) DPL0 load(1, XDATA, add(CFA_XSP16, literal(-2)))
          CFI (cfiCond3) DPH0 load(1, XDATA, add(CFA_XSP16, literal(-1)))
          CFI (cfiCond3) CFA_SP SP+-2
          CFI (cfiCond3) CFA_XSP16 add(XSP16, 16)
          CFI Block cfiPicker4 Using cfiCommon1
          CFI (cfiPicker4) NoFunction
          CFI (cfiPicker4) Picker
        MOV     DPL,?V2
        MOV     DPH,?V3
        LCALL   ?Subroutine27 & 0xFFFF
??CrossCallReturnLabel_58:
        MOV     DPL,R0
        MOV     DPH,R1
        MOV     R0,#0x0
        RET
          CFI EndBlock cfiCond2
          CFI EndBlock cfiCond3
          CFI EndBlock cfiPicker4

        RSEG BANKED_CODE:HUGECODE:NOROOT(0)
?Subroutine17:
          CFI Block cfiCond5 Using cfiCommon0
          CFI Function zclSampleThermostat_event_loop
          CFI Conditional ??CrossCallReturnLabel_34
          CFI R6 load(1, XDATA, add(CFA_XSP16, literal(-14)))
          CFI VB load(1, XDATA, add(CFA_XSP16, literal(-13)))
          CFI V0 load(1, XDATA, add(CFA_XSP16, literal(-12)))
          CFI V1 load(1, XDATA, add(CFA_XSP16, literal(-11)))
          CFI V2 load(1, XDATA, add(CFA_XSP16, literal(-10)))
          CFI V3 load(1, XDATA, add(CFA_XSP16, literal(-9)))
          CFI V4 load(1, XDATA, add(CFA_XSP16, literal(-8)))
          CFI V5 load(1, XDATA, add(CFA_XSP16, literal(-7)))
          CFI R7 load(1, XDATA, add(CFA_XSP16, literal(-6)))
          CFI ?RET_LOW load(1, XDATA, add(CFA_XSP16, literal(-5)))
          CFI ?RET_HIGH load(1, XDATA, add(CFA_XSP16, literal(-4)))
          CFI ?BRET_EXT load(1, XDATA, add(CFA_XSP16, literal(-3)))
          CFI DPL0 load(1, XDATA, add(CFA_XSP16, literal(-2)))
          CFI DPH0 load(1, XDATA, add(CFA_XSP16, literal(-1)))
          CFI CFA_SP SP+-2
          CFI CFA_XSP16 add(XSP16, 16)
          CFI Block cfiCond6 Using cfiCommon0
          CFI (cfiCond6) Function zclSampleThermostat_event_loop
          CFI (cfiCond6) Conditional ??CrossCallReturnLabel_35
          CFI (cfiCond6) R6 load(1, XDATA, add(CFA_XSP16, literal(-14)))
          CFI (cfiCond6) VB load(1, XDATA, add(CFA_XSP16, literal(-13)))
          CFI (cfiCond6) V0 load(1, XDATA, add(CFA_XSP16, literal(-12)))
          CFI (cfiCond6) V1 load(1, XDATA, add(CFA_XSP16, literal(-11)))
          CFI (cfiCond6) V2 load(1, XDATA, add(CFA_XSP16, literal(-10)))
          CFI (cfiCond6) V3 load(1, XDATA, add(CFA_XSP16, literal(-9)))
          CFI (cfiCond6) V4 load(1, XDATA, add(CFA_XSP16, literal(-8)))
          CFI (cfiCond6) V5 load(1, XDATA, add(CFA_XSP16, literal(-7)))
          CFI (cfiCond6) R7 load(1, XDATA, add(CFA_XSP16, literal(-6)))
          CFI (cfiCond6) ?RET_LOW load(1, XDATA, add(CFA_XSP16, literal(-5)))
          CFI (cfiCond6) ?RET_HIGH load(1, XDATA, add(CFA_XSP16, literal(-4)))
          CFI (cfiCond6) ?BRET_EXT load(1, XDATA, add(CFA_XSP16, literal(-3)))
          CFI (cfiCond6) DPL0 load(1, XDATA, add(CFA_XSP16, literal(-2)))
          CFI (cfiCond6) DPH0 load(1, XDATA, add(CFA_XSP16, literal(-1)))
          CFI (cfiCond6) CFA_SP SP+-2
          CFI (cfiCond6) CFA_XSP16 add(XSP16, 16)
          CFI Block cfiPicker7 Using cfiCommon1
          CFI (cfiPicker7) NoFunction
          CFI (cfiPicker7) Picker
        INC     DPTR
        INC     DPTR
        INC     DPTR
        MOVX    A,@DPTR
        MOV     R2,A
        MOV     DPL,?V0
        MOV     DPH,R3
        INC     DPTR
        INC     DPTR
        MOVX    A,@DPTR
        MOV     R1,A
        RET
          CFI EndBlock cfiCond5
          CFI EndBlock cfiCond6
          CFI EndBlock cfiPicker7

        RSEG BANKED_CODE:HUGECODE:NOROOT(0)
?Subroutine15:
          CFI Block cfiCond8 Using cfiCommon0
          CFI Function zclSampleThermostat_event_loop
          CFI Conditional ??CrossCallReturnLabel_56
          CFI R6 load(1, XDATA, add(CFA_XSP16, literal(-14)))
          CFI VB load(1, XDATA, add(CFA_XSP16, literal(-13)))
          CFI V0 load(1, XDATA, add(CFA_XSP16, literal(-12)))
          CFI V1 load(1, XDATA, add(CFA_XSP16, literal(-11)))
          CFI V2 load(1, XDATA, add(CFA_XSP16, literal(-10)))
          CFI V3 load(1, XDATA, add(CFA_XSP16, literal(-9)))
          CFI V4 load(1, XDATA, add(CFA_XSP16, literal(-8)))
          CFI V5 load(1, XDATA, add(CFA_XSP16, literal(-7)))
          CFI R7 load(1, XDATA, add(CFA_XSP16, literal(-6)))
          CFI ?RET_LOW load(1, XDATA, add(CFA_XSP16, literal(-5)))
          CFI ?RET_HIGH load(1, XDATA, add(CFA_XSP16, literal(-4)))
          CFI ?BRET_EXT load(1, XDATA, add(CFA_XSP16, literal(-3)))
          CFI DPL0 load(1, XDATA, add(CFA_XSP16, literal(-2)))
          CFI DPH0 load(1, XDATA, add(CFA_XSP16, literal(-1)))
          CFI CFA_SP SP+-2
          CFI CFA_XSP16 add(XSP16, 16)
          CFI Block cfiCond9 Using cfiCommon0
          CFI (cfiCond9) Function zclSampleThermostat_ProcessIdentifyTimeChange
          CFI (cfiCond9) Conditional ??CrossCallReturnLabel_57
          CFI (cfiCond9) DPL0 Frame(CFA_SP, 4)
          CFI (cfiCond9) DPH0 Frame(CFA_SP, 5)
          CFI (cfiCond9) CFA_SP SP+-7
          CFI Block cfiPicker10 Using cfiCommon1
          CFI (cfiPicker10) NoFunction
          CFI (cfiPicker10) Picker
        MOV     DPTR,#zclSampleThermostat_IdentifyTime
          CFI EndBlock cfiCond8
          CFI EndBlock cfiCond9
          CFI EndBlock cfiPicker10
        REQUIRE ??Subroutine30_0
        ; // Fall through to label ??Subroutine30_0

        RSEG BANKED_CODE:HUGECODE:NOROOT(0)
??Subroutine30_0:
          CFI Block cfiCond11 Using cfiCommon0
          CFI Function zclSampleThermostat_LcdDisplayUpdate
          CFI Conditional ??CrossCallReturnLabel_54
          CFI DPL0 Frame(CFA_SP, 4)
          CFI DPH0 Frame(CFA_SP, 5)
          CFI CFA_SP SP+-7
          CFI Block cfiCond12 Using cfiCommon0
          CFI (cfiCond12) Function zclSampleThermostat_LcdDisplayMainMode
          CFI (cfiCond12) Conditional ??CrossCallReturnLabel_55
          CFI (cfiCond12) R6 load(1, XDATA, add(CFA_XSP16, literal(-11)))
          CFI (cfiCond12) VB load(1, XDATA, add(CFA_XSP16, literal(-10)))
          CFI (cfiCond12) V0 load(1, XDATA, add(CFA_XSP16, literal(-9)))
          CFI (cfiCond12) V1 load(1, XDATA, add(CFA_XSP16, literal(-8)))
          CFI (cfiCond12) V2 load(1, XDATA, add(CFA_XSP16, literal(-7)))
          CFI (cfiCond12) R7 load(1, XDATA, add(CFA_XSP16, literal(-6)))
          CFI (cfiCond12) ?RET_LOW load(1, XDATA, add(CFA_XSP16, literal(-5)))
          CFI (cfiCond12) ?RET_HIGH load(1, XDATA, add(CFA_XSP16, literal(-4)))
          CFI (cfiCond12) ?BRET_EXT load(1, XDATA, add(CFA_XSP16, literal(-3)))
          CFI (cfiCond12) DPL0 load(1, XDATA, add(CFA_XSP16, literal(-2)))
          CFI (cfiCond12) DPH0 load(1, XDATA, add(CFA_XSP16, literal(-1)))
          CFI (cfiCond12) CFA_SP SP+-2
          CFI (cfiCond12) CFA_XSP16 add(XSP16, 27)
          CFI Block cfiCond13 Using cfiCommon0
          CFI (cfiCond13) Function zclSampleThermostat_event_loop
          CFI (cfiCond13) Conditional ??CrossCallReturnLabel_56
          CFI (cfiCond13) R6 load(1, XDATA, add(CFA_XSP16, literal(-14)))
          CFI (cfiCond13) VB load(1, XDATA, add(CFA_XSP16, literal(-13)))
          CFI (cfiCond13) V0 load(1, XDATA, add(CFA_XSP16, literal(-12)))
          CFI (cfiCond13) V1 load(1, XDATA, add(CFA_XSP16, literal(-11)))
          CFI (cfiCond13) V2 load(1, XDATA, add(CFA_XSP16, literal(-10)))
          CFI (cfiCond13) V3 load(1, XDATA, add(CFA_XSP16, literal(-9)))
          CFI (cfiCond13) V4 load(1, XDATA, add(CFA_XSP16, literal(-8)))
          CFI (cfiCond13) V5 load(1, XDATA, add(CFA_XSP16, literal(-7)))
          CFI (cfiCond13) R7 load(1, XDATA, add(CFA_XSP16, literal(-6)))
          CFI (cfiCond13) ?RET_LOW load(1, XDATA, add(CFA_XSP16, literal(-5)))
          CFI (cfiCond13) ?RET_HIGH load(1, XDATA, add(CFA_XSP16, literal(-4)))
          CFI (cfiCond13) ?BRET_EXT load(1, XDATA, add(CFA_XSP16, literal(-3)))
          CFI (cfiCond13) DPL0 load(1, XDATA, add(CFA_XSP16, literal(-2)))
          CFI (cfiCond13) DPH0 load(1, XDATA, add(CFA_XSP16, literal(-1)))
          CFI (cfiCond13) CFA_SP SP+-2
          CFI (cfiCond13) CFA_XSP16 add(XSP16, 16)
          CFI Block cfiCond14 Using cfiCommon0
          CFI (cfiCond14) Function zclSampleThermostat_ProcessIdentifyTimeChange
          CFI (cfiCond14) Conditional ??CrossCallReturnLabel_57
          CFI (cfiCond14) DPL0 Frame(CFA_SP, 4)
          CFI (cfiCond14) DPH0 Frame(CFA_SP, 5)
          CFI (cfiCond14) CFA_SP SP+-7
          CFI Block cfiPicker15 Using cfiCommon1
          CFI (cfiPicker15) NoFunction
          CFI (cfiPicker15) Picker
        LCALL   ?Subroutine27 & 0xFFFF
??CrossCallReturnLabel_61:
        MOV     A,R0
        ORL     A,R1
        RET
          CFI EndBlock cfiCond11
          CFI EndBlock cfiCond12
          CFI EndBlock cfiCond13
          CFI EndBlock cfiCond14
          CFI EndBlock cfiPicker15

        RSEG XDATA_I:XDATA:NOROOT(0)
??clusterIDs:
        DATA16
        DS 2
        REQUIRE `?<Initializer for clusterIDs>`
        REQUIRE __INIT_XDATA_I

        RSEG BANKED_CODE:HUGECODE:NOROOT(0)
?Subroutine8:
          CFI Block cfiCond16 Using cfiCommon0
          CFI Function zclSampleThermostat_event_loop
          CFI Conditional ??CrossCallReturnLabel_62
          CFI R6 load(1, XDATA, add(CFA_XSP16, literal(-14)))
          CFI VB load(1, XDATA, add(CFA_XSP16, literal(-13)))
          CFI V0 load(1, XDATA, add(CFA_XSP16, literal(-12)))
          CFI V1 load(1, XDATA, add(CFA_XSP16, literal(-11)))
          CFI V2 load(1, XDATA, add(CFA_XSP16, literal(-10)))
          CFI V3 load(1, XDATA, add(CFA_XSP16, literal(-9)))
          CFI V4 load(1, XDATA, add(CFA_XSP16, literal(-8)))
          CFI V5 load(1, XDATA, add(CFA_XSP16, literal(-7)))
          CFI R7 load(1, XDATA, add(CFA_XSP16, literal(-6)))
          CFI ?RET_LOW load(1, XDATA, add(CFA_XSP16, literal(-5)))
          CFI ?RET_HIGH load(1, XDATA, add(CFA_XSP16, literal(-4)))
          CFI ?BRET_EXT load(1, XDATA, add(CFA_XSP16, literal(-3)))
          CFI DPL0 load(1, XDATA, add(CFA_XSP16, literal(-2)))
          CFI DPH0 load(1, XDATA, add(CFA_XSP16, literal(-1)))
          CFI CFA_SP SP+-2
          CFI CFA_XSP16 add(XSP16, 16)
          CFI Block cfiCond17 Using cfiCommon0
          CFI (cfiCond17) Function zclSampleThermostat_IdentifyQueryRspCB
          CFI (cfiCond17) Conditional ??CrossCallReturnLabel_63
          CFI (cfiCond17) DPL0 Frame(CFA_SP, 4)
          CFI (cfiCond17) DPH0 Frame(CFA_SP, 5)
          CFI (cfiCond17) CFA_SP SP+-7
          CFI (cfiCond17) CFA_XSP16 add(XSP16, 2)
          CFI Block cfiPicker18 Using cfiCommon1
          CFI (cfiPicker18) NoFunction
          CFI (cfiPicker18) Picker
        MOV     DPL,?XSP + 0
        MOV     DPH,?XSP + 1
        MOV     A,R2
        MOVX    @DPTR,A
        INC     DPTR
        MOV     A,R3
          CFI EndBlock cfiCond16
          CFI EndBlock cfiCond17
          CFI EndBlock cfiPicker18
        REQUIRE ??Subroutine31_0
        ; // Fall through to label ??Subroutine31_0
//  548 
//  549 /*********************************************************************
//  550  * @fn      zclSampleThermostat_HandleKeys
//  551  *
//  552  * @brief   Handles all key events for this device.
//  553  *
//  554  * @param   shift - true if in shift/alt.
//  555  * @param   keys - bit field for key events. Valid entries:
//  556  *                 HAL_KEY_SW_5
//  557  *                 HAL_KEY_SW_4
//  558  *                 HAL_KEY_SW_3
//  559  *                 HAL_KEY_SW_2
//  560  *                 HAL_KEY_SW_1
//  561  *
//  562  * @return  none
//  563  */

        RSEG BANKED_CODE:HUGECODE:NOROOT(0)
??Subroutine31_0:
          CFI Block cfiCond19 Using cfiCommon0
          CFI Function zclSampleThermostat_HandleKeys
          CFI Conditional ??CrossCallReturnLabel_64
          CFI R6 load(1, XDATA, add(CFA_XSP16, literal(-16)))
          CFI VB load(1, XDATA, add(CFA_XSP16, literal(-15)))
          CFI V0 load(1, XDATA, add(CFA_XSP16, literal(-14)))
          CFI V1 load(1, XDATA, add(CFA_XSP16, literal(-13)))
          CFI V2 load(1, XDATA, add(CFA_XSP16, literal(-12)))
          CFI V3 load(1, XDATA, add(CFA_XSP16, literal(-11)))
          CFI V4 load(1, XDATA, add(CFA_XSP16, literal(-10)))
          CFI V5 load(1, XDATA, add(CFA_XSP16, literal(-9)))
          CFI V6 load(1, XDATA, add(CFA_XSP16, literal(-8)))
          CFI V7 load(1, XDATA, add(CFA_XSP16, literal(-7)))
          CFI R7 load(1, XDATA, add(CFA_XSP16, literal(-6)))
          CFI ?RET_LOW load(1, XDATA, add(CFA_XSP16, literal(-5)))
          CFI ?RET_HIGH load(1, XDATA, add(CFA_XSP16, literal(-4)))
          CFI ?BRET_EXT load(1, XDATA, add(CFA_XSP16, literal(-3)))
          CFI DPL0 load(1, XDATA, add(CFA_XSP16, literal(-2)))
          CFI DPH0 load(1, XDATA, add(CFA_XSP16, literal(-1)))
          CFI CFA_SP SP+-2
          CFI CFA_XSP16 add(XSP16, 29)
          CFI Block cfiCond20 Using cfiCommon0
          CFI (cfiCond20) Function zclSampleThermostat_BindingProcess
          CFI (cfiCond20) Conditional ??CrossCallReturnLabel_65
          CFI (cfiCond20) DPL0 Frame(CFA_SP, 4)
          CFI (cfiCond20) DPH0 Frame(CFA_SP, 5)
          CFI (cfiCond20) CFA_SP SP+-7
          CFI (cfiCond20) CFA_XSP16 add(XSP16, 9)
          CFI Block cfiCond21 Using cfiCommon0
          CFI (cfiCond21) Function zclSampleThermostat_event_loop
          CFI (cfiCond21) Conditional ??CrossCallReturnLabel_62
          CFI (cfiCond21) R6 load(1, XDATA, add(CFA_XSP16, literal(-14)))
          CFI (cfiCond21) VB load(1, XDATA, add(CFA_XSP16, literal(-13)))
          CFI (cfiCond21) V0 load(1, XDATA, add(CFA_XSP16, literal(-12)))
          CFI (cfiCond21) V1 load(1, XDATA, add(CFA_XSP16, literal(-11)))
          CFI (cfiCond21) V2 load(1, XDATA, add(CFA_XSP16, literal(-10)))
          CFI (cfiCond21) V3 load(1, XDATA, add(CFA_XSP16, literal(-9)))
          CFI (cfiCond21) V4 load(1, XDATA, add(CFA_XSP16, literal(-8)))
          CFI (cfiCond21) V5 load(1, XDATA, add(CFA_XSP16, literal(-7)))
          CFI (cfiCond21) R7 load(1, XDATA, add(CFA_XSP16, literal(-6)))
          CFI (cfiCond21) ?RET_LOW load(1, XDATA, add(CFA_XSP16, literal(-5)))
          CFI (cfiCond21) ?RET_HIGH load(1, XDATA, add(CFA_XSP16, literal(-4)))
          CFI (cfiCond21) ?BRET_EXT load(1, XDATA, add(CFA_XSP16, literal(-3)))
          CFI (cfiCond21) DPL0 load(1, XDATA, add(CFA_XSP16, literal(-2)))
          CFI (cfiCond21) DPH0 load(1, XDATA, add(CFA_XSP16, literal(-1)))
          CFI (cfiCond21) CFA_SP SP+-2
          CFI (cfiCond21) CFA_XSP16 add(XSP16, 16)
          CFI Block cfiCond22 Using cfiCommon0
          CFI (cfiCond22) Function zclSampleThermostat_IdentifyQueryRspCB
          CFI (cfiCond22) Conditional ??CrossCallReturnLabel_63
          CFI (cfiCond22) DPL0 Frame(CFA_SP, 4)
          CFI (cfiCond22) DPH0 Frame(CFA_SP, 5)
          CFI (cfiCond22) CFA_SP SP+-7
          CFI (cfiCond22) CFA_XSP16 add(XSP16, 2)
          CFI Block cfiPicker23 Using cfiCommon1
          CFI (cfiPicker23) NoFunction
          CFI (cfiPicker23) Picker
        MOVX    @DPTR,A
        ; Setup parameters for call to function zcl_EZModeAction
        ; Setup parameters for call to function zcl_EZModeAction
        ; Setup parameters for call to function zcl_InvokeEZMode
        ; Setup parameters for call to function zcl_InvokeEZMode
        MOV     R2,?XSP + 0
        MOV     R3,?XSP + 1
        RET
          CFI EndBlock cfiCond19
          CFI EndBlock cfiCond20
          CFI EndBlock cfiCond21
          CFI EndBlock cfiCond22
          CFI EndBlock cfiPicker23

        RSEG BANKED_CODE:HUGECODE:NOROOT(0)
//  564 static void zclSampleThermostat_HandleKeys( byte shift, byte keys )
zclSampleThermostat_HandleKeys:
          CFI Block cfiBlock24 Using cfiCommon0
          CFI Function zclSampleThermostat_HandleKeys
        CODE
//  565 {
        FUNCALL zclSampleThermostat_HandleKeys, UART_DebugPrint
        LOCFRAME ISTACK, 0, STACK
        LOCFRAME PSTACK, 0, STACK
        LOCFRAME XSTACK, 29, STACK
        LOCFRAME IOVERLAY, 0, STATIC
        LOCFRAME DOVERLAY, 0, STATIC
        ARGFRAME ISTACK, 0, STACK
        ARGFRAME PSTACK, 0, STACK
        ARGFRAME XSTACK, 29, STACK
        ARGFRAME IOVERLAY, 0, STATIC
        ARGFRAME DOVERLAY, 0, STATIC
        FUNCALL zclSampleThermostat_HandleKeys, bindCapacity
        LOCFRAME ISTACK, 0, STACK
        LOCFRAME PSTACK, 0, STACK
        LOCFRAME XSTACK, 29, STACK
        LOCFRAME IOVERLAY, 0, STATIC
        LOCFRAME DOVERLAY, 0, STATIC
        ARGFRAME ISTACK, 0, STACK
        ARGFRAME PSTACK, 0, STACK
        ARGFRAME XSTACK, 29, STACK
        ARGFRAME IOVERLAY, 0, STATIC
        ARGFRAME DOVERLAY, 0, STATIC
        FUNCALL zclSampleThermostat_HandleKeys, UART_ZCmdPrintString
        LOCFRAME ISTACK, 0, STACK
        LOCFRAME PSTACK, 0, STACK
        LOCFRAME XSTACK, 29, STACK
        LOCFRAME IOVERLAY, 0, STATIC
        LOCFRAME DOVERLAY, 0, STATIC
        ARGFRAME ISTACK, 0, STACK
        ARGFRAME PSTACK, 0, STACK
        ARGFRAME XSTACK, 29, STACK
        ARGFRAME IOVERLAY, 0, STATIC
        ARGFRAME DOVERLAY, 0, STATIC
        FUNCALL zclSampleThermostat_HandleKeys, UART_ZCmdPrintNum
        LOCFRAME ISTACK, 0, STACK
        LOCFRAME PSTACK, 0, STACK
        LOCFRAME XSTACK, 29, STACK
        LOCFRAME IOVERLAY, 0, STATIC
        LOCFRAME DOVERLAY, 0, STATIC
        ARGFRAME ISTACK, 0, STACK
        ARGFRAME PSTACK, 0, STACK
        ARGFRAME XSTACK, 29, STACK
        ARGFRAME IOVERLAY, 0, STATIC
        ARGFRAME DOVERLAY, 0, STATIC
        FUNCALL zclSampleThermostat_HandleKeys, UART_ZCmdPrint
        LOCFRAME ISTACK, 0, STACK
        LOCFRAME PSTACK, 0, STACK
        LOCFRAME XSTACK, 29, STACK
        LOCFRAME IOVERLAY, 0, STATIC
        LOCFRAME DOVERLAY, 0, STATIC
        ARGFRAME ISTACK, 0, STACK
        ARGFRAME PSTACK, 0, STACK
        ARGFRAME XSTACK, 29, STACK
        ARGFRAME IOVERLAY, 0, STATIC
        ARGFRAME DOVERLAY, 0, STATIC
        FUNCALL zclSampleThermostat_HandleKeys, GetBindingTableEntry
        LOCFRAME ISTACK, 0, STACK
        LOCFRAME PSTACK, 0, STACK
        LOCFRAME XSTACK, 29, STACK
        LOCFRAME IOVERLAY, 0, STATIC
        LOCFRAME DOVERLAY, 0, STATIC
        ARGFRAME ISTACK, 0, STACK
        ARGFRAME PSTACK, 0, STACK
        ARGFRAME XSTACK, 29, STACK
        ARGFRAME IOVERLAY, 0, STATIC
        ARGFRAME DOVERLAY, 0, STATIC
        FUNCALL zclSampleThermostat_HandleKeys, UART_ZCmdPrintString
        LOCFRAME ISTACK, 0, STACK
        LOCFRAME PSTACK, 0, STACK
        LOCFRAME XSTACK, 29, STACK
        LOCFRAME IOVERLAY, 0, STATIC
        LOCFRAME DOVERLAY, 0, STATIC
        ARGFRAME ISTACK, 0, STACK
        ARGFRAME PSTACK, 0, STACK
        ARGFRAME XSTACK, 29, STACK
        ARGFRAME IOVERLAY, 0, STATIC
        ARGFRAME DOVERLAY, 0, STATIC
        FUNCALL zclSampleThermostat_HandleKeys, UART_ZCmdPrintNum
        LOCFRAME ISTACK, 0, STACK
        LOCFRAME PSTACK, 0, STACK
        LOCFRAME XSTACK, 29, STACK
        LOCFRAME IOVERLAY, 0, STATIC
        LOCFRAME DOVERLAY, 0, STATIC
        ARGFRAME ISTACK, 0, STACK
        ARGFRAME PSTACK, 0, STACK
        ARGFRAME XSTACK, 29, STACK
        ARGFRAME IOVERLAY, 0, STATIC
        ARGFRAME DOVERLAY, 0, STATIC
        FUNCALL zclSampleThermostat_HandleKeys, UART_ZCmdPrintString
        LOCFRAME ISTACK, 0, STACK
        LOCFRAME PSTACK, 0, STACK
        LOCFRAME XSTACK, 29, STACK
        LOCFRAME IOVERLAY, 0, STATIC
        LOCFRAME DOVERLAY, 0, STATIC
        ARGFRAME ISTACK, 0, STACK
        ARGFRAME PSTACK, 0, STACK
        ARGFRAME XSTACK, 29, STACK
        ARGFRAME IOVERLAY, 0, STATIC
        ARGFRAME DOVERLAY, 0, STATIC
        FUNCALL zclSampleThermostat_HandleKeys, UART_ZCmdPrintNum
        LOCFRAME ISTACK, 0, STACK
        LOCFRAME PSTACK, 0, STACK
        LOCFRAME XSTACK, 29, STACK
        LOCFRAME IOVERLAY, 0, STATIC
        LOCFRAME DOVERLAY, 0, STATIC
        ARGFRAME ISTACK, 0, STACK
        ARGFRAME PSTACK, 0, STACK
        ARGFRAME XSTACK, 29, STACK
        ARGFRAME IOVERLAY, 0, STATIC
        ARGFRAME DOVERLAY, 0, STATIC
        FUNCALL zclSampleThermostat_HandleKeys, UART_ZCmdPrint
        LOCFRAME ISTACK, 0, STACK
        LOCFRAME PSTACK, 0, STACK
        LOCFRAME XSTACK, 29, STACK
        LOCFRAME IOVERLAY, 0, STATIC
        LOCFRAME DOVERLAY, 0, STATIC
        ARGFRAME ISTACK, 0, STACK
        ARGFRAME PSTACK, 0, STACK
        ARGFRAME XSTACK, 29, STACK
        ARGFRAME IOVERLAY, 0, STATIC
        ARGFRAME DOVERLAY, 0, STATIC
        FUNCALL zclSampleThermostat_HandleKeys, GetBindingTableEntry
        LOCFRAME ISTACK, 0, STACK
        LOCFRAME PSTACK, 0, STACK
        LOCFRAME XSTACK, 29, STACK
        LOCFRAME IOVERLAY, 0, STATIC
        LOCFRAME DOVERLAY, 0, STATIC
        ARGFRAME ISTACK, 0, STACK
        ARGFRAME PSTACK, 0, STACK
        ARGFRAME XSTACK, 29, STACK
        ARGFRAME IOVERLAY, 0, STATIC
        ARGFRAME DOVERLAY, 0, STATIC
        FUNCALL zclSampleThermostat_HandleKeys, UART_ZCmdPrintString
        LOCFRAME ISTACK, 0, STACK
        LOCFRAME PSTACK, 0, STACK
        LOCFRAME XSTACK, 29, STACK
        LOCFRAME IOVERLAY, 0, STATIC
        LOCFRAME DOVERLAY, 0, STATIC
        ARGFRAME ISTACK, 0, STACK
        ARGFRAME PSTACK, 0, STACK
        ARGFRAME XSTACK, 29, STACK
        ARGFRAME IOVERLAY, 0, STATIC
        ARGFRAME DOVERLAY, 0, STATIC
        FUNCALL zclSampleThermostat_HandleKeys, UART_ZCmdPrintNum
        LOCFRAME ISTACK, 0, STACK
        LOCFRAME PSTACK, 0, STACK
        LOCFRAME XSTACK, 29, STACK
        LOCFRAME IOVERLAY, 0, STATIC
        LOCFRAME DOVERLAY, 0, STATIC
        ARGFRAME ISTACK, 0, STACK
        ARGFRAME PSTACK, 0, STACK
        ARGFRAME XSTACK, 29, STACK
        ARGFRAME IOVERLAY, 0, STATIC
        ARGFRAME DOVERLAY, 0, STATIC
        FUNCALL zclSampleThermostat_HandleKeys, UART_ZCmdPrintString
        LOCFRAME ISTACK, 0, STACK
        LOCFRAME PSTACK, 0, STACK
        LOCFRAME XSTACK, 29, STACK
        LOCFRAME IOVERLAY, 0, STATIC
        LOCFRAME DOVERLAY, 0, STATIC
        ARGFRAME ISTACK, 0, STACK
        ARGFRAME PSTACK, 0, STACK
        ARGFRAME XSTACK, 29, STACK
        ARGFRAME IOVERLAY, 0, STATIC
        ARGFRAME DOVERLAY, 0, STATIC
        FUNCALL zclSampleThermostat_HandleKeys, UART_ZCmdPrintNum
        LOCFRAME ISTACK, 0, STACK
        LOCFRAME PSTACK, 0, STACK
        LOCFRAME XSTACK, 29, STACK
        LOCFRAME IOVERLAY, 0, STATIC
        LOCFRAME DOVERLAY, 0, STATIC
        ARGFRAME ISTACK, 0, STACK
        ARGFRAME PSTACK, 0, STACK
        ARGFRAME XSTACK, 29, STACK
        ARGFRAME IOVERLAY, 0, STATIC
        ARGFRAME DOVERLAY, 0, STATIC
        FUNCALL zclSampleThermostat_HandleKeys, UART_ZCmdPrint
        LOCFRAME ISTACK, 0, STACK
        LOCFRAME PSTACK, 0, STACK
        LOCFRAME XSTACK, 29, STACK
        LOCFRAME IOVERLAY, 0, STATIC
        LOCFRAME DOVERLAY, 0, STATIC
        ARGFRAME ISTACK, 0, STACK
        ARGFRAME PSTACK, 0, STACK
        ARGFRAME XSTACK, 29, STACK
        ARGFRAME IOVERLAY, 0, STATIC
        ARGFRAME DOVERLAY, 0, STATIC
        FUNCALL zclSampleThermostat_HandleKeys, GetBindingTableEntry
        LOCFRAME ISTACK, 0, STACK
        LOCFRAME PSTACK, 0, STACK
        LOCFRAME XSTACK, 29, STACK
        LOCFRAME IOVERLAY, 0, STATIC
        LOCFRAME DOVERLAY, 0, STATIC
        ARGFRAME ISTACK, 0, STACK
        ARGFRAME PSTACK, 0, STACK
        ARGFRAME XSTACK, 29, STACK
        ARGFRAME IOVERLAY, 0, STATIC
        ARGFRAME DOVERLAY, 0, STATIC
        FUNCALL zclSampleThermostat_HandleKeys, UART_ZCmdPrintString
        LOCFRAME ISTACK, 0, STACK
        LOCFRAME PSTACK, 0, STACK
        LOCFRAME XSTACK, 29, STACK
        LOCFRAME IOVERLAY, 0, STATIC
        LOCFRAME DOVERLAY, 0, STATIC
        ARGFRAME ISTACK, 0, STACK
        ARGFRAME PSTACK, 0, STACK
        ARGFRAME XSTACK, 29, STACK
        ARGFRAME IOVERLAY, 0, STATIC
        ARGFRAME DOVERLAY, 0, STATIC
        FUNCALL zclSampleThermostat_HandleKeys, UART_ZCmdPrintNum
        LOCFRAME ISTACK, 0, STACK
        LOCFRAME PSTACK, 0, STACK
        LOCFRAME XSTACK, 29, STACK
        LOCFRAME IOVERLAY, 0, STATIC
        LOCFRAME DOVERLAY, 0, STATIC
        ARGFRAME ISTACK, 0, STACK
        ARGFRAME PSTACK, 0, STACK
        ARGFRAME XSTACK, 29, STACK
        ARGFRAME IOVERLAY, 0, STATIC
        ARGFRAME DOVERLAY, 0, STATIC
        FUNCALL zclSampleThermostat_HandleKeys, UART_ZCmdPrintString
        LOCFRAME ISTACK, 0, STACK
        LOCFRAME PSTACK, 0, STACK
        LOCFRAME XSTACK, 29, STACK
        LOCFRAME IOVERLAY, 0, STATIC
        LOCFRAME DOVERLAY, 0, STATIC
        ARGFRAME ISTACK, 0, STACK
        ARGFRAME PSTACK, 0, STACK
        ARGFRAME XSTACK, 29, STACK
        ARGFRAME IOVERLAY, 0, STATIC
        ARGFRAME DOVERLAY, 0, STATIC
        FUNCALL zclSampleThermostat_HandleKeys, UART_ZCmdPrintNum
        LOCFRAME ISTACK, 0, STACK
        LOCFRAME PSTACK, 0, STACK
        LOCFRAME XSTACK, 29, STACK
        LOCFRAME IOVERLAY, 0, STATIC
        LOCFRAME DOVERLAY, 0, STATIC
        ARGFRAME ISTACK, 0, STACK
        ARGFRAME PSTACK, 0, STACK
        ARGFRAME XSTACK, 29, STACK
        ARGFRAME IOVERLAY, 0, STATIC
        ARGFRAME DOVERLAY, 0, STATIC
        FUNCALL zclSampleThermostat_HandleKeys, UART_ZCmdPrint
        LOCFRAME ISTACK, 0, STACK
        LOCFRAME PSTACK, 0, STACK
        LOCFRAME XSTACK, 29, STACK
        LOCFRAME IOVERLAY, 0, STATIC
        LOCFRAME DOVERLAY, 0, STATIC
        ARGFRAME ISTACK, 0, STACK
        ARGFRAME PSTACK, 0, STACK
        ARGFRAME XSTACK, 29, STACK
        ARGFRAME IOVERLAY, 0, STATIC
        ARGFRAME DOVERLAY, 0, STATIC
        FUNCALL zclSampleThermostat_HandleKeys, GetBindingTableEntry
        LOCFRAME ISTACK, 0, STACK
        LOCFRAME PSTACK, 0, STACK
        LOCFRAME XSTACK, 29, STACK
        LOCFRAME IOVERLAY, 0, STATIC
        LOCFRAME DOVERLAY, 0, STATIC
        ARGFRAME ISTACK, 0, STACK
        ARGFRAME PSTACK, 0, STACK
        ARGFRAME XSTACK, 29, STACK
        ARGFRAME IOVERLAY, 0, STATIC
        ARGFRAME DOVERLAY, 0, STATIC
        FUNCALL zclSampleThermostat_HandleKeys, UART_ZCmdPrintString
        LOCFRAME ISTACK, 0, STACK
        LOCFRAME PSTACK, 0, STACK
        LOCFRAME XSTACK, 29, STACK
        LOCFRAME IOVERLAY, 0, STATIC
        LOCFRAME DOVERLAY, 0, STATIC
        ARGFRAME ISTACK, 0, STACK
        ARGFRAME PSTACK, 0, STACK
        ARGFRAME XSTACK, 29, STACK
        ARGFRAME IOVERLAY, 0, STATIC
        ARGFRAME DOVERLAY, 0, STATIC
        FUNCALL zclSampleThermostat_HandleKeys, UART_ZCmdPrintNum
        LOCFRAME ISTACK, 0, STACK
        LOCFRAME PSTACK, 0, STACK
        LOCFRAME XSTACK, 29, STACK
        LOCFRAME IOVERLAY, 0, STATIC
        LOCFRAME DOVERLAY, 0, STATIC
        ARGFRAME ISTACK, 0, STACK
        ARGFRAME PSTACK, 0, STACK
        ARGFRAME XSTACK, 29, STACK
        ARGFRAME IOVERLAY, 0, STATIC
        ARGFRAME DOVERLAY, 0, STATIC
        FUNCALL zclSampleThermostat_HandleKeys, UART_ZCmdPrintString
        LOCFRAME ISTACK, 0, STACK
        LOCFRAME PSTACK, 0, STACK
        LOCFRAME XSTACK, 29, STACK
        LOCFRAME IOVERLAY, 0, STATIC
        LOCFRAME DOVERLAY, 0, STATIC
        ARGFRAME ISTACK, 0, STACK
        ARGFRAME PSTACK, 0, STACK
        ARGFRAME XSTACK, 29, STACK
        ARGFRAME IOVERLAY, 0, STATIC
        ARGFRAME DOVERLAY, 0, STATIC
        FUNCALL zclSampleThermostat_HandleKeys, UART_ZCmdPrintNum
        LOCFRAME ISTACK, 0, STACK
        LOCFRAME PSTACK, 0, STACK
        LOCFRAME XSTACK, 29, STACK
        LOCFRAME IOVERLAY, 0, STATIC
        LOCFRAME DOVERLAY, 0, STATIC
        ARGFRAME ISTACK, 0, STACK
        ARGFRAME PSTACK, 0, STACK
        ARGFRAME XSTACK, 29, STACK
        ARGFRAME IOVERLAY, 0, STATIC
        ARGFRAME DOVERLAY, 0, STATIC
        FUNCALL zclSampleThermostat_HandleKeys, UART_ZCmdPrint
        LOCFRAME ISTACK, 0, STACK
        LOCFRAME PSTACK, 0, STACK
        LOCFRAME XSTACK, 29, STACK
        LOCFRAME IOVERLAY, 0, STATIC
        LOCFRAME DOVERLAY, 0, STATIC
        ARGFRAME ISTACK, 0, STACK
        ARGFRAME PSTACK, 0, STACK
        ARGFRAME XSTACK, 29, STACK
        ARGFRAME IOVERLAY, 0, STATIC
        ARGFRAME DOVERLAY, 0, STATIC
        FUNCALL zclSampleThermostat_HandleKeys, UART_DebugPrint
        LOCFRAME ISTACK, 0, STACK
        LOCFRAME PSTACK, 0, STACK
        LOCFRAME XSTACK, 29, STACK
        LOCFRAME IOVERLAY, 0, STATIC
        LOCFRAME DOVERLAY, 0, STATIC
        ARGFRAME ISTACK, 0, STACK
        ARGFRAME PSTACK, 0, STACK
        ARGFRAME XSTACK, 29, STACK
        ARGFRAME IOVERLAY, 0, STATIC
        ARGFRAME DOVERLAY, 0, STATIC
        FUNCALL zclSampleThermostat_HandleKeys, zcl_InvokeEZMode
        LOCFRAME ISTACK, 0, STACK
        LOCFRAME PSTACK, 0, STACK
        LOCFRAME XSTACK, 29, STACK
        LOCFRAME IOVERLAY, 0, STATIC
        LOCFRAME DOVERLAY, 0, STATIC
        ARGFRAME ISTACK, 0, STACK
        ARGFRAME PSTACK, 0, STACK
        ARGFRAME XSTACK, 29, STACK
        ARGFRAME IOVERLAY, 0, STATIC
        ARGFRAME DOVERLAY, 0, STATIC
        FUNCALL zclSampleThermostat_HandleKeys, HalLcdWriteString
        LOCFRAME ISTACK, 0, STACK
        LOCFRAME PSTACK, 0, STACK
        LOCFRAME XSTACK, 29, STACK
        LOCFRAME IOVERLAY, 0, STATIC
        LOCFRAME DOVERLAY, 0, STATIC
        ARGFRAME ISTACK, 0, STACK
        ARGFRAME PSTACK, 0, STACK
        ARGFRAME XSTACK, 29, STACK
        ARGFRAME IOVERLAY, 0, STATIC
        ARGFRAME DOVERLAY, 0, STATIC
        FUNCALL zclSampleThermostat_HandleKeys, NLME_GetShortAddr
        LOCFRAME ISTACK, 0, STACK
        LOCFRAME PSTACK, 0, STACK
        LOCFRAME XSTACK, 29, STACK
        LOCFRAME IOVERLAY, 0, STATIC
        LOCFRAME DOVERLAY, 0, STATIC
        ARGFRAME ISTACK, 0, STACK
        ARGFRAME PSTACK, 0, STACK
        ARGFRAME XSTACK, 29, STACK
        ARGFRAME IOVERLAY, 0, STATIC
        ARGFRAME DOVERLAY, 0, STATIC
        FUNCALL zclSampleThermostat_HandleKeys, ZDP_MgmtPermitJoinReq
        LOCFRAME ISTACK, 0, STACK
        LOCFRAME PSTACK, 0, STACK
        LOCFRAME XSTACK, 29, STACK
        LOCFRAME IOVERLAY, 0, STATIC
        LOCFRAME DOVERLAY, 0, STATIC
        ARGFRAME ISTACK, 0, STACK
        ARGFRAME PSTACK, 0, STACK
        ARGFRAME XSTACK, 29, STACK
        ARGFRAME IOVERLAY, 0, STATIC
        ARGFRAME DOVERLAY, 0, STATIC
        FUNCALL zclSampleThermostat_HandleKeys, zclSampleThermostat_BasicResetCB
        LOCFRAME ISTACK, 0, STACK
        LOCFRAME PSTACK, 0, STACK
        LOCFRAME XSTACK, 29, STACK
        LOCFRAME IOVERLAY, 0, STATIC
        LOCFRAME DOVERLAY, 0, STATIC
        ARGFRAME ISTACK, 0, STACK
        ARGFRAME PSTACK, 0, STACK
        ARGFRAME XSTACK, 29, STACK
        ARGFRAME IOVERLAY, 0, STATIC
        ARGFRAME DOVERLAY, 0, STATIC
        FUNCALL zclSampleThermostat_HandleKeys, HalLcdWriteString
        LOCFRAME ISTACK, 0, STACK
        LOCFRAME PSTACK, 0, STACK
        LOCFRAME XSTACK, 29, STACK
        LOCFRAME IOVERLAY, 0, STATIC
        LOCFRAME DOVERLAY, 0, STATIC
        ARGFRAME ISTACK, 0, STACK
        ARGFRAME PSTACK, 0, STACK
        ARGFRAME XSTACK, 29, STACK
        ARGFRAME IOVERLAY, 0, STATIC
        ARGFRAME DOVERLAY, 0, STATIC
        FUNCALL zclSampleThermostat_HandleKeys, HalLcdWriteString
        LOCFRAME ISTACK, 0, STACK
        LOCFRAME PSTACK, 0, STACK
        LOCFRAME XSTACK, 29, STACK
        LOCFRAME IOVERLAY, 0, STATIC
        LOCFRAME DOVERLAY, 0, STATIC
        ARGFRAME ISTACK, 0, STACK
        ARGFRAME PSTACK, 0, STACK
        ARGFRAME XSTACK, 29, STACK
        ARGFRAME IOVERLAY, 0, STATIC
        ARGFRAME DOVERLAY, 0, STATIC
        FUNCALL zclSampleThermostat_HandleKeys, HalLcdWriteString
        LOCFRAME ISTACK, 0, STACK
        LOCFRAME PSTACK, 0, STACK
        LOCFRAME XSTACK, 29, STACK
        LOCFRAME IOVERLAY, 0, STATIC
        LOCFRAME DOVERLAY, 0, STATIC
        ARGFRAME ISTACK, 0, STACK
        ARGFRAME PSTACK, 0, STACK
        ARGFRAME XSTACK, 29, STACK
        ARGFRAME IOVERLAY, 0, STATIC
        ARGFRAME DOVERLAY, 0, STATIC
        FUNCALL zclSampleThermostat_HandleKeys, zclSampleThermostat_LcdDisplayUpdate
        LOCFRAME ISTACK, 0, STACK
        LOCFRAME PSTACK, 0, STACK
        LOCFRAME XSTACK, 29, STACK
        LOCFRAME IOVERLAY, 0, STATIC
        LOCFRAME DOVERLAY, 0, STATIC
        ARGFRAME ISTACK, 0, STACK
        ARGFRAME PSTACK, 0, STACK
        ARGFRAME XSTACK, 29, STACK
        ARGFRAME IOVERLAY, 0, STATIC
        ARGFRAME DOVERLAY, 0, STATIC
        REQUIRE ?V0
        REQUIRE ?V1
        REQUIRE ?V2
        REQUIRE ?V3
        REQUIRE ?V4
        REQUIRE ?V5
        REQUIRE ?V6
        REQUIRE ?V7
        MOV     A,#-0x10
        LCALL   ?BANKED_ENTER_XDATA
          CFI DPH0 load(1, XDATA, add(CFA_XSP16, literal(-1)))
          CFI DPL0 load(1, XDATA, add(CFA_XSP16, literal(-2)))
          CFI ?BRET_EXT load(1, XDATA, add(CFA_XSP16, literal(-3)))
          CFI ?RET_HIGH load(1, XDATA, add(CFA_XSP16, literal(-4)))
          CFI ?RET_LOW load(1, XDATA, add(CFA_XSP16, literal(-5)))
          CFI R7 load(1, XDATA, add(CFA_XSP16, literal(-6)))
          CFI V7 load(1, XDATA, add(CFA_XSP16, literal(-7)))
          CFI V6 load(1, XDATA, add(CFA_XSP16, literal(-8)))
          CFI V5 load(1, XDATA, add(CFA_XSP16, literal(-9)))
          CFI V4 load(1, XDATA, add(CFA_XSP16, literal(-10)))
          CFI V3 load(1, XDATA, add(CFA_XSP16, literal(-11)))
          CFI V2 load(1, XDATA, add(CFA_XSP16, literal(-12)))
          CFI V1 load(1, XDATA, add(CFA_XSP16, literal(-13)))
          CFI V0 load(1, XDATA, add(CFA_XSP16, literal(-14)))
          CFI VB load(1, XDATA, add(CFA_XSP16, literal(-15)))
          CFI R6 load(1, XDATA, add(CFA_XSP16, literal(-16)))
          CFI CFA_SP SP+0
          CFI CFA_XSP16 add(XSP16, 16)
        ; Saved register size: 16
        ; Auto size: 13
        MOV     A,#-0xd
        LCALL   ?ALLOC_XSTACK8
          CFI CFA_XSP16 add(XSP16, 29)
        MOV     ?V3,R1
        MOV     ?V2,R2
//  566 	if ( keys & HAL_KEY_SW_6 ) //~ SW1 on board
        MOV     A,R2
        MOV     C,0xE0 /* A   */.5
        JC      $+5
        LJMP    ??zclSampleThermostat_HandleKeys_0 & 0xFFFF
//  567 	{
//  568 		UART_DebugPrint(HAL_UART_PORT_0, "SW6");
        ; Setup parameters for call to function UART_DebugPrint
        MOV     R2,#`?<Constant "SW6">` & 0xff
        MOV     R3,#(`?<Constant "SW6">` >> 8) & 0xff
        MOV     R1,#0x0
        LCALL   `??UART_DebugPrint::?relay`; Banked call to: UART_DebugPrint
//  569 
//  570 		uint16 maxEntries;
//  571 		uint16 usedEntries;
//  572 		BindingEntry_t* current_BindingTableEntry;
//  573 
//  574 		bindCapacity(&maxEntries, &usedEntries);
        ; Setup parameters for call to function bindCapacity
        MOV     A,#0x9
        LCALL   ?XSTACK_DISP102_8
        MOV     A,#0xb
        LCALL   ?XSTACK_DISP101_8
        LCALL   `??bindCapacity::?relay`; Banked call to: bindCapacity
//  575 		UART_ZCmdPrintString(HAL_UART_PORT_0, "usedEntries: ");
        ; Setup parameters for call to function UART_ZCmdPrintString
        MOV     R2,#`?<Constant "usedEntries: ">` & 0xff
        MOV     R3,#(`?<Constant "usedEntries: ">` >> 8) & 0xff
        MOV     R1,#0x0
        LCALL   `??UART_ZCmdPrintString::?relay`; Banked call to: UART_ZCmdPrintString
//  576 		UART_ZCmdPrintNum		(HAL_UART_PORT_0, usedEntries);
        ; Setup parameters for call to function UART_ZCmdPrintNum
        MOV     A,#0x9
        LCALL   ?XSTACK_DISP0_8
        LCALL   ?Subroutine13 & 0xFFFF
??CrossCallReturnLabel_21:
        LCALL   `??UART_ZCmdPrintNum::?relay`; Banked call to: UART_ZCmdPrintNum
//  577 		UART_ZCmdPrint			(HAL_UART_PORT_0, "");
        MOV     ?V0,#`?<Constant "">` & 0xff
        MOV     ?V1,#(`?<Constant "">` >> 8) & 0xff
        ; Setup parameters for call to function UART_ZCmdPrint
        MOV     R2,?V0
        MOV     R3,?V1
        MOV     R1,#0x0
        LCALL   `??UART_ZCmdPrint::?relay`; Banked call to: UART_ZCmdPrint
//  578 
//  579 		current_BindingTableEntry = GetBindingTableEntry( 0 );
        ; Setup parameters for call to function GetBindingTableEntry
        MOV     R2,#0x0
        MOV     R3,#0x0
        LCALL   `??GetBindingTableEntry::?relay`; Banked call to: GetBindingTableEntry
        MOV     ?V4,R2
        MOV     ?V5,R3
        MOV     R6,?V4
        MOV     R7,?V5
//  580 		UART_ZCmdPrintString(HAL_UART_PORT_0, "Entry 0: ");
        ; Setup parameters for call to function UART_ZCmdPrintString
        MOV     R2,#`?<Constant "Entry 0: ">` & 0xff
        MOV     R3,#(`?<Constant "Entry 0: ">` >> 8) & 0xff
        MOV     R1,#0x0
        LCALL   `??UART_ZCmdPrintString::?relay`; Banked call to: UART_ZCmdPrintString
//  581 		UART_ZCmdPrintNum		(HAL_UART_PORT_0, current_BindingTableEntry[0].srcEP);
        ; Setup parameters for call to function UART_ZCmdPrintNum
        MOV     DPL,R6
        MOV     DPH,R7
        LCALL   ??Subroutine36_0 & 0xFFFF
??CrossCallReturnLabel_66:
        LCALL   `??UART_ZCmdPrintNum::?relay`; Banked call to: UART_ZCmdPrintNum
//  582 		UART_ZCmdPrintString(HAL_UART_PORT_0, " | ");
        MOV     ?V4,#`?<Constant " | ">` & 0xff
        MOV     ?V5,#(`?<Constant " | ">` >> 8) & 0xff
        ; Setup parameters for call to function UART_ZCmdPrintString
        MOV     R2,?V4
        MOV     R3,?V5
        MOV     R1,#0x0
        LCALL   `??UART_ZCmdPrintString::?relay`; Banked call to: UART_ZCmdPrintString
//  583 		UART_ZCmdPrintNum		(HAL_UART_PORT_0, current_BindingTableEntry[0].dstEP);
        ; Setup parameters for call to function UART_ZCmdPrintNum
        MOV     DPL,R6
        MOV     DPH,R7
        INC     DPTR
        INC     DPTR
        INC     DPTR
        LCALL   ??Subroutine35_0 & 0xFFFF
??CrossCallReturnLabel_75:
        LCALL   `??UART_ZCmdPrintNum::?relay`; Banked call to: UART_ZCmdPrintNum
//  584 		UART_ZCmdPrint			(HAL_UART_PORT_0, "");
        ; Setup parameters for call to function UART_ZCmdPrint
        MOV     R2,?V0
        MOV     R3,?V1
        MOV     R1,#0x0
        LCALL   `??UART_ZCmdPrint::?relay`; Banked call to: UART_ZCmdPrint
//  585 
//  586 		current_BindingTableEntry = GetBindingTableEntry( 1 );
        ; Setup parameters for call to function GetBindingTableEntry
        MOV     R2,#0x1
        MOV     R3,#0x0
        LCALL   `??GetBindingTableEntry::?relay`; Banked call to: GetBindingTableEntry
        MOV     ?V6,R2
        MOV     ?V7,R3
        MOV     R6,?V6
        MOV     R7,?V7
//  587 		UART_ZCmdPrintString(HAL_UART_PORT_0, "Entry 1: ");
        ; Setup parameters for call to function UART_ZCmdPrintString
        MOV     R2,#`?<Constant "Entry 1: ">` & 0xff
        MOV     R3,#(`?<Constant "Entry 1: ">` >> 8) & 0xff
        MOV     R1,#0x0
        LCALL   `??UART_ZCmdPrintString::?relay`; Banked call to: UART_ZCmdPrintString
//  588 		UART_ZCmdPrintNum		(HAL_UART_PORT_0, current_BindingTableEntry[1].srcEP);
        ; Setup parameters for call to function UART_ZCmdPrintNum
        MOV     A,R6
        ADD     A,#0xe
        MOV     DPL,A
        CLR     A
        ADDC    A,R7
        MOV     DPH,A
        LCALL   ??Subroutine36_0 & 0xFFFF
??CrossCallReturnLabel_67:
        LCALL   `??UART_ZCmdPrintNum::?relay`; Banked call to: UART_ZCmdPrintNum
//  589 		UART_ZCmdPrintString(HAL_UART_PORT_0, " | ");
        ; Setup parameters for call to function UART_ZCmdPrintString
        MOV     R2,?V4
        MOV     R3,?V5
        MOV     R1,#0x0
        LCALL   `??UART_ZCmdPrintString::?relay`; Banked call to: UART_ZCmdPrintString
//  590 		UART_ZCmdPrintNum		(HAL_UART_PORT_0, current_BindingTableEntry[1].dstEP);
        ; Setup parameters for call to function UART_ZCmdPrintNum
        MOV     A,R6
        ADD     A,#0x12
        MOV     DPL,A
        CLR     A
        ADDC    A,R7
        MOV     DPH,A
        LCALL   ??Subroutine36_0 & 0xFFFF
??CrossCallReturnLabel_68:
        LCALL   `??UART_ZCmdPrintNum::?relay`; Banked call to: UART_ZCmdPrintNum
//  591 		UART_ZCmdPrint			(HAL_UART_PORT_0, "");
        ; Setup parameters for call to function UART_ZCmdPrint
        MOV     R2,?V0
        MOV     R3,?V1
        MOV     R1,#0x0
        LCALL   `??UART_ZCmdPrint::?relay`; Banked call to: UART_ZCmdPrint
//  592 
//  593 		current_BindingTableEntry = GetBindingTableEntry( 2 );
        ; Setup parameters for call to function GetBindingTableEntry
        MOV     R2,#0x2
        MOV     R3,#0x0
        LCALL   `??GetBindingTableEntry::?relay`; Banked call to: GetBindingTableEntry
        MOV     ?V6,R2
        MOV     ?V7,R3
        MOV     R6,?V6
        MOV     R7,?V7
//  594 		UART_ZCmdPrintString(HAL_UART_PORT_0, "Entry 2: ");
        ; Setup parameters for call to function UART_ZCmdPrintString
        MOV     R2,#`?<Constant "Entry 2: ">` & 0xff
        MOV     R3,#(`?<Constant "Entry 2: ">` >> 8) & 0xff
        MOV     R1,#0x0
        LCALL   `??UART_ZCmdPrintString::?relay`; Banked call to: UART_ZCmdPrintString
//  595 		UART_ZCmdPrintNum		(HAL_UART_PORT_0, current_BindingTableEntry[2].srcEP);
        ; Setup parameters for call to function UART_ZCmdPrintNum
        MOV     A,R6
        ADD     A,#0x1c
        MOV     DPL,A
        CLR     A
        ADDC    A,R7
        MOV     DPH,A
        LCALL   ??Subroutine36_0 & 0xFFFF
??CrossCallReturnLabel_69:
        LCALL   `??UART_ZCmdPrintNum::?relay`; Banked call to: UART_ZCmdPrintNum
//  596 		UART_ZCmdPrintString(HAL_UART_PORT_0, " | ");
        ; Setup parameters for call to function UART_ZCmdPrintString
        MOV     R2,?V4
        MOV     R3,?V5
        MOV     R1,#0x0
        LCALL   `??UART_ZCmdPrintString::?relay`; Banked call to: UART_ZCmdPrintString
//  597 		UART_ZCmdPrintNum		(HAL_UART_PORT_0, current_BindingTableEntry[2].dstEP);
        ; Setup parameters for call to function UART_ZCmdPrintNum
        MOV     A,R6
        ADD     A,#0x20
        MOV     DPL,A
        CLR     A
        ADDC    A,R7
        MOV     DPH,A
        LCALL   ??Subroutine36_0 & 0xFFFF
??CrossCallReturnLabel_70:
        LCALL   `??UART_ZCmdPrintNum::?relay`; Banked call to: UART_ZCmdPrintNum
//  598 		UART_ZCmdPrint			(HAL_UART_PORT_0, "");
        ; Setup parameters for call to function UART_ZCmdPrint
        MOV     R2,?V0
        MOV     R3,?V1
        MOV     R1,#0x0
        LCALL   `??UART_ZCmdPrint::?relay`; Banked call to: UART_ZCmdPrint
//  599 
//  600 		current_BindingTableEntry = GetBindingTableEntry( 3 );
        ; Setup parameters for call to function GetBindingTableEntry
        MOV     R2,#0x3
        MOV     R3,#0x0
        LCALL   `??GetBindingTableEntry::?relay`; Banked call to: GetBindingTableEntry
        MOV     ?V6,R2
        MOV     ?V7,R3
        MOV     R6,?V6
        MOV     R7,?V7
//  601 		UART_ZCmdPrintString(HAL_UART_PORT_0, "Entry 3: ");
        ; Setup parameters for call to function UART_ZCmdPrintString
        MOV     R2,#`?<Constant "Entry 3: ">` & 0xff
        MOV     R3,#(`?<Constant "Entry 3: ">` >> 8) & 0xff
        MOV     R1,#0x0
        LCALL   `??UART_ZCmdPrintString::?relay`; Banked call to: UART_ZCmdPrintString
//  602 		UART_ZCmdPrintNum		(HAL_UART_PORT_0, current_BindingTableEntry[3].srcEP);
        ; Setup parameters for call to function UART_ZCmdPrintNum
        MOV     A,R6
        ADD     A,#0x2a
        MOV     DPL,A
        CLR     A
        ADDC    A,R7
        MOV     DPH,A
        LCALL   ??Subroutine36_0 & 0xFFFF
??CrossCallReturnLabel_71:
        LCALL   `??UART_ZCmdPrintNum::?relay`; Banked call to: UART_ZCmdPrintNum
//  603 		UART_ZCmdPrintString(HAL_UART_PORT_0, " | ");
        ; Setup parameters for call to function UART_ZCmdPrintString
        MOV     R2,?V4
        MOV     R3,?V5
        MOV     R1,#0x0
        LCALL   `??UART_ZCmdPrintString::?relay`; Banked call to: UART_ZCmdPrintString
//  604 		UART_ZCmdPrintNum		(HAL_UART_PORT_0, current_BindingTableEntry[3].dstEP);
        ; Setup parameters for call to function UART_ZCmdPrintNum
        MOV     A,R6
        ADD     A,#0x2e
        MOV     DPL,A
        CLR     A
        ADDC    A,R7
        MOV     DPH,A
        LCALL   ??Subroutine36_0 & 0xFFFF
??CrossCallReturnLabel_72:
        LCALL   `??UART_ZCmdPrintNum::?relay`; Banked call to: UART_ZCmdPrintNum
//  605 		UART_ZCmdPrint			(HAL_UART_PORT_0, "");
        ; Setup parameters for call to function UART_ZCmdPrint
        MOV     R2,?V0
        MOV     R3,?V1
        MOV     R1,#0x0
        LCALL   `??UART_ZCmdPrint::?relay`; Banked call to: UART_ZCmdPrint
//  606 		
//  607 	}
//  608 	
//  609   if ( keys & HAL_KEY_SW_8 ) //~ SW3 on board
??zclSampleThermostat_HandleKeys_0:
        MOV     A,?V2
        MOV     C,0xE0 /* A   */.7
        JC      $+5
        LJMP    ??zclSampleThermostat_HandleKeys_1 & 0xFFFF
//  610   {
//  611   	UART_DebugPrint(HAL_UART_PORT_0, "SW8");
        ; Setup parameters for call to function UART_DebugPrint
        MOV     R2,#`?<Constant "SW8">` & 0xff
        MOV     R3,#(`?<Constant "SW8">` >> 8) & 0xff
        MOV     R1,#0x0
        LCALL   `??UART_DebugPrint::?relay`; Banked call to: UART_DebugPrint
//  612     if ( ( giThermostatScreenMode == THERMOSTAT_MAINMODE ) ||
//  613          ( giThermostatScreenMode == THERMOSTAT_HELPMODE ) )
        MOV     DPTR,#giThermostatScreenMode
        MOVX    A,@DPTR
        JZ      ??zclSampleThermostat_HandleKeys_2
        XRL     A,#0x1
        JNZ     ??zclSampleThermostat_HandleKeys_1
//  614     {
//  615       giThermostatScreenMode = THERMOSTAT_MAINMODE;
??zclSampleThermostat_HandleKeys_2:
        CLR     A
        MOVX    @DPTR,A
//  616 
//  617 			FLAG_BINDING = !FLAG_BINDING;
        MOV     DPTR,#FLAG_BINDING
        MOVX    A,@DPTR
        JNZ     ??zclSampleThermostat_HandleKeys_3
        MOV     A,#0x1
        SJMP    ??zclSampleThermostat_HandleKeys_4
??zclSampleThermostat_HandleKeys_3:
        CLR     A
??zclSampleThermostat_HandleKeys_4:
        MOVX    @DPTR,A
//  618 			FLAG_HARD_BINDING = !FLAG_HARD_BINDING;
        MOV     DPTR,#FLAG_HARD_BINDING
        MOVX    A,@DPTR
        JNZ     ??zclSampleThermostat_HandleKeys_5
        MOV     A,#0x1
        SJMP    ??zclSampleThermostat_HandleKeys_6
??zclSampleThermostat_HandleKeys_5:
        CLR     A
??zclSampleThermostat_HandleKeys_6:
        LCALL   ?Subroutine6 & 0xFFFF
//  619 
//  620 			#ifdef ZCL_EZMODE
//  621       zclEZMode_InvokeData_t ezModeData;
//  622       static uint16 clusterIDs[] = { ZCL_CLUSTER_ID_HVAC_THERMOSTAT };   // only bind on the Thermostat cluster
//  623 
//  624       // Invoke EZ-Mode
//  625       ezModeData.endpoint = SAMPLETHERMOSTAT_ENDPOINT; // endpoint on which to invoke EZ-Mode
//  626       if ( ( zclSampleThermostat_NwkState == DEV_ZB_COORD ) ||
//  627            ( zclSampleThermostat_NwkState == DEV_ROUTER )   ||
//  628            ( zclSampleThermostat_NwkState == DEV_END_DEVICE ) )
??CrossCallReturnLabel_4:
        JZ      ??zclSampleThermostat_HandleKeys_7
        MOVX    A,@DPTR
        XRL     A,#0x7
        JZ      ??zclSampleThermostat_HandleKeys_7
        MOVX    A,@DPTR
        XRL     A,#0x6
        JNZ     ??zclSampleThermostat_HandleKeys_8
//  629       {
//  630         ezModeData.onNetwork = TRUE;      // node is already on the network
??zclSampleThermostat_HandleKeys_7:
        MOV     A,#0x1
        LCALL   ?XSTACK_DISP0_8
        MOV     A,#0x1
        SJMP    ??zclSampleThermostat_HandleKeys_9
//  631       }
//  632       else
//  633       {
//  634         ezModeData.onNetwork = FALSE;     // node is not yet on the network
??zclSampleThermostat_HandleKeys_8:
        MOV     A,#0x1
        LCALL   ?XSTACK_DISP0_8
        CLR     A
??zclSampleThermostat_HandleKeys_9:
        MOVX    @DPTR,A
//  635       }
//  636       ezModeData.initiator = TRUE;        // Thermostat is an initiator
        MOV     A,#0x2
        LCALL   ?XSTACK_DISP0_8
        MOV     A,#0x1
        MOVX    @DPTR,A
//  637       ezModeData.numActiveInClusters = 0;
        MOV     A,#0x3
        LCALL   ?XSTACK_DISP0_8
        CLR     A
        MOVX    @DPTR,A
//  638       ezModeData.pActiveInClusterIDs = NULL;
        MOV     A,#0x4
        LCALL   ?XSTACK_DISP0_8
        CLR     A
        MOVX    @DPTR,A
        INC     DPTR
        MOVX    @DPTR,A
//  639       ezModeData.numActiveOutClusters = 1;   // active output cluster
        MOV     A,#0x6
        LCALL   ?XSTACK_DISP0_8
        MOV     A,#0x1
        MOVX    @DPTR,A
//  640       ezModeData.pActiveOutClusterIDs = clusterIDs;
        MOV     A,#0x7
        LCALL   ?XSTACK_DISP0_8
        MOV     A,#??clusterIDs & 0xff
        MOVX    @DPTR,A
        INC     DPTR
        MOV     A,#(??clusterIDs >> 8) & 0xff
        LCALL   ??Subroutine31_0 & 0xFFFF
//  641       zcl_InvokeEZMode( &ezModeData );
??CrossCallReturnLabel_64:
        LCALL   `??zcl_InvokeEZMode::?relay`; Banked call to: zcl_InvokeEZMode
//  642 
//  643 			#ifdef LCD_SUPPORTED
//  644       HalLcdWriteString( "EZMode", HAL_LCD_LINE_2 );
        ; Setup parameters for call to function HalLcdWriteString
        MOV     R1,#0x2
        MOV     R2,#`?<Constant "EZMode">` & 0xff
        MOV     R3,#(`?<Constant "EZMode">` >> 8) & 0xff
        LCALL   `??HalLcdWriteString::?relay`; Banked call to: HalLcdWriteString
//  645 			#endif
//  646 
//  647       // NOT ZCL_EZMODE, use EndDeviceBind
//  648 			#else
//  649       zAddrType_t dstAddr;
//  650       HalLedSet ( HAL_LED_4, HAL_LED_MODE_OFF );
//  651 
//  652       // Initiate an End Device Bind Request, this bind request will
//  653       // only use a cluster list that is important to binding.
//  654       dstAddr.addrMode = afAddr16Bit;
//  655       dstAddr.addr.shortAddr = 0;   // Coordinator makes the match
//  656       ZDP_EndDeviceBindReq( &dstAddr, NLME_GetShortAddr(),
//  657                             SAMPLETHERMOSTAT_ENDPOINT,
//  658                             ZCL_HA_PROFILE_ID,
//  659                             ZCLSAMPLETHERMOSTAT_BINDINGLIST_IN, bindingInClusters,
//  660                             ZCLSAMPLETHERMOSTAT_BINDINGLIST_OUT, bindingOutClusters,
//  661                             TRUE );
//  662 			#endif // ZCL_EZMODE
//  663     }
//  664   }
//  665 
//  666   if ( keys & HAL_KEY_SW_4 )
??zclSampleThermostat_HandleKeys_1:
        MOV     A,?V2
        MOV     C,0xE0 /* A   */.3
        JNC     ??zclSampleThermostat_HandleKeys_10
//  667   {
//  668     giThermostatScreenMode = THERMOSTAT_MAINMODE;
        MOV     DPTR,#giThermostatScreenMode
        CLR     A
        MOVX    @DPTR,A
//  669 
//  670     if ( ( zclSampleThermostat_NwkState == DEV_ZB_COORD ) ||
//  671          ( zclSampleThermostat_NwkState == DEV_ROUTER ) )
        MOV     DPTR,#zclSampleThermostat_NwkState
        MOVX    A,@DPTR
        XRL     A,#0x9
        JZ      ??zclSampleThermostat_HandleKeys_11
        MOVX    A,@DPTR
        XRL     A,#0x7
        JNZ     ??zclSampleThermostat_HandleKeys_10
//  672     {
//  673       zAddrType_t tmpAddr;
//  674 
//  675       tmpAddr.addrMode = Addr16Bit;
??zclSampleThermostat_HandleKeys_11:
        MOV     A,#0x8
        LCALL   ?XSTACK_DISP0_8
        MOV     A,#0x2
        MOVX    @DPTR,A
//  676       tmpAddr.addr.shortAddr = NLME_GetShortAddr();
        ; Setup parameters for call to function NLME_GetShortAddr
        LCALL   `??NLME_GetShortAddr::?relay`; Banked call to: NLME_GetShortAddr
        MOV     DPL,?XSP + 0
        MOV     DPH,?XSP + 1
        MOV     A,R2
        MOVX    @DPTR,A
        INC     DPTR
        MOV     A,R3
        MOVX    @DPTR,A
//  677 
//  678       // toggle permit join
//  679       gPermitDuration = gPermitDuration ? 0 : 0xff;
        MOV     DPTR,#gPermitDuration
        MOVX    A,@DPTR
        JZ      ??zclSampleThermostat_HandleKeys_12
        CLR     A
        SJMP    ??zclSampleThermostat_HandleKeys_13
??zclSampleThermostat_HandleKeys_12:
        MOV     A,#-0x1
??zclSampleThermostat_HandleKeys_13:
        MOVX    @DPTR,A
//  680 
//  681       // Trust Center significance is always true
//  682       ZDP_MgmtPermitJoinReq( &tmpAddr, gPermitDuration, TRUE, FALSE );
        ; Setup parameters for call to function ZDP_MgmtPermitJoinReq
        MOV     R5,#0x0
        MOV     R4,#0x1
        MOVX    A,@DPTR
        MOV     R1,A
        MOV     R2,?XSP + 0
        MOV     R3,?XSP + 1
        LCALL   `??ZDP_MgmtPermitJoinReq::?relay`; Banked call to: ZDP_MgmtPermitJoinReq
//  683     }
//  684   }
//  685 
//  686   if ( shift && ( keys & HAL_KEY_SW_5 ) )
??zclSampleThermostat_HandleKeys_10:
        MOV     A,?V3
        JZ      ??zclSampleThermostat_HandleKeys_14
        MOV     A,?V2
        MOV     C,0xE0 /* A   */.2
        JNC     ??zclSampleThermostat_HandleKeys_14
//  687   {
//  688     zclSampleThermostat_BasicResetCB();
        ; Setup parameters for call to function zclSampleThermostat_BasicResetCB
        LCALL   `??zclSampleThermostat_BasicResetCB::?relay`; Banked call to: zclSampleThermostat_BasicResetCB
        SJMP    ??zclSampleThermostat_HandleKeys_15
//  689   }
//  690   else if ( keys & HAL_KEY_SW_5 )
//  691   {
//  692     if ( keys & HAL_KEY_SW_5 )
??zclSampleThermostat_HandleKeys_14:
        MOV     A,?V2
        MOV     C,0xE0 /* A   */.2
        JNC     ??zclSampleThermostat_HandleKeys_15
//  693     {
//  694       // in heating or cooling setpoint mode
//  695       if ( giThermostatScreenMode == THERMOSTAT_HEATMODE )
        MOV     DPTR,#giThermostatScreenMode
        MOVX    A,@DPTR
        XRL     A,#0x2
        JNZ     ??zclSampleThermostat_HandleKeys_16
//  696       {
//  697 				#ifdef LCD_SUPPORTED
//  698         // save current heat setpoint temperature
//  699         HalLcdWriteString( (char *)sStoreHeatTemp, HAL_LCD_LINE_2 );
        ; Setup parameters for call to function HalLcdWriteString
        MOV     R1,#0x2
        MOV     R2,#sStoreHeatTemp & 0xff
        MOV     R3,#(sStoreHeatTemp >> 8) & 0xff
        SJMP    ??zclSampleThermostat_HandleKeys_17
//  700 				#endif
//  701         giThermostatScreenMode = THERMOSTAT_MAINMODE;
//  702       }
//  703       else if ( giThermostatScreenMode == THERMOSTAT_COOLMODE )
??zclSampleThermostat_HandleKeys_16:
        MOVX    A,@DPTR
        XRL     A,#0x3
        JNZ     ??zclSampleThermostat_HandleKeys_18
//  704       {
//  705 				#ifdef LCD_SUPPORTED
//  706         // save current cool setpoint temperature
//  707         HalLcdWriteString( (char *)sStoreCoolTemp, HAL_LCD_LINE_2 );
        ; Setup parameters for call to function HalLcdWriteString
        MOV     R1,#0x2
        MOV     R2,#sStoreCoolTemp & 0xff
        MOV     R3,#(sStoreCoolTemp >> 8) & 0xff
        SJMP    ??zclSampleThermostat_HandleKeys_17
//  708 				#endif
//  709         giThermostatScreenMode = THERMOSTAT_MAINMODE;
//  710       }
//  711       else if ( giThermostatScreenMode == THERMOSTAT_MAINMODE )
??zclSampleThermostat_HandleKeys_18:
        MOVX    A,@DPTR
        JNZ     ??zclSampleThermostat_HandleKeys_19
//  712       {
//  713         giThermostatScreenMode = THERMOSTAT_HELPMODE;
        MOV     A,#0x1
        SJMP    ??zclSampleThermostat_HandleKeys_20
//  714       }
//  715       else if ( giThermostatScreenMode == THERMOSTAT_HELPMODE )
??zclSampleThermostat_HandleKeys_19:
        XRL     A,#0x1
        JNZ     ??zclSampleThermostat_HandleKeys_15
//  716       {
//  717 				#ifdef LCD_SUPPORTED
//  718         HalLcdWriteString( (char *)sClearLine, HAL_LCD_LINE_2 );
        ; Setup parameters for call to function HalLcdWriteString
        MOV     R1,#0x2
        MOV     R2,#sClearLine & 0xff
        MOV     R3,#(sClearLine >> 8) & 0xff
??zclSampleThermostat_HandleKeys_17:
        LCALL   `??HalLcdWriteString::?relay`; Banked call to: HalLcdWriteString
//  719 				#endif
//  720         giThermostatScreenMode = THERMOSTAT_MAINMODE;
        MOV     DPTR,#giThermostatScreenMode
        CLR     A
??zclSampleThermostat_HandleKeys_20:
        MOVX    @DPTR,A
//  721       }
//  722     }
//  723   }
//  724 
//  725   // update display
//  726   zclSampleThermostat_LcdDisplayUpdate();
??zclSampleThermostat_HandleKeys_15:
        ; Setup parameters for call to function zclSampleThermostat_LcdDisplayUpdate
        LCALL   `??zclSampleThermostat_LcdDisplayUpdate::?relay`; Banked call to: zclSampleThermostat_LcdDisplayUpdate
//  727 }
        MOV     A,#0xd
        LCALL   ?DEALLOC_XSTACK8
          CFI CFA_XSP16 add(XSP16, 16)
        MOV     R7,#0x8
        LJMP    ?BANKED_LEAVE_XDATA
          CFI EndBlock cfiBlock24
//  728 
//  729 /*********************************************************************
//  730  * @fn      zclSampleThermostat_LcdDisplayUpdate
//  731  *
//  732  * @brief   Called to update the LCD display.
//  733  *
//  734  * @param   none
//  735  *
//  736  * @return  none
//  737  */

        RSEG BANKED_CODE:HUGECODE:NOROOT(0)
//  738 void zclSampleThermostat_LcdDisplayUpdate( void )
zclSampleThermostat_LcdDisplayUpdate:
          CFI Block cfiBlock25 Using cfiCommon0
          CFI Function zclSampleThermostat_LcdDisplayUpdate
        CODE
//  739 {
        FUNCALL zclSampleThermostat_LcdDisplayUpdate, zclSampleThermostat_LcdDisplayHeatMode
        LOCFRAME ISTACK, 2, STACK
        LOCFRAME PSTACK, 0, STACK
        LOCFRAME XSTACK, 0, STACK
        LOCFRAME IOVERLAY, 0, STATIC
        LOCFRAME DOVERLAY, 0, STATIC
        ARGFRAME ISTACK, 2, STACK
        ARGFRAME PSTACK, 0, STACK
        ARGFRAME XSTACK, 0, STACK
        ARGFRAME IOVERLAY, 0, STATIC
        ARGFRAME DOVERLAY, 0, STATIC
        FUNCALL zclSampleThermostat_LcdDisplayUpdate, zclSampleThermostat_LcdDisplayCoolMode
        LOCFRAME ISTACK, 2, STACK
        LOCFRAME PSTACK, 0, STACK
        LOCFRAME XSTACK, 0, STACK
        LOCFRAME IOVERLAY, 0, STATIC
        LOCFRAME DOVERLAY, 0, STATIC
        ARGFRAME ISTACK, 2, STACK
        ARGFRAME PSTACK, 0, STACK
        ARGFRAME XSTACK, 0, STACK
        ARGFRAME IOVERLAY, 0, STATIC
        ARGFRAME DOVERLAY, 0, STATIC
        FUNCALL zclSampleThermostat_LcdDisplayUpdate, zclSampleThermostat_LcdDisplayHelpMode
        LOCFRAME ISTACK, 2, STACK
        LOCFRAME PSTACK, 0, STACK
        LOCFRAME XSTACK, 0, STACK
        LOCFRAME IOVERLAY, 0, STATIC
        LOCFRAME DOVERLAY, 0, STATIC
        ARGFRAME ISTACK, 2, STACK
        ARGFRAME PSTACK, 0, STACK
        ARGFRAME XSTACK, 0, STACK
        ARGFRAME IOVERLAY, 0, STATIC
        ARGFRAME DOVERLAY, 0, STATIC
        FUNCALL zclSampleThermostat_LcdDisplayUpdate, zclSampleThermostat_LcdDisplayMainMode
        LOCFRAME ISTACK, 2, STACK
        LOCFRAME PSTACK, 0, STACK
        LOCFRAME XSTACK, 0, STACK
        LOCFRAME IOVERLAY, 0, STATIC
        LOCFRAME DOVERLAY, 0, STATIC
        ARGFRAME ISTACK, 2, STACK
        ARGFRAME PSTACK, 0, STACK
        ARGFRAME XSTACK, 0, STACK
        ARGFRAME IOVERLAY, 0, STATIC
        ARGFRAME DOVERLAY, 0, STATIC
        PUSH    DPL
          CFI DPL0 Frame(CFA_SP, 4)
          CFI CFA_SP SP+-4
        PUSH    DPH
          CFI DPH0 Frame(CFA_SP, 5)
          CFI CFA_SP SP+-5
        ; Saved register size: 2
        ; Auto size: 0
//  740   // use LEDs to show heating or cooling cycles based off local temperature
//  741   if ( zclSampleThermostat_LocalTemperature != NULL )
        MOV     DPTR,#zclSampleThermostat_LocalTemperature
        LCALL   ??Subroutine30_0 & 0xFFFF
??CrossCallReturnLabel_54:
        JZ      ??zclSampleThermostat_LcdDisplayUpdate_0
//  742   {
//  743     if ( zclSampleThermostat_LocalTemperature <= zclSampleThermostat_OccupiedHeatingSetpoint )
        MOV     DPH,#(zclSampleThermostat_OccupiedHeatingSetpoint >> 8) & 0xff
        MOV     DPL,#zclSampleThermostat_OccupiedHeatingSetpoint & 0xff
        LCALL   ?Subroutine19 & 0xFFFF
??CrossCallReturnLabel_38:
        JC      ??zclSampleThermostat_LcdDisplayUpdate_1
//  744     {
//  745       // turn on heating
//  746       zclSampleThermostat_SystemMode = HVAC_THERMOSTAT_SYSTEM_MODE_HEAT;
        MOV     DPTR,#zclSampleThermostat_SystemMode
        MOV     A,#0x4
        SJMP    ??zclSampleThermostat_LcdDisplayUpdate_2
//  747 //      HalLedSet ( HAL_LED_1, HAL_LED_MODE_OFF );
//  748 //      HalLedSet ( HAL_LED_2, HAL_LED_MODE_ON );
//  749     }
//  750     else if ( zclSampleThermostat_LocalTemperature >= zclSampleThermostat_OccupiedCoolingSetpoint )
??zclSampleThermostat_LcdDisplayUpdate_1:
        MOV     DPTR,#zclSampleThermostat_OccupiedCoolingSetpoint
        LCALL   ?Subroutine22 & 0xFFFF
??CrossCallReturnLabel_42:
        MOV     DPH,#(zclSampleThermostat_LocalTemperature >> 8) & 0xff
        MOV     DPL,#zclSampleThermostat_LocalTemperature & 0xff
        LCALL   ?Subroutine19 & 0xFFFF
??CrossCallReturnLabel_39:
        MOV     DPTR,#zclSampleThermostat_SystemMode
        JC      ??zclSampleThermostat_LcdDisplayUpdate_3
//  751     {
//  752       // turn on cooling
//  753       zclSampleThermostat_SystemMode = HVAC_THERMOSTAT_SYSTEM_MODE_COOL;
        MOV     A,#0x3
        SJMP    ??zclSampleThermostat_LcdDisplayUpdate_2
//  754 //      HalLedSet ( HAL_LED_1, HAL_LED_MODE_ON );
//  755 //      HalLedSet ( HAL_LED_2, HAL_LED_MODE_OFF );
//  756     }
//  757     else
//  758     {
//  759       // turn off heating/cooling
//  760       zclSampleThermostat_SystemMode = HVAC_THERMOSTAT_SYSTEM_MODE_OFF;
??zclSampleThermostat_LcdDisplayUpdate_3:
        CLR     A
??zclSampleThermostat_LcdDisplayUpdate_2:
        MOVX    @DPTR,A
//  761 //      HalLedSet ( HAL_LED_1, HAL_LED_MODE_OFF );
//  762 //      HalLedSet ( HAL_LED_2, HAL_LED_MODE_OFF );
//  763     }
//  764   }
//  765 
//  766   if ( giThermostatScreenMode == THERMOSTAT_HEATMODE )
??zclSampleThermostat_LcdDisplayUpdate_0:
        MOV     DPTR,#giThermostatScreenMode
        MOVX    A,@DPTR
        XRL     A,#0x2
        JNZ     ??zclSampleThermostat_LcdDisplayUpdate_4
//  767   {
//  768     zclSampleThermostat_LcdDisplayHeatMode();
        ; Setup parameters for call to function zclSampleThermostat_LcdDisplayHeatMode
        LCALL   `??zclSampleThermostat_LcdDisplayHeatMode::?rela`; Banked call to: zclSampleThermostat_LcdDisplayHeatMode
        SJMP    ??zclSampleThermostat_LcdDisplayUpdate_5
//  769   }
//  770   else if ( giThermostatScreenMode == THERMOSTAT_COOLMODE )
??zclSampleThermostat_LcdDisplayUpdate_4:
        MOVX    A,@DPTR
        XRL     A,#0x3
        JNZ     ??zclSampleThermostat_LcdDisplayUpdate_6
//  771   {
//  772     zclSampleThermostat_LcdDisplayCoolMode();
        ; Setup parameters for call to function zclSampleThermostat_LcdDisplayCoolMode
        LCALL   `??zclSampleThermostat_LcdDisplayCoolMode::?rela`; Banked call to: zclSampleThermostat_LcdDisplayCoolMode
        SJMP    ??zclSampleThermostat_LcdDisplayUpdate_5
//  773   }
//  774   else if ( giThermostatScreenMode == THERMOSTAT_HELPMODE )
??zclSampleThermostat_LcdDisplayUpdate_6:
        MOVX    A,@DPTR
        XRL     A,#0x1
        JNZ     ??zclSampleThermostat_LcdDisplayUpdate_7
//  775   {
//  776     zclSampleThermostat_LcdDisplayHelpMode();
        ; Setup parameters for call to function zclSampleThermostat_LcdDisplayHelpMode
        LCALL   `??zclSampleThermostat_LcdDisplayHelpMode::?rela`; Banked call to: zclSampleThermostat_LcdDisplayHelpMode
        SJMP    ??zclSampleThermostat_LcdDisplayUpdate_5
//  777   }
//  778   else
//  779   {
//  780     zclSampleThermostat_LcdDisplayMainMode();
??zclSampleThermostat_LcdDisplayUpdate_7:
        ; Setup parameters for call to function zclSampleThermostat_LcdDisplayMainMode
        LCALL   `??zclSampleThermostat_LcdDisplayMainMode::?rela`; Banked call to: zclSampleThermostat_LcdDisplayMainMode
//  781   }
//  782 }
??zclSampleThermostat_LcdDisplayUpdate_5:
        LJMP    ??Subroutine32_0 & 0xFFFF
          CFI EndBlock cfiBlock25

        RSEG BANKED_CODE:HUGECODE:NOROOT(0)
?Subroutine19:
          CFI Block cfiCond26 Using cfiCommon0
          CFI Function zclSampleThermostat_LcdDisplayUpdate
          CFI Conditional ??CrossCallReturnLabel_38
          CFI DPL0 Frame(CFA_SP, 4)
          CFI DPH0 Frame(CFA_SP, 5)
          CFI CFA_SP SP+-7
          CFI Block cfiCond27 Using cfiCommon0
          CFI (cfiCond27) Function zclSampleThermostat_LcdDisplayUpdate
          CFI (cfiCond27) Conditional ??CrossCallReturnLabel_39
          CFI (cfiCond27) DPL0 Frame(CFA_SP, 4)
          CFI (cfiCond27) DPH0 Frame(CFA_SP, 5)
          CFI (cfiCond27) CFA_SP SP+-7
          CFI Block cfiPicker28 Using cfiCommon1
          CFI (cfiPicker28) NoFunction
          CFI (cfiPicker28) Picker
        CLR     C
        MOVX    A,@DPTR
        SUBB    A,R0
        INC     DPTR
        MOVX    A,@DPTR
        SUBB    A,R1
        MOV     C,0xD0 /* PSW */.2
        XRL     A,PSW
        RLC     A
        RET
          CFI EndBlock cfiCond26
          CFI EndBlock cfiCond27
          CFI EndBlock cfiPicker28
//  783 
//  784 /*********************************************************************
//  785  * @fn      zclSampleThermostat_LcdDisplayMainMode
//  786  *
//  787  * @brief   Called to display the main screen on the LCD.
//  788  *
//  789  * @param   none
//  790  *
//  791  * @return  none
//  792  */

        RSEG BANKED_CODE:HUGECODE:NOROOT(0)
//  793 void zclSampleThermostat_LcdDisplayMainMode( void )
zclSampleThermostat_LcdDisplayMainMode:
          CFI Block cfiBlock29 Using cfiCommon0
          CFI Function zclSampleThermostat_LcdDisplayMainMode
        CODE
//  794 {
        FUNCALL zclSampleThermostat_LcdDisplayMainMode, zclHA_LcdStatusLine1
        LOCFRAME ISTACK, 0, STACK
        LOCFRAME PSTACK, 0, STACK
        LOCFRAME XSTACK, 27, STACK
        LOCFRAME IOVERLAY, 0, STATIC
        LOCFRAME DOVERLAY, 0, STATIC
        ARGFRAME ISTACK, 0, STACK
        ARGFRAME PSTACK, 0, STACK
        ARGFRAME XSTACK, 27, STACK
        ARGFRAME IOVERLAY, 0, STATIC
        ARGFRAME DOVERLAY, 0, STATIC
        FUNCALL zclSampleThermostat_LcdDisplayMainMode, zclHA_LcdStatusLine1
        LOCFRAME ISTACK, 0, STACK
        LOCFRAME PSTACK, 0, STACK
        LOCFRAME XSTACK, 27, STACK
        LOCFRAME IOVERLAY, 0, STATIC
        LOCFRAME DOVERLAY, 0, STATIC
        ARGFRAME ISTACK, 0, STACK
        ARGFRAME PSTACK, 0, STACK
        ARGFRAME XSTACK, 27, STACK
        ARGFRAME IOVERLAY, 0, STATIC
        ARGFRAME DOVERLAY, 0, STATIC
        FUNCALL zclSampleThermostat_LcdDisplayMainMode, zclHA_LcdStatusLine1
        LOCFRAME ISTACK, 0, STACK
        LOCFRAME PSTACK, 0, STACK
        LOCFRAME XSTACK, 27, STACK
        LOCFRAME IOVERLAY, 0, STATIC
        LOCFRAME DOVERLAY, 0, STATIC
        ARGFRAME ISTACK, 0, STACK
        ARGFRAME PSTACK, 0, STACK
        ARGFRAME XSTACK, 27, STACK
        ARGFRAME IOVERLAY, 0, STATIC
        ARGFRAME DOVERLAY, 0, STATIC
        FUNCALL zclSampleThermostat_LcdDisplayMainMode, osal_memcpy
        LOCFRAME ISTACK, 0, STACK
        LOCFRAME PSTACK, 0, STACK
        LOCFRAME XSTACK, 30, STACK
        LOCFRAME IOVERLAY, 0, STATIC
        LOCFRAME DOVERLAY, 0, STATIC
        ARGFRAME ISTACK, 0, STACK
        ARGFRAME PSTACK, 0, STACK
        ARGFRAME XSTACK, 30, STACK
        ARGFRAME IOVERLAY, 0, STATIC
        ARGFRAME DOVERLAY, 0, STATIC
        FUNCALL zclSampleThermostat_LcdDisplayMainMode, osal_memcpy
        LOCFRAME ISTACK, 0, STACK
        LOCFRAME PSTACK, 0, STACK
        LOCFRAME XSTACK, 30, STACK
        LOCFRAME IOVERLAY, 0, STATIC
        LOCFRAME DOVERLAY, 0, STATIC
        ARGFRAME ISTACK, 0, STACK
        ARGFRAME PSTACK, 0, STACK
        ARGFRAME XSTACK, 30, STACK
        ARGFRAME IOVERLAY, 0, STATIC
        ARGFRAME DOVERLAY, 0, STATIC
        FUNCALL zclSampleThermostat_LcdDisplayMainMode, _ltoa
        LOCFRAME ISTACK, 0, STACK
        LOCFRAME PSTACK, 0, STACK
        LOCFRAME XSTACK, 29, STACK
        LOCFRAME IOVERLAY, 0, STATIC
        LOCFRAME DOVERLAY, 0, STATIC
        ARGFRAME ISTACK, 0, STACK
        ARGFRAME PSTACK, 0, STACK
        ARGFRAME XSTACK, 29, STACK
        ARGFRAME IOVERLAY, 0, STATIC
        ARGFRAME DOVERLAY, 0, STATIC
        FUNCALL zclSampleThermostat_LcdDisplayMainMode, osal_memcpy
        LOCFRAME ISTACK, 0, STACK
        LOCFRAME PSTACK, 0, STACK
        LOCFRAME XSTACK, 30, STACK
        LOCFRAME IOVERLAY, 0, STATIC
        LOCFRAME DOVERLAY, 0, STATIC
        ARGFRAME ISTACK, 0, STACK
        ARGFRAME PSTACK, 0, STACK
        ARGFRAME XSTACK, 30, STACK
        ARGFRAME IOVERLAY, 0, STATIC
        ARGFRAME DOVERLAY, 0, STATIC
        FUNCALL zclSampleThermostat_LcdDisplayMainMode, HalLcdWriteString
        LOCFRAME ISTACK, 0, STACK
        LOCFRAME PSTACK, 0, STACK
        LOCFRAME XSTACK, 27, STACK
        LOCFRAME IOVERLAY, 0, STATIC
        LOCFRAME DOVERLAY, 0, STATIC
        ARGFRAME ISTACK, 0, STACK
        ARGFRAME PSTACK, 0, STACK
        ARGFRAME XSTACK, 27, STACK
        ARGFRAME IOVERLAY, 0, STATIC
        ARGFRAME DOVERLAY, 0, STATIC
        FUNCALL zclSampleThermostat_LcdDisplayMainMode, HalLcdWriteString
        LOCFRAME ISTACK, 0, STACK
        LOCFRAME PSTACK, 0, STACK
        LOCFRAME XSTACK, 27, STACK
        LOCFRAME IOVERLAY, 0, STATIC
        LOCFRAME DOVERLAY, 0, STATIC
        ARGFRAME ISTACK, 0, STACK
        ARGFRAME PSTACK, 0, STACK
        ARGFRAME XSTACK, 27, STACK
        ARGFRAME IOVERLAY, 0, STATIC
        ARGFRAME DOVERLAY, 0, STATIC
        FUNCALL zclSampleThermostat_LcdDisplayMainMode, HalLcdWriteString
        LOCFRAME ISTACK, 0, STACK
        LOCFRAME PSTACK, 0, STACK
        LOCFRAME XSTACK, 27, STACK
        LOCFRAME IOVERLAY, 0, STATIC
        LOCFRAME DOVERLAY, 0, STATIC
        ARGFRAME ISTACK, 0, STACK
        ARGFRAME PSTACK, 0, STACK
        ARGFRAME XSTACK, 27, STACK
        ARGFRAME IOVERLAY, 0, STATIC
        ARGFRAME DOVERLAY, 0, STATIC
        FUNCALL zclSampleThermostat_LcdDisplayMainMode, HalLcdWriteString
        LOCFRAME ISTACK, 0, STACK
        LOCFRAME PSTACK, 0, STACK
        LOCFRAME XSTACK, 27, STACK
        LOCFRAME IOVERLAY, 0, STATIC
        LOCFRAME DOVERLAY, 0, STATIC
        ARGFRAME ISTACK, 0, STACK
        ARGFRAME PSTACK, 0, STACK
        ARGFRAME XSTACK, 27, STACK
        ARGFRAME IOVERLAY, 0, STATIC
        ARGFRAME DOVERLAY, 0, STATIC
        REQUIRE ?V0
        REQUIRE ?V1
        REQUIRE ?V2
        MOV     A,#-0xb
        LCALL   ?BANKED_ENTER_XDATA
          CFI DPH0 load(1, XDATA, add(CFA_XSP16, literal(-1)))
          CFI DPL0 load(1, XDATA, add(CFA_XSP16, literal(-2)))
          CFI ?BRET_EXT load(1, XDATA, add(CFA_XSP16, literal(-3)))
          CFI ?RET_HIGH load(1, XDATA, add(CFA_XSP16, literal(-4)))
          CFI ?RET_LOW load(1, XDATA, add(CFA_XSP16, literal(-5)))
          CFI R7 load(1, XDATA, add(CFA_XSP16, literal(-6)))
          CFI V2 load(1, XDATA, add(CFA_XSP16, literal(-7)))
          CFI V1 load(1, XDATA, add(CFA_XSP16, literal(-8)))
          CFI V0 load(1, XDATA, add(CFA_XSP16, literal(-9)))
          CFI VB load(1, XDATA, add(CFA_XSP16, literal(-10)))
          CFI R6 load(1, XDATA, add(CFA_XSP16, literal(-11)))
          CFI CFA_SP SP+0
          CFI CFA_XSP16 add(XSP16, 11)
        ; Saved register size: 11
        ; Auto size: 16
        MOV     A,#-0x10
        LCALL   ?ALLOC_XSTACK8
          CFI CFA_XSP16 add(XSP16, 27)
//  795   char sDisplayTemp[16];
//  796 
//  797   if ( zclSampleThermostat_NwkState == DEV_ZB_COORD )
        MOV     DPTR,#zclSampleThermostat_NwkState
        MOVX    A,@DPTR
        XRL     A,#0x9
        JNZ     ??zclSampleThermostat_LcdDisplayMainMode_0
//  798   {
//  799     zclHA_LcdStatusLine1( 0 );
        ; Setup parameters for call to function zclHA_LcdStatusLine1
        MOV     R1,#0x0
        SJMP    ??zclSampleThermostat_LcdDisplayMainMode_1
//  800   }
//  801   else if ( zclSampleThermostat_NwkState == DEV_ROUTER )
??zclSampleThermostat_LcdDisplayMainMode_0:
        MOVX    A,@DPTR
        XRL     A,#0x7
        JNZ     ??zclSampleThermostat_LcdDisplayMainMode_2
//  802   {
//  803     zclHA_LcdStatusLine1( 1 );
        ; Setup parameters for call to function zclHA_LcdStatusLine1
        MOV     R1,#0x1
        SJMP    ??zclSampleThermostat_LcdDisplayMainMode_1
//  804   }
//  805   else if ( zclSampleThermostat_NwkState == DEV_END_DEVICE )
??zclSampleThermostat_LcdDisplayMainMode_2:
        MOVX    A,@DPTR
        XRL     A,#0x6
        JNZ     ??zclSampleThermostat_LcdDisplayMainMode_3
//  806   {
//  807     zclHA_LcdStatusLine1( 2 );
        ; Setup parameters for call to function zclHA_LcdStatusLine1
        MOV     R1,#0x2
??zclSampleThermostat_LcdDisplayMainMode_1:
        LCALL   `??zclHA_LcdStatusLine1::?relay`; Banked call to: zclHA_LcdStatusLine1
//  808   }
//  809 
//  810   osal_memcpy( sDisplayTemp, "TEMP: ", 6 );
??zclSampleThermostat_LcdDisplayMainMode_3:
        ; Setup parameters for call to function osal_memcpy
        MOV     ?V0,#`?<Constant "TEMP: ">` & 0xff
        MOV     ?V1,#(`?<Constant "TEMP: ">` >> 8) & 0xff
        MOV     ?V2,#0x0
        MOV     R0,#?V0
        LCALL   ?PUSH_XSTACK_I_THREE
          CFI CFA_XSP16 add(XSP16, 30)
        MOV     R4,#0x6
        MOV     R5,#0x0
        MOV     A,#0x3
        LCALL   ?XSTACK_DISP101_8
        LCALL   `??osal_memcpy::?relay`; Banked call to: osal_memcpy
        MOV     A,#0x3
        LCALL   ?DEALLOC_XSTACK8
          CFI CFA_XSP16 add(XSP16, 27)
//  811 
//  812   // if local temperature has not been set, make note on display
//  813   if ( zclSampleThermostat_LocalTemperature == NULL )
        MOV     DPTR,#zclSampleThermostat_LocalTemperature
        LCALL   ??Subroutine30_0 & 0xFFFF
??CrossCallReturnLabel_55:
        JNZ     ??zclSampleThermostat_LcdDisplayMainMode_4
//  814   {
//  815     osal_memcpy( &sDisplayTemp[6], "N/A", 4 );
        ; Setup parameters for call to function osal_memcpy
        MOV     ?V0,#`?<Constant "N/A">` & 0xff
        MOV     ?V1,#(`?<Constant "N/A">` >> 8) & 0xff
        MOV     R0,#?V0
        LCALL   ?PUSH_XSTACK_I_THREE
          CFI CFA_XSP16 add(XSP16, 30)
        MOV     R4,#0x4
        MOV     R5,#0x0
        MOV     A,#0x9
        SJMP    ??zclSampleThermostat_LcdDisplayMainMode_5
          CFI CFA_XSP16 add(XSP16, 27)
//  816   }
//  817   else
//  818   {
//  819     _ltoa( ( zclSampleThermostat_LocalTemperature / 100 ), (void *)(&sDisplayTemp[6]), 10 ); // only use whole number
??zclSampleThermostat_LcdDisplayMainMode_4:
        ; Setup parameters for call to function _ltoa
        MOV     A,#0x6
        LCALL   ?XSTACK_DISP0_8
        MOV     ?V0,DPL
        MOV     ?V1,DPH
        MOV     R0,#?V0
        LCALL   ?PUSH_XSTACK_I_TWO
          CFI CFA_XSP16 add(XSP16, 29)
        MOV     DPTR,#zclSampleThermostat_LocalTemperature
        LCALL   ?Subroutine21 & 0xFFFF
??CrossCallReturnLabel_40:
        LCALL   ?S_DIV_MOD
        MOV     A,R0
        MOV     R2,A
        MOV     A,R1
        MOV     R3,A
        RLC     A
        SUBB    A,0xE0 /* A   */
        MOV     R4,A
        MOV     R5,A
        MOV     R1,#0xa
        LCALL   `??_ltoa::?relay`    ; Banked call to: _ltoa
        MOV     A,#0x2
        LCALL   ?DEALLOC_XSTACK8
          CFI CFA_XSP16 add(XSP16, 27)
//  820     osal_memcpy( &sDisplayTemp[8], "C", 2 );
        ; Setup parameters for call to function osal_memcpy
        MOV     ?V0,#`?<Constant "C">` & 0xff
        MOV     ?V1,#(`?<Constant "C">` >> 8) & 0xff
        MOV     R0,#?V0
        LCALL   ?PUSH_XSTACK_I_THREE
          CFI CFA_XSP16 add(XSP16, 30)
        MOV     R4,#0x2
        MOV     R5,#0x0
        MOV     A,#0xb
??zclSampleThermostat_LcdDisplayMainMode_5:
        LCALL   ?XSTACK_DISP0_8
        MOV     R2,DPL
        MOV     R3,DPH
        LCALL   `??osal_memcpy::?relay`; Banked call to: osal_memcpy
        MOV     A,#0x3
        LCALL   ?DEALLOC_XSTACK8
          CFI CFA_XSP16 add(XSP16, 27)
//  821   }
//  822 #ifdef LCD_SUPPORTED
//  823   // display current temperature
//  824   HalLcdWriteString( (char *)sDisplayTemp, HAL_LCD_LINE_2 );
        ; Setup parameters for call to function HalLcdWriteString
        MOV     R1,#0x2
        MOV     R2,?XSP + 0
        MOV     R3,?XSP + 1
        LCALL   `??HalLcdWriteString::?relay`; Banked call to: HalLcdWriteString
//  825 #endif
//  826 
//  827 #ifdef LCD_SUPPORTED
//  828   if ( ( zclSampleThermostat_NwkState == DEV_ZB_COORD ) ||
//  829        ( zclSampleThermostat_NwkState == DEV_ROUTER ) )
        MOV     DPTR,#zclSampleThermostat_NwkState
        MOVX    A,@DPTR
        XRL     A,#0x9
        JZ      ??zclSampleThermostat_LcdDisplayMainMode_6
        MOVX    A,@DPTR
        XRL     A,#0x7
        JNZ     ??zclSampleThermostat_LcdDisplayMainMode_7
//  830   {
//  831     // display help key with permit join status
//  832     if ( gPermitDuration )
??zclSampleThermostat_LcdDisplayMainMode_6:
        MOV     DPTR,#gPermitDuration
        MOVX    A,@DPTR
        MOV     R1,#0x3
        JZ      ??zclSampleThermostat_LcdDisplayMainMode_8
//  833     {
//  834       HalLcdWriteString( "SW5: Help      *", HAL_LCD_LINE_3 );
        ; Setup parameters for call to function HalLcdWriteString
        MOV     R2,#`?<Constant "SW5: Help      *">` & 0xff
        MOV     R3,#(`?<Constant "SW5: Help      *">` >> 8) & 0xff
        SJMP    ??zclSampleThermostat_LcdDisplayMainMode_9
//  835     }
//  836     else
//  837     {
//  838       HalLcdWriteString( "SW5: Help       ", HAL_LCD_LINE_3 );
??zclSampleThermostat_LcdDisplayMainMode_8:
        ; Setup parameters for call to function HalLcdWriteString
        MOV     R2,#`?<Constant "SW5: Help       ">` & 0xff
        MOV     R3,#(`?<Constant "SW5: Help       ">` >> 8) & 0xff
        SJMP    ??zclSampleThermostat_LcdDisplayMainMode_9
//  839     }
//  840   }
//  841   else
//  842   {
//  843     // display help key
//  844     HalLcdWriteString( (char *)sSwHelp, HAL_LCD_LINE_3);
??zclSampleThermostat_LcdDisplayMainMode_7:
        ; Setup parameters for call to function HalLcdWriteString
        MOV     R1,#0x3
        MOV     R2,#sSwHelp & 0xff
        MOV     R3,#(sSwHelp >> 8) & 0xff
//  845   }
??zclSampleThermostat_LcdDisplayMainMode_9:
        LJMP    ??Subroutine33_0 & 0xFFFF
//  846 #endif
//  847 }
          CFI EndBlock cfiBlock29
//  848 
//  849 /*********************************************************************
//  850  * @fn      zclSampleThermostat_LcdDisplayHelpMode
//  851  *
//  852  * @brief   Called to display the SW options on the LCD.
//  853  *
//  854  * @param   none
//  855  *
//  856  * @return  none
//  857  */

        RSEG BANKED_CODE:HUGECODE:NOROOT(0)
//  858 void zclSampleThermostat_LcdDisplayHelpMode( void )
zclSampleThermostat_LcdDisplayHelpMode:
          CFI Block cfiBlock30 Using cfiCommon0
          CFI Function zclSampleThermostat_LcdDisplayHelpMode
        CODE
//  859 {
        FUNCALL zclSampleThermostat_LcdDisplayHelpMode, HalLcdWriteString
        LOCFRAME ISTACK, 2, STACK
        LOCFRAME PSTACK, 0, STACK
        LOCFRAME XSTACK, 0, STACK
        LOCFRAME IOVERLAY, 0, STATIC
        LOCFRAME DOVERLAY, 0, STATIC
        ARGFRAME ISTACK, 2, STACK
        ARGFRAME PSTACK, 0, STACK
        ARGFRAME XSTACK, 0, STACK
        ARGFRAME IOVERLAY, 0, STATIC
        ARGFRAME DOVERLAY, 0, STATIC
        FUNCALL zclSampleThermostat_LcdDisplayHelpMode, HalLcdWriteString
        LOCFRAME ISTACK, 2, STACK
        LOCFRAME PSTACK, 0, STACK
        LOCFRAME XSTACK, 0, STACK
        LOCFRAME IOVERLAY, 0, STATIC
        LOCFRAME DOVERLAY, 0, STATIC
        ARGFRAME ISTACK, 2, STACK
        ARGFRAME PSTACK, 0, STACK
        ARGFRAME XSTACK, 0, STACK
        ARGFRAME IOVERLAY, 0, STATIC
        ARGFRAME DOVERLAY, 0, STATIC
        FUNCALL zclSampleThermostat_LcdDisplayHelpMode, HalLcdWriteString
        LOCFRAME ISTACK, 2, STACK
        LOCFRAME PSTACK, 0, STACK
        LOCFRAME XSTACK, 0, STACK
        LOCFRAME IOVERLAY, 0, STATIC
        LOCFRAME DOVERLAY, 0, STATIC
        ARGFRAME ISTACK, 2, STACK
        ARGFRAME PSTACK, 0, STACK
        ARGFRAME XSTACK, 0, STACK
        ARGFRAME IOVERLAY, 0, STATIC
        ARGFRAME DOVERLAY, 0, STATIC
        PUSH    DPL
          CFI DPL0 Frame(CFA_SP, 4)
          CFI CFA_SP SP+-4
        PUSH    DPH
          CFI DPH0 Frame(CFA_SP, 5)
          CFI CFA_SP SP+-5
        ; Saved register size: 2
        ; Auto size: 0
//  860 #ifdef LCD_SUPPORTED
//  861   HalLcdWriteString( (char *)sSwHeatSet, HAL_LCD_LINE_1 );
        ; Setup parameters for call to function HalLcdWriteString
        MOV     R1,#0x1
        MOV     R2,#sSwHeatSet & 0xff
        MOV     R3,#(sSwHeatSet >> 8) & 0xff
        LCALL   `??HalLcdWriteString::?relay`; Banked call to: HalLcdWriteString
//  862   HalLcdWriteString( (char *)sSwEZMode, HAL_LCD_LINE_2 );
        ; Setup parameters for call to function HalLcdWriteString
        MOV     R1,#0x2
        MOV     R2,#sSwEZMode & 0xff
        MOV     R3,#(sSwEZMode >> 8) & 0xff
        LCALL   `??HalLcdWriteString::?relay`; Banked call to: HalLcdWriteString
//  863   HalLcdWriteString( (char *)sSwCoolSet, HAL_LCD_LINE_3 );
        ; Setup parameters for call to function HalLcdWriteString
        MOV     R1,#0x3
        MOV     R2,#sSwCoolSet & 0xff
        MOV     R3,#(sSwCoolSet >> 8) & 0xff
        LCALL   `??HalLcdWriteString::?relay`; Banked call to: HalLcdWriteString
//  864 #endif
//  865 }
        SJMP    ??Subroutine32_0
          CFI EndBlock cfiBlock30

        RSEG BANKED_CODE:HUGECODE:NOROOT(0)
?Subroutine0:
          CFI Block cfiBlock31 Using cfiCommon0
          CFI NoFunction
          CFI CFA_SP SP+-5
          CFI CFA_XSP16 add(XSP16, 2)
          CFI DPL0 Frame(CFA_SP, 4)
          CFI DPH0 Frame(CFA_SP, 5)
          CFI Invalid
        LCALL   ?DEALLOC_XSTACK8
          CFI EndBlock cfiBlock31
        REQUIRE ??Subroutine32_0
        ; // Fall through to label ??Subroutine32_0

        RSEG BANKED_CODE:HUGECODE:NOROOT(0)
??Subroutine32_0:
          CFI Block cfiBlock32 Using cfiCommon0
          CFI NoFunction
          CFI CFA_SP SP+-5
          CFI DPL0 Frame(CFA_SP, 4)
          CFI DPH0 Frame(CFA_SP, 5)
        POP     DPH
          CFI CFA_SP SP+-4
          CFI DPH0 SameValue
        POP     DPL
          CFI CFA_SP SP+-3
          CFI DPL0 SameValue
        LJMP    ?BRET
          CFI EndBlock cfiBlock32
//  866 
//  867 /*********************************************************************
//  868  * @fn      zclSampleThermostat_LcdDisplayHeatMode
//  869  *
//  870  * @brief   Called to display the heating setpoint temperature on the LCD.
//  871  *
//  872  * @param   none
//  873  *
//  874  * @return  none
//  875  */

        RSEG BANKED_CODE:HUGECODE:NOROOT(0)
//  876 void zclSampleThermostat_LcdDisplayHeatMode( void )
zclSampleThermostat_LcdDisplayHeatMode:
          CFI Block cfiBlock33 Using cfiCommon0
          CFI Function zclSampleThermostat_LcdDisplayHeatMode
        CODE
//  877 {
        FUNCALL zclSampleThermostat_LcdDisplayHeatMode, osal_memcpy
        LOCFRAME ISTACK, 0, STACK
        LOCFRAME PSTACK, 0, STACK
        LOCFRAME XSTACK, 30, STACK
        LOCFRAME IOVERLAY, 0, STATIC
        LOCFRAME DOVERLAY, 0, STATIC
        ARGFRAME ISTACK, 0, STACK
        ARGFRAME PSTACK, 0, STACK
        ARGFRAME XSTACK, 30, STACK
        ARGFRAME IOVERLAY, 0, STATIC
        ARGFRAME DOVERLAY, 0, STATIC
        FUNCALL zclSampleThermostat_LcdDisplayHeatMode, _ltoa
        LOCFRAME ISTACK, 0, STACK
        LOCFRAME PSTACK, 0, STACK
        LOCFRAME XSTACK, 29, STACK
        LOCFRAME IOVERLAY, 0, STATIC
        LOCFRAME DOVERLAY, 0, STATIC
        ARGFRAME ISTACK, 0, STACK
        ARGFRAME PSTACK, 0, STACK
        ARGFRAME XSTACK, 29, STACK
        ARGFRAME IOVERLAY, 0, STATIC
        ARGFRAME DOVERLAY, 0, STATIC
        FUNCALL zclSampleThermostat_LcdDisplayHeatMode, osal_memcpy
        LOCFRAME ISTACK, 0, STACK
        LOCFRAME PSTACK, 0, STACK
        LOCFRAME XSTACK, 30, STACK
        LOCFRAME IOVERLAY, 0, STATIC
        LOCFRAME DOVERLAY, 0, STATIC
        ARGFRAME ISTACK, 0, STACK
        ARGFRAME PSTACK, 0, STACK
        ARGFRAME XSTACK, 30, STACK
        ARGFRAME IOVERLAY, 0, STATIC
        ARGFRAME DOVERLAY, 0, STATIC
        FUNCALL zclSampleThermostat_LcdDisplayHeatMode, HalLcdWriteString
        LOCFRAME ISTACK, 0, STACK
        LOCFRAME PSTACK, 0, STACK
        LOCFRAME XSTACK, 27, STACK
        LOCFRAME IOVERLAY, 0, STATIC
        LOCFRAME DOVERLAY, 0, STATIC
        ARGFRAME ISTACK, 0, STACK
        ARGFRAME PSTACK, 0, STACK
        ARGFRAME XSTACK, 27, STACK
        ARGFRAME IOVERLAY, 0, STATIC
        ARGFRAME DOVERLAY, 0, STATIC
        FUNCALL zclSampleThermostat_LcdDisplayHeatMode, HalLcdWriteString
        LOCFRAME ISTACK, 0, STACK
        LOCFRAME PSTACK, 0, STACK
        LOCFRAME XSTACK, 27, STACK
        LOCFRAME IOVERLAY, 0, STATIC
        LOCFRAME DOVERLAY, 0, STATIC
        ARGFRAME ISTACK, 0, STACK
        ARGFRAME PSTACK, 0, STACK
        ARGFRAME XSTACK, 27, STACK
        ARGFRAME IOVERLAY, 0, STATIC
        ARGFRAME DOVERLAY, 0, STATIC
        FUNCALL zclSampleThermostat_LcdDisplayHeatMode, HalLcdWriteString
        LOCFRAME ISTACK, 0, STACK
        LOCFRAME PSTACK, 0, STACK
        LOCFRAME XSTACK, 27, STACK
        LOCFRAME IOVERLAY, 0, STATIC
        LOCFRAME DOVERLAY, 0, STATIC
        ARGFRAME ISTACK, 0, STACK
        ARGFRAME PSTACK, 0, STACK
        ARGFRAME XSTACK, 27, STACK
        ARGFRAME IOVERLAY, 0, STATIC
        ARGFRAME DOVERLAY, 0, STATIC
        REQUIRE ?V0
        REQUIRE ?V1
        REQUIRE ?V2
        MOV     A,#-0xb
        LCALL   ?BANKED_ENTER_XDATA
          CFI DPH0 load(1, XDATA, add(CFA_XSP16, literal(-1)))
          CFI DPL0 load(1, XDATA, add(CFA_XSP16, literal(-2)))
          CFI ?BRET_EXT load(1, XDATA, add(CFA_XSP16, literal(-3)))
          CFI ?RET_HIGH load(1, XDATA, add(CFA_XSP16, literal(-4)))
          CFI ?RET_LOW load(1, XDATA, add(CFA_XSP16, literal(-5)))
          CFI R7 load(1, XDATA, add(CFA_XSP16, literal(-6)))
          CFI V2 load(1, XDATA, add(CFA_XSP16, literal(-7)))
          CFI V1 load(1, XDATA, add(CFA_XSP16, literal(-8)))
          CFI V0 load(1, XDATA, add(CFA_XSP16, literal(-9)))
          CFI VB load(1, XDATA, add(CFA_XSP16, literal(-10)))
          CFI R6 load(1, XDATA, add(CFA_XSP16, literal(-11)))
          CFI CFA_SP SP+0
          CFI CFA_XSP16 add(XSP16, 11)
        ; Saved register size: 11
        ; Auto size: 16
        MOV     A,#-0x10
        LCALL   ?ALLOC_XSTACK8
          CFI CFA_XSP16 add(XSP16, 27)
//  878 #ifdef LCD_SUPPORTED
//  879   char sDisplayTemp[16];
//  880 
//  881   osal_memcpy( sDisplayTemp, "HEAT TEMP: ", 11 );
        ; Setup parameters for call to function osal_memcpy
        MOV     ?V0,#`?<Constant "HEAT TEMP: ">` & 0xff
        MOV     ?V1,#(`?<Constant "HEAT TEMP: ">` >> 8) & 0xff
        MOV     ?V2,#0x0
        MOV     R0,#?V0
        LCALL   ?PUSH_XSTACK_I_THREE
          CFI CFA_XSP16 add(XSP16, 30)
        MOV     R4,#0xb
        MOV     R5,#0x0
        MOV     A,#0x3
        LCALL   ?XSTACK_DISP101_8
        LCALL   `??osal_memcpy::?relay`; Banked call to: osal_memcpy
        MOV     A,#0x3
        LCALL   ?DEALLOC_XSTACK8
          CFI CFA_XSP16 add(XSP16, 27)
//  882   _ltoa( ( zclSampleThermostat_OccupiedHeatingSetpoint / 100 ), (void *)(&sDisplayTemp[11]), 10 ); // only use whole number
        ; Setup parameters for call to function _ltoa
        MOV     A,#0xb
        LCALL   ?XSTACK_DISP0_8
        MOV     ?V0,DPL
        MOV     ?V1,DPH
        MOV     R0,#?V0
        LCALL   ?PUSH_XSTACK_I_TWO
          CFI CFA_XSP16 add(XSP16, 29)
        MOV     DPTR,#zclSampleThermostat_OccupiedHeatingSetpoint
          CFI EndBlock cfiBlock33
        REQUIRE ?Subroutine1
        ; // Fall through to label ?Subroutine1
//  883   osal_memcpy( &sDisplayTemp[13], "C", 2 );
//  884 
//  885   HalLcdWriteString( (char *)sDisplayTemp, HAL_LCD_LINE_1 );
//  886   HalLcdWriteString( (char *)sTempLine2, HAL_LCD_LINE_2 );
//  887   HalLcdWriteString( (char *)sTempLine3, HAL_LCD_LINE_3 );
//  888 #endif
//  889 }

        RSEG BANKED_CODE:HUGECODE:NOROOT(0)
?Subroutine1:
          CFI Block cfiBlock34 Using cfiCommon0
          CFI NoFunction
          CFI CFA_SP SP+0
          CFI CFA_XSP16 add(XSP16, 29)
          CFI VB load(1, XDATA, add(CFA_XSP16, literal(-10)))
          CFI DPL0 load(1, XDATA, add(CFA_XSP16, literal(-2)))
          CFI DPH0 load(1, XDATA, add(CFA_XSP16, literal(-1)))
          CFI R6 load(1, XDATA, add(CFA_XSP16, literal(-11)))
          CFI R7 load(1, XDATA, add(CFA_XSP16, literal(-6)))
          CFI V0 load(1, XDATA, add(CFA_XSP16, literal(-9)))
          CFI V1 load(1, XDATA, add(CFA_XSP16, literal(-8)))
          CFI V2 load(1, XDATA, add(CFA_XSP16, literal(-7)))
          CFI ?BRET_EXT load(1, XDATA, add(CFA_XSP16, literal(-3)))
          CFI ?RET_HIGH load(1, XDATA, add(CFA_XSP16, literal(-4)))
          CFI ?RET_LOW load(1, XDATA, add(CFA_XSP16, literal(-5)))
        LCALL   ?Subroutine21 & 0xFFFF
??CrossCallReturnLabel_41:
        LCALL   ?S_DIV_MOD
        MOV     A,R0
        MOV     R2,A
        MOV     A,R1
        MOV     R3,A
        RLC     A
        SUBB    A,0xE0 /* A   */
        MOV     R4,A
        MOV     R5,A
        MOV     R1,#0xa
        LCALL   `??_ltoa::?relay`    ; Banked call to: _ltoa
        MOV     A,#0x2
        LCALL   ?DEALLOC_XSTACK8
          CFI CFA_XSP16 add(XSP16, 27)
        ; Setup parameters for call to function osal_memcpy
        ; Setup parameters for call to function osal_memcpy
        MOV     ?V0,#`?<Constant "C">` & 0xff
        MOV     ?V1,#(`?<Constant "C">` >> 8) & 0xff
        MOV     R0,#?V0
        LCALL   ?PUSH_XSTACK_I_THREE
          CFI CFA_XSP16 add(XSP16, 30)
        MOV     R4,#0x2
        MOV     R5,#0x0
        MOV     A,#0x10
        LCALL   ?XSTACK_DISP0_8
        MOV     R2,DPL
        MOV     R3,DPH
        LCALL   `??osal_memcpy::?relay`; Banked call to: osal_memcpy
        MOV     A,#0x3
        LCALL   ?DEALLOC_XSTACK8
          CFI CFA_XSP16 add(XSP16, 27)
        ; Setup parameters for call to function HalLcdWriteString
        ; Setup parameters for call to function HalLcdWriteString
        MOV     R1,#0x1
        MOV     R2,?XSP + 0
        MOV     R3,?XSP + 1
        LCALL   `??HalLcdWriteString::?relay`; Banked call to: HalLcdWriteString
        ; Setup parameters for call to function HalLcdWriteString
        ; Setup parameters for call to function HalLcdWriteString
        MOV     R1,#0x2
        MOV     R2,#sTempLine2 & 0xff
        MOV     R3,#(sTempLine2 >> 8) & 0xff
        LCALL   `??HalLcdWriteString::?relay`; Banked call to: HalLcdWriteString
        ; Setup parameters for call to function HalLcdWriteString
        ; Setup parameters for call to function HalLcdWriteString
        MOV     R1,#0x3
        MOV     R2,#sTempLine3 & 0xff
        MOV     R3,#(sTempLine3 >> 8) & 0xff
          CFI EndBlock cfiBlock34
        REQUIRE ??Subroutine33_0
        ; // Fall through to label ??Subroutine33_0

        RSEG BANKED_CODE:HUGECODE:NOROOT(0)
??Subroutine33_0:
          CFI Block cfiBlock35 Using cfiCommon0
          CFI NoFunction
          CFI CFA_SP SP+0
          CFI CFA_XSP16 add(XSP16, 27)
          CFI VB load(1, XDATA, add(CFA_XSP16, literal(-10)))
          CFI DPL0 load(1, XDATA, add(CFA_XSP16, literal(-2)))
          CFI DPH0 load(1, XDATA, add(CFA_XSP16, literal(-1)))
          CFI R6 load(1, XDATA, add(CFA_XSP16, literal(-11)))
          CFI R7 load(1, XDATA, add(CFA_XSP16, literal(-6)))
          CFI V0 load(1, XDATA, add(CFA_XSP16, literal(-9)))
          CFI V1 load(1, XDATA, add(CFA_XSP16, literal(-8)))
          CFI V2 load(1, XDATA, add(CFA_XSP16, literal(-7)))
          CFI ?BRET_EXT load(1, XDATA, add(CFA_XSP16, literal(-3)))
          CFI ?RET_HIGH load(1, XDATA, add(CFA_XSP16, literal(-4)))
          CFI ?RET_LOW load(1, XDATA, add(CFA_XSP16, literal(-5)))
        LCALL   `??HalLcdWriteString::?relay`; Banked call to: HalLcdWriteString
        MOV     A,#0x10
        LCALL   ?DEALLOC_XSTACK8
          CFI CFA_XSP16 add(XSP16, 11)
        MOV     R7,#0x3
        LJMP    ?BANKED_LEAVE_XDATA
          CFI EndBlock cfiBlock35

        RSEG BANKED_CODE:HUGECODE:NOROOT(0)
?Subroutine21:
          CFI Block cfiCond36 Using cfiCommon0
          CFI Function zclSampleThermostat_LcdDisplayMainMode
          CFI Conditional ??CrossCallReturnLabel_40
          CFI R6 load(1, XDATA, add(CFA_XSP16, literal(-11)))
          CFI VB load(1, XDATA, add(CFA_XSP16, literal(-10)))
          CFI V0 load(1, XDATA, add(CFA_XSP16, literal(-9)))
          CFI V1 load(1, XDATA, add(CFA_XSP16, literal(-8)))
          CFI V2 load(1, XDATA, add(CFA_XSP16, literal(-7)))
          CFI R7 load(1, XDATA, add(CFA_XSP16, literal(-6)))
          CFI ?RET_LOW load(1, XDATA, add(CFA_XSP16, literal(-5)))
          CFI ?RET_HIGH load(1, XDATA, add(CFA_XSP16, literal(-4)))
          CFI ?BRET_EXT load(1, XDATA, add(CFA_XSP16, literal(-3)))
          CFI DPL0 load(1, XDATA, add(CFA_XSP16, literal(-2)))
          CFI DPH0 load(1, XDATA, add(CFA_XSP16, literal(-1)))
          CFI CFA_SP SP+-2
          CFI CFA_XSP16 add(XSP16, 29)
          CFI Block cfiCond37 Using cfiCommon0
          CFI (cfiCond37) Function zclSampleThermostat_LcdDisplayHeatMode
          CFI (cfiCond37) Conditional ??CrossCallReturnLabel_41
          CFI (cfiCond37) R6 load(1, XDATA, add(CFA_XSP16, literal(-11)))
          CFI (cfiCond37) VB load(1, XDATA, add(CFA_XSP16, literal(-10)))
          CFI (cfiCond37) V0 load(1, XDATA, add(CFA_XSP16, literal(-9)))
          CFI (cfiCond37) V1 load(1, XDATA, add(CFA_XSP16, literal(-8)))
          CFI (cfiCond37) V2 load(1, XDATA, add(CFA_XSP16, literal(-7)))
          CFI (cfiCond37) R7 load(1, XDATA, add(CFA_XSP16, literal(-6)))
          CFI (cfiCond37) ?RET_LOW load(1, XDATA, add(CFA_XSP16, literal(-5)))
          CFI (cfiCond37) ?RET_HIGH load(1, XDATA, add(CFA_XSP16, literal(-4)))
          CFI (cfiCond37) ?BRET_EXT load(1, XDATA, add(CFA_XSP16, literal(-3)))
          CFI (cfiCond37) DPL0 load(1, XDATA, add(CFA_XSP16, literal(-2)))
          CFI (cfiCond37) DPH0 load(1, XDATA, add(CFA_XSP16, literal(-1)))
          CFI (cfiCond37) CFA_SP SP+-2
          CFI (cfiCond37) CFA_XSP16 add(XSP16, 29)
          CFI Block cfiCond38 Using cfiCommon0
          CFI (cfiCond38) Function zclSampleThermostat_LcdDisplayCoolMode
          CFI (cfiCond38) Conditional ??CrossCallReturnLabel_41
          CFI (cfiCond38) R6 load(1, XDATA, add(CFA_XSP16, literal(-11)))
          CFI (cfiCond38) VB load(1, XDATA, add(CFA_XSP16, literal(-10)))
          CFI (cfiCond38) V0 load(1, XDATA, add(CFA_XSP16, literal(-9)))
          CFI (cfiCond38) V1 load(1, XDATA, add(CFA_XSP16, literal(-8)))
          CFI (cfiCond38) V2 load(1, XDATA, add(CFA_XSP16, literal(-7)))
          CFI (cfiCond38) R7 load(1, XDATA, add(CFA_XSP16, literal(-6)))
          CFI (cfiCond38) ?RET_LOW load(1, XDATA, add(CFA_XSP16, literal(-5)))
          CFI (cfiCond38) ?RET_HIGH load(1, XDATA, add(CFA_XSP16, literal(-4)))
          CFI (cfiCond38) ?BRET_EXT load(1, XDATA, add(CFA_XSP16, literal(-3)))
          CFI (cfiCond38) DPL0 load(1, XDATA, add(CFA_XSP16, literal(-2)))
          CFI (cfiCond38) DPH0 load(1, XDATA, add(CFA_XSP16, literal(-1)))
          CFI (cfiCond38) CFA_SP SP+-2
          CFI (cfiCond38) CFA_XSP16 add(XSP16, 29)
          CFI Block cfiPicker39 Using cfiCommon1
          CFI (cfiPicker39) NoFunction
          CFI (cfiPicker39) Picker
        LCALL   ?Subroutine27 & 0xFFFF
??CrossCallReturnLabel_59:
        MOV     R2,#0x64
        MOV     R3,#0x0
        RET
          CFI EndBlock cfiCond36
          CFI EndBlock cfiCond37
          CFI EndBlock cfiCond38
          CFI EndBlock cfiPicker39
//  890 
//  891 /*********************************************************************
//  892  * @fn      zclSampleThermostat_LcdDisplayCoolMode
//  893  *
//  894  * @brief   Called to display the cooling setpoint temperature on the LCD.
//  895  *
//  896  * @param   none
//  897  *
//  898  * @return  none
//  899  */

        RSEG BANKED_CODE:HUGECODE:NOROOT(0)
//  900 void zclSampleThermostat_LcdDisplayCoolMode( void )
zclSampleThermostat_LcdDisplayCoolMode:
          CFI Block cfiBlock40 Using cfiCommon0
          CFI Function zclSampleThermostat_LcdDisplayCoolMode
        CODE
//  901 {
        FUNCALL zclSampleThermostat_LcdDisplayCoolMode, osal_memcpy
        LOCFRAME ISTACK, 0, STACK
        LOCFRAME PSTACK, 0, STACK
        LOCFRAME XSTACK, 30, STACK
        LOCFRAME IOVERLAY, 0, STATIC
        LOCFRAME DOVERLAY, 0, STATIC
        ARGFRAME ISTACK, 0, STACK
        ARGFRAME PSTACK, 0, STACK
        ARGFRAME XSTACK, 30, STACK
        ARGFRAME IOVERLAY, 0, STATIC
        ARGFRAME DOVERLAY, 0, STATIC
        FUNCALL zclSampleThermostat_LcdDisplayCoolMode, _ltoa
        LOCFRAME ISTACK, 0, STACK
        LOCFRAME PSTACK, 0, STACK
        LOCFRAME XSTACK, 29, STACK
        LOCFRAME IOVERLAY, 0, STATIC
        LOCFRAME DOVERLAY, 0, STATIC
        ARGFRAME ISTACK, 0, STACK
        ARGFRAME PSTACK, 0, STACK
        ARGFRAME XSTACK, 29, STACK
        ARGFRAME IOVERLAY, 0, STATIC
        ARGFRAME DOVERLAY, 0, STATIC
        FUNCALL zclSampleThermostat_LcdDisplayCoolMode, osal_memcpy
        LOCFRAME ISTACK, 0, STACK
        LOCFRAME PSTACK, 0, STACK
        LOCFRAME XSTACK, 30, STACK
        LOCFRAME IOVERLAY, 0, STATIC
        LOCFRAME DOVERLAY, 0, STATIC
        ARGFRAME ISTACK, 0, STACK
        ARGFRAME PSTACK, 0, STACK
        ARGFRAME XSTACK, 30, STACK
        ARGFRAME IOVERLAY, 0, STATIC
        ARGFRAME DOVERLAY, 0, STATIC
        FUNCALL zclSampleThermostat_LcdDisplayCoolMode, HalLcdWriteString
        LOCFRAME ISTACK, 0, STACK
        LOCFRAME PSTACK, 0, STACK
        LOCFRAME XSTACK, 27, STACK
        LOCFRAME IOVERLAY, 0, STATIC
        LOCFRAME DOVERLAY, 0, STATIC
        ARGFRAME ISTACK, 0, STACK
        ARGFRAME PSTACK, 0, STACK
        ARGFRAME XSTACK, 27, STACK
        ARGFRAME IOVERLAY, 0, STATIC
        ARGFRAME DOVERLAY, 0, STATIC
        FUNCALL zclSampleThermostat_LcdDisplayCoolMode, HalLcdWriteString
        LOCFRAME ISTACK, 0, STACK
        LOCFRAME PSTACK, 0, STACK
        LOCFRAME XSTACK, 27, STACK
        LOCFRAME IOVERLAY, 0, STATIC
        LOCFRAME DOVERLAY, 0, STATIC
        ARGFRAME ISTACK, 0, STACK
        ARGFRAME PSTACK, 0, STACK
        ARGFRAME XSTACK, 27, STACK
        ARGFRAME IOVERLAY, 0, STATIC
        ARGFRAME DOVERLAY, 0, STATIC
        FUNCALL zclSampleThermostat_LcdDisplayCoolMode, HalLcdWriteString
        LOCFRAME ISTACK, 0, STACK
        LOCFRAME PSTACK, 0, STACK
        LOCFRAME XSTACK, 27, STACK
        LOCFRAME IOVERLAY, 0, STATIC
        LOCFRAME DOVERLAY, 0, STATIC
        ARGFRAME ISTACK, 0, STACK
        ARGFRAME PSTACK, 0, STACK
        ARGFRAME XSTACK, 27, STACK
        ARGFRAME IOVERLAY, 0, STATIC
        ARGFRAME DOVERLAY, 0, STATIC
        REQUIRE ?V0
        REQUIRE ?V1
        REQUIRE ?V2
        MOV     A,#-0xb
        LCALL   ?BANKED_ENTER_XDATA
          CFI DPH0 load(1, XDATA, add(CFA_XSP16, literal(-1)))
          CFI DPL0 load(1, XDATA, add(CFA_XSP16, literal(-2)))
          CFI ?BRET_EXT load(1, XDATA, add(CFA_XSP16, literal(-3)))
          CFI ?RET_HIGH load(1, XDATA, add(CFA_XSP16, literal(-4)))
          CFI ?RET_LOW load(1, XDATA, add(CFA_XSP16, literal(-5)))
          CFI R7 load(1, XDATA, add(CFA_XSP16, literal(-6)))
          CFI V2 load(1, XDATA, add(CFA_XSP16, literal(-7)))
          CFI V1 load(1, XDATA, add(CFA_XSP16, literal(-8)))
          CFI V0 load(1, XDATA, add(CFA_XSP16, literal(-9)))
          CFI VB load(1, XDATA, add(CFA_XSP16, literal(-10)))
          CFI R6 load(1, XDATA, add(CFA_XSP16, literal(-11)))
          CFI CFA_SP SP+0
          CFI CFA_XSP16 add(XSP16, 11)
        ; Saved register size: 11
        ; Auto size: 16
        MOV     A,#-0x10
        LCALL   ?ALLOC_XSTACK8
          CFI CFA_XSP16 add(XSP16, 27)
//  902 #ifdef LCD_SUPPORTED
//  903   char sDisplayTemp[16];
//  904 
//  905   osal_memcpy(sDisplayTemp, "COOL TEMP: ", 11);
        ; Setup parameters for call to function osal_memcpy
        MOV     ?V0,#`?<Constant "COOL TEMP: ">` & 0xff
        MOV     ?V1,#(`?<Constant "COOL TEMP: ">` >> 8) & 0xff
        MOV     ?V2,#0x0
        MOV     R0,#?V0
        LCALL   ?PUSH_XSTACK_I_THREE
          CFI CFA_XSP16 add(XSP16, 30)
        MOV     R4,#0xb
        MOV     R5,#0x0
        MOV     A,#0x3
        LCALL   ?XSTACK_DISP101_8
        LCALL   `??osal_memcpy::?relay`; Banked call to: osal_memcpy
        MOV     A,#0x3
        LCALL   ?DEALLOC_XSTACK8
          CFI CFA_XSP16 add(XSP16, 27)
//  906   _ltoa( ( zclSampleThermostat_OccupiedCoolingSetpoint / 100 ), (void *)(&sDisplayTemp[11]), 10 ); // only use whole number
        ; Setup parameters for call to function _ltoa
        MOV     A,#0xb
        LCALL   ?XSTACK_DISP0_8
        MOV     ?V0,DPL
        MOV     ?V1,DPH
        MOV     R0,#?V0
        LCALL   ?PUSH_XSTACK_I_TWO
          CFI CFA_XSP16 add(XSP16, 29)
        MOV     DPTR,#zclSampleThermostat_OccupiedCoolingSetpoint
        LJMP    ?Subroutine1 & 0xFFFF
//  907   osal_memcpy( &sDisplayTemp[13], "C", 2 );
//  908 
//  909   HalLcdWriteString( (char *)sDisplayTemp, HAL_LCD_LINE_1 );
//  910   HalLcdWriteString( (char *)sTempLine2, HAL_LCD_LINE_2 );
//  911   HalLcdWriteString( (char *)sTempLine3, HAL_LCD_LINE_3 );
//  912 #endif
//  913 }
          CFI EndBlock cfiBlock40
//  914 
//  915 /*********************************************************************
//  916  * @fn      zclSampleThermostat_ProcessIdentifyTimeChange
//  917  *
//  918  * @brief   Called to process any change to the IdentifyTime attribute.
//  919  *
//  920  * @param   none
//  921  *
//  922  * @return  none
//  923  */

        RSEG BANKED_CODE:HUGECODE:NOROOT(0)
//  924 static void zclSampleThermostat_ProcessIdentifyTimeChange( void )
zclSampleThermostat_ProcessIdentifyTimeChange:
          CFI Block cfiBlock41 Using cfiCommon0
          CFI Function zclSampleThermostat_ProcessIdentifyTimeChange
        CODE
//  925 {
        FUNCALL zclSampleThermostat_ProcessIdentifyTimeChange, osal_start_timerEx
        LOCFRAME ISTACK, 2, STACK
        LOCFRAME PSTACK, 0, STACK
        LOCFRAME XSTACK, 4, STACK
        LOCFRAME IOVERLAY, 0, STATIC
        LOCFRAME DOVERLAY, 0, STATIC
        ARGFRAME ISTACK, 2, STACK
        ARGFRAME PSTACK, 0, STACK
        ARGFRAME XSTACK, 4, STACK
        ARGFRAME IOVERLAY, 0, STATIC
        ARGFRAME DOVERLAY, 0, STATIC
        FUNCALL zclSampleThermostat_ProcessIdentifyTimeChange, HalLedBlink
        LOCFRAME ISTACK, 2, STACK
        LOCFRAME PSTACK, 0, STACK
        LOCFRAME XSTACK, 0, STACK
        LOCFRAME IOVERLAY, 0, STATIC
        LOCFRAME DOVERLAY, 0, STATIC
        ARGFRAME ISTACK, 2, STACK
        ARGFRAME PSTACK, 0, STACK
        ARGFRAME XSTACK, 0, STACK
        ARGFRAME IOVERLAY, 0, STATIC
        ARGFRAME DOVERLAY, 0, STATIC
        FUNCALL zclSampleThermostat_ProcessIdentifyTimeChange, HalLedSet
        LOCFRAME ISTACK, 2, STACK
        LOCFRAME PSTACK, 0, STACK
        LOCFRAME XSTACK, 0, STACK
        LOCFRAME IOVERLAY, 0, STATIC
        LOCFRAME DOVERLAY, 0, STATIC
        ARGFRAME ISTACK, 2, STACK
        ARGFRAME PSTACK, 0, STACK
        ARGFRAME XSTACK, 0, STACK
        ARGFRAME IOVERLAY, 0, STATIC
        ARGFRAME DOVERLAY, 0, STATIC
        FUNCALL zclSampleThermostat_ProcessIdentifyTimeChange, HalLedSet
        LOCFRAME ISTACK, 2, STACK
        LOCFRAME PSTACK, 0, STACK
        LOCFRAME XSTACK, 0, STACK
        LOCFRAME IOVERLAY, 0, STATIC
        LOCFRAME DOVERLAY, 0, STATIC
        ARGFRAME ISTACK, 2, STACK
        ARGFRAME PSTACK, 0, STACK
        ARGFRAME XSTACK, 0, STACK
        ARGFRAME IOVERLAY, 0, STATIC
        ARGFRAME DOVERLAY, 0, STATIC
        FUNCALL zclSampleThermostat_ProcessIdentifyTimeChange, osal_stop_timerEx
        LOCFRAME ISTACK, 2, STACK
        LOCFRAME PSTACK, 0, STACK
        LOCFRAME XSTACK, 0, STACK
        LOCFRAME IOVERLAY, 0, STATIC
        LOCFRAME DOVERLAY, 0, STATIC
        ARGFRAME ISTACK, 2, STACK
        ARGFRAME PSTACK, 0, STACK
        ARGFRAME XSTACK, 0, STACK
        ARGFRAME IOVERLAY, 0, STATIC
        ARGFRAME DOVERLAY, 0, STATIC
        PUSH    DPL
          CFI DPL0 Frame(CFA_SP, 4)
          CFI CFA_SP SP+-4
        PUSH    DPH
          CFI DPH0 Frame(CFA_SP, 5)
          CFI CFA_SP SP+-5
        ; Saved register size: 2
        ; Auto size: 0
//  926   if ( zclSampleThermostat_IdentifyTime > 0 )
        LCALL   ?Subroutine15 & 0xFFFF
??CrossCallReturnLabel_57:
        JZ      ??zclSampleThermostat_ProcessIdentifyTimeChange_1
//  927   {
//  928     osal_start_timerEx( zclSampleThermostat_TaskID, SAMPLETHERMOSTAT_IDENTIFY_TIMEOUT_EVT, 1000 );
        ; Setup parameters for call to function osal_start_timerEx
        MOV     DPTR,#__Constant_3e8
        LCALL   ?PUSH_XSTACK8_X_FOUR
          CFI CFA_XSP16 add(XSP16, 4)
        MOV     R2,#0x1
        MOV     R3,#0x0
        MOV     DPTR,#zclSampleThermostat_TaskID
        MOVX    A,@DPTR
        MOV     R1,A
        LCALL   `??osal_start_timerEx::?relay`; Banked call to: osal_start_timerEx
        MOV     A,#0x4
        LCALL   ?DEALLOC_XSTACK8
          CFI CFA_XSP16 XSP16+0
//  929     HalLedBlink ( HAL_LED_4, 0xFF, HAL_LED_DEFAULT_DUTY_CYCLE, HAL_LED_DEFAULT_FLASH_TIME );
        ; Setup parameters for call to function HalLedBlink
        MOV     R4,#-0x18
        MOV     R5,#0x3
        MOV     R3,#0x5
        MOV     R2,#-0x1
        MOV     R1,#0x8
        LCALL   `??HalLedBlink::?relay`; Banked call to: HalLedBlink
        SJMP    ??zclSampleThermostat_ProcessIdentifyTimeChange_2
//  930   }
//  931   else
//  932   {
//  933     if ( zclSampleThermostat_OnOff )
??zclSampleThermostat_ProcessIdentifyTimeChange_1:
        MOV     DPTR,#zclSampleThermostat_OnOff
        MOVX    A,@DPTR
        JZ      ??zclSampleThermostat_ProcessIdentifyTimeChange_3
//  934     {
//  935       HalLedSet ( HAL_LED_4, HAL_LED_MODE_ON );
        ; Setup parameters for call to function HalLedSet
        MOV     R2,#0x1
        SJMP    ??zclSampleThermostat_ProcessIdentifyTimeChange_4
//  936     }
//  937     else
//  938     {
//  939       HalLedSet ( HAL_LED_4, HAL_LED_MODE_OFF );
??zclSampleThermostat_ProcessIdentifyTimeChange_3:
        ; Setup parameters for call to function HalLedSet
        MOV     R2,#0x0
??zclSampleThermostat_ProcessIdentifyTimeChange_4:
        MOV     R1,#0x8
        LCALL   `??HalLedSet::?relay`; Banked call to: HalLedSet
//  940     }
//  941 
//  942     osal_stop_timerEx( zclSampleThermostat_TaskID, SAMPLETHERMOSTAT_IDENTIFY_TIMEOUT_EVT );
        ; Setup parameters for call to function osal_stop_timerEx
        MOV     R2,#0x1
        MOV     R3,#0x0
        MOV     DPTR,#zclSampleThermostat_TaskID
        MOVX    A,@DPTR
        MOV     R1,A
        LCALL   `??osal_stop_timerEx::?relay`; Banked call to: osal_stop_timerEx
//  943   }
//  944 }
??zclSampleThermostat_ProcessIdentifyTimeChange_2:
        LJMP    ??Subroutine32_0 & 0xFFFF
          CFI EndBlock cfiBlock41
//  945 
//  946 /*********************************************************************
//  947  * @fn      zclSampleThermostat_ProcessAppMsg
//  948  *
//  949  * @brief   Process DoorLock messages
//  950  *
//  951  * @param   srcEP - Sending Apps endpoint
//  952  * @param   len - number of bytes
//  953  * @param   msg - pointer to message
//  954  *          0 - lo byte destination address
//  955  *          1 - hi byte destination address
//  956  *          2 - destination endpoint
//  957  *          3 - lo byte cluster ID
//  958  *          4 - hi byte cluster ID
//  959  *          5 - message length
//  960  *          6 - destination address mode (first byte of data)
//  961  *          7 - zcl command frame
//  962  *
//  963  * @return  none
//  964  */

        RSEG BANKED_CODE:HUGECODE:NOROOT(0)
//  965 static void zclSampleThermostat_ProcessAppMsg( uint8 srcEP, uint8 len, uint8 *msg )
zclSampleThermostat_ProcessAppMsg:
          CFI Block cfiBlock42 Using cfiCommon0
          CFI Function zclSampleThermostat_ProcessAppMsg
        CODE
//  966 {
        FUNCALL zclSampleThermostat_ProcessAppMsg, zclParseHdr
        LOCFRAME ISTACK, 0, STACK
        LOCFRAME PSTACK, 0, STACK
        LOCFRAME XSTACK, 41, STACK
        LOCFRAME IOVERLAY, 0, STATIC
        LOCFRAME DOVERLAY, 0, STATIC
        ARGFRAME ISTACK, 0, STACK
        ARGFRAME PSTACK, 0, STACK
        ARGFRAME XSTACK, 41, STACK
        ARGFRAME IOVERLAY, 0, STATIC
        ARGFRAME DOVERLAY, 0, STATIC
        FUNCALL zclSampleThermostat_ProcessAppMsg, zcl_SendCommand
        LOCFRAME ISTACK, 0, STACK
        LOCFRAME PSTACK, 0, STACK
        LOCFRAME XSTACK, 52, STACK
        LOCFRAME IOVERLAY, 0, STATIC
        LOCFRAME DOVERLAY, 0, STATIC
        ARGFRAME ISTACK, 0, STACK
        ARGFRAME PSTACK, 0, STACK
        ARGFRAME XSTACK, 52, STACK
        ARGFRAME IOVERLAY, 0, STATIC
        ARGFRAME DOVERLAY, 0, STATIC
        FUNCALL zclSampleThermostat_ProcessAppMsg, zclSampleThermostat_ProcessFoundationMsg
        LOCFRAME ISTACK, 0, STACK
        LOCFRAME PSTACK, 0, STACK
        LOCFRAME XSTACK, 45, STACK
        LOCFRAME IOVERLAY, 0, STATIC
        LOCFRAME DOVERLAY, 0, STATIC
        ARGFRAME ISTACK, 0, STACK
        ARGFRAME PSTACK, 0, STACK
        ARGFRAME XSTACK, 45, STACK
        ARGFRAME IOVERLAY, 0, STATIC
        ARGFRAME DOVERLAY, 0, STATIC
        FUNCALL zclSampleThermostat_ProcessAppMsg, zcl_SendCommand
        LOCFRAME ISTACK, 0, STACK
        LOCFRAME PSTACK, 0, STACK
        LOCFRAME XSTACK, 52, STACK
        LOCFRAME IOVERLAY, 0, STATIC
        LOCFRAME DOVERLAY, 0, STATIC
        ARGFRAME ISTACK, 0, STACK
        ARGFRAME PSTACK, 0, STACK
        ARGFRAME XSTACK, 52, STACK
        ARGFRAME IOVERLAY, 0, STATIC
        ARGFRAME DOVERLAY, 0, STATIC
        REQUIRE ?V0
        REQUIRE ?V1
        REQUIRE ?V2
        REQUIRE ?V3
        REQUIRE ?V4
        REQUIRE ?V5
        REQUIRE ?V6
        REQUIRE ?V7
        REQUIRE ?V8
        REQUIRE ?V9
        MOV     A,#-0x12
        LCALL   ?BANKED_ENTER_XDATA
          CFI DPH0 load(1, XDATA, add(CFA_XSP16, literal(-1)))
          CFI DPL0 load(1, XDATA, add(CFA_XSP16, literal(-2)))
          CFI ?BRET_EXT load(1, XDATA, add(CFA_XSP16, literal(-3)))
          CFI ?RET_HIGH load(1, XDATA, add(CFA_XSP16, literal(-4)))
          CFI ?RET_LOW load(1, XDATA, add(CFA_XSP16, literal(-5)))
          CFI R7 load(1, XDATA, add(CFA_XSP16, literal(-6)))
          CFI V9 load(1, XDATA, add(CFA_XSP16, literal(-7)))
          CFI V8 load(1, XDATA, add(CFA_XSP16, literal(-8)))
          CFI V7 load(1, XDATA, add(CFA_XSP16, literal(-9)))
          CFI V6 load(1, XDATA, add(CFA_XSP16, literal(-10)))
          CFI V5 load(1, XDATA, add(CFA_XSP16, literal(-11)))
          CFI V4 load(1, XDATA, add(CFA_XSP16, literal(-12)))
          CFI V3 load(1, XDATA, add(CFA_XSP16, literal(-13)))
          CFI V2 load(1, XDATA, add(CFA_XSP16, literal(-14)))
          CFI V1 load(1, XDATA, add(CFA_XSP16, literal(-15)))
          CFI V0 load(1, XDATA, add(CFA_XSP16, literal(-16)))
          CFI VB load(1, XDATA, add(CFA_XSP16, literal(-17)))
          CFI R6 load(1, XDATA, add(CFA_XSP16, literal(-18)))
          CFI CFA_SP SP+0
          CFI CFA_XSP16 add(XSP16, 18)
        ; Saved register size: 18
        ; Auto size: 23
        MOV     A,#-0x17
        LCALL   ?ALLOC_XSTACK8
          CFI CFA_XSP16 add(XSP16, 41)
        MOV     ?V2,R1
        MOV     A,R4
        MOV     R6,A
        MOV     A,R5
        MOV     R7,A
//  967   afAddrType_t dstAddr;
//  968   uint16 clusterID;
//  969   zclFrameHdr_t hdr;
//  970   uint8 *pData;
//  971   uint8 dataLen;
//  972 
//  973   dstAddr.addr.shortAddr = BUILD_UINT16( msg[0], msg[1] );
        MOV     DPL,R6
        MOV     DPH,R7
        MOVX    A,@DPTR
        MOV     R2,A
        INC     DPTR
        MOVX    A,@DPTR
        MOV     R1,A
        MOV     A,R2
        MOV     R0,A
        MOV     A,#0xb
        LCALL   ?XSTACK_DISP0_8
        MOV     A,R0
        MOVX    @DPTR,A
        INC     DPTR
        MOV     A,R1
        MOVX    @DPTR,A
//  974   msg += 2;
//  975   dstAddr.endPoint = *msg++;
        MOV     DPL,R6
        MOV     DPH,R7
        INC     DPTR
        INC     DPTR
        MOVX    A,@DPTR
        PUSH    A
          CFI CFA_SP SP+-1
        MOV     A,#0x14
        LCALL   ?XSTACK_DISP0_8
        POP     A
          CFI CFA_SP SP+0
        MOVX    @DPTR,A
        MOV     A,R6
        ADD     A,#0x3
        MOV     R6,A
        JNC     ??zclSampleThermostat_ProcessAppMsg_0
        INC     R7
//  976   clusterID = BUILD_UINT16( msg[0], msg[1] );
??zclSampleThermostat_ProcessAppMsg_0:
        MOV     DPL,R6
        MOV     DPH,R7
        MOVX    A,@DPTR
        MOV     R2,A
        INC     DPTR
        MOVX    A,@DPTR
        MOV     R0,A
        CLR     A
        XCH     A,R0
        MOV     R1,A
        MOV     A,R2
        ADD     A,R0
        MOV     ?V0,A
        CLR     A
        ADDC    A,R1
        MOV     ?V1,A
//  977   msg += 2;
//  978   dataLen = *msg++; // Length of message (Z-Tool can support up to 255 octets)
        MOV     DPL,R6
        MOV     DPH,R7
        INC     DPTR
        INC     DPTR
        MOVX    A,@DPTR
        MOV     ?V4,A
//  979   dstAddr.addrMode = (afAddrMode_t)(*msg++);
        MOV     DPL,R6
        MOV     DPH,R7
        INC     DPTR
        INC     DPTR
        INC     DPTR
        MOVX    A,@DPTR
        PUSH    A
          CFI CFA_SP SP+-1
        MOV     A,#0x13
        LCALL   ?XSTACK_DISP0_8
        POP     A
          CFI CFA_SP SP+0
        MOVX    @DPTR,A
        MOV     A,R6
        ADD     A,#0x4
        MOV     R6,A
        JNC     ??zclSampleThermostat_ProcessAppMsg_1
        INC     R7
//  980   dataLen--; // Length of ZCL frame
//  981 
//  982   // Begining of ZCL frame
//  983   pData = zclParseHdr( &hdr, msg );
??zclSampleThermostat_ProcessAppMsg_1:
        ; Setup parameters for call to function zclParseHdr
        MOV     R4,A
        MOV     A,R7
        MOV     R5,A
        MOV     R2,?XSP + 0
        MOV     R3,?XSP + 1
        LCALL   `??zclParseHdr::?relay`; Banked call to: zclParseHdr
        MOV     ?V6,R2
        MOV     ?V7,R3
//  984   dataLen -= (uint8)( pData - msg );
        MOV     R0,?V6
        MOV     A,#-0x1
        ADD     A,?V4
        CLR     C
        SUBB    A,R0
        ADD     A,R6
        MOV     ?V4,A
//  985 
//  986   // Is this a foundation type message?
//  987   if ( zcl_ProfileCmd( hdr.fc.type ) )
        MOV     DPL,?XSP + 0
        MOV     DPH,?XSP + 1
        MOVX    A,@DPTR
        SWAP    A
        ANL     A,#0xf
        ANL     A,#0x1
        MOV     R1,A
        MOV     ?V5,#0x0
        MOVX    A,@DPTR
        ANL     A,#0x3
        JZ      $+5
        LJMP    ??zclSampleThermostat_ProcessAppMsg_2 & 0xFFFF
//  988   {
//  989     if ( hdr.fc.manuSpecific )
        MOVX    A,@DPTR
        ANL     A,#0x4
        JZ      ??zclSampleThermostat_ProcessAppMsg_3
//  990     {
//  991       // We don't support any manufacturer specific command -- just forward it.
//  992       zcl_SendCommand( srcEP, &dstAddr, clusterID, hdr.commandID, FALSE, ZCL_FRAME_CLIENT_SERVER_DIR,
//  993                        hdr.fc.disableDefaultRsp, hdr.manuCode, hdr.transSeqNum, dataLen, pData );
        ; Setup parameters for call to function zcl_SendCommand
        MOV     R0,#?V6
        LCALL   ?PUSH_XSTACK_I_TWO
          CFI CFA_XSP16 add(XSP16, 43)
        MOV     R0,#?V4
        LCALL   ?PUSH_XSTACK_I_TWO
          CFI CFA_XSP16 add(XSP16, 45)
        MOV     A,#0x8
        LCALL   ?XSTACK_DISP0_8
        MOVX    A,@DPTR
        MOV     ?V3,A
        MOV     R0,#?V3
        LCALL   ?PUSH_XSTACK_I_ONE
          CFI CFA_XSP16 add(XSP16, 46)
        MOV     A,#0x7
        LCALL   ?XSTACK_DISP0_8
        LCALL   ?PUSH_XSTACK8_X_TWO
          CFI CFA_XSP16 add(XSP16, 48)
        MOV     A,R1
        MOV     ?V3,A
        MOV     R0,#?V3
        LCALL   ?PUSH_XSTACK_I_ONE
          CFI CFA_XSP16 add(XSP16, 49)
        MOV     ?V3,#0x0
        MOV     R0,#?V3
        LCALL   ?PUSH_XSTACK_I_ONE
          CFI CFA_XSP16 add(XSP16, 50)
        LJMP    ??zclSampleThermostat_ProcessAppMsg_4 & 0xFFFF
          CFI CFA_XSP16 add(XSP16, 41)
//  994     }
//  995     else
//  996     {
//  997       zclParseCmd_t cmd;
//  998 
//  999       cmd.endpoint = srcEP;
??zclSampleThermostat_ProcessAppMsg_3:
        MOV     A,#0x6
        LCALL   ?XSTACK_DISP0_8
        MOV     A,?V2
        MOVX    @DPTR,A
// 1000       cmd.dataLen = dataLen;
        MOV     A,#0x7
        LCALL   ?XSTACK_DISP0_8
        MOV     A,?V4
        MOVX    @DPTR,A
        INC     DPTR
        CLR     A
        MOVX    @DPTR,A
// 1001       cmd.pData = pData;
        MOV     A,#0x9
        LCALL   ?XSTACK_DISP0_8
        MOV     A,R0
        MOVX    @DPTR,A
        INC     DPTR
        MOV     A,R3
        MOVX    @DPTR,A
// 1002 
// 1003       zclSampleThermostat_ProcessFoundationMsg( &dstAddr, clusterID, &hdr, &cmd );
        ; Setup parameters for call to function zclSampleThermostat_ProcessFoundationMsg
        MOV     A,#0x6
        LCALL   ?XSTACK_DISP100_8
        MOV     ?V4,R0
        MOV     ?V5,R1
        MOV     R0,#?V4
        LCALL   ?PUSH_XSTACK_I_TWO
          CFI CFA_XSP16 add(XSP16, 43)
        MOV     A,#0x2
        LCALL   ?XSTACK_DISP100_8
        MOV     ?V4,R0
        MOV     ?V5,R1
        MOV     R0,#?V4
        LCALL   ?PUSH_XSTACK_I_TWO
          CFI CFA_XSP16 add(XSP16, 45)
        MOV     R4,?V0
        MOV     R5,?V1
        MOV     A,#0xf
        LCALL   ?XSTACK_DISP101_8
        LCALL   `??zclSampleThermostat_ProcessFoundationMsg::?re`; Banked call to: zclSampleThermostat_ProcessFoundationMsg
        MOV     A,#0x4
        LCALL   ?DEALLOC_XSTACK8
          CFI CFA_XSP16 add(XSP16, 41)
        SJMP    ??zclSampleThermostat_ProcessAppMsg_5
// 1004     }
// 1005   }
// 1006   else
// 1007   {
// 1008     // Nope, must be specific to the cluster ID
// 1009     if ( hdr.fc.manuSpecific )
??zclSampleThermostat_ProcessAppMsg_2:
        MOVX    A,@DPTR
        ANL     A,#0x4
        JZ      ??zclSampleThermostat_ProcessAppMsg_5
// 1010     {
// 1011       // We don't support any manufacturer specific command -- just forward it.
// 1012       zcl_SendCommand( srcEP, &dstAddr, clusterID, hdr.commandID, TRUE, ZCL_FRAME_CLIENT_SERVER_DIR,
// 1013                        hdr.fc.disableDefaultRsp, hdr.manuCode, hdr.transSeqNum, dataLen, pData );
        ; Setup parameters for call to function zcl_SendCommand
        MOV     R0,#?V6
        LCALL   ?PUSH_XSTACK_I_TWO
          CFI CFA_XSP16 add(XSP16, 43)
        MOV     R0,#?V4
        LCALL   ?PUSH_XSTACK_I_TWO
          CFI CFA_XSP16 add(XSP16, 45)
        MOV     A,#0x8
        LCALL   ?XSTACK_DISP0_8
        MOVX    A,@DPTR
        MOV     ?V3,A
        MOV     R0,#?V3
        LCALL   ?PUSH_XSTACK_I_ONE
          CFI CFA_XSP16 add(XSP16, 46)
        MOV     A,#0x7
        LCALL   ?XSTACK_DISP0_8
        LCALL   ?PUSH_XSTACK8_X_TWO
          CFI CFA_XSP16 add(XSP16, 48)
        MOV     A,R1
        MOV     ?V3,A
        MOV     R0,#?V3
        LCALL   ?PUSH_XSTACK_I_ONE
          CFI CFA_XSP16 add(XSP16, 49)
        MOV     ?V3,#0x0
        MOV     R0,#?V3
        LCALL   ?PUSH_XSTACK_I_ONE
          CFI CFA_XSP16 add(XSP16, 50)
        MOV     ?V3,#0x1
??zclSampleThermostat_ProcessAppMsg_4:
        MOV     R0,#?V3
        LCALL   ?PUSH_XSTACK_I_ONE
          CFI CFA_XSP16 add(XSP16, 51)
        MOV     A,#0xf
        LCALL   ?XSTACK_DISP0_8
        MOVX    A,@DPTR
        MOV     ?V3,A
        MOV     R0,#?V3
        LCALL   ?PUSH_XSTACK_I_ONE
          CFI CFA_XSP16 add(XSP16, 52)
        MOV     R4,?V0
        MOV     R5,?V1
        MOV     A,#0x16
        LCALL   ?XSTACK_DISP101_8
        MOV     R1,?V2
        LCALL   `??zcl_SendCommand::?relay`; Banked call to: zcl_SendCommand
        MOV     A,#0xb
        LCALL   ?DEALLOC_XSTACK8
          CFI CFA_XSP16 add(XSP16, 41)
// 1014     }
// 1015   }
// 1016 }
??zclSampleThermostat_ProcessAppMsg_5:
        MOV     A,#0x17
        LCALL   ?DEALLOC_XSTACK8
          CFI EndBlock cfiBlock42
        REQUIRE ?Subroutine2
        ; // Fall through to label ?Subroutine2

        RSEG BANKED_CODE:HUGECODE:NOROOT(0)
?Subroutine2:
          CFI Block cfiBlock43 Using cfiCommon0
          CFI NoFunction
          CFI CFA_SP SP+0
          CFI CFA_XSP16 add(XSP16, 18)
          CFI VB load(1, XDATA, add(CFA_XSP16, literal(-17)))
          CFI DPL0 load(1, XDATA, add(CFA_XSP16, literal(-2)))
          CFI DPH0 load(1, XDATA, add(CFA_XSP16, literal(-1)))
          CFI R6 load(1, XDATA, add(CFA_XSP16, literal(-18)))
          CFI R7 load(1, XDATA, add(CFA_XSP16, literal(-6)))
          CFI V0 load(1, XDATA, add(CFA_XSP16, literal(-16)))
          CFI V1 load(1, XDATA, add(CFA_XSP16, literal(-15)))
          CFI V2 load(1, XDATA, add(CFA_XSP16, literal(-14)))
          CFI V3 load(1, XDATA, add(CFA_XSP16, literal(-13)))
          CFI V4 load(1, XDATA, add(CFA_XSP16, literal(-12)))
          CFI V5 load(1, XDATA, add(CFA_XSP16, literal(-11)))
          CFI V6 load(1, XDATA, add(CFA_XSP16, literal(-10)))
          CFI V7 load(1, XDATA, add(CFA_XSP16, literal(-9)))
          CFI V8 load(1, XDATA, add(CFA_XSP16, literal(-8)))
          CFI V9 load(1, XDATA, add(CFA_XSP16, literal(-7)))
          CFI ?BRET_EXT load(1, XDATA, add(CFA_XSP16, literal(-3)))
          CFI ?RET_HIGH load(1, XDATA, add(CFA_XSP16, literal(-4)))
          CFI ?RET_LOW load(1, XDATA, add(CFA_XSP16, literal(-5)))
        MOV     R7,#0xa
        LJMP    ?BANKED_LEAVE_XDATA
          CFI EndBlock cfiBlock43
// 1017 
// 1018 /*********************************************************************
// 1019  * @fn      zclSampleThermostat_ProcessFoundationMsg
// 1020  *
// 1021  * @brief   Process Foundation message
// 1022  *
// 1023  * @param   srcEP - Sending Apps endpoint
// 1024  * @param   dstAddr - where to send the request
// 1025  * @param   clusterID - real cluster ID
// 1026  * @param   hdr - pointer to the message header
// 1027  * @param   len - length of the received message
// 1028  * @param   data - received message
// 1029  *
// 1030  * @return  none
// 1031  */

        RSEG BANKED_CODE:HUGECODE:NOROOT(0)
// 1032 static void zclSampleThermostat_ProcessFoundationMsg( afAddrType_t *dstAddr, uint16 clusterID,
zclSampleThermostat_ProcessFoundationMsg:
          CFI Block cfiBlock44 Using cfiCommon0
          CFI Function zclSampleThermostat_ProcessFoundationMsg
        CODE
// 1033                                                 zclFrameHdr_t *hdr, zclParseCmd_t *pParseCmd )
// 1034 {
        FUNCALL zclSampleThermostat_ProcessFoundationMsg, zclParseInReadCmd
        LOCFRAME ISTACK, 0, STACK
        LOCFRAME PSTACK, 0, STACK
        LOCFRAME XSTACK, 18, STACK
        LOCFRAME IOVERLAY, 0, STATIC
        LOCFRAME DOVERLAY, 0, STATIC
        ARGFRAME ISTACK, 0, STACK
        ARGFRAME PSTACK, 0, STACK
        ARGFRAME XSTACK, 18, STACK
        ARGFRAME IOVERLAY, 0, STATIC
        ARGFRAME DOVERLAY, 0, STATIC
        FUNCALL zclSampleThermostat_ProcessFoundationMsg, zcl_SendRead
        LOCFRAME ISTACK, 0, STACK
        LOCFRAME PSTACK, 0, STACK
        LOCFRAME XSTACK, 23, STACK
        LOCFRAME IOVERLAY, 0, STATIC
        LOCFRAME DOVERLAY, 0, STATIC
        ARGFRAME ISTACK, 0, STACK
        ARGFRAME PSTACK, 0, STACK
        ARGFRAME XSTACK, 23, STACK
        ARGFRAME IOVERLAY, 0, STATIC
        ARGFRAME DOVERLAY, 0, STATIC
        FUNCALL zclSampleThermostat_ProcessFoundationMsg, osal_mem_free
        LOCFRAME ISTACK, 0, STACK
        LOCFRAME PSTACK, 0, STACK
        LOCFRAME XSTACK, 18, STACK
        LOCFRAME IOVERLAY, 0, STATIC
        LOCFRAME DOVERLAY, 0, STATIC
        ARGFRAME ISTACK, 0, STACK
        ARGFRAME PSTACK, 0, STACK
        ARGFRAME XSTACK, 18, STACK
        ARGFRAME IOVERLAY, 0, STATIC
        ARGFRAME DOVERLAY, 0, STATIC
        FUNCALL zclSampleThermostat_ProcessFoundationMsg, zclParseInWriteCmd
        LOCFRAME ISTACK, 0, STACK
        LOCFRAME PSTACK, 0, STACK
        LOCFRAME XSTACK, 18, STACK
        LOCFRAME IOVERLAY, 0, STATIC
        LOCFRAME DOVERLAY, 0, STATIC
        ARGFRAME ISTACK, 0, STACK
        ARGFRAME PSTACK, 0, STACK
        ARGFRAME XSTACK, 18, STACK
        ARGFRAME IOVERLAY, 0, STATIC
        ARGFRAME DOVERLAY, 0, STATIC
        FUNCALL zclSampleThermostat_ProcessFoundationMsg, zcl_SendWriteRequest
        LOCFRAME ISTACK, 0, STACK
        LOCFRAME PSTACK, 0, STACK
        LOCFRAME XSTACK, 24, STACK
        LOCFRAME IOVERLAY, 0, STATIC
        LOCFRAME DOVERLAY, 0, STATIC
        ARGFRAME ISTACK, 0, STACK
        ARGFRAME PSTACK, 0, STACK
        ARGFRAME XSTACK, 24, STACK
        ARGFRAME IOVERLAY, 0, STATIC
        ARGFRAME DOVERLAY, 0, STATIC
        FUNCALL zclSampleThermostat_ProcessFoundationMsg, osal_mem_free
        LOCFRAME ISTACK, 0, STACK
        LOCFRAME PSTACK, 0, STACK
        LOCFRAME XSTACK, 18, STACK
        LOCFRAME IOVERLAY, 0, STATIC
        LOCFRAME DOVERLAY, 0, STATIC
        ARGFRAME ISTACK, 0, STACK
        ARGFRAME PSTACK, 0, STACK
        ARGFRAME XSTACK, 18, STACK
        ARGFRAME IOVERLAY, 0, STATIC
        ARGFRAME DOVERLAY, 0, STATIC
        FUNCALL zclSampleThermostat_ProcessFoundationMsg, zclParseInWriteCmd
        LOCFRAME ISTACK, 0, STACK
        LOCFRAME PSTACK, 0, STACK
        LOCFRAME XSTACK, 18, STACK
        LOCFRAME IOVERLAY, 0, STATIC
        LOCFRAME DOVERLAY, 0, STATIC
        ARGFRAME ISTACK, 0, STACK
        ARGFRAME PSTACK, 0, STACK
        ARGFRAME XSTACK, 18, STACK
        ARGFRAME IOVERLAY, 0, STATIC
        ARGFRAME DOVERLAY, 0, STATIC
        FUNCALL zclSampleThermostat_ProcessFoundationMsg, zcl_SendWriteRequest
        LOCFRAME ISTACK, 0, STACK
        LOCFRAME PSTACK, 0, STACK
        LOCFRAME XSTACK, 24, STACK
        LOCFRAME IOVERLAY, 0, STATIC
        LOCFRAME DOVERLAY, 0, STATIC
        ARGFRAME ISTACK, 0, STACK
        ARGFRAME PSTACK, 0, STACK
        ARGFRAME XSTACK, 24, STACK
        ARGFRAME IOVERLAY, 0, STATIC
        ARGFRAME DOVERLAY, 0, STATIC
        FUNCALL zclSampleThermostat_ProcessFoundationMsg, osal_mem_free
        LOCFRAME ISTACK, 0, STACK
        LOCFRAME PSTACK, 0, STACK
        LOCFRAME XSTACK, 18, STACK
        LOCFRAME IOVERLAY, 0, STATIC
        LOCFRAME DOVERLAY, 0, STATIC
        ARGFRAME ISTACK, 0, STACK
        ARGFRAME PSTACK, 0, STACK
        ARGFRAME XSTACK, 18, STACK
        ARGFRAME IOVERLAY, 0, STATIC
        ARGFRAME DOVERLAY, 0, STATIC
        FUNCALL zclSampleThermostat_ProcessFoundationMsg, zclParseInWriteCmd
        LOCFRAME ISTACK, 0, STACK
        LOCFRAME PSTACK, 0, STACK
        LOCFRAME XSTACK, 18, STACK
        LOCFRAME IOVERLAY, 0, STATIC
        LOCFRAME DOVERLAY, 0, STATIC
        ARGFRAME ISTACK, 0, STACK
        ARGFRAME PSTACK, 0, STACK
        ARGFRAME XSTACK, 18, STACK
        ARGFRAME IOVERLAY, 0, STATIC
        ARGFRAME DOVERLAY, 0, STATIC
        FUNCALL zclSampleThermostat_ProcessFoundationMsg, zcl_SendWriteRequest
        LOCFRAME ISTACK, 0, STACK
        LOCFRAME PSTACK, 0, STACK
        LOCFRAME XSTACK, 24, STACK
        LOCFRAME IOVERLAY, 0, STATIC
        LOCFRAME DOVERLAY, 0, STATIC
        ARGFRAME ISTACK, 0, STACK
        ARGFRAME PSTACK, 0, STACK
        ARGFRAME XSTACK, 24, STACK
        ARGFRAME IOVERLAY, 0, STATIC
        ARGFRAME DOVERLAY, 0, STATIC
        FUNCALL zclSampleThermostat_ProcessFoundationMsg, osal_mem_free
        LOCFRAME ISTACK, 0, STACK
        LOCFRAME PSTACK, 0, STACK
        LOCFRAME XSTACK, 18, STACK
        LOCFRAME IOVERLAY, 0, STATIC
        LOCFRAME DOVERLAY, 0, STATIC
        ARGFRAME ISTACK, 0, STACK
        ARGFRAME PSTACK, 0, STACK
        ARGFRAME XSTACK, 18, STACK
        ARGFRAME IOVERLAY, 0, STATIC
        ARGFRAME DOVERLAY, 0, STATIC
        FUNCALL zclSampleThermostat_ProcessFoundationMsg, zclParseInConfigReportCmd
        LOCFRAME ISTACK, 0, STACK
        LOCFRAME PSTACK, 0, STACK
        LOCFRAME XSTACK, 18, STACK
        LOCFRAME IOVERLAY, 0, STATIC
        LOCFRAME DOVERLAY, 0, STATIC
        ARGFRAME ISTACK, 0, STACK
        ARGFRAME PSTACK, 0, STACK
        ARGFRAME XSTACK, 18, STACK
        ARGFRAME IOVERLAY, 0, STATIC
        ARGFRAME DOVERLAY, 0, STATIC
        FUNCALL zclSampleThermostat_ProcessFoundationMsg, zcl_SendConfigReportCmd
        LOCFRAME ISTACK, 0, STACK
        LOCFRAME PSTACK, 0, STACK
        LOCFRAME XSTACK, 23, STACK
        LOCFRAME IOVERLAY, 0, STATIC
        LOCFRAME DOVERLAY, 0, STATIC
        ARGFRAME ISTACK, 0, STACK
        ARGFRAME PSTACK, 0, STACK
        ARGFRAME XSTACK, 23, STACK
        ARGFRAME IOVERLAY, 0, STATIC
        ARGFRAME DOVERLAY, 0, STATIC
        FUNCALL zclSampleThermostat_ProcessFoundationMsg, osal_mem_free
        LOCFRAME ISTACK, 0, STACK
        LOCFRAME PSTACK, 0, STACK
        LOCFRAME XSTACK, 18, STACK
        LOCFRAME IOVERLAY, 0, STATIC
        LOCFRAME DOVERLAY, 0, STATIC
        ARGFRAME ISTACK, 0, STACK
        ARGFRAME PSTACK, 0, STACK
        ARGFRAME XSTACK, 18, STACK
        ARGFRAME IOVERLAY, 0, STATIC
        ARGFRAME DOVERLAY, 0, STATIC
        FUNCALL zclSampleThermostat_ProcessFoundationMsg, zclParseInReadReportCfgCmd
        LOCFRAME ISTACK, 0, STACK
        LOCFRAME PSTACK, 0, STACK
        LOCFRAME XSTACK, 18, STACK
        LOCFRAME IOVERLAY, 0, STATIC
        LOCFRAME DOVERLAY, 0, STATIC
        ARGFRAME ISTACK, 0, STACK
        ARGFRAME PSTACK, 0, STACK
        ARGFRAME XSTACK, 18, STACK
        ARGFRAME IOVERLAY, 0, STATIC
        ARGFRAME DOVERLAY, 0, STATIC
        FUNCALL zclSampleThermostat_ProcessFoundationMsg, zcl_SendReadReportCfgCmd
        LOCFRAME ISTACK, 0, STACK
        LOCFRAME PSTACK, 0, STACK
        LOCFRAME XSTACK, 23, STACK
        LOCFRAME IOVERLAY, 0, STATIC
        LOCFRAME DOVERLAY, 0, STATIC
        ARGFRAME ISTACK, 0, STACK
        ARGFRAME PSTACK, 0, STACK
        ARGFRAME XSTACK, 23, STACK
        ARGFRAME IOVERLAY, 0, STATIC
        ARGFRAME DOVERLAY, 0, STATIC
        FUNCALL zclSampleThermostat_ProcessFoundationMsg, osal_mem_free
        LOCFRAME ISTACK, 0, STACK
        LOCFRAME PSTACK, 0, STACK
        LOCFRAME XSTACK, 18, STACK
        LOCFRAME IOVERLAY, 0, STATIC
        LOCFRAME DOVERLAY, 0, STATIC
        ARGFRAME ISTACK, 0, STACK
        ARGFRAME PSTACK, 0, STACK
        ARGFRAME XSTACK, 18, STACK
        ARGFRAME IOVERLAY, 0, STATIC
        ARGFRAME DOVERLAY, 0, STATIC
        FUNCALL zclSampleThermostat_ProcessFoundationMsg, zclParseInReportCmd
        LOCFRAME ISTACK, 0, STACK
        LOCFRAME PSTACK, 0, STACK
        LOCFRAME XSTACK, 18, STACK
        LOCFRAME IOVERLAY, 0, STATIC
        LOCFRAME DOVERLAY, 0, STATIC
        ARGFRAME ISTACK, 0, STACK
        ARGFRAME PSTACK, 0, STACK
        ARGFRAME XSTACK, 18, STACK
        ARGFRAME IOVERLAY, 0, STATIC
        ARGFRAME DOVERLAY, 0, STATIC
        FUNCALL zclSampleThermostat_ProcessFoundationMsg, zcl_SendReportCmd
        LOCFRAME ISTACK, 0, STACK
        LOCFRAME PSTACK, 0, STACK
        LOCFRAME XSTACK, 23, STACK
        LOCFRAME IOVERLAY, 0, STATIC
        LOCFRAME DOVERLAY, 0, STATIC
        ARGFRAME ISTACK, 0, STACK
        ARGFRAME PSTACK, 0, STACK
        ARGFRAME XSTACK, 23, STACK
        ARGFRAME IOVERLAY, 0, STATIC
        ARGFRAME DOVERLAY, 0, STATIC
        FUNCALL zclSampleThermostat_ProcessFoundationMsg, osal_mem_free
        LOCFRAME ISTACK, 0, STACK
        LOCFRAME PSTACK, 0, STACK
        LOCFRAME XSTACK, 18, STACK
        LOCFRAME IOVERLAY, 0, STATIC
        LOCFRAME DOVERLAY, 0, STATIC
        ARGFRAME ISTACK, 0, STACK
        ARGFRAME PSTACK, 0, STACK
        ARGFRAME XSTACK, 18, STACK
        ARGFRAME IOVERLAY, 0, STATIC
        ARGFRAME DOVERLAY, 0, STATIC
        FUNCALL zclSampleThermostat_ProcessFoundationMsg, zcl_SendCommand
        LOCFRAME ISTACK, 0, STACK
        LOCFRAME PSTACK, 0, STACK
        LOCFRAME XSTACK, 29, STACK
        LOCFRAME IOVERLAY, 0, STATIC
        LOCFRAME DOVERLAY, 0, STATIC
        ARGFRAME ISTACK, 0, STACK
        ARGFRAME PSTACK, 0, STACK
        ARGFRAME XSTACK, 29, STACK
        ARGFRAME IOVERLAY, 0, STATIC
        ARGFRAME DOVERLAY, 0, STATIC
        REQUIRE ?V0
        REQUIRE ?V1
        REQUIRE ?V2
        REQUIRE ?V3
        REQUIRE ?V4
        REQUIRE ?V5
        REQUIRE ?V6
        REQUIRE ?V7
        REQUIRE ?V8
        REQUIRE ?V9
        MOV     A,#-0x12
        LCALL   ?BANKED_ENTER_XDATA
          CFI DPH0 load(1, XDATA, add(CFA_XSP16, literal(-1)))
          CFI DPL0 load(1, XDATA, add(CFA_XSP16, literal(-2)))
          CFI ?BRET_EXT load(1, XDATA, add(CFA_XSP16, literal(-3)))
          CFI ?RET_HIGH load(1, XDATA, add(CFA_XSP16, literal(-4)))
          CFI ?RET_LOW load(1, XDATA, add(CFA_XSP16, literal(-5)))
          CFI R7 load(1, XDATA, add(CFA_XSP16, literal(-6)))
          CFI V9 load(1, XDATA, add(CFA_XSP16, literal(-7)))
          CFI V8 load(1, XDATA, add(CFA_XSP16, literal(-8)))
          CFI V7 load(1, XDATA, add(CFA_XSP16, literal(-9)))
          CFI V6 load(1, XDATA, add(CFA_XSP16, literal(-10)))
          CFI V5 load(1, XDATA, add(CFA_XSP16, literal(-11)))
          CFI V4 load(1, XDATA, add(CFA_XSP16, literal(-12)))
          CFI V3 load(1, XDATA, add(CFA_XSP16, literal(-13)))
          CFI V2 load(1, XDATA, add(CFA_XSP16, literal(-14)))
          CFI V1 load(1, XDATA, add(CFA_XSP16, literal(-15)))
          CFI V0 load(1, XDATA, add(CFA_XSP16, literal(-16)))
          CFI VB load(1, XDATA, add(CFA_XSP16, literal(-17)))
          CFI R6 load(1, XDATA, add(CFA_XSP16, literal(-18)))
          CFI CFA_SP SP+0
          CFI CFA_XSP16 add(XSP16, 18)
        ; Saved register size: 18
        ; Auto size: 0
        MOV     A,R2
        MOV     R6,A
        MOV     A,R3
        MOV     R7,A
        MOV     ?V0,R4
        MOV     ?V1,R5
        MOV     A,#0x12
        LCALL   ?XSTACK_DISP0_8
        MOVX    A,@DPTR
        MOV     ?V2,A
        INC     DPTR
        MOVX    A,@DPTR
        MOV     ?V3,A
// 1035 #if defined(ZCL_READ) || defined(ZCL_WRITE) || defined(ZCL_REPORT) || defined(ZCL_DISCOVER)
// 1036   void *cmd;
// 1037 #endif
// 1038 
// 1039   switch ( hdr->commandID )
        MOV     DPL,?V2
        MOV     DPH,A
        INC     DPTR
        INC     DPTR
        INC     DPTR
        INC     DPTR
        INC     DPTR
        MOVX    A,@DPTR
        MOV     R1,A
        MOV     A,?V2
        ADD     A,#0x4
        MOV     ?V4,A
        CLR     A
        ADDC    A,?V3
        MOV     ?V5,A
        MOV     A,#0x14
        LCALL   ?XSTACK_DISP0_8
        MOVX    A,@DPTR
        MOV     ?V6,A
        INC     DPTR
        MOVX    A,@DPTR
        MOV     ?V7,A
        MOV     A,R1
        JZ      ??zclSampleThermostat_ProcessFoundationMsg_0
        ADD     A,#-0x2
        JZ      ??zclSampleThermostat_ProcessFoundationMsg_1
        DEC     A
        JNZ     $+5
        LJMP    ??zclSampleThermostat_ProcessFoundationMsg_2 & 0xFFFF
        ADD     A,#-0x2
        JNZ     $+5
        LJMP    ??zclSampleThermostat_ProcessFoundationMsg_3 & 0xFFFF
        DEC     A
        JNZ     $+5
        LJMP    ??zclSampleThermostat_ProcessFoundationMsg_4 & 0xFFFF
        ADD     A,#-0x2
        JNZ     $+5
        LJMP    ??zclSampleThermostat_ProcessFoundationMsg_5 & 0xFFFF
        ADD     A,#-0x2
        JNZ     $+5
        LJMP    ??zclSampleThermostat_ProcessFoundationMsg_6 & 0xFFFF
        LJMP    ??zclSampleThermostat_ProcessFoundationMsg_7 & 0xFFFF
// 1040   {
// 1041 #ifdef ZCL_READ
// 1042     case ZCL_CMD_READ:
// 1043       cmd = zclParseInReadCmd( pParseCmd );
??zclSampleThermostat_ProcessFoundationMsg_0:
        ; Setup parameters for call to function zclParseInReadCmd
        MOV     R2,?V6
        MOV     R3,?V7
        LCALL   `??zclParseInReadCmd::?relay`; Banked call to: zclParseInReadCmd
        MOV     ?V6,R2
        MOV     ?V7,R3
// 1044       if ( cmd )
        MOV     A,R2
        ORL     A,?V7
        JNZ     $+5
        LJMP    ??zclSampleThermostat_ProcessFoundationMsg_8 & 0xFFFF
// 1045       {
// 1046         zcl_SendRead( SAMPLETHERMOSTAT_ENDPOINT, dstAddr, clusterID, (zclReadCmd_t *)cmd,
// 1047                       ZCL_FRAME_CLIENT_SERVER_DIR, hdr->fc.disableDefaultRsp, hdr->transSeqNum );
        ; Setup parameters for call to function zcl_SendRead
        LCALL   ?Subroutine14 & 0xFFFF
// 1048         osal_mem_free( cmd );
// 1049       }
??CrossCallReturnLabel_24:
        LCALL   ?PUSH_XSTACK_I_ONE
          CFI CFA_XSP16 add(XSP16, 19)
        LCALL   ?Subroutine11 & 0xFFFF
??CrossCallReturnLabel_8:
        LCALL   ?PUSH_XSTACK_I_ONE
          CFI CFA_XSP16 add(XSP16, 20)
        MOV     ?V2,#0x0
        MOV     R0,#?V2
        LCALL   ?PUSH_XSTACK_I_ONE
          CFI CFA_XSP16 add(XSP16, 21)
        MOV     R0,#?V6
        LCALL   ?PUSH_XSTACK_I_TWO
          CFI CFA_XSP16 add(XSP16, 23)
        MOV     R4,?V0
        MOV     R5,?V1
        MOV     A,R6
        MOV     R2,A
        MOV     A,R7
        MOV     R3,A
        MOV     R1,#0x8
        LCALL   `??zcl_SendRead::?relay`; Banked call to: zcl_SendRead
        LJMP    ??zclSampleThermostat_ProcessFoundationMsg_9 & 0xFFFF
          CFI CFA_XSP16 add(XSP16, 18)
// 1050       break;
// 1051 #endif // ZCL_READ
// 1052 
// 1053 #ifdef ZCL_WRITE
// 1054     case ZCL_CMD_WRITE:
// 1055       cmd = zclParseInWriteCmd( pParseCmd );
??zclSampleThermostat_ProcessFoundationMsg_1:
        ; Setup parameters for call to function zclParseInWriteCmd
        MOV     R2,?V6
        MOV     R3,?V7
        LCALL   `??zclParseInWriteCmd::?relay`; Banked call to: zclParseInWriteCmd
        MOV     ?V6,R2
        MOV     ?V7,R3
// 1056       if ( cmd )
        MOV     A,R2
        ORL     A,?V7
        JNZ     $+5
        LJMP    ??zclSampleThermostat_ProcessFoundationMsg_8 & 0xFFFF
// 1057       {
// 1058         zcl_SendWrite( SAMPLETHERMOSTAT_ENDPOINT, dstAddr, clusterID, (zclWriteCmd_t *)cmd,
// 1059                        ZCL_FRAME_CLIENT_SERVER_DIR, hdr->fc.disableDefaultRsp, hdr->transSeqNum );
        ; Setup parameters for call to function zcl_SendWriteRequest
        LCALL   ?Subroutine14 & 0xFFFF
// 1060         osal_mem_free( cmd );
// 1061       }
??CrossCallReturnLabel_25:
        LCALL   ?PUSH_XSTACK_I_ONE
          CFI CFA_XSP16 add(XSP16, 19)
        LCALL   ?Subroutine11 & 0xFFFF
??CrossCallReturnLabel_9:
        LCALL   ?PUSH_XSTACK_I_ONE
          CFI CFA_XSP16 add(XSP16, 20)
        MOV     ?V2,#0x0
        MOV     R0,#?V2
        LCALL   ?PUSH_XSTACK_I_ONE
          CFI CFA_XSP16 add(XSP16, 21)
        MOV     ?V2,#0x2
        SJMP    ??zclSampleThermostat_ProcessFoundationMsg_10
          CFI CFA_XSP16 add(XSP16, 18)
// 1062       break;
// 1063 
// 1064     case ZCL_CMD_WRITE_UNDIVIDED:
// 1065       cmd = zclParseInWriteCmd( pParseCmd );
??zclSampleThermostat_ProcessFoundationMsg_2:
        ; Setup parameters for call to function zclParseInWriteCmd
        MOV     R2,?V6
        MOV     R3,?V7
        LCALL   `??zclParseInWriteCmd::?relay`; Banked call to: zclParseInWriteCmd
        MOV     ?V6,R2
        MOV     ?V7,R3
// 1066       if ( cmd )
        MOV     A,R2
        ORL     A,?V7
        JNZ     $+5
        LJMP    ??zclSampleThermostat_ProcessFoundationMsg_8 & 0xFFFF
// 1067       {
// 1068         zcl_SendWriteUndivided( SAMPLETHERMOSTAT_ENDPOINT, dstAddr, clusterID, (zclWriteCmd_t *)cmd,
// 1069                                 ZCL_FRAME_CLIENT_SERVER_DIR, hdr->fc.disableDefaultRsp, hdr->transSeqNum );
        ; Setup parameters for call to function zcl_SendWriteRequest
        LCALL   ?Subroutine14 & 0xFFFF
// 1070         osal_mem_free( cmd );
// 1071       }
??CrossCallReturnLabel_26:
        LCALL   ?PUSH_XSTACK_I_ONE
          CFI CFA_XSP16 add(XSP16, 19)
        LCALL   ?Subroutine11 & 0xFFFF
??CrossCallReturnLabel_10:
        LCALL   ?PUSH_XSTACK_I_ONE
          CFI CFA_XSP16 add(XSP16, 20)
        MOV     ?V2,#0x0
        MOV     R0,#?V2
        LCALL   ?PUSH_XSTACK_I_ONE
          CFI CFA_XSP16 add(XSP16, 21)
        MOV     ?V2,#0x3
        SJMP    ??zclSampleThermostat_ProcessFoundationMsg_10
          CFI CFA_XSP16 add(XSP16, 18)
// 1072       break;
// 1073 
// 1074     case ZCL_CMD_WRITE_NO_RSP:
// 1075       cmd = zclParseInWriteCmd( pParseCmd );
??zclSampleThermostat_ProcessFoundationMsg_3:
        ; Setup parameters for call to function zclParseInWriteCmd
        MOV     R2,?V6
        MOV     R3,?V7
        LCALL   `??zclParseInWriteCmd::?relay`; Banked call to: zclParseInWriteCmd
        MOV     ?V6,R2
        MOV     ?V7,R3
// 1076       if ( cmd )
        MOV     A,R2
        ORL     A,?V7
        JNZ     $+5
        LJMP    ??zclSampleThermostat_ProcessFoundationMsg_8 & 0xFFFF
// 1077       {
// 1078         zcl_SendWriteNoRsp( SAMPLETHERMOSTAT_ENDPOINT, dstAddr, clusterID, (zclWriteCmd_t *)cmd,
// 1079                             ZCL_FRAME_CLIENT_SERVER_DIR, hdr->fc.disableDefaultRsp, hdr->transSeqNum );
        ; Setup parameters for call to function zcl_SendWriteRequest
        LCALL   ?Subroutine14 & 0xFFFF
??CrossCallReturnLabel_27:
        LCALL   ?PUSH_XSTACK_I_ONE
          CFI CFA_XSP16 add(XSP16, 19)
        LCALL   ?Subroutine11 & 0xFFFF
??CrossCallReturnLabel_11:
        LCALL   ?PUSH_XSTACK_I_ONE
          CFI CFA_XSP16 add(XSP16, 20)
        MOV     ?V2,#0x0
        MOV     R0,#?V2
        LCALL   ?PUSH_XSTACK_I_ONE
          CFI CFA_XSP16 add(XSP16, 21)
        MOV     ?V2,#0x5
??zclSampleThermostat_ProcessFoundationMsg_10:
        MOV     R0,#?V2
        LCALL   ?PUSH_XSTACK_I_ONE
          CFI CFA_XSP16 add(XSP16, 22)
        MOV     R0,#?V6
        LCALL   ?PUSH_XSTACK_I_TWO
          CFI CFA_XSP16 add(XSP16, 24)
        MOV     R4,?V0
        MOV     R5,?V1
        MOV     A,R6
        MOV     R2,A
        MOV     A,R7
        MOV     R3,A
        MOV     R1,#0x8
        LCALL   `??zcl_SendWriteRequest::?relay`; Banked call to: zcl_SendWriteRequest
        MOV     A,#0x6
        LCALL   ?DEALLOC_XSTACK8
          CFI CFA_XSP16 add(XSP16, 18)
// 1080         osal_mem_free( cmd );
        ; Setup parameters for call to function osal_mem_free
        LJMP    ??zclSampleThermostat_ProcessFoundationMsg_11 & 0xFFFF
// 1081       }
// 1082       break;
// 1083 #endif // ZCL_WRITE
// 1084 
// 1085 #ifdef ZCL_REPORT
// 1086     case ZCL_CMD_CONFIG_REPORT:
// 1087       cmd = zclParseInConfigReportCmd( pParseCmd );
??zclSampleThermostat_ProcessFoundationMsg_4:
        ; Setup parameters for call to function zclParseInConfigReportCmd
        MOV     R2,?V6
        MOV     R3,?V7
        LCALL   `??zclParseInConfigReportCmd::?relay`; Banked call to: zclParseInConfigReportCmd
        MOV     ?V6,R2
        MOV     ?V7,R3
// 1088       if ( cmd )
        MOV     A,R2
        ORL     A,?V7
        JNZ     $+5
        LJMP    ??zclSampleThermostat_ProcessFoundationMsg_8 & 0xFFFF
// 1089       {
// 1090         zcl_SendConfigReportCmd( SAMPLETHERMOSTAT_ENDPOINT, dstAddr,  clusterID, (zclCfgReportCmd_t *)cmd,
// 1091                                  ZCL_FRAME_CLIENT_SERVER_DIR, hdr->fc.disableDefaultRsp, hdr->transSeqNum );
        ; Setup parameters for call to function zcl_SendConfigReportCmd
        LCALL   ?Subroutine14 & 0xFFFF
// 1092         osal_mem_free( cmd );
// 1093       }
??CrossCallReturnLabel_28:
        LCALL   ?PUSH_XSTACK_I_ONE
          CFI CFA_XSP16 add(XSP16, 19)
        LCALL   ?Subroutine11 & 0xFFFF
??CrossCallReturnLabel_12:
        LCALL   ?PUSH_XSTACK_I_ONE
          CFI CFA_XSP16 add(XSP16, 20)
        MOV     ?V2,#0x0
        MOV     R0,#?V2
        LCALL   ?PUSH_XSTACK_I_ONE
          CFI CFA_XSP16 add(XSP16, 21)
        MOV     R0,#?V6
        LCALL   ?PUSH_XSTACK_I_TWO
          CFI CFA_XSP16 add(XSP16, 23)
        MOV     R4,?V0
        MOV     R5,?V1
        MOV     A,R6
        MOV     R2,A
        MOV     A,R7
        MOV     R3,A
        MOV     R1,#0x8
        LCALL   `??zcl_SendConfigReportCmd::?relay`; Banked call to: zcl_SendConfigReportCmd
        SJMP    ??zclSampleThermostat_ProcessFoundationMsg_9
          CFI CFA_XSP16 add(XSP16, 18)
// 1094       break;
// 1095 
// 1096     case ZCL_CMD_READ_REPORT_CFG:
// 1097       cmd = zclParseInReadReportCfgCmd( pParseCmd );
??zclSampleThermostat_ProcessFoundationMsg_5:
        ; Setup parameters for call to function zclParseInReadReportCfgCmd
        MOV     R2,?V6
        MOV     R3,?V7
        LCALL   `??zclParseInReadReportCfgCmd::?relay`; Banked call to: zclParseInReadReportCfgCmd
        MOV     ?V6,R2
        MOV     ?V7,R3
// 1098       if ( cmd )
        MOV     A,R2
        ORL     A,?V7
        JNZ     $+5
        LJMP    ??zclSampleThermostat_ProcessFoundationMsg_8 & 0xFFFF
// 1099       {
// 1100         zcl_SendReadReportCfgCmd( SAMPLETHERMOSTAT_ENDPOINT, dstAddr, clusterID, (zclReadReportCfgCmd_t *)cmd,
// 1101                                   ZCL_FRAME_CLIENT_SERVER_DIR, hdr->fc.disableDefaultRsp, hdr->transSeqNum );
        ; Setup parameters for call to function zcl_SendReadReportCfgCmd
        LCALL   ?Subroutine14 & 0xFFFF
// 1102         osal_mem_free( cmd );
// 1103       }
??CrossCallReturnLabel_29:
        LCALL   ?PUSH_XSTACK_I_ONE
          CFI CFA_XSP16 add(XSP16, 19)
        LCALL   ?Subroutine11 & 0xFFFF
??CrossCallReturnLabel_13:
        LCALL   ?PUSH_XSTACK_I_ONE
          CFI CFA_XSP16 add(XSP16, 20)
        MOV     ?V2,#0x0
        MOV     R0,#?V2
        LCALL   ?PUSH_XSTACK_I_ONE
          CFI CFA_XSP16 add(XSP16, 21)
        MOV     R0,#?V6
        LCALL   ?PUSH_XSTACK_I_TWO
          CFI CFA_XSP16 add(XSP16, 23)
        MOV     R4,?V0
        MOV     R5,?V1
        MOV     A,R6
        MOV     R2,A
        MOV     A,R7
        MOV     R3,A
        MOV     R1,#0x8
        LCALL   `??zcl_SendReadReportCfgCmd::?relay`; Banked call to: zcl_SendReadReportCfgCmd
        SJMP    ??zclSampleThermostat_ProcessFoundationMsg_9
          CFI CFA_XSP16 add(XSP16, 18)
// 1104       break;
// 1105 
// 1106     case ZCL_CMD_REPORT:
// 1107       cmd = zclParseInReportCmd( pParseCmd );
??zclSampleThermostat_ProcessFoundationMsg_6:
        ; Setup parameters for call to function zclParseInReportCmd
        MOV     R2,?V6
        MOV     R3,?V7
        LCALL   `??zclParseInReportCmd::?relay`; Banked call to: zclParseInReportCmd
        MOV     ?V6,R2
        MOV     ?V7,R3
// 1108       if ( cmd )
        MOV     A,R2
        ORL     A,?V7
        JNZ     $+5
        LJMP    ??zclSampleThermostat_ProcessFoundationMsg_8 & 0xFFFF
// 1109       {
// 1110         zcl_SendReportCmd( SAMPLETHERMOSTAT_ENDPOINT, dstAddr, clusterID, (zclReportCmd_t *)cmd,
// 1111                            ZCL_FRAME_CLIENT_SERVER_DIR, hdr->fc.disableDefaultRsp, hdr->transSeqNum );
        ; Setup parameters for call to function zcl_SendReportCmd
        LCALL   ?Subroutine14 & 0xFFFF
??CrossCallReturnLabel_30:
        LCALL   ?PUSH_XSTACK_I_ONE
          CFI CFA_XSP16 add(XSP16, 19)
        LCALL   ?Subroutine11 & 0xFFFF
??CrossCallReturnLabel_14:
        LCALL   ?PUSH_XSTACK_I_ONE
          CFI CFA_XSP16 add(XSP16, 20)
        MOV     ?V2,#0x0
        MOV     R0,#?V2
        LCALL   ?PUSH_XSTACK_I_ONE
          CFI CFA_XSP16 add(XSP16, 21)
        MOV     R0,#?V6
        LCALL   ?PUSH_XSTACK_I_TWO
          CFI CFA_XSP16 add(XSP16, 23)
        MOV     R4,?V0
        MOV     R5,?V1
        MOV     A,R6
        MOV     R2,A
        MOV     A,R7
        MOV     R3,A
        MOV     R1,#0x8
        LCALL   `??zcl_SendReportCmd::?relay`; Banked call to: zcl_SendReportCmd
??zclSampleThermostat_ProcessFoundationMsg_9:
        MOV     A,#0x5
        LCALL   ?DEALLOC_XSTACK8
          CFI CFA_XSP16 add(XSP16, 18)
// 1112         osal_mem_free( cmd );
        ; Setup parameters for call to function osal_mem_free
??zclSampleThermostat_ProcessFoundationMsg_11:
        MOV     R2,?V6
        MOV     R3,?V7
        LCALL   `??osal_mem_free::?relay`; Banked call to: osal_mem_free
        SJMP    ??zclSampleThermostat_ProcessFoundationMsg_8
// 1113       }
// 1114       break;
// 1115 #endif // ZCL_REPORT
// 1116 #ifdef ZCL_DISCOVER
// 1117     case ZCL_CMD_DISCOVER_ATTRS:
// 1118       cmd = zclParseInDiscAttrsCmd( pParseCmd );
// 1119       if ( cmd )
// 1120       {
// 1121         zcl_SendDiscoverAttrsCmd( SAMPLETHERMOSTAT_ENDPOINT, dstAddr, clusterID, (zclDiscoverAttrsCmd_t *)cmd,
// 1122                                   ZCL_FRAME_CLIENT_SERVER_DIR, hdr->fc.disableDefaultRsp, hdr->transSeqNum );
// 1123         osal_mem_free( cmd );
// 1124       }
// 1125       break;
// 1126 #endif // ZCL_DISCOVER
// 1127 
// 1128     default:
// 1129       // Unsupported command -- just forward it.
// 1130       zcl_SendCommand( pParseCmd->endpoint, dstAddr, clusterID, hdr->commandID, FALSE, ZCL_FRAME_CLIENT_SERVER_DIR,
// 1131                        hdr->fc.disableDefaultRsp, 0, hdr->transSeqNum, pParseCmd->dataLen, pParseCmd->pData );
??zclSampleThermostat_ProcessFoundationMsg_7:
        ; Setup parameters for call to function zcl_SendCommand
        MOV     DPL,?V6
        MOV     DPH,?V7
        INC     DPTR
        INC     DPTR
        INC     DPTR
        LCALL   ?PUSH_XSTACK8_X_TWO
          CFI CFA_XSP16 add(XSP16, 20)
        MOV     DPL,?V6
        MOV     DPH,?V7
        INC     DPTR
        LCALL   ?PUSH_XSTACK8_X_TWO
          CFI CFA_XSP16 add(XSP16, 22)
        LCALL   ?Subroutine14 & 0xFFFF
??CrossCallReturnLabel_31:
        LCALL   ?PUSH_XSTACK_I_ONE
          CFI CFA_XSP16 add(XSP16, 23)
        CLR     A
        MOV     ?V4,A
        MOV     ?V5,A
        MOV     R0,#?V4
        LCALL   ?PUSH_XSTACK_I_TWO
          CFI CFA_XSP16 add(XSP16, 25)
        LCALL   ?Subroutine11 & 0xFFFF
??CrossCallReturnLabel_15:
        LCALL   ?PUSH_XSTACK_I_ONE
          CFI CFA_XSP16 add(XSP16, 26)
        MOV     ?V2,#0x0
        MOV     R0,#?V2
        LCALL   ?PUSH_XSTACK_I_ONE
          CFI CFA_XSP16 add(XSP16, 27)
        MOV     R0,#?V2
        LCALL   ?PUSH_XSTACK_I_ONE
          CFI CFA_XSP16 add(XSP16, 28)
        MOV     A,R1
        MOV     ?V2,A
        MOV     R0,#?V2
        LCALL   ?PUSH_XSTACK_I_ONE
          CFI CFA_XSP16 add(XSP16, 29)
        MOV     DPL,?V6
        MOV     DPH,?V7
        MOVX    A,@DPTR
        MOV     R1,A
        LCALL   `??zcl_SendCommand::?relay`; Banked call to: zcl_SendCommand
        MOV     A,#0xb
        LCALL   ?DEALLOC_XSTACK8
          CFI CFA_XSP16 add(XSP16, 18)
// 1132       break;
// 1133   }
// 1134 }
??zclSampleThermostat_ProcessFoundationMsg_8:
        LJMP    ?Subroutine2 & 0xFFFF
          CFI EndBlock cfiBlock44

        RSEG BANKED_CODE:HUGECODE:NOROOT(0)
?Subroutine14:
          CFI Block cfiCond45 Using cfiCommon0
          CFI Function zclSampleThermostat_ProcessFoundationMsg
          CFI Conditional ??CrossCallReturnLabel_24
          CFI R6 load(1, XDATA, add(CFA_XSP16, literal(-18)))
          CFI VB load(1, XDATA, add(CFA_XSP16, literal(-17)))
          CFI V0 load(1, XDATA, add(CFA_XSP16, literal(-16)))
          CFI V1 load(1, XDATA, add(CFA_XSP16, literal(-15)))
          CFI V2 load(1, XDATA, add(CFA_XSP16, literal(-14)))
          CFI V3 load(1, XDATA, add(CFA_XSP16, literal(-13)))
          CFI V4 load(1, XDATA, add(CFA_XSP16, literal(-12)))
          CFI V5 load(1, XDATA, add(CFA_XSP16, literal(-11)))
          CFI V6 load(1, XDATA, add(CFA_XSP16, literal(-10)))
          CFI V7 load(1, XDATA, add(CFA_XSP16, literal(-9)))
          CFI V8 load(1, XDATA, add(CFA_XSP16, literal(-8)))
          CFI V9 load(1, XDATA, add(CFA_XSP16, literal(-7)))
          CFI R7 load(1, XDATA, add(CFA_XSP16, literal(-6)))
          CFI ?RET_LOW load(1, XDATA, add(CFA_XSP16, literal(-5)))
          CFI ?RET_HIGH load(1, XDATA, add(CFA_XSP16, literal(-4)))
          CFI ?BRET_EXT load(1, XDATA, add(CFA_XSP16, literal(-3)))
          CFI DPL0 load(1, XDATA, add(CFA_XSP16, literal(-2)))
          CFI DPH0 load(1, XDATA, add(CFA_XSP16, literal(-1)))
          CFI CFA_SP SP+-2
          CFI CFA_XSP16 add(XSP16, 18)
          CFI Block cfiCond46 Using cfiCommon0
          CFI (cfiCond46) Function zclSampleThermostat_ProcessFoundationMsg
          CFI (cfiCond46) Conditional ??CrossCallReturnLabel_25
          CFI (cfiCond46) R6 load(1, XDATA, add(CFA_XSP16, literal(-18)))
          CFI (cfiCond46) VB load(1, XDATA, add(CFA_XSP16, literal(-17)))
          CFI (cfiCond46) V0 load(1, XDATA, add(CFA_XSP16, literal(-16)))
          CFI (cfiCond46) V1 load(1, XDATA, add(CFA_XSP16, literal(-15)))
          CFI (cfiCond46) V2 load(1, XDATA, add(CFA_XSP16, literal(-14)))
          CFI (cfiCond46) V3 load(1, XDATA, add(CFA_XSP16, literal(-13)))
          CFI (cfiCond46) V4 load(1, XDATA, add(CFA_XSP16, literal(-12)))
          CFI (cfiCond46) V5 load(1, XDATA, add(CFA_XSP16, literal(-11)))
          CFI (cfiCond46) V6 load(1, XDATA, add(CFA_XSP16, literal(-10)))
          CFI (cfiCond46) V7 load(1, XDATA, add(CFA_XSP16, literal(-9)))
          CFI (cfiCond46) V8 load(1, XDATA, add(CFA_XSP16, literal(-8)))
          CFI (cfiCond46) V9 load(1, XDATA, add(CFA_XSP16, literal(-7)))
          CFI (cfiCond46) R7 load(1, XDATA, add(CFA_XSP16, literal(-6)))
          CFI (cfiCond46) ?RET_LOW load(1, XDATA, add(CFA_XSP16, literal(-5)))
          CFI (cfiCond46) ?RET_HIGH load(1, XDATA, add(CFA_XSP16, literal(-4)))
          CFI (cfiCond46) ?BRET_EXT load(1, XDATA, add(CFA_XSP16, literal(-3)))
          CFI (cfiCond46) DPL0 load(1, XDATA, add(CFA_XSP16, literal(-2)))
          CFI (cfiCond46) DPH0 load(1, XDATA, add(CFA_XSP16, literal(-1)))
          CFI (cfiCond46) CFA_SP SP+-2
          CFI (cfiCond46) CFA_XSP16 add(XSP16, 18)
          CFI Block cfiCond47 Using cfiCommon0
          CFI (cfiCond47) Function zclSampleThermostat_ProcessFoundationMsg
          CFI (cfiCond47) Conditional ??CrossCallReturnLabel_26
          CFI (cfiCond47) R6 load(1, XDATA, add(CFA_XSP16, literal(-18)))
          CFI (cfiCond47) VB load(1, XDATA, add(CFA_XSP16, literal(-17)))
          CFI (cfiCond47) V0 load(1, XDATA, add(CFA_XSP16, literal(-16)))
          CFI (cfiCond47) V1 load(1, XDATA, add(CFA_XSP16, literal(-15)))
          CFI (cfiCond47) V2 load(1, XDATA, add(CFA_XSP16, literal(-14)))
          CFI (cfiCond47) V3 load(1, XDATA, add(CFA_XSP16, literal(-13)))
          CFI (cfiCond47) V4 load(1, XDATA, add(CFA_XSP16, literal(-12)))
          CFI (cfiCond47) V5 load(1, XDATA, add(CFA_XSP16, literal(-11)))
          CFI (cfiCond47) V6 load(1, XDATA, add(CFA_XSP16, literal(-10)))
          CFI (cfiCond47) V7 load(1, XDATA, add(CFA_XSP16, literal(-9)))
          CFI (cfiCond47) V8 load(1, XDATA, add(CFA_XSP16, literal(-8)))
          CFI (cfiCond47) V9 load(1, XDATA, add(CFA_XSP16, literal(-7)))
          CFI (cfiCond47) R7 load(1, XDATA, add(CFA_XSP16, literal(-6)))
          CFI (cfiCond47) ?RET_LOW load(1, XDATA, add(CFA_XSP16, literal(-5)))
          CFI (cfiCond47) ?RET_HIGH load(1, XDATA, add(CFA_XSP16, literal(-4)))
          CFI (cfiCond47) ?BRET_EXT load(1, XDATA, add(CFA_XSP16, literal(-3)))
          CFI (cfiCond47) DPL0 load(1, XDATA, add(CFA_XSP16, literal(-2)))
          CFI (cfiCond47) DPH0 load(1, XDATA, add(CFA_XSP16, literal(-1)))
          CFI (cfiCond47) CFA_SP SP+-2
          CFI (cfiCond47) CFA_XSP16 add(XSP16, 18)
          CFI Block cfiCond48 Using cfiCommon0
          CFI (cfiCond48) Function zclSampleThermostat_ProcessFoundationMsg
          CFI (cfiCond48) Conditional ??CrossCallReturnLabel_27
          CFI (cfiCond48) R6 load(1, XDATA, add(CFA_XSP16, literal(-18)))
          CFI (cfiCond48) VB load(1, XDATA, add(CFA_XSP16, literal(-17)))
          CFI (cfiCond48) V0 load(1, XDATA, add(CFA_XSP16, literal(-16)))
          CFI (cfiCond48) V1 load(1, XDATA, add(CFA_XSP16, literal(-15)))
          CFI (cfiCond48) V2 load(1, XDATA, add(CFA_XSP16, literal(-14)))
          CFI (cfiCond48) V3 load(1, XDATA, add(CFA_XSP16, literal(-13)))
          CFI (cfiCond48) V4 load(1, XDATA, add(CFA_XSP16, literal(-12)))
          CFI (cfiCond48) V5 load(1, XDATA, add(CFA_XSP16, literal(-11)))
          CFI (cfiCond48) V6 load(1, XDATA, add(CFA_XSP16, literal(-10)))
          CFI (cfiCond48) V7 load(1, XDATA, add(CFA_XSP16, literal(-9)))
          CFI (cfiCond48) V8 load(1, XDATA, add(CFA_XSP16, literal(-8)))
          CFI (cfiCond48) V9 load(1, XDATA, add(CFA_XSP16, literal(-7)))
          CFI (cfiCond48) R7 load(1, XDATA, add(CFA_XSP16, literal(-6)))
          CFI (cfiCond48) ?RET_LOW load(1, XDATA, add(CFA_XSP16, literal(-5)))
          CFI (cfiCond48) ?RET_HIGH load(1, XDATA, add(CFA_XSP16, literal(-4)))
          CFI (cfiCond48) ?BRET_EXT load(1, XDATA, add(CFA_XSP16, literal(-3)))
          CFI (cfiCond48) DPL0 load(1, XDATA, add(CFA_XSP16, literal(-2)))
          CFI (cfiCond48) DPH0 load(1, XDATA, add(CFA_XSP16, literal(-1)))
          CFI (cfiCond48) CFA_SP SP+-2
          CFI (cfiCond48) CFA_XSP16 add(XSP16, 18)
          CFI Block cfiCond49 Using cfiCommon0
          CFI (cfiCond49) Function zclSampleThermostat_ProcessFoundationMsg
          CFI (cfiCond49) Conditional ??CrossCallReturnLabel_28
          CFI (cfiCond49) R6 load(1, XDATA, add(CFA_XSP16, literal(-18)))
          CFI (cfiCond49) VB load(1, XDATA, add(CFA_XSP16, literal(-17)))
          CFI (cfiCond49) V0 load(1, XDATA, add(CFA_XSP16, literal(-16)))
          CFI (cfiCond49) V1 load(1, XDATA, add(CFA_XSP16, literal(-15)))
          CFI (cfiCond49) V2 load(1, XDATA, add(CFA_XSP16, literal(-14)))
          CFI (cfiCond49) V3 load(1, XDATA, add(CFA_XSP16, literal(-13)))
          CFI (cfiCond49) V4 load(1, XDATA, add(CFA_XSP16, literal(-12)))
          CFI (cfiCond49) V5 load(1, XDATA, add(CFA_XSP16, literal(-11)))
          CFI (cfiCond49) V6 load(1, XDATA, add(CFA_XSP16, literal(-10)))
          CFI (cfiCond49) V7 load(1, XDATA, add(CFA_XSP16, literal(-9)))
          CFI (cfiCond49) V8 load(1, XDATA, add(CFA_XSP16, literal(-8)))
          CFI (cfiCond49) V9 load(1, XDATA, add(CFA_XSP16, literal(-7)))
          CFI (cfiCond49) R7 load(1, XDATA, add(CFA_XSP16, literal(-6)))
          CFI (cfiCond49) ?RET_LOW load(1, XDATA, add(CFA_XSP16, literal(-5)))
          CFI (cfiCond49) ?RET_HIGH load(1, XDATA, add(CFA_XSP16, literal(-4)))
          CFI (cfiCond49) ?BRET_EXT load(1, XDATA, add(CFA_XSP16, literal(-3)))
          CFI (cfiCond49) DPL0 load(1, XDATA, add(CFA_XSP16, literal(-2)))
          CFI (cfiCond49) DPH0 load(1, XDATA, add(CFA_XSP16, literal(-1)))
          CFI (cfiCond49) CFA_SP SP+-2
          CFI (cfiCond49) CFA_XSP16 add(XSP16, 18)
          CFI Block cfiCond50 Using cfiCommon0
          CFI (cfiCond50) Function zclSampleThermostat_ProcessFoundationMsg
          CFI (cfiCond50) Conditional ??CrossCallReturnLabel_29
          CFI (cfiCond50) R6 load(1, XDATA, add(CFA_XSP16, literal(-18)))
          CFI (cfiCond50) VB load(1, XDATA, add(CFA_XSP16, literal(-17)))
          CFI (cfiCond50) V0 load(1, XDATA, add(CFA_XSP16, literal(-16)))
          CFI (cfiCond50) V1 load(1, XDATA, add(CFA_XSP16, literal(-15)))
          CFI (cfiCond50) V2 load(1, XDATA, add(CFA_XSP16, literal(-14)))
          CFI (cfiCond50) V3 load(1, XDATA, add(CFA_XSP16, literal(-13)))
          CFI (cfiCond50) V4 load(1, XDATA, add(CFA_XSP16, literal(-12)))
          CFI (cfiCond50) V5 load(1, XDATA, add(CFA_XSP16, literal(-11)))
          CFI (cfiCond50) V6 load(1, XDATA, add(CFA_XSP16, literal(-10)))
          CFI (cfiCond50) V7 load(1, XDATA, add(CFA_XSP16, literal(-9)))
          CFI (cfiCond50) V8 load(1, XDATA, add(CFA_XSP16, literal(-8)))
          CFI (cfiCond50) V9 load(1, XDATA, add(CFA_XSP16, literal(-7)))
          CFI (cfiCond50) R7 load(1, XDATA, add(CFA_XSP16, literal(-6)))
          CFI (cfiCond50) ?RET_LOW load(1, XDATA, add(CFA_XSP16, literal(-5)))
          CFI (cfiCond50) ?RET_HIGH load(1, XDATA, add(CFA_XSP16, literal(-4)))
          CFI (cfiCond50) ?BRET_EXT load(1, XDATA, add(CFA_XSP16, literal(-3)))
          CFI (cfiCond50) DPL0 load(1, XDATA, add(CFA_XSP16, literal(-2)))
          CFI (cfiCond50) DPH0 load(1, XDATA, add(CFA_XSP16, literal(-1)))
          CFI (cfiCond50) CFA_SP SP+-2
          CFI (cfiCond50) CFA_XSP16 add(XSP16, 18)
          CFI Block cfiCond51 Using cfiCommon0
          CFI (cfiCond51) Function zclSampleThermostat_ProcessFoundationMsg
          CFI (cfiCond51) Conditional ??CrossCallReturnLabel_30
          CFI (cfiCond51) R6 load(1, XDATA, add(CFA_XSP16, literal(-18)))
          CFI (cfiCond51) VB load(1, XDATA, add(CFA_XSP16, literal(-17)))
          CFI (cfiCond51) V0 load(1, XDATA, add(CFA_XSP16, literal(-16)))
          CFI (cfiCond51) V1 load(1, XDATA, add(CFA_XSP16, literal(-15)))
          CFI (cfiCond51) V2 load(1, XDATA, add(CFA_XSP16, literal(-14)))
          CFI (cfiCond51) V3 load(1, XDATA, add(CFA_XSP16, literal(-13)))
          CFI (cfiCond51) V4 load(1, XDATA, add(CFA_XSP16, literal(-12)))
          CFI (cfiCond51) V5 load(1, XDATA, add(CFA_XSP16, literal(-11)))
          CFI (cfiCond51) V6 load(1, XDATA, add(CFA_XSP16, literal(-10)))
          CFI (cfiCond51) V7 load(1, XDATA, add(CFA_XSP16, literal(-9)))
          CFI (cfiCond51) V8 load(1, XDATA, add(CFA_XSP16, literal(-8)))
          CFI (cfiCond51) V9 load(1, XDATA, add(CFA_XSP16, literal(-7)))
          CFI (cfiCond51) R7 load(1, XDATA, add(CFA_XSP16, literal(-6)))
          CFI (cfiCond51) ?RET_LOW load(1, XDATA, add(CFA_XSP16, literal(-5)))
          CFI (cfiCond51) ?RET_HIGH load(1, XDATA, add(CFA_XSP16, literal(-4)))
          CFI (cfiCond51) ?BRET_EXT load(1, XDATA, add(CFA_XSP16, literal(-3)))
          CFI (cfiCond51) DPL0 load(1, XDATA, add(CFA_XSP16, literal(-2)))
          CFI (cfiCond51) DPH0 load(1, XDATA, add(CFA_XSP16, literal(-1)))
          CFI (cfiCond51) CFA_SP SP+-2
          CFI (cfiCond51) CFA_XSP16 add(XSP16, 18)
          CFI Block cfiCond52 Using cfiCommon0
          CFI (cfiCond52) Function zclSampleThermostat_ProcessFoundationMsg
          CFI (cfiCond52) Conditional ??CrossCallReturnLabel_31
          CFI (cfiCond52) R6 load(1, XDATA, add(CFA_XSP16, literal(-18)))
          CFI (cfiCond52) VB load(1, XDATA, add(CFA_XSP16, literal(-17)))
          CFI (cfiCond52) V0 load(1, XDATA, add(CFA_XSP16, literal(-16)))
          CFI (cfiCond52) V1 load(1, XDATA, add(CFA_XSP16, literal(-15)))
          CFI (cfiCond52) V2 load(1, XDATA, add(CFA_XSP16, literal(-14)))
          CFI (cfiCond52) V3 load(1, XDATA, add(CFA_XSP16, literal(-13)))
          CFI (cfiCond52) V4 load(1, XDATA, add(CFA_XSP16, literal(-12)))
          CFI (cfiCond52) V5 load(1, XDATA, add(CFA_XSP16, literal(-11)))
          CFI (cfiCond52) V6 load(1, XDATA, add(CFA_XSP16, literal(-10)))
          CFI (cfiCond52) V7 load(1, XDATA, add(CFA_XSP16, literal(-9)))
          CFI (cfiCond52) V8 load(1, XDATA, add(CFA_XSP16, literal(-8)))
          CFI (cfiCond52) V9 load(1, XDATA, add(CFA_XSP16, literal(-7)))
          CFI (cfiCond52) R7 load(1, XDATA, add(CFA_XSP16, literal(-6)))
          CFI (cfiCond52) ?RET_LOW load(1, XDATA, add(CFA_XSP16, literal(-5)))
          CFI (cfiCond52) ?RET_HIGH load(1, XDATA, add(CFA_XSP16, literal(-4)))
          CFI (cfiCond52) ?BRET_EXT load(1, XDATA, add(CFA_XSP16, literal(-3)))
          CFI (cfiCond52) DPL0 load(1, XDATA, add(CFA_XSP16, literal(-2)))
          CFI (cfiCond52) DPH0 load(1, XDATA, add(CFA_XSP16, literal(-1)))
          CFI (cfiCond52) CFA_SP SP+-2
          CFI (cfiCond52) CFA_XSP16 add(XSP16, 22)
          CFI Block cfiPicker53 Using cfiCommon1
          CFI (cfiPicker53) NoFunction
          CFI (cfiPicker53) Picker
        MOV     DPL,?V4
        MOV     DPH,?V5
        MOVX    A,@DPTR
        MOV     ?V4,A
        MOV     R0,#?V4
        RET
          CFI EndBlock cfiCond45
          CFI EndBlock cfiCond46
          CFI EndBlock cfiCond47
          CFI EndBlock cfiCond48
          CFI EndBlock cfiCond49
          CFI EndBlock cfiCond50
          CFI EndBlock cfiCond51
          CFI EndBlock cfiCond52
          CFI EndBlock cfiPicker53

        RSEG BANKED_CODE:HUGECODE:NOROOT(0)
?Subroutine11:
          CFI Block cfiCond54 Using cfiCommon0
          CFI Function zclSampleThermostat_ProcessFoundationMsg
          CFI Conditional ??CrossCallReturnLabel_8
          CFI R6 load(1, XDATA, add(CFA_XSP16, literal(-18)))
          CFI VB load(1, XDATA, add(CFA_XSP16, literal(-17)))
          CFI V0 load(1, XDATA, add(CFA_XSP16, literal(-16)))
          CFI V1 load(1, XDATA, add(CFA_XSP16, literal(-15)))
          CFI V2 load(1, XDATA, add(CFA_XSP16, literal(-14)))
          CFI V3 load(1, XDATA, add(CFA_XSP16, literal(-13)))
          CFI V4 load(1, XDATA, add(CFA_XSP16, literal(-12)))
          CFI V5 load(1, XDATA, add(CFA_XSP16, literal(-11)))
          CFI V6 load(1, XDATA, add(CFA_XSP16, literal(-10)))
          CFI V7 load(1, XDATA, add(CFA_XSP16, literal(-9)))
          CFI V8 load(1, XDATA, add(CFA_XSP16, literal(-8)))
          CFI V9 load(1, XDATA, add(CFA_XSP16, literal(-7)))
          CFI R7 load(1, XDATA, add(CFA_XSP16, literal(-6)))
          CFI ?RET_LOW load(1, XDATA, add(CFA_XSP16, literal(-5)))
          CFI ?RET_HIGH load(1, XDATA, add(CFA_XSP16, literal(-4)))
          CFI ?BRET_EXT load(1, XDATA, add(CFA_XSP16, literal(-3)))
          CFI DPL0 load(1, XDATA, add(CFA_XSP16, literal(-2)))
          CFI DPH0 load(1, XDATA, add(CFA_XSP16, literal(-1)))
          CFI CFA_SP SP+-2
          CFI CFA_XSP16 add(XSP16, 19)
          CFI Block cfiCond55 Using cfiCommon0
          CFI (cfiCond55) Function zclSampleThermostat_ProcessFoundationMsg
          CFI (cfiCond55) Conditional ??CrossCallReturnLabel_9
          CFI (cfiCond55) R6 load(1, XDATA, add(CFA_XSP16, literal(-18)))
          CFI (cfiCond55) VB load(1, XDATA, add(CFA_XSP16, literal(-17)))
          CFI (cfiCond55) V0 load(1, XDATA, add(CFA_XSP16, literal(-16)))
          CFI (cfiCond55) V1 load(1, XDATA, add(CFA_XSP16, literal(-15)))
          CFI (cfiCond55) V2 load(1, XDATA, add(CFA_XSP16, literal(-14)))
          CFI (cfiCond55) V3 load(1, XDATA, add(CFA_XSP16, literal(-13)))
          CFI (cfiCond55) V4 load(1, XDATA, add(CFA_XSP16, literal(-12)))
          CFI (cfiCond55) V5 load(1, XDATA, add(CFA_XSP16, literal(-11)))
          CFI (cfiCond55) V6 load(1, XDATA, add(CFA_XSP16, literal(-10)))
          CFI (cfiCond55) V7 load(1, XDATA, add(CFA_XSP16, literal(-9)))
          CFI (cfiCond55) V8 load(1, XDATA, add(CFA_XSP16, literal(-8)))
          CFI (cfiCond55) V9 load(1, XDATA, add(CFA_XSP16, literal(-7)))
          CFI (cfiCond55) R7 load(1, XDATA, add(CFA_XSP16, literal(-6)))
          CFI (cfiCond55) ?RET_LOW load(1, XDATA, add(CFA_XSP16, literal(-5)))
          CFI (cfiCond55) ?RET_HIGH load(1, XDATA, add(CFA_XSP16, literal(-4)))
          CFI (cfiCond55) ?BRET_EXT load(1, XDATA, add(CFA_XSP16, literal(-3)))
          CFI (cfiCond55) DPL0 load(1, XDATA, add(CFA_XSP16, literal(-2)))
          CFI (cfiCond55) DPH0 load(1, XDATA, add(CFA_XSP16, literal(-1)))
          CFI (cfiCond55) CFA_SP SP+-2
          CFI (cfiCond55) CFA_XSP16 add(XSP16, 19)
          CFI Block cfiCond56 Using cfiCommon0
          CFI (cfiCond56) Function zclSampleThermostat_ProcessFoundationMsg
          CFI (cfiCond56) Conditional ??CrossCallReturnLabel_10
          CFI (cfiCond56) R6 load(1, XDATA, add(CFA_XSP16, literal(-18)))
          CFI (cfiCond56) VB load(1, XDATA, add(CFA_XSP16, literal(-17)))
          CFI (cfiCond56) V0 load(1, XDATA, add(CFA_XSP16, literal(-16)))
          CFI (cfiCond56) V1 load(1, XDATA, add(CFA_XSP16, literal(-15)))
          CFI (cfiCond56) V2 load(1, XDATA, add(CFA_XSP16, literal(-14)))
          CFI (cfiCond56) V3 load(1, XDATA, add(CFA_XSP16, literal(-13)))
          CFI (cfiCond56) V4 load(1, XDATA, add(CFA_XSP16, literal(-12)))
          CFI (cfiCond56) V5 load(1, XDATA, add(CFA_XSP16, literal(-11)))
          CFI (cfiCond56) V6 load(1, XDATA, add(CFA_XSP16, literal(-10)))
          CFI (cfiCond56) V7 load(1, XDATA, add(CFA_XSP16, literal(-9)))
          CFI (cfiCond56) V8 load(1, XDATA, add(CFA_XSP16, literal(-8)))
          CFI (cfiCond56) V9 load(1, XDATA, add(CFA_XSP16, literal(-7)))
          CFI (cfiCond56) R7 load(1, XDATA, add(CFA_XSP16, literal(-6)))
          CFI (cfiCond56) ?RET_LOW load(1, XDATA, add(CFA_XSP16, literal(-5)))
          CFI (cfiCond56) ?RET_HIGH load(1, XDATA, add(CFA_XSP16, literal(-4)))
          CFI (cfiCond56) ?BRET_EXT load(1, XDATA, add(CFA_XSP16, literal(-3)))
          CFI (cfiCond56) DPL0 load(1, XDATA, add(CFA_XSP16, literal(-2)))
          CFI (cfiCond56) DPH0 load(1, XDATA, add(CFA_XSP16, literal(-1)))
          CFI (cfiCond56) CFA_SP SP+-2
          CFI (cfiCond56) CFA_XSP16 add(XSP16, 19)
          CFI Block cfiCond57 Using cfiCommon0
          CFI (cfiCond57) Function zclSampleThermostat_ProcessFoundationMsg
          CFI (cfiCond57) Conditional ??CrossCallReturnLabel_11
          CFI (cfiCond57) R6 load(1, XDATA, add(CFA_XSP16, literal(-18)))
          CFI (cfiCond57) VB load(1, XDATA, add(CFA_XSP16, literal(-17)))
          CFI (cfiCond57) V0 load(1, XDATA, add(CFA_XSP16, literal(-16)))
          CFI (cfiCond57) V1 load(1, XDATA, add(CFA_XSP16, literal(-15)))
          CFI (cfiCond57) V2 load(1, XDATA, add(CFA_XSP16, literal(-14)))
          CFI (cfiCond57) V3 load(1, XDATA, add(CFA_XSP16, literal(-13)))
          CFI (cfiCond57) V4 load(1, XDATA, add(CFA_XSP16, literal(-12)))
          CFI (cfiCond57) V5 load(1, XDATA, add(CFA_XSP16, literal(-11)))
          CFI (cfiCond57) V6 load(1, XDATA, add(CFA_XSP16, literal(-10)))
          CFI (cfiCond57) V7 load(1, XDATA, add(CFA_XSP16, literal(-9)))
          CFI (cfiCond57) V8 load(1, XDATA, add(CFA_XSP16, literal(-8)))
          CFI (cfiCond57) V9 load(1, XDATA, add(CFA_XSP16, literal(-7)))
          CFI (cfiCond57) R7 load(1, XDATA, add(CFA_XSP16, literal(-6)))
          CFI (cfiCond57) ?RET_LOW load(1, XDATA, add(CFA_XSP16, literal(-5)))
          CFI (cfiCond57) ?RET_HIGH load(1, XDATA, add(CFA_XSP16, literal(-4)))
          CFI (cfiCond57) ?BRET_EXT load(1, XDATA, add(CFA_XSP16, literal(-3)))
          CFI (cfiCond57) DPL0 load(1, XDATA, add(CFA_XSP16, literal(-2)))
          CFI (cfiCond57) DPH0 load(1, XDATA, add(CFA_XSP16, literal(-1)))
          CFI (cfiCond57) CFA_SP SP+-2
          CFI (cfiCond57) CFA_XSP16 add(XSP16, 19)
          CFI Block cfiCond58 Using cfiCommon0
          CFI (cfiCond58) Function zclSampleThermostat_ProcessFoundationMsg
          CFI (cfiCond58) Conditional ??CrossCallReturnLabel_12
          CFI (cfiCond58) R6 load(1, XDATA, add(CFA_XSP16, literal(-18)))
          CFI (cfiCond58) VB load(1, XDATA, add(CFA_XSP16, literal(-17)))
          CFI (cfiCond58) V0 load(1, XDATA, add(CFA_XSP16, literal(-16)))
          CFI (cfiCond58) V1 load(1, XDATA, add(CFA_XSP16, literal(-15)))
          CFI (cfiCond58) V2 load(1, XDATA, add(CFA_XSP16, literal(-14)))
          CFI (cfiCond58) V3 load(1, XDATA, add(CFA_XSP16, literal(-13)))
          CFI (cfiCond58) V4 load(1, XDATA, add(CFA_XSP16, literal(-12)))
          CFI (cfiCond58) V5 load(1, XDATA, add(CFA_XSP16, literal(-11)))
          CFI (cfiCond58) V6 load(1, XDATA, add(CFA_XSP16, literal(-10)))
          CFI (cfiCond58) V7 load(1, XDATA, add(CFA_XSP16, literal(-9)))
          CFI (cfiCond58) V8 load(1, XDATA, add(CFA_XSP16, literal(-8)))
          CFI (cfiCond58) V9 load(1, XDATA, add(CFA_XSP16, literal(-7)))
          CFI (cfiCond58) R7 load(1, XDATA, add(CFA_XSP16, literal(-6)))
          CFI (cfiCond58) ?RET_LOW load(1, XDATA, add(CFA_XSP16, literal(-5)))
          CFI (cfiCond58) ?RET_HIGH load(1, XDATA, add(CFA_XSP16, literal(-4)))
          CFI (cfiCond58) ?BRET_EXT load(1, XDATA, add(CFA_XSP16, literal(-3)))
          CFI (cfiCond58) DPL0 load(1, XDATA, add(CFA_XSP16, literal(-2)))
          CFI (cfiCond58) DPH0 load(1, XDATA, add(CFA_XSP16, literal(-1)))
          CFI (cfiCond58) CFA_SP SP+-2
          CFI (cfiCond58) CFA_XSP16 add(XSP16, 19)
          CFI Block cfiCond59 Using cfiCommon0
          CFI (cfiCond59) Function zclSampleThermostat_ProcessFoundationMsg
          CFI (cfiCond59) Conditional ??CrossCallReturnLabel_13
          CFI (cfiCond59) R6 load(1, XDATA, add(CFA_XSP16, literal(-18)))
          CFI (cfiCond59) VB load(1, XDATA, add(CFA_XSP16, literal(-17)))
          CFI (cfiCond59) V0 load(1, XDATA, add(CFA_XSP16, literal(-16)))
          CFI (cfiCond59) V1 load(1, XDATA, add(CFA_XSP16, literal(-15)))
          CFI (cfiCond59) V2 load(1, XDATA, add(CFA_XSP16, literal(-14)))
          CFI (cfiCond59) V3 load(1, XDATA, add(CFA_XSP16, literal(-13)))
          CFI (cfiCond59) V4 load(1, XDATA, add(CFA_XSP16, literal(-12)))
          CFI (cfiCond59) V5 load(1, XDATA, add(CFA_XSP16, literal(-11)))
          CFI (cfiCond59) V6 load(1, XDATA, add(CFA_XSP16, literal(-10)))
          CFI (cfiCond59) V7 load(1, XDATA, add(CFA_XSP16, literal(-9)))
          CFI (cfiCond59) V8 load(1, XDATA, add(CFA_XSP16, literal(-8)))
          CFI (cfiCond59) V9 load(1, XDATA, add(CFA_XSP16, literal(-7)))
          CFI (cfiCond59) R7 load(1, XDATA, add(CFA_XSP16, literal(-6)))
          CFI (cfiCond59) ?RET_LOW load(1, XDATA, add(CFA_XSP16, literal(-5)))
          CFI (cfiCond59) ?RET_HIGH load(1, XDATA, add(CFA_XSP16, literal(-4)))
          CFI (cfiCond59) ?BRET_EXT load(1, XDATA, add(CFA_XSP16, literal(-3)))
          CFI (cfiCond59) DPL0 load(1, XDATA, add(CFA_XSP16, literal(-2)))
          CFI (cfiCond59) DPH0 load(1, XDATA, add(CFA_XSP16, literal(-1)))
          CFI (cfiCond59) CFA_SP SP+-2
          CFI (cfiCond59) CFA_XSP16 add(XSP16, 19)
          CFI Block cfiCond60 Using cfiCommon0
          CFI (cfiCond60) Function zclSampleThermostat_ProcessFoundationMsg
          CFI (cfiCond60) Conditional ??CrossCallReturnLabel_14
          CFI (cfiCond60) R6 load(1, XDATA, add(CFA_XSP16, literal(-18)))
          CFI (cfiCond60) VB load(1, XDATA, add(CFA_XSP16, literal(-17)))
          CFI (cfiCond60) V0 load(1, XDATA, add(CFA_XSP16, literal(-16)))
          CFI (cfiCond60) V1 load(1, XDATA, add(CFA_XSP16, literal(-15)))
          CFI (cfiCond60) V2 load(1, XDATA, add(CFA_XSP16, literal(-14)))
          CFI (cfiCond60) V3 load(1, XDATA, add(CFA_XSP16, literal(-13)))
          CFI (cfiCond60) V4 load(1, XDATA, add(CFA_XSP16, literal(-12)))
          CFI (cfiCond60) V5 load(1, XDATA, add(CFA_XSP16, literal(-11)))
          CFI (cfiCond60) V6 load(1, XDATA, add(CFA_XSP16, literal(-10)))
          CFI (cfiCond60) V7 load(1, XDATA, add(CFA_XSP16, literal(-9)))
          CFI (cfiCond60) V8 load(1, XDATA, add(CFA_XSP16, literal(-8)))
          CFI (cfiCond60) V9 load(1, XDATA, add(CFA_XSP16, literal(-7)))
          CFI (cfiCond60) R7 load(1, XDATA, add(CFA_XSP16, literal(-6)))
          CFI (cfiCond60) ?RET_LOW load(1, XDATA, add(CFA_XSP16, literal(-5)))
          CFI (cfiCond60) ?RET_HIGH load(1, XDATA, add(CFA_XSP16, literal(-4)))
          CFI (cfiCond60) ?BRET_EXT load(1, XDATA, add(CFA_XSP16, literal(-3)))
          CFI (cfiCond60) DPL0 load(1, XDATA, add(CFA_XSP16, literal(-2)))
          CFI (cfiCond60) DPH0 load(1, XDATA, add(CFA_XSP16, literal(-1)))
          CFI (cfiCond60) CFA_SP SP+-2
          CFI (cfiCond60) CFA_XSP16 add(XSP16, 19)
          CFI Block cfiCond61 Using cfiCommon0
          CFI (cfiCond61) Function zclSampleThermostat_ProcessFoundationMsg
          CFI (cfiCond61) Conditional ??CrossCallReturnLabel_15
          CFI (cfiCond61) R6 load(1, XDATA, add(CFA_XSP16, literal(-18)))
          CFI (cfiCond61) VB load(1, XDATA, add(CFA_XSP16, literal(-17)))
          CFI (cfiCond61) V0 load(1, XDATA, add(CFA_XSP16, literal(-16)))
          CFI (cfiCond61) V1 load(1, XDATA, add(CFA_XSP16, literal(-15)))
          CFI (cfiCond61) V2 load(1, XDATA, add(CFA_XSP16, literal(-14)))
          CFI (cfiCond61) V3 load(1, XDATA, add(CFA_XSP16, literal(-13)))
          CFI (cfiCond61) V4 load(1, XDATA, add(CFA_XSP16, literal(-12)))
          CFI (cfiCond61) V5 load(1, XDATA, add(CFA_XSP16, literal(-11)))
          CFI (cfiCond61) V6 load(1, XDATA, add(CFA_XSP16, literal(-10)))
          CFI (cfiCond61) V7 load(1, XDATA, add(CFA_XSP16, literal(-9)))
          CFI (cfiCond61) V8 load(1, XDATA, add(CFA_XSP16, literal(-8)))
          CFI (cfiCond61) V9 load(1, XDATA, add(CFA_XSP16, literal(-7)))
          CFI (cfiCond61) R7 load(1, XDATA, add(CFA_XSP16, literal(-6)))
          CFI (cfiCond61) ?RET_LOW load(1, XDATA, add(CFA_XSP16, literal(-5)))
          CFI (cfiCond61) ?RET_HIGH load(1, XDATA, add(CFA_XSP16, literal(-4)))
          CFI (cfiCond61) ?BRET_EXT load(1, XDATA, add(CFA_XSP16, literal(-3)))
          CFI (cfiCond61) DPL0 load(1, XDATA, add(CFA_XSP16, literal(-2)))
          CFI (cfiCond61) DPH0 load(1, XDATA, add(CFA_XSP16, literal(-1)))
          CFI (cfiCond61) CFA_SP SP+-2
          CFI (cfiCond61) CFA_XSP16 add(XSP16, 25)
          CFI Block cfiPicker62 Using cfiCommon1
          CFI (cfiPicker62) NoFunction
          CFI (cfiPicker62) Picker
        MOV     DPL,?V2
        MOV     DPH,?V3
        MOVX    A,@DPTR
        SWAP    A
        ANL     A,#0xf
        ANL     A,#0x1
        MOV     ?V2,A
        MOV     R0,#?V2
        RET
          CFI EndBlock cfiCond54
          CFI EndBlock cfiCond55
          CFI EndBlock cfiCond56
          CFI EndBlock cfiCond57
          CFI EndBlock cfiCond58
          CFI EndBlock cfiCond59
          CFI EndBlock cfiCond60
          CFI EndBlock cfiCond61
          CFI EndBlock cfiPicker62
// 1135 
// 1136 /*********************************************************************
// 1137  * @fn      zclSampleThermostat_BasicResetCB
// 1138  *
// 1139  * @brief   Callback from the ZCL General Cluster Library
// 1140  *          to set all the Basic Cluster attributes to default values.
// 1141  *
// 1142  * @param   none
// 1143  *
// 1144  * @return  none
// 1145  */

        RSEG BANKED_CODE:HUGECODE:NOROOT(0)
// 1146 static void zclSampleThermostat_BasicResetCB( void )
zclSampleThermostat_BasicResetCB:
          CFI Block cfiBlock63 Using cfiCommon0
          CFI Function zclSampleThermostat_BasicResetCB
        CODE
// 1147 {
        FUNCALL zclSampleThermostat_BasicResetCB, zgWriteStartupOptions
        LOCFRAME ISTACK, 2, STACK
        LOCFRAME PSTACK, 0, STACK
        LOCFRAME XSTACK, 0, STACK
        LOCFRAME IOVERLAY, 0, STATIC
        LOCFRAME DOVERLAY, 0, STATIC
        ARGFRAME ISTACK, 2, STACK
        ARGFRAME PSTACK, 0, STACK
        ARGFRAME XSTACK, 0, STACK
        ARGFRAME IOVERLAY, 0, STATIC
        ARGFRAME DOVERLAY, 0, STATIC
        FUNCALL zclSampleThermostat_BasicResetCB, MT_SysCommandProcessing
        LOCFRAME ISTACK, 2, STACK
        LOCFRAME PSTACK, 0, STACK
        LOCFRAME XSTACK, 0, STACK
        LOCFRAME IOVERLAY, 0, STATIC
        LOCFRAME DOVERLAY, 0, STATIC
        ARGFRAME ISTACK, 2, STACK
        ARGFRAME PSTACK, 0, STACK
        ARGFRAME XSTACK, 0, STACK
        ARGFRAME IOVERLAY, 0, STATIC
        ARGFRAME DOVERLAY, 0, STATIC
        PUSH    DPL
          CFI DPL0 Frame(CFA_SP, 4)
          CFI CFA_SP SP+-4
        PUSH    DPH
          CFI DPH0 Frame(CFA_SP, 5)
          CFI CFA_SP SP+-5
        ; Saved register size: 2
        ; Auto size: 0
// 1148   // Put device back to factory default settings
// 1149   zgWriteStartupOptions( ZG_STARTUP_SET, 3 );   // bit set both default configuration and default network
        ; Setup parameters for call to function zgWriteStartupOptions
        MOV     R2,#0x3
        MOV     R1,#-0x1
        LCALL   `??zgWriteStartupOptions::?relay`; Banked call to: zgWriteStartupOptions
// 1150 
// 1151   // restart device
// 1152   MT_SysCommandProcessing( aProcessCmd );
        ; Setup parameters for call to function MT_SysCommandProcessing
        MOV     R2,#aProcessCmd & 0xff
        MOV     R3,#(aProcessCmd >> 8) & 0xff
        LCALL   `??MT_SysCommandProcessing::?relay`; Banked call to: MT_SysCommandProcessing
// 1153 }
        LJMP    ??Subroutine32_0 & 0xFFFF
          CFI EndBlock cfiBlock63
// 1154 
// 1155 /*********************************************************************
// 1156  * @fn      zclSampleThermostat_IdentifyCB
// 1157  *
// 1158  * @brief   Callback from the ZCL General Cluster Library when
// 1159  *          it received an Identity Command for this application.
// 1160  *
// 1161  * @param   srcAddr - source address and endpoint of the response message
// 1162  * @param   identifyTime - the number of seconds to identify yourself
// 1163  *
// 1164  * @return  none
// 1165  */

        RSEG BANKED_CODE:HUGECODE:NOROOT(0)
// 1166 static void zclSampleThermostat_IdentifyCB( zclIdentify_t *pCmd )
zclSampleThermostat_IdentifyCB:
          CFI Block cfiBlock64 Using cfiCommon0
          CFI Function zclSampleThermostat_IdentifyCB
        CODE
// 1167 {
        FUNCALL zclSampleThermostat_IdentifyCB, zclSampleThermostat_ProcessIdentifyTimeChange
        LOCFRAME ISTACK, 2, STACK
        LOCFRAME PSTACK, 0, STACK
        LOCFRAME XSTACK, 0, STACK
        LOCFRAME IOVERLAY, 0, STATIC
        LOCFRAME DOVERLAY, 0, STATIC
        ARGFRAME ISTACK, 2, STACK
        ARGFRAME PSTACK, 0, STACK
        ARGFRAME XSTACK, 0, STACK
        ARGFRAME IOVERLAY, 0, STATIC
        ARGFRAME DOVERLAY, 0, STATIC
        PUSH    DPL
          CFI DPL0 Frame(CFA_SP, 4)
          CFI CFA_SP SP+-4
        PUSH    DPH
          CFI DPH0 Frame(CFA_SP, 5)
          CFI CFA_SP SP+-5
        ; Saved register size: 2
        ; Auto size: 0
// 1168   zclSampleThermostat_IdentifyTime = pCmd->identifyTime;
        MOV     DPL,R2
        MOV     DPH,R3
        INC     DPTR
        INC     DPTR
        LCALL   ?Subroutine22 & 0xFFFF
??CrossCallReturnLabel_43:
        MOV     DPTR,#zclSampleThermostat_IdentifyTime
        MOV     A,R0
        MOVX    @DPTR,A
        INC     DPTR
        MOV     A,R1
        MOVX    @DPTR,A
// 1169   zclSampleThermostat_ProcessIdentifyTimeChange();
        ; Setup parameters for call to function zclSampleThermostat_ProcessIdentifyTimeChange
        LCALL   ??zclSampleThermostat_ProcessIdentifyTimeChange; Banked call to: zclSampleThermostat_ProcessIdentifyTimeChange
// 1170 }
        LJMP    ??Subroutine32_0 & 0xFFFF
          CFI EndBlock cfiBlock64

        RSEG BANKED_CODE:HUGECODE:NOROOT(0)
?Subroutine22:
          CFI Block cfiCond65 Using cfiCommon0
          CFI Function zclSampleThermostat_LcdDisplayUpdate
          CFI Conditional ??CrossCallReturnLabel_42
          CFI DPL0 Frame(CFA_SP, 4)
          CFI DPH0 Frame(CFA_SP, 5)
          CFI CFA_SP SP+-7
          CFI Block cfiCond66 Using cfiCommon0
          CFI (cfiCond66) Function zclSampleThermostat_IdentifyCB
          CFI (cfiCond66) Conditional ??CrossCallReturnLabel_43
          CFI (cfiCond66) DPL0 Frame(CFA_SP, 4)
          CFI (cfiCond66) DPH0 Frame(CFA_SP, 5)
          CFI (cfiCond66) CFA_SP SP+-7
          CFI Block cfiCond67 Using cfiCommon0
          CFI (cfiCond67) Function zclSampleThermostat_ProcessInReportCmd
          CFI (cfiCond67) Conditional ??CrossCallReturnLabel_44
          CFI (cfiCond67) R6 load(1, XDATA, add(CFA_XSP16, literal(-24)))
          CFI (cfiCond67) VB load(1, XDATA, add(CFA_XSP16, literal(-23)))
          CFI (cfiCond67) V0 load(1, XDATA, add(CFA_XSP16, literal(-22)))
          CFI (cfiCond67) V1 load(1, XDATA, add(CFA_XSP16, literal(-21)))
          CFI (cfiCond67) V2 load(1, XDATA, add(CFA_XSP16, literal(-20)))
          CFI (cfiCond67) V3 load(1, XDATA, add(CFA_XSP16, literal(-19)))
          CFI (cfiCond67) V4 load(1, XDATA, add(CFA_XSP16, literal(-18)))
          CFI (cfiCond67) V5 load(1, XDATA, add(CFA_XSP16, literal(-17)))
          CFI (cfiCond67) V6 load(1, XDATA, add(CFA_XSP16, literal(-16)))
          CFI (cfiCond67) V7 load(1, XDATA, add(CFA_XSP16, literal(-15)))
          CFI (cfiCond67) V8 load(1, XDATA, add(CFA_XSP16, literal(-14)))
          CFI (cfiCond67) V9 load(1, XDATA, add(CFA_XSP16, literal(-13)))
          CFI (cfiCond67) V10 load(1, XDATA, add(CFA_XSP16, literal(-12)))
          CFI (cfiCond67) V11 load(1, XDATA, add(CFA_XSP16, literal(-11)))
          CFI (cfiCond67) V12 load(1, XDATA, add(CFA_XSP16, literal(-10)))
          CFI (cfiCond67) V13 load(1, XDATA, add(CFA_XSP16, literal(-9)))
          CFI (cfiCond67) V14 load(1, XDATA, add(CFA_XSP16, literal(-8)))
          CFI (cfiCond67) V15 load(1, XDATA, add(CFA_XSP16, literal(-7)))
          CFI (cfiCond67) R7 load(1, XDATA, add(CFA_XSP16, literal(-6)))
          CFI (cfiCond67) ?RET_LOW load(1, XDATA, add(CFA_XSP16, literal(-5)))
          CFI (cfiCond67) ?RET_HIGH load(1, XDATA, add(CFA_XSP16, literal(-4)))
          CFI (cfiCond67) ?BRET_EXT load(1, XDATA, add(CFA_XSP16, literal(-3)))
          CFI (cfiCond67) DPL0 load(1, XDATA, add(CFA_XSP16, literal(-2)))
          CFI (cfiCond67) DPH0 load(1, XDATA, add(CFA_XSP16, literal(-1)))
          CFI (cfiCond67) CFA_SP SP+-2
          CFI (cfiCond67) CFA_XSP16 add(XSP16, 62)
          CFI Block cfiCond68 Using cfiCommon0
          CFI (cfiCond68) Function zclSampleThermostat_ProcessInReportCmd
          CFI (cfiCond68) Conditional ??CrossCallReturnLabel_45
          CFI (cfiCond68) R6 load(1, XDATA, add(CFA_XSP16, literal(-24)))
          CFI (cfiCond68) VB load(1, XDATA, add(CFA_XSP16, literal(-23)))
          CFI (cfiCond68) V0 load(1, XDATA, add(CFA_XSP16, literal(-22)))
          CFI (cfiCond68) V1 load(1, XDATA, add(CFA_XSP16, literal(-21)))
          CFI (cfiCond68) V2 load(1, XDATA, add(CFA_XSP16, literal(-20)))
          CFI (cfiCond68) V3 load(1, XDATA, add(CFA_XSP16, literal(-19)))
          CFI (cfiCond68) V4 load(1, XDATA, add(CFA_XSP16, literal(-18)))
          CFI (cfiCond68) V5 load(1, XDATA, add(CFA_XSP16, literal(-17)))
          CFI (cfiCond68) V6 load(1, XDATA, add(CFA_XSP16, literal(-16)))
          CFI (cfiCond68) V7 load(1, XDATA, add(CFA_XSP16, literal(-15)))
          CFI (cfiCond68) V8 load(1, XDATA, add(CFA_XSP16, literal(-14)))
          CFI (cfiCond68) V9 load(1, XDATA, add(CFA_XSP16, literal(-13)))
          CFI (cfiCond68) V10 load(1, XDATA, add(CFA_XSP16, literal(-12)))
          CFI (cfiCond68) V11 load(1, XDATA, add(CFA_XSP16, literal(-11)))
          CFI (cfiCond68) V12 load(1, XDATA, add(CFA_XSP16, literal(-10)))
          CFI (cfiCond68) V13 load(1, XDATA, add(CFA_XSP16, literal(-9)))
          CFI (cfiCond68) V14 load(1, XDATA, add(CFA_XSP16, literal(-8)))
          CFI (cfiCond68) V15 load(1, XDATA, add(CFA_XSP16, literal(-7)))
          CFI (cfiCond68) R7 load(1, XDATA, add(CFA_XSP16, literal(-6)))
          CFI (cfiCond68) ?RET_LOW load(1, XDATA, add(CFA_XSP16, literal(-5)))
          CFI (cfiCond68) ?RET_HIGH load(1, XDATA, add(CFA_XSP16, literal(-4)))
          CFI (cfiCond68) ?BRET_EXT load(1, XDATA, add(CFA_XSP16, literal(-3)))
          CFI (cfiCond68) DPL0 load(1, XDATA, add(CFA_XSP16, literal(-2)))
          CFI (cfiCond68) DPH0 load(1, XDATA, add(CFA_XSP16, literal(-1)))
          CFI (cfiCond68) CFA_SP SP+-2
          CFI (cfiCond68) CFA_XSP16 add(XSP16, 62)
          CFI Block cfiPicker69 Using cfiCommon1
          CFI (cfiPicker69) NoFunction
          CFI (cfiPicker69) Picker
        LCALL   ?Subroutine27 & 0xFFFF
??CrossCallReturnLabel_60:
        RET
          CFI EndBlock cfiCond65
          CFI EndBlock cfiCond66
          CFI EndBlock cfiCond67
          CFI EndBlock cfiCond68
          CFI EndBlock cfiPicker69

        RSEG BANKED_CODE:HUGECODE:NOROOT(0)
?Subroutine27:
          CFI Block cfiCond70 Using cfiCommon0
          CFI Function zclSampleThermostat_event_loop
          CFI Conditional ??CrossCallReturnLabel_58, ??CrossCallReturnLabel_36
          CFI R6 load(1, XDATA, add(CFA_XSP16, literal(-14)))
          CFI VB load(1, XDATA, add(CFA_XSP16, literal(-13)))
          CFI V0 load(1, XDATA, add(CFA_XSP16, literal(-12)))
          CFI V1 load(1, XDATA, add(CFA_XSP16, literal(-11)))
          CFI V2 load(1, XDATA, add(CFA_XSP16, literal(-10)))
          CFI V3 load(1, XDATA, add(CFA_XSP16, literal(-9)))
          CFI V4 load(1, XDATA, add(CFA_XSP16, literal(-8)))
          CFI V5 load(1, XDATA, add(CFA_XSP16, literal(-7)))
          CFI R7 load(1, XDATA, add(CFA_XSP16, literal(-6)))
          CFI ?RET_LOW load(1, XDATA, add(CFA_XSP16, literal(-5)))
          CFI ?RET_HIGH load(1, XDATA, add(CFA_XSP16, literal(-4)))
          CFI ?BRET_EXT load(1, XDATA, add(CFA_XSP16, literal(-3)))
          CFI DPL0 load(1, XDATA, add(CFA_XSP16, literal(-2)))
          CFI DPH0 load(1, XDATA, add(CFA_XSP16, literal(-1)))
          CFI CFA_SP SP+-4
          CFI CFA_XSP16 add(XSP16, 16)
          CFI Block cfiCond71 Using cfiCommon0
          CFI (cfiCond71) Function zclSampleThermostat_event_loop
          CFI (cfiCond71) Conditional ??CrossCallReturnLabel_58, ??CrossCallReturnLabel_37
          CFI (cfiCond71) R6 load(1, XDATA, add(CFA_XSP16, literal(-14)))
          CFI (cfiCond71) VB load(1, XDATA, add(CFA_XSP16, literal(-13)))
          CFI (cfiCond71) V0 load(1, XDATA, add(CFA_XSP16, literal(-12)))
          CFI (cfiCond71) V1 load(1, XDATA, add(CFA_XSP16, literal(-11)))
          CFI (cfiCond71) V2 load(1, XDATA, add(CFA_XSP16, literal(-10)))
          CFI (cfiCond71) V3 load(1, XDATA, add(CFA_XSP16, literal(-9)))
          CFI (cfiCond71) V4 load(1, XDATA, add(CFA_XSP16, literal(-8)))
          CFI (cfiCond71) V5 load(1, XDATA, add(CFA_XSP16, literal(-7)))
          CFI (cfiCond71) R7 load(1, XDATA, add(CFA_XSP16, literal(-6)))
          CFI (cfiCond71) ?RET_LOW load(1, XDATA, add(CFA_XSP16, literal(-5)))
          CFI (cfiCond71) ?RET_HIGH load(1, XDATA, add(CFA_XSP16, literal(-4)))
          CFI (cfiCond71) ?BRET_EXT load(1, XDATA, add(CFA_XSP16, literal(-3)))
          CFI (cfiCond71) DPL0 load(1, XDATA, add(CFA_XSP16, literal(-2)))
          CFI (cfiCond71) DPH0 load(1, XDATA, add(CFA_XSP16, literal(-1)))
          CFI (cfiCond71) CFA_SP SP+-4
          CFI (cfiCond71) CFA_XSP16 add(XSP16, 16)
          CFI Block cfiCond72 Using cfiCommon0
          CFI (cfiCond72) Function zclSampleThermostat_event_loop
          CFI (cfiCond72) Conditional ??CrossCallReturnLabel_61, ??CrossCallReturnLabel_56
          CFI (cfiCond72) R6 load(1, XDATA, add(CFA_XSP16, literal(-14)))
          CFI (cfiCond72) VB load(1, XDATA, add(CFA_XSP16, literal(-13)))
          CFI (cfiCond72) V0 load(1, XDATA, add(CFA_XSP16, literal(-12)))
          CFI (cfiCond72) V1 load(1, XDATA, add(CFA_XSP16, literal(-11)))
          CFI (cfiCond72) V2 load(1, XDATA, add(CFA_XSP16, literal(-10)))
          CFI (cfiCond72) V3 load(1, XDATA, add(CFA_XSP16, literal(-9)))
          CFI (cfiCond72) V4 load(1, XDATA, add(CFA_XSP16, literal(-8)))
          CFI (cfiCond72) V5 load(1, XDATA, add(CFA_XSP16, literal(-7)))
          CFI (cfiCond72) R7 load(1, XDATA, add(CFA_XSP16, literal(-6)))
          CFI (cfiCond72) ?RET_LOW load(1, XDATA, add(CFA_XSP16, literal(-5)))
          CFI (cfiCond72) ?RET_HIGH load(1, XDATA, add(CFA_XSP16, literal(-4)))
          CFI (cfiCond72) ?BRET_EXT load(1, XDATA, add(CFA_XSP16, literal(-3)))
          CFI (cfiCond72) DPL0 load(1, XDATA, add(CFA_XSP16, literal(-2)))
          CFI (cfiCond72) DPH0 load(1, XDATA, add(CFA_XSP16, literal(-1)))
          CFI (cfiCond72) CFA_SP SP+-4
          CFI (cfiCond72) CFA_XSP16 add(XSP16, 16)
          CFI Block cfiCond73 Using cfiCommon0
          CFI (cfiCond73) Function zclSampleThermostat_ProcessIdentifyTimeChange
          CFI (cfiCond73) Conditional ??CrossCallReturnLabel_61, ??CrossCallReturnLabel_57
          CFI (cfiCond73) DPL0 Frame(CFA_SP, 4)
          CFI (cfiCond73) DPH0 Frame(CFA_SP, 5)
          CFI (cfiCond73) CFA_SP SP+-9
          CFI Block cfiCond74 Using cfiCommon0
          CFI (cfiCond74) Function zclSampleThermostat_LcdDisplayUpdate
          CFI (cfiCond74) Conditional ??CrossCallReturnLabel_61, ??CrossCallReturnLabel_54
          CFI (cfiCond74) DPL0 Frame(CFA_SP, 4)
          CFI (cfiCond74) DPH0 Frame(CFA_SP, 5)
          CFI (cfiCond74) CFA_SP SP+-9
          CFI Block cfiCond75 Using cfiCommon0
          CFI (cfiCond75) Function zclSampleThermostat_LcdDisplayMainMode
          CFI (cfiCond75) Conditional ??CrossCallReturnLabel_61, ??CrossCallReturnLabel_55
          CFI (cfiCond75) R6 load(1, XDATA, add(CFA_XSP16, literal(-11)))
          CFI (cfiCond75) VB load(1, XDATA, add(CFA_XSP16, literal(-10)))
          CFI (cfiCond75) V0 load(1, XDATA, add(CFA_XSP16, literal(-9)))
          CFI (cfiCond75) V1 load(1, XDATA, add(CFA_XSP16, literal(-8)))
          CFI (cfiCond75) V2 load(1, XDATA, add(CFA_XSP16, literal(-7)))
          CFI (cfiCond75) R7 load(1, XDATA, add(CFA_XSP16, literal(-6)))
          CFI (cfiCond75) ?RET_LOW load(1, XDATA, add(CFA_XSP16, literal(-5)))
          CFI (cfiCond75) ?RET_HIGH load(1, XDATA, add(CFA_XSP16, literal(-4)))
          CFI (cfiCond75) ?BRET_EXT load(1, XDATA, add(CFA_XSP16, literal(-3)))
          CFI (cfiCond75) DPL0 load(1, XDATA, add(CFA_XSP16, literal(-2)))
          CFI (cfiCond75) DPH0 load(1, XDATA, add(CFA_XSP16, literal(-1)))
          CFI (cfiCond75) CFA_SP SP+-4
          CFI (cfiCond75) CFA_XSP16 add(XSP16, 27)
          CFI Block cfiCond76 Using cfiCommon0
          CFI (cfiCond76) Function zclSampleThermostat_LcdDisplayMainMode
          CFI (cfiCond76) Conditional ??CrossCallReturnLabel_59, ??CrossCallReturnLabel_40
          CFI (cfiCond76) R6 load(1, XDATA, add(CFA_XSP16, literal(-11)))
          CFI (cfiCond76) VB load(1, XDATA, add(CFA_XSP16, literal(-10)))
          CFI (cfiCond76) V0 load(1, XDATA, add(CFA_XSP16, literal(-9)))
          CFI (cfiCond76) V1 load(1, XDATA, add(CFA_XSP16, literal(-8)))
          CFI (cfiCond76) V2 load(1, XDATA, add(CFA_XSP16, literal(-7)))
          CFI (cfiCond76) R7 load(1, XDATA, add(CFA_XSP16, literal(-6)))
          CFI (cfiCond76) ?RET_LOW load(1, XDATA, add(CFA_XSP16, literal(-5)))
          CFI (cfiCond76) ?RET_HIGH load(1, XDATA, add(CFA_XSP16, literal(-4)))
          CFI (cfiCond76) ?BRET_EXT load(1, XDATA, add(CFA_XSP16, literal(-3)))
          CFI (cfiCond76) DPL0 load(1, XDATA, add(CFA_XSP16, literal(-2)))
          CFI (cfiCond76) DPH0 load(1, XDATA, add(CFA_XSP16, literal(-1)))
          CFI (cfiCond76) CFA_SP SP+-4
          CFI (cfiCond76) CFA_XSP16 add(XSP16, 29)
          CFI Block cfiCond77 Using cfiCommon0
          CFI (cfiCond77) Function zclSampleThermostat_LcdDisplayHeatMode
          CFI (cfiCond77) Conditional ??CrossCallReturnLabel_59, ??CrossCallReturnLabel_41
          CFI (cfiCond77) R6 load(1, XDATA, add(CFA_XSP16, literal(-11)))
          CFI (cfiCond77) VB load(1, XDATA, add(CFA_XSP16, literal(-10)))
          CFI (cfiCond77) V0 load(1, XDATA, add(CFA_XSP16, literal(-9)))
          CFI (cfiCond77) V1 load(1, XDATA, add(CFA_XSP16, literal(-8)))
          CFI (cfiCond77) V2 load(1, XDATA, add(CFA_XSP16, literal(-7)))
          CFI (cfiCond77) R7 load(1, XDATA, add(CFA_XSP16, literal(-6)))
          CFI (cfiCond77) ?RET_LOW load(1, XDATA, add(CFA_XSP16, literal(-5)))
          CFI (cfiCond77) ?RET_HIGH load(1, XDATA, add(CFA_XSP16, literal(-4)))
          CFI (cfiCond77) ?BRET_EXT load(1, XDATA, add(CFA_XSP16, literal(-3)))
          CFI (cfiCond77) DPL0 load(1, XDATA, add(CFA_XSP16, literal(-2)))
          CFI (cfiCond77) DPH0 load(1, XDATA, add(CFA_XSP16, literal(-1)))
          CFI (cfiCond77) CFA_SP SP+-4
          CFI (cfiCond77) CFA_XSP16 add(XSP16, 29)
          CFI Block cfiCond78 Using cfiCommon0
          CFI (cfiCond78) Function zclSampleThermostat_LcdDisplayCoolMode
          CFI (cfiCond78) Conditional ??CrossCallReturnLabel_59, ??CrossCallReturnLabel_41
          CFI (cfiCond78) R6 load(1, XDATA, add(CFA_XSP16, literal(-11)))
          CFI (cfiCond78) VB load(1, XDATA, add(CFA_XSP16, literal(-10)))
          CFI (cfiCond78) V0 load(1, XDATA, add(CFA_XSP16, literal(-9)))
          CFI (cfiCond78) V1 load(1, XDATA, add(CFA_XSP16, literal(-8)))
          CFI (cfiCond78) V2 load(1, XDATA, add(CFA_XSP16, literal(-7)))
          CFI (cfiCond78) R7 load(1, XDATA, add(CFA_XSP16, literal(-6)))
          CFI (cfiCond78) ?RET_LOW load(1, XDATA, add(CFA_XSP16, literal(-5)))
          CFI (cfiCond78) ?RET_HIGH load(1, XDATA, add(CFA_XSP16, literal(-4)))
          CFI (cfiCond78) ?BRET_EXT load(1, XDATA, add(CFA_XSP16, literal(-3)))
          CFI (cfiCond78) DPL0 load(1, XDATA, add(CFA_XSP16, literal(-2)))
          CFI (cfiCond78) DPH0 load(1, XDATA, add(CFA_XSP16, literal(-1)))
          CFI (cfiCond78) CFA_SP SP+-4
          CFI (cfiCond78) CFA_XSP16 add(XSP16, 29)
          CFI Block cfiCond79 Using cfiCommon0
          CFI (cfiCond79) Function zclSampleThermostat_LcdDisplayUpdate
          CFI (cfiCond79) Conditional ??CrossCallReturnLabel_60, ??CrossCallReturnLabel_42
          CFI (cfiCond79) DPL0 Frame(CFA_SP, 4)
          CFI (cfiCond79) DPH0 Frame(CFA_SP, 5)
          CFI (cfiCond79) CFA_SP SP+-9
          CFI Block cfiCond80 Using cfiCommon0
          CFI (cfiCond80) Function zclSampleThermostat_IdentifyCB
          CFI (cfiCond80) Conditional ??CrossCallReturnLabel_60, ??CrossCallReturnLabel_43
          CFI (cfiCond80) DPL0 Frame(CFA_SP, 4)
          CFI (cfiCond80) DPH0 Frame(CFA_SP, 5)
          CFI (cfiCond80) CFA_SP SP+-9
          CFI Block cfiCond81 Using cfiCommon0
          CFI (cfiCond81) Function zclSampleThermostat_ProcessInReportCmd
          CFI (cfiCond81) Conditional ??CrossCallReturnLabel_60, ??CrossCallReturnLabel_44
          CFI (cfiCond81) R6 load(1, XDATA, add(CFA_XSP16, literal(-24)))
          CFI (cfiCond81) VB load(1, XDATA, add(CFA_XSP16, literal(-23)))
          CFI (cfiCond81) V0 load(1, XDATA, add(CFA_XSP16, literal(-22)))
          CFI (cfiCond81) V1 load(1, XDATA, add(CFA_XSP16, literal(-21)))
          CFI (cfiCond81) V2 load(1, XDATA, add(CFA_XSP16, literal(-20)))
          CFI (cfiCond81) V3 load(1, XDATA, add(CFA_XSP16, literal(-19)))
          CFI (cfiCond81) V4 load(1, XDATA, add(CFA_XSP16, literal(-18)))
          CFI (cfiCond81) V5 load(1, XDATA, add(CFA_XSP16, literal(-17)))
          CFI (cfiCond81) V6 load(1, XDATA, add(CFA_XSP16, literal(-16)))
          CFI (cfiCond81) V7 load(1, XDATA, add(CFA_XSP16, literal(-15)))
          CFI (cfiCond81) V8 load(1, XDATA, add(CFA_XSP16, literal(-14)))
          CFI (cfiCond81) V9 load(1, XDATA, add(CFA_XSP16, literal(-13)))
          CFI (cfiCond81) V10 load(1, XDATA, add(CFA_XSP16, literal(-12)))
          CFI (cfiCond81) V11 load(1, XDATA, add(CFA_XSP16, literal(-11)))
          CFI (cfiCond81) V12 load(1, XDATA, add(CFA_XSP16, literal(-10)))
          CFI (cfiCond81) V13 load(1, XDATA, add(CFA_XSP16, literal(-9)))
          CFI (cfiCond81) V14 load(1, XDATA, add(CFA_XSP16, literal(-8)))
          CFI (cfiCond81) V15 load(1, XDATA, add(CFA_XSP16, literal(-7)))
          CFI (cfiCond81) R7 load(1, XDATA, add(CFA_XSP16, literal(-6)))
          CFI (cfiCond81) ?RET_LOW load(1, XDATA, add(CFA_XSP16, literal(-5)))
          CFI (cfiCond81) ?RET_HIGH load(1, XDATA, add(CFA_XSP16, literal(-4)))
          CFI (cfiCond81) ?BRET_EXT load(1, XDATA, add(CFA_XSP16, literal(-3)))
          CFI (cfiCond81) DPL0 load(1, XDATA, add(CFA_XSP16, literal(-2)))
          CFI (cfiCond81) DPH0 load(1, XDATA, add(CFA_XSP16, literal(-1)))
          CFI (cfiCond81) CFA_SP SP+-4
          CFI (cfiCond81) CFA_XSP16 add(XSP16, 62)
          CFI Block cfiCond82 Using cfiCommon0
          CFI (cfiCond82) Function zclSampleThermostat_ProcessInReportCmd
          CFI (cfiCond82) Conditional ??CrossCallReturnLabel_60, ??CrossCallReturnLabel_45
          CFI (cfiCond82) R6 load(1, XDATA, add(CFA_XSP16, literal(-24)))
          CFI (cfiCond82) VB load(1, XDATA, add(CFA_XSP16, literal(-23)))
          CFI (cfiCond82) V0 load(1, XDATA, add(CFA_XSP16, literal(-22)))
          CFI (cfiCond82) V1 load(1, XDATA, add(CFA_XSP16, literal(-21)))
          CFI (cfiCond82) V2 load(1, XDATA, add(CFA_XSP16, literal(-20)))
          CFI (cfiCond82) V3 load(1, XDATA, add(CFA_XSP16, literal(-19)))
          CFI (cfiCond82) V4 load(1, XDATA, add(CFA_XSP16, literal(-18)))
          CFI (cfiCond82) V5 load(1, XDATA, add(CFA_XSP16, literal(-17)))
          CFI (cfiCond82) V6 load(1, XDATA, add(CFA_XSP16, literal(-16)))
          CFI (cfiCond82) V7 load(1, XDATA, add(CFA_XSP16, literal(-15)))
          CFI (cfiCond82) V8 load(1, XDATA, add(CFA_XSP16, literal(-14)))
          CFI (cfiCond82) V9 load(1, XDATA, add(CFA_XSP16, literal(-13)))
          CFI (cfiCond82) V10 load(1, XDATA, add(CFA_XSP16, literal(-12)))
          CFI (cfiCond82) V11 load(1, XDATA, add(CFA_XSP16, literal(-11)))
          CFI (cfiCond82) V12 load(1, XDATA, add(CFA_XSP16, literal(-10)))
          CFI (cfiCond82) V13 load(1, XDATA, add(CFA_XSP16, literal(-9)))
          CFI (cfiCond82) V14 load(1, XDATA, add(CFA_XSP16, literal(-8)))
          CFI (cfiCond82) V15 load(1, XDATA, add(CFA_XSP16, literal(-7)))
          CFI (cfiCond82) R7 load(1, XDATA, add(CFA_XSP16, literal(-6)))
          CFI (cfiCond82) ?RET_LOW load(1, XDATA, add(CFA_XSP16, literal(-5)))
          CFI (cfiCond82) ?RET_HIGH load(1, XDATA, add(CFA_XSP16, literal(-4)))
          CFI (cfiCond82) ?BRET_EXT load(1, XDATA, add(CFA_XSP16, literal(-3)))
          CFI (cfiCond82) DPL0 load(1, XDATA, add(CFA_XSP16, literal(-2)))
          CFI (cfiCond82) DPH0 load(1, XDATA, add(CFA_XSP16, literal(-1)))
          CFI (cfiCond82) CFA_SP SP+-4
          CFI (cfiCond82) CFA_XSP16 add(XSP16, 62)
          CFI Block cfiPicker83 Using cfiCommon1
          CFI (cfiPicker83) NoFunction
          CFI (cfiPicker83) Picker
        MOVX    A,@DPTR
        MOV     R0,A
        INC     DPTR
        MOVX    A,@DPTR
        MOV     R1,A
        RET
          CFI EndBlock cfiCond70
          CFI EndBlock cfiCond71
          CFI EndBlock cfiCond72
          CFI EndBlock cfiCond73
          CFI EndBlock cfiCond74
          CFI EndBlock cfiCond75
          CFI EndBlock cfiCond76
          CFI EndBlock cfiCond77
          CFI EndBlock cfiCond78
          CFI EndBlock cfiCond79
          CFI EndBlock cfiCond80
          CFI EndBlock cfiCond81
          CFI EndBlock cfiCond82
          CFI EndBlock cfiPicker83
// 1171 
// 1172 /*********************************************************************
// 1173  * @fn      zclSampleThermostat_IdentifyQueryRspCB
// 1174  *
// 1175  * @brief   Callback from the ZCL General Cluster Library when
// 1176  *          it received an Identity Query Response Command for this application.
// 1177  *
// 1178  * @param   srcAddr - requestor's address
// 1179  * @param   timeout - number of seconds to identify yourself (valid for query response)
// 1180  *
// 1181  * @return  none
// 1182  */

        RSEG BANKED_CODE:HUGECODE:NOROOT(0)
// 1183 static void zclSampleThermostat_IdentifyQueryRspCB(  zclIdentifyQueryRsp_t *pRsp )
zclSampleThermostat_IdentifyQueryRspCB:
          CFI Block cfiBlock84 Using cfiCommon0
          CFI Function zclSampleThermostat_IdentifyQueryRspCB
        CODE
// 1184 {
        FUNCALL zclSampleThermostat_IdentifyQueryRspCB, zcl_EZModeAction
        LOCFRAME ISTACK, 2, STACK
        LOCFRAME PSTACK, 0, STACK
        LOCFRAME XSTACK, 2, STACK
        LOCFRAME IOVERLAY, 0, STATIC
        LOCFRAME DOVERLAY, 0, STATIC
        ARGFRAME ISTACK, 2, STACK
        ARGFRAME PSTACK, 0, STACK
        ARGFRAME XSTACK, 2, STACK
        ARGFRAME IOVERLAY, 0, STATIC
        ARGFRAME DOVERLAY, 0, STATIC
        PUSH    DPL
          CFI DPL0 Frame(CFA_SP, 4)
          CFI CFA_SP SP+-4
        PUSH    DPH
          CFI DPH0 Frame(CFA_SP, 5)
          CFI CFA_SP SP+-5
        ; Saved register size: 2
        ; Auto size: 2
        MOV     A,#-0x2
        LCALL   ?ALLOC_XSTACK8
          CFI CFA_XSP16 add(XSP16, 2)
// 1185   (void)pRsp;
// 1186 #ifdef ZCL_EZMODE
// 1187   {
// 1188     zclEZMode_ActionData_t data;
// 1189     data.pIdentifyQueryRsp = pRsp;
        LCALL   ?Subroutine8 & 0xFFFF
// 1190     zcl_EZModeAction ( EZMODE_ACTION_IDENTIFY_QUERY_RSP, &data );
// 1191   }
??CrossCallReturnLabel_63:
        MOV     R1,#0x4
        LCALL   `??zcl_EZModeAction::?relay`; Banked call to: zcl_EZModeAction
// 1192 #endif
// 1193 }
        MOV     A,#0x2
        LJMP    ?Subroutine0 & 0xFFFF
          CFI EndBlock cfiBlock84
// 1194 
// 1195 /******************************************************************************
// 1196  *
// 1197  *  Functions for processing ZCL Foundation incoming Command/Response messages
// 1198  *
// 1199  *****************************************************************************/
// 1200 
// 1201 /*********************************************************************
// 1202  * @fn      zclSampleThermostat_ProcessIncomingMsg
// 1203  *
// 1204  * @brief   Process ZCL Foundation incoming message
// 1205  *
// 1206  * @param   pInMsg - pointer to the received message
// 1207  *
// 1208  * @return  none
// 1209  */
// 1210 static void zclSampleThermostat_ProcessIncomingMsg( zclIncomingMsg_t *pInMsg)
// 1211 {
// 1212   switch ( pInMsg->zclHdr.commandID )
// 1213   {
// 1214 #ifdef ZCL_READ
// 1215     case ZCL_CMD_READ_RSP:
// 1216       zclSampleThermostat_ProcessInReadRspCmd( pInMsg );
// 1217       break;
// 1218 #endif
// 1219 #ifdef ZCL_WRITE
// 1220     case ZCL_CMD_WRITE_RSP:
// 1221       zclSampleThermostat_ProcessInWriteRspCmd( pInMsg );
// 1222       break;
// 1223 #endif
// 1224 #ifdef ZCL_REPORT
// 1225     case ZCL_CMD_CONFIG_REPORT:
// 1226       //zclSampleThermostat_ProcessInConfigReportCmd( pInMsg );
// 1227       break;
// 1228 
// 1229     case ZCL_CMD_CONFIG_REPORT_RSP:
// 1230       //zclSampleThermostat_ProcessInConfigReportRspCmd( pInMsg );
// 1231       break;
// 1232 
// 1233     case ZCL_CMD_READ_REPORT_CFG:
// 1234       //zclSampleThermostat_ProcessInReadReportCfgCmd( pInMsg );
// 1235       break;
// 1236 
// 1237     case ZCL_CMD_READ_REPORT_CFG_RSP:
// 1238       //zclSampleThermostat_ProcessInReadReportCfgRspCmd( pInMsg );
// 1239       break;
// 1240 
// 1241     case ZCL_CMD_REPORT:
// 1242       zclSampleThermostat_ProcessInReportCmd( pInMsg );
// 1243       break;
// 1244 #endif
// 1245     case ZCL_CMD_DEFAULT_RSP:
// 1246       zclSampleThermostat_ProcessInDefaultRspCmd( pInMsg );
// 1247       break;
// 1248 
// 1249     default:
// 1250       break;
// 1251   }
// 1252 
// 1253   if ( pInMsg->attrCmd )
// 1254   {
// 1255     osal_mem_free( pInMsg->attrCmd );
// 1256   }
// 1257 }
// 1258 
// 1259 #ifdef ZCL_READ
// 1260 /*********************************************************************
// 1261  * @fn      zclSampleThermostat_ProcessInReadRspCmd
// 1262  *
// 1263  * @brief   Process the "Profile" Read Response Command
// 1264  *
// 1265  * @param   pInMsg - incoming message to process
// 1266  *
// 1267  * @return  none
// 1268  */
// 1269 static uint8 zclSampleThermostat_ProcessInReadRspCmd( zclIncomingMsg_t *pInMsg )
// 1270 {
// 1271   zclReadRspCmd_t *readRspCmd;
// 1272   uint8 i;
// 1273 
// 1274   readRspCmd = (zclReadRspCmd_t *)pInMsg->attrCmd;
// 1275   for (i = 0; i < readRspCmd->numAttr; i++)
// 1276   {
// 1277     // Notify the originator of the results of the original read attributes
// 1278     // attempt and, for each successfull request, the value of the requested
// 1279     // attribute
// 1280   }
// 1281 
// 1282   return ( TRUE );
// 1283 }
// 1284 #endif // ZCL_READ
// 1285 
// 1286 #ifdef ZCL_WRITE
// 1287 /*********************************************************************
// 1288  * @fn      zclSampleThermostat_ProcessInWriteRspCmd
// 1289  *
// 1290  * @brief   Process the "Profile" Write Response Command
// 1291  *
// 1292  * @param   pInMsg - incoming message to process
// 1293  *
// 1294  * @return  none
// 1295  */
// 1296 static uint8 zclSampleThermostat_ProcessInWriteRspCmd( zclIncomingMsg_t *pInMsg )
// 1297 {
// 1298   zclWriteRspCmd_t *writeRspCmd;
// 1299   uint8 i;
// 1300 
// 1301   writeRspCmd = (zclWriteRspCmd_t *)pInMsg->attrCmd;
// 1302   for (i = 0; i < writeRspCmd->numAttr; i++)
// 1303   {
// 1304     // Notify the device of the results of the its original write attributes
// 1305     // command.
// 1306   }
// 1307 
// 1308   return ( TRUE );
// 1309 }
// 1310 #endif // ZCL_WRITE
// 1311 
// 1312 #ifdef ZCL_REPORT
// 1313 /*********************************************************************
// 1314  * @fn      zclSampleThermostat_ProcessInReportCmd
// 1315  *
// 1316  * @brief   Process the "Profile" Report Command
// 1317  *
// 1318  * @param   pInMsg - incoming message to process
// 1319  *
// 1320  * @return  none
// 1321  */

        RSEG BANKED_CODE:HUGECODE:NOROOT(0)
// 1322 static void zclSampleThermostat_ProcessInReportCmd( zclIncomingMsg_t *pInMsg )
zclSampleThermostat_ProcessInReportCmd:
          CFI Block cfiBlock85 Using cfiCommon0
          CFI Function zclSampleThermostat_ProcessInReportCmd
        CODE
// 1323 {
        FUNCALL zclSampleThermostat_ProcessInReportCmd, HalLedBlink
        LOCFRAME ISTACK, 0, STACK
        LOCFRAME PSTACK, 0, STACK
        LOCFRAME XSTACK, 62, STACK
        LOCFRAME IOVERLAY, 0, STATIC
        LOCFRAME DOVERLAY, 0, STATIC
        ARGFRAME ISTACK, 0, STACK
        ARGFRAME PSTACK, 0, STACK
        ARGFRAME XSTACK, 62, STACK
        ARGFRAME IOVERLAY, 0, STATIC
        ARGFRAME DOVERLAY, 0, STATIC
        FUNCALL zclSampleThermostat_ProcessInReportCmd, UART_ZCmdPrintString
        LOCFRAME ISTACK, 0, STACK
        LOCFRAME PSTACK, 0, STACK
        LOCFRAME XSTACK, 62, STACK
        LOCFRAME IOVERLAY, 0, STATIC
        LOCFRAME DOVERLAY, 0, STATIC
        ARGFRAME ISTACK, 0, STACK
        ARGFRAME PSTACK, 0, STACK
        ARGFRAME XSTACK, 62, STACK
        ARGFRAME IOVERLAY, 0, STATIC
        ARGFRAME DOVERLAY, 0, STATIC
        FUNCALL zclSampleThermostat_ProcessInReportCmd, UART_ZCmdPrintNum
        LOCFRAME ISTACK, 0, STACK
        LOCFRAME PSTACK, 0, STACK
        LOCFRAME XSTACK, 62, STACK
        LOCFRAME IOVERLAY, 0, STATIC
        LOCFRAME DOVERLAY, 0, STATIC
        ARGFRAME ISTACK, 0, STACK
        ARGFRAME PSTACK, 0, STACK
        ARGFRAME XSTACK, 62, STACK
        ARGFRAME IOVERLAY, 0, STATIC
        ARGFRAME DOVERLAY, 0, STATIC
        FUNCALL zclSampleThermostat_ProcessInReportCmd, UART_ZCmdPrintString
        LOCFRAME ISTACK, 0, STACK
        LOCFRAME PSTACK, 0, STACK
        LOCFRAME XSTACK, 62, STACK
        LOCFRAME IOVERLAY, 0, STATIC
        LOCFRAME DOVERLAY, 0, STATIC
        ARGFRAME ISTACK, 0, STACK
        ARGFRAME PSTACK, 0, STACK
        ARGFRAME XSTACK, 62, STACK
        ARGFRAME IOVERLAY, 0, STATIC
        ARGFRAME DOVERLAY, 0, STATIC
        FUNCALL zclSampleThermostat_ProcessInReportCmd, UART_ZCmdPrintNum
        LOCFRAME ISTACK, 0, STACK
        LOCFRAME PSTACK, 0, STACK
        LOCFRAME XSTACK, 62, STACK
        LOCFRAME IOVERLAY, 0, STATIC
        LOCFRAME DOVERLAY, 0, STATIC
        ARGFRAME ISTACK, 0, STACK
        ARGFRAME PSTACK, 0, STACK
        ARGFRAME XSTACK, 62, STACK
        ARGFRAME IOVERLAY, 0, STATIC
        ARGFRAME DOVERLAY, 0, STATIC
        FUNCALL zclSampleThermostat_ProcessInReportCmd, UART_ZCmdPrintString
        LOCFRAME ISTACK, 0, STACK
        LOCFRAME PSTACK, 0, STACK
        LOCFRAME XSTACK, 62, STACK
        LOCFRAME IOVERLAY, 0, STATIC
        LOCFRAME DOVERLAY, 0, STATIC
        ARGFRAME ISTACK, 0, STACK
        ARGFRAME PSTACK, 0, STACK
        ARGFRAME XSTACK, 62, STACK
        ARGFRAME IOVERLAY, 0, STATIC
        ARGFRAME DOVERLAY, 0, STATIC
        FUNCALL zclSampleThermostat_ProcessInReportCmd, UART_ZCmdPrintNum
        LOCFRAME ISTACK, 0, STACK
        LOCFRAME PSTACK, 0, STACK
        LOCFRAME XSTACK, 62, STACK
        LOCFRAME IOVERLAY, 0, STATIC
        LOCFRAME DOVERLAY, 0, STATIC
        ARGFRAME ISTACK, 0, STACK
        ARGFRAME PSTACK, 0, STACK
        ARGFRAME XSTACK, 62, STACK
        ARGFRAME IOVERLAY, 0, STATIC
        ARGFRAME DOVERLAY, 0, STATIC
        FUNCALL zclSampleThermostat_ProcessInReportCmd, UART_ZCmdPrintString
        LOCFRAME ISTACK, 0, STACK
        LOCFRAME PSTACK, 0, STACK
        LOCFRAME XSTACK, 62, STACK
        LOCFRAME IOVERLAY, 0, STATIC
        LOCFRAME DOVERLAY, 0, STATIC
        ARGFRAME ISTACK, 0, STACK
        ARGFRAME PSTACK, 0, STACK
        ARGFRAME XSTACK, 62, STACK
        ARGFRAME IOVERLAY, 0, STATIC
        ARGFRAME DOVERLAY, 0, STATIC
        FUNCALL zclSampleThermostat_ProcessInReportCmd, UART_ZCmdPrintNum
        LOCFRAME ISTACK, 0, STACK
        LOCFRAME PSTACK, 0, STACK
        LOCFRAME XSTACK, 62, STACK
        LOCFRAME IOVERLAY, 0, STATIC
        LOCFRAME DOVERLAY, 0, STATIC
        ARGFRAME ISTACK, 0, STACK
        ARGFRAME PSTACK, 0, STACK
        ARGFRAME XSTACK, 62, STACK
        ARGFRAME IOVERLAY, 0, STATIC
        ARGFRAME DOVERLAY, 0, STATIC
        FUNCALL zclSampleThermostat_ProcessInReportCmd, UART_ZCmdPrintString
        LOCFRAME ISTACK, 0, STACK
        LOCFRAME PSTACK, 0, STACK
        LOCFRAME XSTACK, 62, STACK
        LOCFRAME IOVERLAY, 0, STATIC
        LOCFRAME DOVERLAY, 0, STATIC
        ARGFRAME ISTACK, 0, STACK
        ARGFRAME PSTACK, 0, STACK
        ARGFRAME XSTACK, 62, STACK
        ARGFRAME IOVERLAY, 0, STATIC
        ARGFRAME DOVERLAY, 0, STATIC
        FUNCALL zclSampleThermostat_ProcessInReportCmd, UART_ZCmdPrintNum
        LOCFRAME ISTACK, 0, STACK
        LOCFRAME PSTACK, 0, STACK
        LOCFRAME XSTACK, 62, STACK
        LOCFRAME IOVERLAY, 0, STATIC
        LOCFRAME DOVERLAY, 0, STATIC
        ARGFRAME ISTACK, 0, STACK
        ARGFRAME PSTACK, 0, STACK
        ARGFRAME XSTACK, 62, STACK
        ARGFRAME IOVERLAY, 0, STATIC
        ARGFRAME DOVERLAY, 0, STATIC
        FUNCALL zclSampleThermostat_ProcessInReportCmd, UART_ZCmdPrintString
        LOCFRAME ISTACK, 0, STACK
        LOCFRAME PSTACK, 0, STACK
        LOCFRAME XSTACK, 62, STACK
        LOCFRAME IOVERLAY, 0, STATIC
        LOCFRAME DOVERLAY, 0, STATIC
        ARGFRAME ISTACK, 0, STACK
        ARGFRAME PSTACK, 0, STACK
        ARGFRAME XSTACK, 62, STACK
        ARGFRAME IOVERLAY, 0, STATIC
        ARGFRAME DOVERLAY, 0, STATIC
        FUNCALL zclSampleThermostat_ProcessInReportCmd, UART_ZCmdPrintNum
        LOCFRAME ISTACK, 0, STACK
        LOCFRAME PSTACK, 0, STACK
        LOCFRAME XSTACK, 62, STACK
        LOCFRAME IOVERLAY, 0, STATIC
        LOCFRAME DOVERLAY, 0, STATIC
        ARGFRAME ISTACK, 0, STACK
        ARGFRAME PSTACK, 0, STACK
        ARGFRAME XSTACK, 62, STACK
        ARGFRAME IOVERLAY, 0, STATIC
        ARGFRAME DOVERLAY, 0, STATIC
        FUNCALL zclSampleThermostat_ProcessInReportCmd, UART_ZCmdPrintString
        LOCFRAME ISTACK, 0, STACK
        LOCFRAME PSTACK, 0, STACK
        LOCFRAME XSTACK, 62, STACK
        LOCFRAME IOVERLAY, 0, STATIC
        LOCFRAME DOVERLAY, 0, STATIC
        ARGFRAME ISTACK, 0, STACK
        ARGFRAME PSTACK, 0, STACK
        ARGFRAME XSTACK, 62, STACK
        ARGFRAME IOVERLAY, 0, STATIC
        ARGFRAME DOVERLAY, 0, STATIC
        FUNCALL zclSampleThermostat_ProcessInReportCmd, UART_ZCmdPrintNum
        LOCFRAME ISTACK, 0, STACK
        LOCFRAME PSTACK, 0, STACK
        LOCFRAME XSTACK, 62, STACK
        LOCFRAME IOVERLAY, 0, STATIC
        LOCFRAME DOVERLAY, 0, STATIC
        ARGFRAME ISTACK, 0, STACK
        ARGFRAME PSTACK, 0, STACK
        ARGFRAME XSTACK, 62, STACK
        ARGFRAME IOVERLAY, 0, STATIC
        ARGFRAME DOVERLAY, 0, STATIC
        FUNCALL zclSampleThermostat_ProcessInReportCmd, UART_ZCmdPrint
        LOCFRAME ISTACK, 0, STACK
        LOCFRAME PSTACK, 0, STACK
        LOCFRAME XSTACK, 62, STACK
        LOCFRAME IOVERLAY, 0, STATIC
        LOCFRAME DOVERLAY, 0, STATIC
        ARGFRAME ISTACK, 0, STACK
        ARGFRAME PSTACK, 0, STACK
        ARGFRAME XSTACK, 62, STACK
        ARGFRAME IOVERLAY, 0, STATIC
        ARGFRAME DOVERLAY, 0, STATIC
        FUNCALL zclSampleThermostat_ProcessInReportCmd, HalLedBlink
        LOCFRAME ISTACK, 0, STACK
        LOCFRAME PSTACK, 0, STACK
        LOCFRAME XSTACK, 62, STACK
        LOCFRAME IOVERLAY, 0, STATIC
        LOCFRAME DOVERLAY, 0, STATIC
        ARGFRAME ISTACK, 0, STACK
        ARGFRAME PSTACK, 0, STACK
        ARGFRAME XSTACK, 62, STACK
        ARGFRAME IOVERLAY, 0, STATIC
        ARGFRAME DOVERLAY, 0, STATIC
        FUNCALL zclSampleThermostat_ProcessInReportCmd, UART_ZCmdPrintString
        LOCFRAME ISTACK, 0, STACK
        LOCFRAME PSTACK, 0, STACK
        LOCFRAME XSTACK, 62, STACK
        LOCFRAME IOVERLAY, 0, STATIC
        LOCFRAME DOVERLAY, 0, STATIC
        ARGFRAME ISTACK, 0, STACK
        ARGFRAME PSTACK, 0, STACK
        ARGFRAME XSTACK, 62, STACK
        ARGFRAME IOVERLAY, 0, STATIC
        ARGFRAME DOVERLAY, 0, STATIC
        FUNCALL zclSampleThermostat_ProcessInReportCmd, UART_ZCmdPrintNum
        LOCFRAME ISTACK, 0, STACK
        LOCFRAME PSTACK, 0, STACK
        LOCFRAME XSTACK, 62, STACK
        LOCFRAME IOVERLAY, 0, STATIC
        LOCFRAME DOVERLAY, 0, STATIC
        ARGFRAME ISTACK, 0, STACK
        ARGFRAME PSTACK, 0, STACK
        ARGFRAME XSTACK, 62, STACK
        ARGFRAME IOVERLAY, 0, STATIC
        ARGFRAME DOVERLAY, 0, STATIC
        FUNCALL zclSampleThermostat_ProcessInReportCmd, UART_ZCmdPrintString
        LOCFRAME ISTACK, 0, STACK
        LOCFRAME PSTACK, 0, STACK
        LOCFRAME XSTACK, 62, STACK
        LOCFRAME IOVERLAY, 0, STATIC
        LOCFRAME DOVERLAY, 0, STATIC
        ARGFRAME ISTACK, 0, STACK
        ARGFRAME PSTACK, 0, STACK
        ARGFRAME XSTACK, 62, STACK
        ARGFRAME IOVERLAY, 0, STATIC
        ARGFRAME DOVERLAY, 0, STATIC
        FUNCALL zclSampleThermostat_ProcessInReportCmd, UART_ZCmdPrintNum
        LOCFRAME ISTACK, 0, STACK
        LOCFRAME PSTACK, 0, STACK
        LOCFRAME XSTACK, 62, STACK
        LOCFRAME IOVERLAY, 0, STATIC
        LOCFRAME DOVERLAY, 0, STATIC
        ARGFRAME ISTACK, 0, STACK
        ARGFRAME PSTACK, 0, STACK
        ARGFRAME XSTACK, 62, STACK
        ARGFRAME IOVERLAY, 0, STATIC
        ARGFRAME DOVERLAY, 0, STATIC
        FUNCALL zclSampleThermostat_ProcessInReportCmd, UART_ZCmdPrintString
        LOCFRAME ISTACK, 0, STACK
        LOCFRAME PSTACK, 0, STACK
        LOCFRAME XSTACK, 62, STACK
        LOCFRAME IOVERLAY, 0, STATIC
        LOCFRAME DOVERLAY, 0, STATIC
        ARGFRAME ISTACK, 0, STACK
        ARGFRAME PSTACK, 0, STACK
        ARGFRAME XSTACK, 62, STACK
        ARGFRAME IOVERLAY, 0, STATIC
        ARGFRAME DOVERLAY, 0, STATIC
        FUNCALL zclSampleThermostat_ProcessInReportCmd, UART_ZCmdPrintNum
        LOCFRAME ISTACK, 0, STACK
        LOCFRAME PSTACK, 0, STACK
        LOCFRAME XSTACK, 62, STACK
        LOCFRAME IOVERLAY, 0, STATIC
        LOCFRAME DOVERLAY, 0, STATIC
        ARGFRAME ISTACK, 0, STACK
        ARGFRAME PSTACK, 0, STACK
        ARGFRAME XSTACK, 62, STACK
        ARGFRAME IOVERLAY, 0, STATIC
        ARGFRAME DOVERLAY, 0, STATIC
        FUNCALL zclSampleThermostat_ProcessInReportCmd, UART_ZCmdPrintString
        LOCFRAME ISTACK, 0, STACK
        LOCFRAME PSTACK, 0, STACK
        LOCFRAME XSTACK, 62, STACK
        LOCFRAME IOVERLAY, 0, STATIC
        LOCFRAME DOVERLAY, 0, STATIC
        ARGFRAME ISTACK, 0, STACK
        ARGFRAME PSTACK, 0, STACK
        ARGFRAME XSTACK, 62, STACK
        ARGFRAME IOVERLAY, 0, STATIC
        ARGFRAME DOVERLAY, 0, STATIC
        FUNCALL zclSampleThermostat_ProcessInReportCmd, UART_ZCmdPrintNum
        LOCFRAME ISTACK, 0, STACK
        LOCFRAME PSTACK, 0, STACK
        LOCFRAME XSTACK, 62, STACK
        LOCFRAME IOVERLAY, 0, STATIC
        LOCFRAME DOVERLAY, 0, STATIC
        ARGFRAME ISTACK, 0, STACK
        ARGFRAME PSTACK, 0, STACK
        ARGFRAME XSTACK, 62, STACK
        ARGFRAME IOVERLAY, 0, STATIC
        ARGFRAME DOVERLAY, 0, STATIC
        FUNCALL zclSampleThermostat_ProcessInReportCmd, UART_ZCmdPrintString
        LOCFRAME ISTACK, 0, STACK
        LOCFRAME PSTACK, 0, STACK
        LOCFRAME XSTACK, 62, STACK
        LOCFRAME IOVERLAY, 0, STATIC
        LOCFRAME DOVERLAY, 0, STATIC
        ARGFRAME ISTACK, 0, STACK
        ARGFRAME PSTACK, 0, STACK
        ARGFRAME XSTACK, 62, STACK
        ARGFRAME IOVERLAY, 0, STATIC
        ARGFRAME DOVERLAY, 0, STATIC
        FUNCALL zclSampleThermostat_ProcessInReportCmd, UART_ZCmdPrintNum
        LOCFRAME ISTACK, 0, STACK
        LOCFRAME PSTACK, 0, STACK
        LOCFRAME XSTACK, 62, STACK
        LOCFRAME IOVERLAY, 0, STATIC
        LOCFRAME DOVERLAY, 0, STATIC
        ARGFRAME ISTACK, 0, STACK
        ARGFRAME PSTACK, 0, STACK
        ARGFRAME XSTACK, 62, STACK
        ARGFRAME IOVERLAY, 0, STATIC
        ARGFRAME DOVERLAY, 0, STATIC
        FUNCALL zclSampleThermostat_ProcessInReportCmd, UART_ZCmdPrint
        LOCFRAME ISTACK, 0, STACK
        LOCFRAME PSTACK, 0, STACK
        LOCFRAME XSTACK, 62, STACK
        LOCFRAME IOVERLAY, 0, STATIC
        LOCFRAME DOVERLAY, 0, STATIC
        ARGFRAME ISTACK, 0, STACK
        ARGFRAME PSTACK, 0, STACK
        ARGFRAME XSTACK, 62, STACK
        ARGFRAME IOVERLAY, 0, STATIC
        ARGFRAME DOVERLAY, 0, STATIC
        FUNCALL zclSampleThermostat_ProcessInReportCmd, UART_ZCmdPrintString
        LOCFRAME ISTACK, 0, STACK
        LOCFRAME PSTACK, 0, STACK
        LOCFRAME XSTACK, 62, STACK
        LOCFRAME IOVERLAY, 0, STATIC
        LOCFRAME DOVERLAY, 0, STATIC
        ARGFRAME ISTACK, 0, STACK
        ARGFRAME PSTACK, 0, STACK
        ARGFRAME XSTACK, 62, STACK
        ARGFRAME IOVERLAY, 0, STATIC
        ARGFRAME DOVERLAY, 0, STATIC
        FUNCALL zclSampleThermostat_ProcessInReportCmd, UART_ZCmdPrintNum
        LOCFRAME ISTACK, 0, STACK
        LOCFRAME PSTACK, 0, STACK
        LOCFRAME XSTACK, 62, STACK
        LOCFRAME IOVERLAY, 0, STATIC
        LOCFRAME DOVERLAY, 0, STATIC
        ARGFRAME ISTACK, 0, STACK
        ARGFRAME PSTACK, 0, STACK
        ARGFRAME XSTACK, 62, STACK
        ARGFRAME IOVERLAY, 0, STATIC
        ARGFRAME DOVERLAY, 0, STATIC
        FUNCALL zclSampleThermostat_ProcessInReportCmd, UART_ZCmdPrintString
        LOCFRAME ISTACK, 0, STACK
        LOCFRAME PSTACK, 0, STACK
        LOCFRAME XSTACK, 62, STACK
        LOCFRAME IOVERLAY, 0, STATIC
        LOCFRAME DOVERLAY, 0, STATIC
        ARGFRAME ISTACK, 0, STACK
        ARGFRAME PSTACK, 0, STACK
        ARGFRAME XSTACK, 62, STACK
        ARGFRAME IOVERLAY, 0, STATIC
        ARGFRAME DOVERLAY, 0, STATIC
        FUNCALL zclSampleThermostat_ProcessInReportCmd, UART_ZCmdPrintNum
        LOCFRAME ISTACK, 0, STACK
        LOCFRAME PSTACK, 0, STACK
        LOCFRAME XSTACK, 62, STACK
        LOCFRAME IOVERLAY, 0, STATIC
        LOCFRAME DOVERLAY, 0, STATIC
        ARGFRAME ISTACK, 0, STACK
        ARGFRAME PSTACK, 0, STACK
        ARGFRAME XSTACK, 62, STACK
        ARGFRAME IOVERLAY, 0, STATIC
        ARGFRAME DOVERLAY, 0, STATIC
        FUNCALL zclSampleThermostat_ProcessInReportCmd, UART_ZCmdPrintString
        LOCFRAME ISTACK, 0, STACK
        LOCFRAME PSTACK, 0, STACK
        LOCFRAME XSTACK, 62, STACK
        LOCFRAME IOVERLAY, 0, STATIC
        LOCFRAME DOVERLAY, 0, STATIC
        ARGFRAME ISTACK, 0, STACK
        ARGFRAME PSTACK, 0, STACK
        ARGFRAME XSTACK, 62, STACK
        ARGFRAME IOVERLAY, 0, STATIC
        ARGFRAME DOVERLAY, 0, STATIC
        FUNCALL zclSampleThermostat_ProcessInReportCmd, UART_ZCmdPrintNum
        LOCFRAME ISTACK, 0, STACK
        LOCFRAME PSTACK, 0, STACK
        LOCFRAME XSTACK, 62, STACK
        LOCFRAME IOVERLAY, 0, STATIC
        LOCFRAME DOVERLAY, 0, STATIC
        ARGFRAME ISTACK, 0, STACK
        ARGFRAME PSTACK, 0, STACK
        ARGFRAME XSTACK, 62, STACK
        ARGFRAME IOVERLAY, 0, STATIC
        ARGFRAME DOVERLAY, 0, STATIC
        FUNCALL zclSampleThermostat_ProcessInReportCmd, UART_ZCmdPrintString
        LOCFRAME ISTACK, 0, STACK
        LOCFRAME PSTACK, 0, STACK
        LOCFRAME XSTACK, 62, STACK
        LOCFRAME IOVERLAY, 0, STATIC
        LOCFRAME DOVERLAY, 0, STATIC
        ARGFRAME ISTACK, 0, STACK
        ARGFRAME PSTACK, 0, STACK
        ARGFRAME XSTACK, 62, STACK
        ARGFRAME IOVERLAY, 0, STATIC
        ARGFRAME DOVERLAY, 0, STATIC
        FUNCALL zclSampleThermostat_ProcessInReportCmd, UART_ZCmdPrintNum
        LOCFRAME ISTACK, 0, STACK
        LOCFRAME PSTACK, 0, STACK
        LOCFRAME XSTACK, 62, STACK
        LOCFRAME IOVERLAY, 0, STATIC
        LOCFRAME DOVERLAY, 0, STATIC
        ARGFRAME ISTACK, 0, STACK
        ARGFRAME PSTACK, 0, STACK
        ARGFRAME XSTACK, 62, STACK
        ARGFRAME IOVERLAY, 0, STATIC
        ARGFRAME DOVERLAY, 0, STATIC
        FUNCALL zclSampleThermostat_ProcessInReportCmd, UART_ZCmdPrintString
        LOCFRAME ISTACK, 0, STACK
        LOCFRAME PSTACK, 0, STACK
        LOCFRAME XSTACK, 62, STACK
        LOCFRAME IOVERLAY, 0, STATIC
        LOCFRAME DOVERLAY, 0, STATIC
        ARGFRAME ISTACK, 0, STACK
        ARGFRAME PSTACK, 0, STACK
        ARGFRAME XSTACK, 62, STACK
        ARGFRAME IOVERLAY, 0, STATIC
        ARGFRAME DOVERLAY, 0, STATIC
        FUNCALL zclSampleThermostat_ProcessInReportCmd, UART_ZCmdPrintNum
        LOCFRAME ISTACK, 0, STACK
        LOCFRAME PSTACK, 0, STACK
        LOCFRAME XSTACK, 62, STACK
        LOCFRAME IOVERLAY, 0, STATIC
        LOCFRAME DOVERLAY, 0, STATIC
        ARGFRAME ISTACK, 0, STACK
        ARGFRAME PSTACK, 0, STACK
        ARGFRAME XSTACK, 62, STACK
        ARGFRAME IOVERLAY, 0, STATIC
        ARGFRAME DOVERLAY, 0, STATIC
        FUNCALL zclSampleThermostat_ProcessInReportCmd, UART_ZCmdPrintString
        LOCFRAME ISTACK, 0, STACK
        LOCFRAME PSTACK, 0, STACK
        LOCFRAME XSTACK, 62, STACK
        LOCFRAME IOVERLAY, 0, STATIC
        LOCFRAME DOVERLAY, 0, STATIC
        ARGFRAME ISTACK, 0, STACK
        ARGFRAME PSTACK, 0, STACK
        ARGFRAME XSTACK, 62, STACK
        ARGFRAME IOVERLAY, 0, STATIC
        ARGFRAME DOVERLAY, 0, STATIC
        FUNCALL zclSampleThermostat_ProcessInReportCmd, UART_ZCmdPrintNum
        LOCFRAME ISTACK, 0, STACK
        LOCFRAME PSTACK, 0, STACK
        LOCFRAME XSTACK, 62, STACK
        LOCFRAME IOVERLAY, 0, STATIC
        LOCFRAME DOVERLAY, 0, STATIC
        ARGFRAME ISTACK, 0, STACK
        ARGFRAME PSTACK, 0, STACK
        ARGFRAME XSTACK, 62, STACK
        ARGFRAME IOVERLAY, 0, STATIC
        ARGFRAME DOVERLAY, 0, STATIC
        FUNCALL zclSampleThermostat_ProcessInReportCmd, UART_ZCmdPrint
        LOCFRAME ISTACK, 0, STACK
        LOCFRAME PSTACK, 0, STACK
        LOCFRAME XSTACK, 62, STACK
        LOCFRAME IOVERLAY, 0, STATIC
        LOCFRAME DOVERLAY, 0, STATIC
        ARGFRAME ISTACK, 0, STACK
        ARGFRAME PSTACK, 0, STACK
        ARGFRAME XSTACK, 62, STACK
        ARGFRAME IOVERLAY, 0, STATIC
        ARGFRAME DOVERLAY, 0, STATIC
        FUNCALL zclSampleThermostat_ProcessInReportCmd, UART_ZCmdPrintString
        LOCFRAME ISTACK, 0, STACK
        LOCFRAME PSTACK, 0, STACK
        LOCFRAME XSTACK, 62, STACK
        LOCFRAME IOVERLAY, 0, STATIC
        LOCFRAME DOVERLAY, 0, STATIC
        ARGFRAME ISTACK, 0, STACK
        ARGFRAME PSTACK, 0, STACK
        ARGFRAME XSTACK, 62, STACK
        ARGFRAME IOVERLAY, 0, STATIC
        ARGFRAME DOVERLAY, 0, STATIC
        FUNCALL zclSampleThermostat_ProcessInReportCmd, UART_ZCmdPrintNum
        LOCFRAME ISTACK, 0, STACK
        LOCFRAME PSTACK, 0, STACK
        LOCFRAME XSTACK, 62, STACK
        LOCFRAME IOVERLAY, 0, STATIC
        LOCFRAME DOVERLAY, 0, STATIC
        ARGFRAME ISTACK, 0, STACK
        ARGFRAME PSTACK, 0, STACK
        ARGFRAME XSTACK, 62, STACK
        ARGFRAME IOVERLAY, 0, STATIC
        ARGFRAME DOVERLAY, 0, STATIC
        FUNCALL zclSampleThermostat_ProcessInReportCmd, UART_ZCmdPrintString
        LOCFRAME ISTACK, 0, STACK
        LOCFRAME PSTACK, 0, STACK
        LOCFRAME XSTACK, 62, STACK
        LOCFRAME IOVERLAY, 0, STATIC
        LOCFRAME DOVERLAY, 0, STATIC
        ARGFRAME ISTACK, 0, STACK
        ARGFRAME PSTACK, 0, STACK
        ARGFRAME XSTACK, 62, STACK
        ARGFRAME IOVERLAY, 0, STATIC
        ARGFRAME DOVERLAY, 0, STATIC
        FUNCALL zclSampleThermostat_ProcessInReportCmd, HalUARTWrite
        LOCFRAME ISTACK, 0, STACK
        LOCFRAME PSTACK, 0, STACK
        LOCFRAME XSTACK, 62, STACK
        LOCFRAME IOVERLAY, 0, STATIC
        LOCFRAME DOVERLAY, 0, STATIC
        ARGFRAME ISTACK, 0, STACK
        ARGFRAME PSTACK, 0, STACK
        ARGFRAME XSTACK, 62, STACK
        ARGFRAME IOVERLAY, 0, STATIC
        ARGFRAME DOVERLAY, 0, STATIC
        FUNCALL zclSampleThermostat_ProcessInReportCmd, UART_ZCmdPrintString
        LOCFRAME ISTACK, 0, STACK
        LOCFRAME PSTACK, 0, STACK
        LOCFRAME XSTACK, 62, STACK
        LOCFRAME IOVERLAY, 0, STATIC
        LOCFRAME DOVERLAY, 0, STATIC
        ARGFRAME ISTACK, 0, STACK
        ARGFRAME PSTACK, 0, STACK
        ARGFRAME XSTACK, 62, STACK
        ARGFRAME IOVERLAY, 0, STATIC
        ARGFRAME DOVERLAY, 0, STATIC
        FUNCALL zclSampleThermostat_ProcessInReportCmd, UART_ZCmdPrintNum
        LOCFRAME ISTACK, 0, STACK
        LOCFRAME PSTACK, 0, STACK
        LOCFRAME XSTACK, 62, STACK
        LOCFRAME IOVERLAY, 0, STATIC
        LOCFRAME DOVERLAY, 0, STATIC
        ARGFRAME ISTACK, 0, STACK
        ARGFRAME PSTACK, 0, STACK
        ARGFRAME XSTACK, 62, STACK
        ARGFRAME IOVERLAY, 0, STATIC
        ARGFRAME DOVERLAY, 0, STATIC
        FUNCALL zclSampleThermostat_ProcessInReportCmd, UART_ZCmdPrintNum
        LOCFRAME ISTACK, 0, STACK
        LOCFRAME PSTACK, 0, STACK
        LOCFRAME XSTACK, 62, STACK
        LOCFRAME IOVERLAY, 0, STATIC
        LOCFRAME DOVERLAY, 0, STATIC
        ARGFRAME ISTACK, 0, STACK
        ARGFRAME PSTACK, 0, STACK
        ARGFRAME XSTACK, 62, STACK
        ARGFRAME IOVERLAY, 0, STATIC
        ARGFRAME DOVERLAY, 0, STATIC
        FUNCALL zclSampleThermostat_ProcessInReportCmd, UART_ZCmdPrint
        LOCFRAME ISTACK, 0, STACK
        LOCFRAME PSTACK, 0, STACK
        LOCFRAME XSTACK, 62, STACK
        LOCFRAME IOVERLAY, 0, STATIC
        LOCFRAME DOVERLAY, 0, STATIC
        ARGFRAME ISTACK, 0, STACK
        ARGFRAME PSTACK, 0, STACK
        ARGFRAME XSTACK, 62, STACK
        ARGFRAME IOVERLAY, 0, STATIC
        ARGFRAME DOVERLAY, 0, STATIC
        FUNCALL zclSampleThermostat_ProcessInReportCmd, HalLedBlink
        LOCFRAME ISTACK, 0, STACK
        LOCFRAME PSTACK, 0, STACK
        LOCFRAME XSTACK, 62, STACK
        LOCFRAME IOVERLAY, 0, STATIC
        LOCFRAME DOVERLAY, 0, STATIC
        ARGFRAME ISTACK, 0, STACK
        ARGFRAME PSTACK, 0, STACK
        ARGFRAME XSTACK, 62, STACK
        ARGFRAME IOVERLAY, 0, STATIC
        ARGFRAME DOVERLAY, 0, STATIC
        FUNCALL zclSampleThermostat_ProcessInReportCmd, UART_ZCmdPrintString
        LOCFRAME ISTACK, 0, STACK
        LOCFRAME PSTACK, 0, STACK
        LOCFRAME XSTACK, 62, STACK
        LOCFRAME IOVERLAY, 0, STATIC
        LOCFRAME DOVERLAY, 0, STATIC
        ARGFRAME ISTACK, 0, STACK
        ARGFRAME PSTACK, 0, STACK
        ARGFRAME XSTACK, 62, STACK
        ARGFRAME IOVERLAY, 0, STATIC
        ARGFRAME DOVERLAY, 0, STATIC
        FUNCALL zclSampleThermostat_ProcessInReportCmd, UART_ZCmdPrintNum
        LOCFRAME ISTACK, 0, STACK
        LOCFRAME PSTACK, 0, STACK
        LOCFRAME XSTACK, 62, STACK
        LOCFRAME IOVERLAY, 0, STATIC
        LOCFRAME DOVERLAY, 0, STATIC
        ARGFRAME ISTACK, 0, STACK
        ARGFRAME PSTACK, 0, STACK
        ARGFRAME XSTACK, 62, STACK
        ARGFRAME IOVERLAY, 0, STATIC
        ARGFRAME DOVERLAY, 0, STATIC
        FUNCALL zclSampleThermostat_ProcessInReportCmd, UART_ZCmdPrintString
        LOCFRAME ISTACK, 0, STACK
        LOCFRAME PSTACK, 0, STACK
        LOCFRAME XSTACK, 62, STACK
        LOCFRAME IOVERLAY, 0, STATIC
        LOCFRAME DOVERLAY, 0, STATIC
        ARGFRAME ISTACK, 0, STACK
        ARGFRAME PSTACK, 0, STACK
        ARGFRAME XSTACK, 62, STACK
        ARGFRAME IOVERLAY, 0, STATIC
        ARGFRAME DOVERLAY, 0, STATIC
        FUNCALL zclSampleThermostat_ProcessInReportCmd, UART_ZCmdPrintNum
        LOCFRAME ISTACK, 0, STACK
        LOCFRAME PSTACK, 0, STACK
        LOCFRAME XSTACK, 62, STACK
        LOCFRAME IOVERLAY, 0, STATIC
        LOCFRAME DOVERLAY, 0, STATIC
        ARGFRAME ISTACK, 0, STACK
        ARGFRAME PSTACK, 0, STACK
        ARGFRAME XSTACK, 62, STACK
        ARGFRAME IOVERLAY, 0, STATIC
        ARGFRAME DOVERLAY, 0, STATIC
        FUNCALL zclSampleThermostat_ProcessInReportCmd, UART_ZCmdPrintString
        LOCFRAME ISTACK, 0, STACK
        LOCFRAME PSTACK, 0, STACK
        LOCFRAME XSTACK, 62, STACK
        LOCFRAME IOVERLAY, 0, STATIC
        LOCFRAME DOVERLAY, 0, STATIC
        ARGFRAME ISTACK, 0, STACK
        ARGFRAME PSTACK, 0, STACK
        ARGFRAME XSTACK, 62, STACK
        ARGFRAME IOVERLAY, 0, STATIC
        ARGFRAME DOVERLAY, 0, STATIC
        FUNCALL zclSampleThermostat_ProcessInReportCmd, UART_ZCmdPrintNum
        LOCFRAME ISTACK, 0, STACK
        LOCFRAME PSTACK, 0, STACK
        LOCFRAME XSTACK, 62, STACK
        LOCFRAME IOVERLAY, 0, STATIC
        LOCFRAME DOVERLAY, 0, STATIC
        ARGFRAME ISTACK, 0, STACK
        ARGFRAME PSTACK, 0, STACK
        ARGFRAME XSTACK, 62, STACK
        ARGFRAME IOVERLAY, 0, STATIC
        ARGFRAME DOVERLAY, 0, STATIC
        FUNCALL zclSampleThermostat_ProcessInReportCmd, UART_ZCmdPrintString
        LOCFRAME ISTACK, 0, STACK
        LOCFRAME PSTACK, 0, STACK
        LOCFRAME XSTACK, 62, STACK
        LOCFRAME IOVERLAY, 0, STATIC
        LOCFRAME DOVERLAY, 0, STATIC
        ARGFRAME ISTACK, 0, STACK
        ARGFRAME PSTACK, 0, STACK
        ARGFRAME XSTACK, 62, STACK
        ARGFRAME IOVERLAY, 0, STATIC
        ARGFRAME DOVERLAY, 0, STATIC
        FUNCALL zclSampleThermostat_ProcessInReportCmd, UART_ZCmdPrintNum
        LOCFRAME ISTACK, 0, STACK
        LOCFRAME PSTACK, 0, STACK
        LOCFRAME XSTACK, 62, STACK
        LOCFRAME IOVERLAY, 0, STATIC
        LOCFRAME DOVERLAY, 0, STATIC
        ARGFRAME ISTACK, 0, STACK
        ARGFRAME PSTACK, 0, STACK
        ARGFRAME XSTACK, 62, STACK
        ARGFRAME IOVERLAY, 0, STATIC
        ARGFRAME DOVERLAY, 0, STATIC
        FUNCALL zclSampleThermostat_ProcessInReportCmd, UART_ZCmdPrintString
        LOCFRAME ISTACK, 0, STACK
        LOCFRAME PSTACK, 0, STACK
        LOCFRAME XSTACK, 62, STACK
        LOCFRAME IOVERLAY, 0, STATIC
        LOCFRAME DOVERLAY, 0, STATIC
        ARGFRAME ISTACK, 0, STACK
        ARGFRAME PSTACK, 0, STACK
        ARGFRAME XSTACK, 62, STACK
        ARGFRAME IOVERLAY, 0, STATIC
        ARGFRAME DOVERLAY, 0, STATIC
        FUNCALL zclSampleThermostat_ProcessInReportCmd, UART_ZCmdPrintNum
        LOCFRAME ISTACK, 0, STACK
        LOCFRAME PSTACK, 0, STACK
        LOCFRAME XSTACK, 62, STACK
        LOCFRAME IOVERLAY, 0, STATIC
        LOCFRAME DOVERLAY, 0, STATIC
        ARGFRAME ISTACK, 0, STACK
        ARGFRAME PSTACK, 0, STACK
        ARGFRAME XSTACK, 62, STACK
        ARGFRAME IOVERLAY, 0, STATIC
        ARGFRAME DOVERLAY, 0, STATIC
        FUNCALL zclSampleThermostat_ProcessInReportCmd, UART_ZCmdPrintString
        LOCFRAME ISTACK, 0, STACK
        LOCFRAME PSTACK, 0, STACK
        LOCFRAME XSTACK, 62, STACK
        LOCFRAME IOVERLAY, 0, STATIC
        LOCFRAME DOVERLAY, 0, STATIC
        ARGFRAME ISTACK, 0, STACK
        ARGFRAME PSTACK, 0, STACK
        ARGFRAME XSTACK, 62, STACK
        ARGFRAME IOVERLAY, 0, STATIC
        ARGFRAME DOVERLAY, 0, STATIC
        FUNCALL zclSampleThermostat_ProcessInReportCmd, UART_ZCmdPrintBuffer
        LOCFRAME ISTACK, 0, STACK
        LOCFRAME PSTACK, 0, STACK
        LOCFRAME XSTACK, 62, STACK
        LOCFRAME IOVERLAY, 0, STATIC
        LOCFRAME DOVERLAY, 0, STATIC
        ARGFRAME ISTACK, 0, STACK
        ARGFRAME PSTACK, 0, STACK
        ARGFRAME XSTACK, 62, STACK
        ARGFRAME IOVERLAY, 0, STATIC
        ARGFRAME DOVERLAY, 0, STATIC
        FUNCALL zclSampleThermostat_ProcessInReportCmd, UART_ZCmdPrint
        LOCFRAME ISTACK, 0, STACK
        LOCFRAME PSTACK, 0, STACK
        LOCFRAME XSTACK, 62, STACK
        LOCFRAME IOVERLAY, 0, STATIC
        LOCFRAME DOVERLAY, 0, STATIC
        ARGFRAME ISTACK, 0, STACK
        ARGFRAME PSTACK, 0, STACK
        ARGFRAME XSTACK, 62, STACK
        ARGFRAME IOVERLAY, 0, STATIC
        ARGFRAME DOVERLAY, 0, STATIC
        REQUIRE ?V0
        REQUIRE ?V1
        REQUIRE ?V2
        REQUIRE ?V3
        REQUIRE ?V4
        REQUIRE ?V5
        REQUIRE ?V6
        REQUIRE ?V7
        REQUIRE ?V8
        REQUIRE ?V9
        REQUIRE ?V10
        REQUIRE ?V11
        REQUIRE ?V12
        REQUIRE ?V13
        REQUIRE ?V14
        REQUIRE ?V15
        MOV     A,#-0x18
        LCALL   ?BANKED_ENTER_XDATA
          CFI DPH0 load(1, XDATA, add(CFA_XSP16, literal(-1)))
          CFI DPL0 load(1, XDATA, add(CFA_XSP16, literal(-2)))
          CFI ?BRET_EXT load(1, XDATA, add(CFA_XSP16, literal(-3)))
          CFI ?RET_HIGH load(1, XDATA, add(CFA_XSP16, literal(-4)))
          CFI ?RET_LOW load(1, XDATA, add(CFA_XSP16, literal(-5)))
          CFI R7 load(1, XDATA, add(CFA_XSP16, literal(-6)))
          CFI V15 load(1, XDATA, add(CFA_XSP16, literal(-7)))
          CFI V14 load(1, XDATA, add(CFA_XSP16, literal(-8)))
          CFI V13 load(1, XDATA, add(CFA_XSP16, literal(-9)))
          CFI V12 load(1, XDATA, add(CFA_XSP16, literal(-10)))
          CFI V11 load(1, XDATA, add(CFA_XSP16, literal(-11)))
          CFI V10 load(1, XDATA, add(CFA_XSP16, literal(-12)))
          CFI V9 load(1, XDATA, add(CFA_XSP16, literal(-13)))
          CFI V8 load(1, XDATA, add(CFA_XSP16, literal(-14)))
          CFI V7 load(1, XDATA, add(CFA_XSP16, literal(-15)))
          CFI V6 load(1, XDATA, add(CFA_XSP16, literal(-16)))
          CFI V5 load(1, XDATA, add(CFA_XSP16, literal(-17)))
          CFI V4 load(1, XDATA, add(CFA_XSP16, literal(-18)))
          CFI V3 load(1, XDATA, add(CFA_XSP16, literal(-19)))
          CFI V2 load(1, XDATA, add(CFA_XSP16, literal(-20)))
          CFI V1 load(1, XDATA, add(CFA_XSP16, literal(-21)))
          CFI V0 load(1, XDATA, add(CFA_XSP16, literal(-22)))
          CFI VB load(1, XDATA, add(CFA_XSP16, literal(-23)))
          CFI R6 load(1, XDATA, add(CFA_XSP16, literal(-24)))
          CFI CFA_SP SP+0
          CFI CFA_XSP16 add(XSP16, 24)
        ; Saved register size: 24
        ; Auto size: 38
        MOV     A,#-0x26
        LCALL   ?ALLOC_XSTACK8
          CFI CFA_XSP16 add(XSP16, 62)
        MOV     ?V8,R2
        MOV     ?V9,R3
// 1324 	uint8 src_EndPoint;
// 1325 	
// 1326   zclReportCmd_t *pInReportCmd;
// 1327 	
// 1328   zclReportCmd_t *pOutDemandReport;
// 1329   uint8 outDemandBuffer[sizeof( zclReportCmd_t ) + ( 3 * sizeof( zclReport_t ) )];
// 1330   bool send = TRUE;
// 1331 
// 1332   pInReportCmd = (zclReportCmd_t *)pInMsg->attrCmd;
        MOV     A,R2
        ADD     A,#0x17
        MOV     DPL,A
        CLR     A
        ADDC    A,?V9
        MOV     DPH,A
        MOVX    A,@DPTR
        MOV     ?V0,A
        INC     DPTR
        MOVX    A,@DPTR
        MOV     ?V1,A
// 1333 
// 1334 	/*- Router: Data report ----------------------------------------------------*/
// 1335 	#ifdef COORDINATOR
// 1336 	if ( pInReportCmd->attrList[0].attrID == ATTRID_REPORT_DATA_COORD)
        MOV     DPL,?V0
        MOV     DPH,A
        INC     DPTR
        MOV     ?V14,DPL
        MOV     ?V15,DPH
        LCALL   ?Subroutine22 & 0xFFFF
??CrossCallReturnLabel_44:
        MOV     DPL,?XSP + 0
        MOV     DPH,?XSP + 1
        MOV     A,#`?<Constant "!">` & 0xff
        MOVX    @DPTR,A
        INC     DPTR
        MOV     A,#(`?<Constant "!">` >> 8) & 0xff
        MOVX    @DPTR,A
        MOV     A,?V0
        ADD     A,#0x9
        MOV     ?V2,A
        CLR     A
        ADDC    A,?V1
        MOV     ?V3,A
        MOV     A,?V0
        ADD     A,#0x4
        MOV     ?V4,A
        CLR     A
        ADDC    A,?V1
        MOV     ?V5,A
        MOV     ?V6,#`?<Constant "@ZBR:">` & 0xff
        MOV     ?V7,#(`?<Constant "@ZBR:">` >> 8) & 0xff
        MOV     A,#0x4
        XRL     A,R0
        JNZ     ??zclSampleThermostat_ProcessInReportCmd_0
        MOV     A,#-0x60
        XRL     A,R1
??zclSampleThermostat_ProcessInReportCmd_0:
        JZ      $+5
        LJMP    ??zclSampleThermostat_ProcessInReportCmd_1 & 0xFFFF
// 1337 	{
// 1338 		HalLedBlink ( HAL_LED_2, 1, 50, 500 );
        ; Setup parameters for call to function HalLedBlink
        MOV     R4,#-0xc
        MOV     R5,#0x1
        MOV     R3,#0x32
        MOV     R2,#0x1
        MOV     R1,#0x2
        LCALL   `??HalLedBlink::?relay`; Banked call to: HalLedBlink
// 1339 		
// 1340 		UART_ZCmdPrintString(HAL_UART_PORT_0, "@ZBR:");
        ; Setup parameters for call to function UART_ZCmdPrintString
        MOV     R2,?V6
        MOV     R3,?V7
        MOV     R1,#0x0
        LCALL   `??UART_ZCmdPrintString::?relay`; Banked call to: UART_ZCmdPrintString
// 1341 		UART_ZCmdPrintNum 	(HAL_UART_PORT_0, msg_RSSI);																			// RSSI
        ; Setup parameters for call to function UART_ZCmdPrintNum
        LCALL   ?Subroutine12 & 0xFFFF
??CrossCallReturnLabel_16:
        LCALL   `??UART_ZCmdPrintNum::?relay`; Banked call to: UART_ZCmdPrintNum
// 1342 		UART_ZCmdPrintString(HAL_UART_PORT_0, ";");
        ; Setup parameters for call to function UART_ZCmdPrintString
        MOV     R2,#`?<Constant ";">` & 0xff
        MOV     R3,#(`?<Constant ";">` >> 8) & 0xff
        MOV     R1,#0x0
        LCALL   `??UART_ZCmdPrintString::?relay`; Banked call to: UART_ZCmdPrintString
// 1343 		UART_ZCmdPrintNum 	(HAL_UART_PORT_0, pInReportCmd->attrList[2].attrID);							// shortAddr
        ; Setup parameters for call to function UART_ZCmdPrintNum
        MOV     A,?V0
        ADD     A,#0xb
        MOV     DPL,A
        CLR     A
        ADDC    A,?V1
        MOV     DPH,A
        LCALL   ?Subroutine16 & 0xFFFF
??CrossCallReturnLabel_32:
        LCALL   `??UART_ZCmdPrintNum::?relay`; Banked call to: UART_ZCmdPrintNum
// 1344 		UART_ZCmdPrintString(HAL_UART_PORT_0, ";");
        ; Setup parameters for call to function UART_ZCmdPrintString
        MOV     R2,#`?<Constant ";">` & 0xff
        MOV     R3,#(`?<Constant ";">` >> 8) & 0xff
        MOV     R1,#0x0
        LCALL   `??UART_ZCmdPrintString::?relay`; Banked call to: UART_ZCmdPrintString
// 1345 		UART_ZCmdPrintNum 	(HAL_UART_PORT_0, pInReportCmd->attrList[2].attrData[0]);						// endPoint
        ; Setup parameters for call to function UART_ZCmdPrintNum
        MOV     A,?V0
        ADD     A,#0xe
        MOV     DPL,A
        CLR     A
        ADDC    A,?V1
        MOV     DPH,A
        LCALL   ??Subroutine37_0 & 0xFFFF
??CrossCallReturnLabel_80:
        LCALL   `??UART_ZCmdPrintNum::?relay`; Banked call to: UART_ZCmdPrintNum
// 1346 		UART_ZCmdPrintString(HAL_UART_PORT_0, ";");
        ; Setup parameters for call to function UART_ZCmdPrintString
        MOV     R2,#`?<Constant ";">` & 0xff
        MOV     R3,#(`?<Constant ";">` >> 8) & 0xff
        MOV     R1,#0x0
        LCALL   `??UART_ZCmdPrintString::?relay`; Banked call to: UART_ZCmdPrintString
// 1347 		UART_ZCmdPrintNum 	(HAL_UART_PORT_0, pInReportCmd->attrList[0].attrData[0]);					// temperature
        ; Setup parameters for call to function UART_ZCmdPrintNum
        MOV     DPL,?V4
        MOV     DPH,?V5
        LCALL   ??Subroutine37_0 & 0xFFFF
??CrossCallReturnLabel_81:
        LCALL   `??UART_ZCmdPrintNum::?relay`; Banked call to: UART_ZCmdPrintNum
// 1348 		UART_ZCmdPrintString(HAL_UART_PORT_0, ";");
        ; Setup parameters for call to function UART_ZCmdPrintString
        MOV     R2,#`?<Constant ";">` & 0xff
        MOV     R3,#(`?<Constant ";">` >> 8) & 0xff
        MOV     R1,#0x0
        LCALL   `??UART_ZCmdPrintString::?relay`; Banked call to: UART_ZCmdPrintString
// 1349 		UART_ZCmdPrintNum 	(HAL_UART_PORT_0, pInReportCmd->attrList[0].attrData[1]);					// humidity
        ; Setup parameters for call to function UART_ZCmdPrintNum
        LCALL   ?Subroutine10 & 0xFFFF
??CrossCallReturnLabel_78:
        LCALL   `??UART_ZCmdPrintNum::?relay`; Banked call to: UART_ZCmdPrintNum
// 1350 		UART_ZCmdPrintString(HAL_UART_PORT_0, ";");
        ; Setup parameters for call to function UART_ZCmdPrintString
        MOV     R2,#`?<Constant ";">` & 0xff
        MOV     R3,#(`?<Constant ";">` >> 8) & 0xff
        MOV     R1,#0x0
        LCALL   `??UART_ZCmdPrintString::?relay`; Banked call to: UART_ZCmdPrintString
// 1351 		UART_ZCmdPrintNum 	(HAL_UART_PORT_0, pInReportCmd->attrList[1].attrData[0]);					// heating
        ; Setup parameters for call to function UART_ZCmdPrintNum
        LCALL   ?Subroutine9 & 0xFFFF
??CrossCallReturnLabel_84:
        LCALL   `??UART_ZCmdPrintNum::?relay`; Banked call to: UART_ZCmdPrintNum
// 1352 		UART_ZCmdPrintString(HAL_UART_PORT_0, ";");
        ; Setup parameters for call to function UART_ZCmdPrintString
        MOV     R2,#`?<Constant ";">` & 0xff
        MOV     R3,#(`?<Constant ";">` >> 8) & 0xff
        MOV     R1,#0x0
        LCALL   `??UART_ZCmdPrintString::?relay`; Banked call to: UART_ZCmdPrintString
// 1353 		UART_ZCmdPrintNum 	(HAL_UART_PORT_0, pInReportCmd->attrList[1].attrData[1]);					// cooling
        ; Setup parameters for call to function UART_ZCmdPrintNum
        LJMP    ??zclSampleThermostat_ProcessInReportCmd_2 & 0xFFFF
// 1354 		UART_ZCmdPrint		(HAL_UART_PORT_0, "!");
// 1355 		return;
// 1356 	}
??zclSampleThermostat_ProcessInReportCmd_1:
        MOV     A,R2
        ADD     A,#0xa
        MOV     ?V10,A
        CLR     A
        ADDC    A,?V9
        MOV     ?V11,A
        MOV     A,#0x29
        XRL     A,R0
        ORL     A,R1
        JNZ     ??zclSampleThermostat_ProcessInReportCmd_3
// 1357 	#endif
// 1358 	
// 1359 	/*- endDev Engine: Feedback ------------------------------------------------*/
// 1360 	if ( pInReportCmd->attrList[0].attrID == ATTRID_HVAC_THERMOSTAT_RUNNING_STATE )
// 1361 	{
// 1362 		HalLedBlink ( HAL_LED_2, 1, 50, 500 );
        ; Setup parameters for call to function HalLedBlink
        MOV     R4,#-0xc
        MOV     R5,#0x1
        MOV     R3,#0x32
        MOV     R2,#0x1
        MOV     R1,#0x2
        LCALL   `??HalLedBlink::?relay`; Banked call to: HalLedBlink
// 1363 
// 1364 		if (FLAG_ECHO_RDATA)
        MOV     DPTR,#FLAG_ECHO_RDATA
        MOVX    A,@DPTR
        JNZ     $+5
        LJMP    ??zclSampleThermostat_ProcessInReportCmd_4 & 0xFFFF
// 1365 		{
// 1366 			UART_ZCmdPrintString(HAL_UART_PORT_0, "@ZBF:");
        ; Setup parameters for call to function UART_ZCmdPrintString
        MOV     R2,#`?<Constant "@ZBF:">` & 0xff
        MOV     R3,#(`?<Constant "@ZBF:">` >> 8) & 0xff
        MOV     R1,#0x0
        LCALL   `??UART_ZCmdPrintString::?relay`; Banked call to: UART_ZCmdPrintString
// 1367 			UART_ZCmdPrintNum 	(HAL_UART_PORT_0, msg_RSSI);																		// RSSI
        ; Setup parameters for call to function UART_ZCmdPrintNum
        LCALL   ?Subroutine12 & 0xFFFF
??CrossCallReturnLabel_17:
        LCALL   `??UART_ZCmdPrintNum::?relay`; Banked call to: UART_ZCmdPrintNum
// 1368 			UART_ZCmdPrintString(HAL_UART_PORT_0, ";");
        ; Setup parameters for call to function UART_ZCmdPrintString
        MOV     R2,#`?<Constant ";">` & 0xff
        MOV     R3,#(`?<Constant ";">` >> 8) & 0xff
        MOV     R1,#0x0
        LCALL   `??UART_ZCmdPrintString::?relay`; Banked call to: UART_ZCmdPrintString
// 1369 			UART_ZCmdPrintNum 	(HAL_UART_PORT_0, pInMsg->srcAddr.addr.shortAddr);							// shortAddr
        ; Setup parameters for call to function UART_ZCmdPrintNum
        MOV     DPL,?V10
        MOV     DPH,?V11
        LCALL   ?Subroutine13 & 0xFFFF
??CrossCallReturnLabel_22:
        LCALL   `??UART_ZCmdPrintNum::?relay`; Banked call to: UART_ZCmdPrintNum
// 1370 			UART_ZCmdPrintString(HAL_UART_PORT_0, ";");
        ; Setup parameters for call to function UART_ZCmdPrintString
        MOV     R2,#`?<Constant ";">` & 0xff
        MOV     R3,#(`?<Constant ";">` >> 8) & 0xff
        MOV     R1,#0x0
        LCALL   `??UART_ZCmdPrintString::?relay`; Banked call to: UART_ZCmdPrintString
// 1371 			UART_ZCmdPrintNum 	(HAL_UART_PORT_0, pInMsg->srcAddr.endPoint);										// endPoint
        ; Setup parameters for call to function UART_ZCmdPrintNum
        LCALL   ?Subroutine24 & 0xFFFF
??CrossCallReturnLabel_48:
        LCALL   ??Subroutine36_0 & 0xFFFF
??CrossCallReturnLabel_73:
        LCALL   `??UART_ZCmdPrintNum::?relay`; Banked call to: UART_ZCmdPrintNum
// 1372 			UART_ZCmdPrintString(HAL_UART_PORT_0, ";");
        ; Setup parameters for call to function UART_ZCmdPrintString
        MOV     R2,#`?<Constant ";">` & 0xff
        MOV     R3,#(`?<Constant ";">` >> 8) & 0xff
        MOV     R1,#0x0
        LCALL   `??UART_ZCmdPrintString::?relay`; Banked call to: UART_ZCmdPrintString
// 1373 			UART_ZCmdPrintNum 	(HAL_UART_PORT_0, pInReportCmd->attrList[0].attrData[0]); 			// Feedback Heating
        ; Setup parameters for call to function UART_ZCmdPrintNum
        MOV     DPL,?V4
        MOV     DPH,?V5
        LCALL   ??Subroutine37_0 & 0xFFFF
??CrossCallReturnLabel_82:
        LCALL   `??UART_ZCmdPrintNum::?relay`; Banked call to: UART_ZCmdPrintNum
// 1374 			UART_ZCmdPrintString(HAL_UART_PORT_0, ";");
        ; Setup parameters for call to function UART_ZCmdPrintString
        MOV     R2,#`?<Constant ";">` & 0xff
        MOV     R3,#(`?<Constant ";">` >> 8) & 0xff
        MOV     R1,#0x0
        LCALL   `??UART_ZCmdPrintString::?relay`; Banked call to: UART_ZCmdPrintString
// 1375 			UART_ZCmdPrintNum 	(HAL_UART_PORT_0, pInReportCmd->attrList[0].attrData[1]); 			// Feedback Cooling
        ; Setup parameters for call to function UART_ZCmdPrintNum
        MOV     DPL,?V4
        MOV     DPH,?V5
        LJMP    ??zclSampleThermostat_ProcessInReportCmd_5 & 0xFFFF
// 1376 			UART_ZCmdPrint			(HAL_UART_PORT_0, "!");
// 1377 		}
// 1378 		
// 1379 		return;
// 1380 	}
// 1381 
// 1382 	/*- endDev Sensor: Value Process -------------------------------------------*/
// 1383   if ( pInReportCmd->attrList[0].attrID == ATTRID_MS_TEMPERATURE_MEASURED_VALUE )
??zclSampleThermostat_ProcessInReportCmd_3:
        MOV     A,R0
        ORL     A,R1
        JNZ     ??zclSampleThermostat_ProcessInReportCmd_6
// 1384   {		
// 1385 	
// 1386 			UART_ZCmdPrintString(HAL_UART_PORT_0, "@ZBS:");
        ; Setup parameters for call to function UART_ZCmdPrintString
        MOV     R2,#`?<Constant "@ZBS:">` & 0xff
        MOV     R3,#(`?<Constant "@ZBS:">` >> 8) & 0xff
        MOV     R1,#0x0
        LCALL   `??UART_ZCmdPrintString::?relay`; Banked call to: UART_ZCmdPrintString
// 1387 			UART_ZCmdPrintNum 	(HAL_UART_PORT_0, msg_RSSI);																	
        ; Setup parameters for call to function UART_ZCmdPrintNum
        LCALL   ?Subroutine12 & 0xFFFF
??CrossCallReturnLabel_18:
        LCALL   `??UART_ZCmdPrintNum::?relay`; Banked call to: UART_ZCmdPrintNum
// 1388 			UART_ZCmdPrintString(HAL_UART_PORT_0, ";");
        ; Setup parameters for call to function UART_ZCmdPrintString
        MOV     R2,#`?<Constant ";">` & 0xff
        MOV     R3,#(`?<Constant ";">` >> 8) & 0xff
        MOV     R1,#0x0
        LCALL   `??UART_ZCmdPrintString::?relay`; Banked call to: UART_ZCmdPrintString
// 1389 			UART_ZCmdPrintNum 	(HAL_UART_PORT_0, pInMsg->srcAddr.addr.shortAddr);
        ; Setup parameters for call to function UART_ZCmdPrintNum
        MOV     DPL,?V10
        MOV     DPH,?V11
        MOVX    A,@DPTR
        MOV     ?V12,A
        INC     DPTR
        MOVX    A,@DPTR
        MOV     R2,?V12
        MOV     R3,A
        CLR     A
        MOV     R4,A
        MOV     R5,A
        MOV     R1,A
        LCALL   `??UART_ZCmdPrintNum::?relay`; Banked call to: UART_ZCmdPrintNum
// 1390 			UART_ZCmdPrintString(HAL_UART_PORT_0, ";");
        ; Setup parameters for call to function UART_ZCmdPrintString
        MOV     R2,#`?<Constant ";">` & 0xff
        MOV     R3,#(`?<Constant ";">` >> 8) & 0xff
        MOV     R1,#0x0
        LCALL   `??UART_ZCmdPrintString::?relay`; Banked call to: UART_ZCmdPrintString
// 1391 			UART_ZCmdPrintNum 	(HAL_UART_PORT_0, pInReportCmd->attrList[0].attrData[1]);
        ; Setup parameters for call to function UART_ZCmdPrintNum
        LCALL   ?Subroutine10 & 0xFFFF
??CrossCallReturnLabel_79:
        LCALL   `??UART_ZCmdPrintNum::?relay`; Banked call to: UART_ZCmdPrintNum
// 1392 			UART_ZCmdPrintString(HAL_UART_PORT_0, ";");
        ; Setup parameters for call to function UART_ZCmdPrintString
        MOV     R2,#`?<Constant ";">` & 0xff
        MOV     R3,#(`?<Constant ";">` >> 8) & 0xff
        MOV     R1,#0x0
        LCALL   `??UART_ZCmdPrintString::?relay`; Banked call to: UART_ZCmdPrintString
// 1393 			UART_ZCmdPrintNum 	(HAL_UART_PORT_0, pInReportCmd->attrList[0].attrData[0]);	
        ; Setup parameters for call to function UART_ZCmdPrintNum
        MOV     DPL,?V4
        MOV     DPH,?V5
        LCALL   ??Subroutine37_0 & 0xFFFF
??CrossCallReturnLabel_83:
        LCALL   `??UART_ZCmdPrintNum::?relay`; Banked call to: UART_ZCmdPrintNum
// 1394 			UART_ZCmdPrintString(HAL_UART_PORT_0, ";");
        ; Setup parameters for call to function UART_ZCmdPrintString
        MOV     R2,#`?<Constant ";">` & 0xff
        MOV     R3,#(`?<Constant ";">` >> 8) & 0xff
        MOV     R1,#0x0
        LCALL   `??UART_ZCmdPrintString::?relay`; Banked call to: UART_ZCmdPrintString
// 1395 			UART_ZCmdPrintNum 	(HAL_UART_PORT_0, pInReportCmd->attrList[1].attrData[1]);
        ; Setup parameters for call to function UART_ZCmdPrintNum
        MOV     DPL,?V2
        MOV     DPH,?V3
        LCALL   ??Subroutine34_0 & 0xFFFF
??CrossCallReturnLabel_76:
        LCALL   `??UART_ZCmdPrintNum::?relay`; Banked call to: UART_ZCmdPrintNum
// 1396 			UART_ZCmdPrintString(HAL_UART_PORT_0, ";");
        ; Setup parameters for call to function UART_ZCmdPrintString
        MOV     R2,#`?<Constant ";">` & 0xff
        MOV     R3,#(`?<Constant ";">` >> 8) & 0xff
        MOV     R1,#0x0
        LCALL   `??UART_ZCmdPrintString::?relay`; Banked call to: UART_ZCmdPrintString
// 1397 			UART_ZCmdPrintNum 	(HAL_UART_PORT_0, pInReportCmd->attrList[1].attrData[0]);
        ; Setup parameters for call to function UART_ZCmdPrintNum
        LCALL   ?Subroutine9 & 0xFFFF
??CrossCallReturnLabel_85:
        LCALL   `??UART_ZCmdPrintNum::?relay`; Banked call to: UART_ZCmdPrintNum
// 1398 			UART_ZCmdPrint		(HAL_UART_PORT_0, "!");
        ; Setup parameters for call to function UART_ZCmdPrint
        LCALL   ?Subroutine20 & 0xFFFF
// 1399   }
??CrossCallReturnLabel_96:
        MOV     R1,#0x0
        LCALL   `??UART_ZCmdPrint::?relay`; Banked call to: UART_ZCmdPrint
// 1400 	
// 1401 	if (pInReportCmd->attrList[0].attrID == ATTRID_SENDSTATE)
??zclSampleThermostat_ProcessInReportCmd_6:
        MOV     DPL,?V14
        MOV     DPH,?V15
        LCALL   ?Subroutine22 & 0xFFFF
??CrossCallReturnLabel_45:
        MOV     A,#0x6
        XRL     A,R0
        JNZ     ??zclSampleThermostat_ProcessInReportCmd_7
        MOV     A,#-0x60
        XRL     A,R1
??zclSampleThermostat_ProcessInReportCmd_7:
        JNZ     ??zclSampleThermostat_ProcessInReportCmd_8
// 1402 	{	
// 1403 		int i;
// 1404 		uint8 add[16];
// 1405 		UART_ZCmdPrintString(HAL_UART_PORT_0, "@ZBR:");
        ; Setup parameters for call to function UART_ZCmdPrintString
        MOV     R2,?V6
        MOV     R3,?V7
        MOV     R1,#0x0
        LCALL   `??UART_ZCmdPrintString::?relay`; Banked call to: UART_ZCmdPrintString
// 1406 		UART_ZCmdPrintNum 	(HAL_UART_PORT_0, msg_RSSI);																	
        ; Setup parameters for call to function UART_ZCmdPrintNum
        LCALL   ?Subroutine12 & 0xFFFF
??CrossCallReturnLabel_19:
        LCALL   `??UART_ZCmdPrintNum::?relay`; Banked call to: UART_ZCmdPrintNum
// 1407 		UART_ZCmdPrintString(HAL_UART_PORT_0, ";"); 
        ; Setup parameters for call to function UART_ZCmdPrintString
        MOV     R2,#`?<Constant ";">` & 0xff
        MOV     R3,#(`?<Constant ";">` >> 8) & 0xff
        MOV     R1,#0x0
        LCALL   `??UART_ZCmdPrintString::?relay`; Banked call to: UART_ZCmdPrintString
// 1408 		for(i = 0;i<16;i++)
        MOV     R0,#0x0
        MOV     R1,#0x0
// 1409 		{
// 1410 			add[i] = pInReportCmd->attrList[0].attrData[i];
??zclSampleThermostat_ProcessInReportCmd_9:
        MOV     DPL,?V4
        MOV     DPH,?V5
        MOVX    A,@DPTR
        ADD     A,R0
        MOV     R2,A
        INC     DPTR
        MOVX    A,@DPTR
        ADDC    A,R1
        MOV     DPL,R2
        MOV     DPH,A
        MOVX    A,@DPTR
        PUSH    A
          CFI CFA_SP SP+-1
        MOV     A,#0x16
        LCALL   ?XSTACK_DISP0_8
        MOV     A,DPL
        ADD     A,R0
        MOV     DPL,A
        MOV     A,DPH
        ADDC    A,R1
        MOV     DPH,A
        POP     A
          CFI CFA_SP SP+0
        MOVX    @DPTR,A
// 1411 		}
        INC     R0
        MOV     A,R0
        JNZ     ??zclSampleThermostat_ProcessInReportCmd_10
        INC     R1
??zclSampleThermostat_ProcessInReportCmd_10:
        CLR     C
        SUBB    A,#0x10
        MOV     A,R1
        SUBB    A,#0x0
        MOV     C,0xD0 /* PSW */.2
        XRL     A,PSW
        RLC     A
        JC      ??zclSampleThermostat_ProcessInReportCmd_9
// 1412 		add[16] == '\0';
// 1413 		HalUARTWrite(HAL_UART_PORT_0, add,16); 
        ; Setup parameters for call to function HalUARTWrite
        MOV     R4,#0x10
        MOV     R5,#0x0
        MOV     A,#0x16
        LCALL   ?XSTACK_DISP101_8
        MOV     R1,#0x0
        LCALL   `??HalUARTWrite::?relay`; Banked call to: HalUARTWrite
// 1414 		UART_ZCmdPrintString(HAL_UART_PORT_0, ";");
        ; Setup parameters for call to function UART_ZCmdPrintString
        MOV     R2,#`?<Constant ";">` & 0xff
        MOV     R3,#(`?<Constant ";">` >> 8) & 0xff
        MOV     R1,#0x0
        LCALL   `??UART_ZCmdPrintString::?relay`; Banked call to: UART_ZCmdPrintString
// 1415 		UART_ZCmdPrintNum 	(HAL_UART_PORT_0, pInReportCmd->attrList[1].attrData[0]);
        ; Setup parameters for call to function UART_ZCmdPrintNum
        LCALL   ?Subroutine9 & 0xFFFF
??CrossCallReturnLabel_86:
        LCALL   `??UART_ZCmdPrintNum::?relay`; Banked call to: UART_ZCmdPrintNum
// 1416 		UART_ZCmdPrintNum 	(HAL_UART_PORT_0, pInReportCmd->attrList[1].attrData[1]);
        ; Setup parameters for call to function UART_ZCmdPrintNum
??zclSampleThermostat_ProcessInReportCmd_2:
        MOV     DPL,?V2
        MOV     DPH,?V3
??zclSampleThermostat_ProcessInReportCmd_5:
        LCALL   ??Subroutine34_0 & 0xFFFF
??CrossCallReturnLabel_77:
        LCALL   `??UART_ZCmdPrintNum::?relay`; Banked call to: UART_ZCmdPrintNum
// 1417 		UART_ZCmdPrint		(HAL_UART_PORT_0, "!");
        ; Setup parameters for call to function UART_ZCmdPrint
        LJMP    ??zclSampleThermostat_ProcessInReportCmd_11 & 0xFFFF
// 1418 		return;
// 1419 	}
// 1420 
// 1421 	// freedata
// 1422 	if ( pInReportCmd->attrList[0].attrID == ATTRID_FREE_DATA )
??zclSampleThermostat_ProcessInReportCmd_8:
        MOV     A,#0x3
        XRL     A,R0
        JNZ     ??zclSampleThermostat_ProcessInReportCmd_12
        MOV     A,#-0x60
        XRL     A,R1
??zclSampleThermostat_ProcessInReportCmd_12:
        JZ      $+5
        LJMP    ??zclSampleThermostat_ProcessInReportCmd_4 & 0xFFFF
// 1423 	{
// 1424 		uint8 i;
// 1425 		uint8 tmp_Data[20];
// 1426 		
// 1427 		HalLedBlink ( HAL_LED_2, 1, 50, 500 );
        ; Setup parameters for call to function HalLedBlink
        MOV     R4,#-0xc
        MOV     R5,#0x1
        MOV     R3,#0x32
        MOV     R2,#0x1
        MOV     R1,#0x2
        LCALL   `??HalLedBlink::?relay`; Banked call to: HalLedBlink
// 1428 		
// 1429 		if (FLAG_ECHO_RDATA)
        MOV     DPTR,#FLAG_ECHO_RDATA
        MOVX    A,@DPTR
        JNZ     $+5
        LJMP    ??zclSampleThermostat_ProcessInReportCmd_4 & 0xFFFF
// 1430 		{
// 1431 			UART_ZCmdPrintString(HAL_UART_PORT_0, "@ZBR:");
        ; Setup parameters for call to function UART_ZCmdPrintString
        MOV     R2,?V6
        MOV     R3,?V7
        MOV     R1,#0x0
        LCALL   `??UART_ZCmdPrintString::?relay`; Banked call to: UART_ZCmdPrintString
// 1432 			UART_ZCmdPrintNum 	(HAL_UART_PORT_0, msg_RSSI);																// RSSI
        ; Setup parameters for call to function UART_ZCmdPrintNum
        LCALL   ?Subroutine12 & 0xFFFF
??CrossCallReturnLabel_20:
        LCALL   `??UART_ZCmdPrintNum::?relay`; Banked call to: UART_ZCmdPrintNum
// 1433 			UART_ZCmdPrintString(HAL_UART_PORT_0, ";");
        ; Setup parameters for call to function UART_ZCmdPrintString
        MOV     R2,#`?<Constant ";">` & 0xff
        MOV     R3,#(`?<Constant ";">` >> 8) & 0xff
        MOV     R1,#0x0
        LCALL   `??UART_ZCmdPrintString::?relay`; Banked call to: UART_ZCmdPrintString
// 1434 			UART_ZCmdPrintNum 	(HAL_UART_PORT_0, pInMsg->srcAddr.addr.shortAddr);					// shortAddr
        ; Setup parameters for call to function UART_ZCmdPrintNum
        MOV     DPL,?V10
        MOV     DPH,?V11
        LCALL   ?Subroutine16 & 0xFFFF
??CrossCallReturnLabel_33:
        LCALL   `??UART_ZCmdPrintNum::?relay`; Banked call to: UART_ZCmdPrintNum
// 1435 			UART_ZCmdPrintString(HAL_UART_PORT_0, ";");
        ; Setup parameters for call to function UART_ZCmdPrintString
        MOV     R2,#`?<Constant ";">` & 0xff
        MOV     R3,#(`?<Constant ";">` >> 8) & 0xff
        MOV     R1,#0x0
        LCALL   `??UART_ZCmdPrintString::?relay`; Banked call to: UART_ZCmdPrintString
// 1436 			UART_ZCmdPrintNum 	(HAL_UART_PORT_0, pInMsg->srcAddr.endPoint);								// endPoint
        ; Setup parameters for call to function UART_ZCmdPrintNum
        LCALL   ?Subroutine24 & 0xFFFF
??CrossCallReturnLabel_49:
        LCALL   ??Subroutine36_0 & 0xFFFF
??CrossCallReturnLabel_74:
        LCALL   `??UART_ZCmdPrintNum::?relay`; Banked call to: UART_ZCmdPrintNum
// 1437 			UART_ZCmdPrintString(HAL_UART_PORT_0, ";");
        ; Setup parameters for call to function UART_ZCmdPrintString
        MOV     R2,#`?<Constant ";">` & 0xff
        MOV     R3,#(`?<Constant ";">` >> 8) & 0xff
        MOV     R1,#0x0
        LCALL   `??UART_ZCmdPrintString::?relay`; Banked call to: UART_ZCmdPrintString
// 1438 			UART_ZCmdPrintNum 	(HAL_UART_PORT_0, pInReportCmd->attrList[1].attrID); 				// coordShortAddr
        ; Setup parameters for call to function UART_ZCmdPrintNum
        MOV     DPL,?V0
        MOV     DPH,?V1
        INC     DPTR
        INC     DPTR
        INC     DPTR
        INC     DPTR
        INC     DPTR
        INC     DPTR
        LCALL   ?Subroutine13 & 0xFFFF
??CrossCallReturnLabel_23:
        LCALL   `??UART_ZCmdPrintNum::?relay`; Banked call to: UART_ZCmdPrintNum
// 1439 			UART_ZCmdPrintString(HAL_UART_PORT_0, ";"); 
        ; Setup parameters for call to function UART_ZCmdPrintString
        MOV     R2,#`?<Constant ";">` & 0xff
        MOV     R3,#(`?<Constant ";">` >> 8) & 0xff
        MOV     R1,#0x0
        LCALL   `??UART_ZCmdPrintString::?relay`; Banked call to: UART_ZCmdPrintString
// 1440 			UART_ZCmdPrintNum 	(HAL_UART_PORT_0, pInReportCmd->attrList[1].attrData[0]); 	// data size
        ; Setup parameters for call to function UART_ZCmdPrintNum
        LCALL   ?Subroutine9 & 0xFFFF
??CrossCallReturnLabel_87:
        LCALL   `??UART_ZCmdPrintNum::?relay`; Banked call to: UART_ZCmdPrintNum
// 1441 			UART_ZCmdPrintString(HAL_UART_PORT_0, ";");
        ; Setup parameters for call to function UART_ZCmdPrintString
        MOV     R2,#`?<Constant ";">` & 0xff
        MOV     R3,#(`?<Constant ";">` >> 8) & 0xff
        MOV     R1,#0x0
        LCALL   `??UART_ZCmdPrintString::?relay`; Banked call to: UART_ZCmdPrintString
// 1442 			
// 1443 			// eliminate DUMMY byte index[0]
// 1444 			for (i = 1; i <= pInReportCmd->attrList[1].attrData[0]; i++)
        MOV     R2,#0x1
        SJMP    ??zclSampleThermostat_ProcessInReportCmd_13
// 1445 			{
// 1446 				tmp_Data[i-1] = pInReportCmd->attrList[0].attrData[i];
??zclSampleThermostat_ProcessInReportCmd_14:
        MOV     A,R2
        MOV     R0,A
        MOV     DPL,?V4
        MOV     DPH,?V5
        MOVX    A,@DPTR
        ADD     A,R0
        MOV     R3,A
        INC     DPTR
        MOVX    A,@DPTR
        ADDC    A,#0x0
        MOV     DPL,R3
        MOV     DPH,A
        MOVX    A,@DPTR
        PUSH    A
          CFI CFA_SP SP+-1
        MOV     A,#0x2
        LCALL   ?XSTACK_DISP0_8
        LCALL   ?Subroutine23 & 0xFFFF
// 1447 			}
??CrossCallReturnLabel_46:
        POP     A
          CFI CFA_SP SP+0
        MOVX    @DPTR,A
        INC     R2
??zclSampleThermostat_ProcessInReportCmd_13:
        MOV     DPL,?V2
        MOV     DPH,?V3
        LCALL   ?Subroutine29 & 0xFFFF
??CrossCallReturnLabel_91:
        MOVX    A,@DPTR
        MOV     R4,A
        CLR     C
        SUBB    A,R2
        JNC     ??zclSampleThermostat_ProcessInReportCmd_14
// 1448 			UART_ZCmdPrintBuffer(HAL_UART_PORT_0, tmp_Data, pInReportCmd->attrList[1].attrData[0]); 	// Free Data
        ; Setup parameters for call to function UART_ZCmdPrintBuffer
        MOV     A,#0x2
        LCALL   ?XSTACK_DISP101_8
        MOV     R1,#0x0
        LCALL   `??UART_ZCmdPrintBuffer::?relay`; Banked call to: UART_ZCmdPrintBuffer
// 1449 			UART_ZCmdPrint			(HAL_UART_PORT_0, "!");
        ; Setup parameters for call to function UART_ZCmdPrint
// 1450 		}
??zclSampleThermostat_ProcessInReportCmd_11:
        LCALL   ?Subroutine20 & 0xFFFF
??CrossCallReturnLabel_97:
        MOV     R1,#0x0
        LCALL   `??UART_ZCmdPrint::?relay`; Banked call to: UART_ZCmdPrint
// 1451 		return;
// 1452 	}
// 1453 
// 1454 
// 1455 }
??zclSampleThermostat_ProcessInReportCmd_4:
        MOV     A,#0x26
        LCALL   ?DEALLOC_XSTACK8
          CFI CFA_XSP16 add(XSP16, 24)
        MOV     R7,#0x10
        LJMP    ?BANKED_LEAVE_XDATA
          CFI EndBlock cfiBlock85

        RSEG BANKED_CODE:HUGECODE:NOROOT(0)
?Subroutine24:
          CFI Block cfiCond86 Using cfiCommon0
          CFI Function zclSampleThermostat_ProcessInReportCmd
          CFI Conditional ??CrossCallReturnLabel_48
          CFI R6 load(1, XDATA, add(CFA_XSP16, literal(-24)))
          CFI VB load(1, XDATA, add(CFA_XSP16, literal(-23)))
          CFI V0 load(1, XDATA, add(CFA_XSP16, literal(-22)))
          CFI V1 load(1, XDATA, add(CFA_XSP16, literal(-21)))
          CFI V2 load(1, XDATA, add(CFA_XSP16, literal(-20)))
          CFI V3 load(1, XDATA, add(CFA_XSP16, literal(-19)))
          CFI V4 load(1, XDATA, add(CFA_XSP16, literal(-18)))
          CFI V5 load(1, XDATA, add(CFA_XSP16, literal(-17)))
          CFI V6 load(1, XDATA, add(CFA_XSP16, literal(-16)))
          CFI V7 load(1, XDATA, add(CFA_XSP16, literal(-15)))
          CFI V8 load(1, XDATA, add(CFA_XSP16, literal(-14)))
          CFI V9 load(1, XDATA, add(CFA_XSP16, literal(-13)))
          CFI V10 load(1, XDATA, add(CFA_XSP16, literal(-12)))
          CFI V11 load(1, XDATA, add(CFA_XSP16, literal(-11)))
          CFI V12 load(1, XDATA, add(CFA_XSP16, literal(-10)))
          CFI V13 load(1, XDATA, add(CFA_XSP16, literal(-9)))
          CFI V14 load(1, XDATA, add(CFA_XSP16, literal(-8)))
          CFI V15 load(1, XDATA, add(CFA_XSP16, literal(-7)))
          CFI R7 load(1, XDATA, add(CFA_XSP16, literal(-6)))
          CFI ?RET_LOW load(1, XDATA, add(CFA_XSP16, literal(-5)))
          CFI ?RET_HIGH load(1, XDATA, add(CFA_XSP16, literal(-4)))
          CFI ?BRET_EXT load(1, XDATA, add(CFA_XSP16, literal(-3)))
          CFI DPL0 load(1, XDATA, add(CFA_XSP16, literal(-2)))
          CFI DPH0 load(1, XDATA, add(CFA_XSP16, literal(-1)))
          CFI CFA_SP SP+-2
          CFI CFA_XSP16 add(XSP16, 62)
          CFI Block cfiCond87 Using cfiCommon0
          CFI (cfiCond87) Function zclSampleThermostat_ProcessInReportCmd
          CFI (cfiCond87) Conditional ??CrossCallReturnLabel_49
          CFI (cfiCond87) R6 load(1, XDATA, add(CFA_XSP16, literal(-24)))
          CFI (cfiCond87) VB load(1, XDATA, add(CFA_XSP16, literal(-23)))
          CFI (cfiCond87) V0 load(1, XDATA, add(CFA_XSP16, literal(-22)))
          CFI (cfiCond87) V1 load(1, XDATA, add(CFA_XSP16, literal(-21)))
          CFI (cfiCond87) V2 load(1, XDATA, add(CFA_XSP16, literal(-20)))
          CFI (cfiCond87) V3 load(1, XDATA, add(CFA_XSP16, literal(-19)))
          CFI (cfiCond87) V4 load(1, XDATA, add(CFA_XSP16, literal(-18)))
          CFI (cfiCond87) V5 load(1, XDATA, add(CFA_XSP16, literal(-17)))
          CFI (cfiCond87) V6 load(1, XDATA, add(CFA_XSP16, literal(-16)))
          CFI (cfiCond87) V7 load(1, XDATA, add(CFA_XSP16, literal(-15)))
          CFI (cfiCond87) V8 load(1, XDATA, add(CFA_XSP16, literal(-14)))
          CFI (cfiCond87) V9 load(1, XDATA, add(CFA_XSP16, literal(-13)))
          CFI (cfiCond87) V10 load(1, XDATA, add(CFA_XSP16, literal(-12)))
          CFI (cfiCond87) V11 load(1, XDATA, add(CFA_XSP16, literal(-11)))
          CFI (cfiCond87) V12 load(1, XDATA, add(CFA_XSP16, literal(-10)))
          CFI (cfiCond87) V13 load(1, XDATA, add(CFA_XSP16, literal(-9)))
          CFI (cfiCond87) V14 load(1, XDATA, add(CFA_XSP16, literal(-8)))
          CFI (cfiCond87) V15 load(1, XDATA, add(CFA_XSP16, literal(-7)))
          CFI (cfiCond87) R7 load(1, XDATA, add(CFA_XSP16, literal(-6)))
          CFI (cfiCond87) ?RET_LOW load(1, XDATA, add(CFA_XSP16, literal(-5)))
          CFI (cfiCond87) ?RET_HIGH load(1, XDATA, add(CFA_XSP16, literal(-4)))
          CFI (cfiCond87) ?BRET_EXT load(1, XDATA, add(CFA_XSP16, literal(-3)))
          CFI (cfiCond87) DPL0 load(1, XDATA, add(CFA_XSP16, literal(-2)))
          CFI (cfiCond87) DPH0 load(1, XDATA, add(CFA_XSP16, literal(-1)))
          CFI (cfiCond87) CFA_SP SP+-2
          CFI (cfiCond87) CFA_XSP16 add(XSP16, 62)
          CFI Block cfiPicker88 Using cfiCommon1
          CFI (cfiPicker88) NoFunction
          CFI (cfiPicker88) Picker
        MOV     A,?V8
        ADD     A,#0x13
        MOV     DPL,A
        CLR     A
        ADDC    A,?V9
        MOV     DPH,A
        RET
          CFI EndBlock cfiCond86
          CFI EndBlock cfiCond87
          CFI EndBlock cfiPicker88

        RSEG BANKED_CODE:HUGECODE:NOROOT(0)
?Subroutine16:
          CFI Block cfiCond89 Using cfiCommon0
          CFI Function zclSampleThermostat_ProcessInReportCmd
          CFI Conditional ??CrossCallReturnLabel_32
          CFI R6 load(1, XDATA, add(CFA_XSP16, literal(-24)))
          CFI VB load(1, XDATA, add(CFA_XSP16, literal(-23)))
          CFI V0 load(1, XDATA, add(CFA_XSP16, literal(-22)))
          CFI V1 load(1, XDATA, add(CFA_XSP16, literal(-21)))
          CFI V2 load(1, XDATA, add(CFA_XSP16, literal(-20)))
          CFI V3 load(1, XDATA, add(CFA_XSP16, literal(-19)))
          CFI V4 load(1, XDATA, add(CFA_XSP16, literal(-18)))
          CFI V5 load(1, XDATA, add(CFA_XSP16, literal(-17)))
          CFI V6 load(1, XDATA, add(CFA_XSP16, literal(-16)))
          CFI V7 load(1, XDATA, add(CFA_XSP16, literal(-15)))
          CFI V8 load(1, XDATA, add(CFA_XSP16, literal(-14)))
          CFI V9 load(1, XDATA, add(CFA_XSP16, literal(-13)))
          CFI V10 load(1, XDATA, add(CFA_XSP16, literal(-12)))
          CFI V11 load(1, XDATA, add(CFA_XSP16, literal(-11)))
          CFI V12 load(1, XDATA, add(CFA_XSP16, literal(-10)))
          CFI V13 load(1, XDATA, add(CFA_XSP16, literal(-9)))
          CFI V14 load(1, XDATA, add(CFA_XSP16, literal(-8)))
          CFI V15 load(1, XDATA, add(CFA_XSP16, literal(-7)))
          CFI R7 load(1, XDATA, add(CFA_XSP16, literal(-6)))
          CFI ?RET_LOW load(1, XDATA, add(CFA_XSP16, literal(-5)))
          CFI ?RET_HIGH load(1, XDATA, add(CFA_XSP16, literal(-4)))
          CFI ?BRET_EXT load(1, XDATA, add(CFA_XSP16, literal(-3)))
          CFI DPL0 load(1, XDATA, add(CFA_XSP16, literal(-2)))
          CFI DPH0 load(1, XDATA, add(CFA_XSP16, literal(-1)))
          CFI CFA_SP SP+-2
          CFI CFA_XSP16 add(XSP16, 62)
          CFI Block cfiCond90 Using cfiCommon0
          CFI (cfiCond90) Function zclSampleThermostat_ProcessInReportCmd
          CFI (cfiCond90) Conditional ??CrossCallReturnLabel_33
          CFI (cfiCond90) R6 load(1, XDATA, add(CFA_XSP16, literal(-24)))
          CFI (cfiCond90) VB load(1, XDATA, add(CFA_XSP16, literal(-23)))
          CFI (cfiCond90) V0 load(1, XDATA, add(CFA_XSP16, literal(-22)))
          CFI (cfiCond90) V1 load(1, XDATA, add(CFA_XSP16, literal(-21)))
          CFI (cfiCond90) V2 load(1, XDATA, add(CFA_XSP16, literal(-20)))
          CFI (cfiCond90) V3 load(1, XDATA, add(CFA_XSP16, literal(-19)))
          CFI (cfiCond90) V4 load(1, XDATA, add(CFA_XSP16, literal(-18)))
          CFI (cfiCond90) V5 load(1, XDATA, add(CFA_XSP16, literal(-17)))
          CFI (cfiCond90) V6 load(1, XDATA, add(CFA_XSP16, literal(-16)))
          CFI (cfiCond90) V7 load(1, XDATA, add(CFA_XSP16, literal(-15)))
          CFI (cfiCond90) V8 load(1, XDATA, add(CFA_XSP16, literal(-14)))
          CFI (cfiCond90) V9 load(1, XDATA, add(CFA_XSP16, literal(-13)))
          CFI (cfiCond90) V10 load(1, XDATA, add(CFA_XSP16, literal(-12)))
          CFI (cfiCond90) V11 load(1, XDATA, add(CFA_XSP16, literal(-11)))
          CFI (cfiCond90) V12 load(1, XDATA, add(CFA_XSP16, literal(-10)))
          CFI (cfiCond90) V13 load(1, XDATA, add(CFA_XSP16, literal(-9)))
          CFI (cfiCond90) V14 load(1, XDATA, add(CFA_XSP16, literal(-8)))
          CFI (cfiCond90) V15 load(1, XDATA, add(CFA_XSP16, literal(-7)))
          CFI (cfiCond90) R7 load(1, XDATA, add(CFA_XSP16, literal(-6)))
          CFI (cfiCond90) ?RET_LOW load(1, XDATA, add(CFA_XSP16, literal(-5)))
          CFI (cfiCond90) ?RET_HIGH load(1, XDATA, add(CFA_XSP16, literal(-4)))
          CFI (cfiCond90) ?BRET_EXT load(1, XDATA, add(CFA_XSP16, literal(-3)))
          CFI (cfiCond90) DPL0 load(1, XDATA, add(CFA_XSP16, literal(-2)))
          CFI (cfiCond90) DPH0 load(1, XDATA, add(CFA_XSP16, literal(-1)))
          CFI (cfiCond90) CFA_SP SP+-2
          CFI (cfiCond90) CFA_XSP16 add(XSP16, 62)
          CFI Block cfiPicker91 Using cfiCommon1
          CFI (cfiPicker91) NoFunction
          CFI (cfiPicker91) Picker
        MOVX    A,@DPTR
        MOV     ?V6,A
        INC     DPTR
        MOVX    A,@DPTR
        MOV     R2,?V6
        MOV     R3,A
        CLR     A
        MOV     R4,A
        MOV     R5,A
        MOV     R1,A
        RET
          CFI EndBlock cfiCond89
          CFI EndBlock cfiCond90
          CFI EndBlock cfiPicker91

        RSEG BANKED_CODE:HUGECODE:NOROOT(0)
?Subroutine13:
          CFI Block cfiCond92 Using cfiCommon0
          CFI Function zclSampleThermostat_HandleKeys
          CFI Conditional ??CrossCallReturnLabel_21
          CFI R6 load(1, XDATA, add(CFA_XSP16, literal(-16)))
          CFI VB load(1, XDATA, add(CFA_XSP16, literal(-15)))
          CFI V0 load(1, XDATA, add(CFA_XSP16, literal(-14)))
          CFI V1 load(1, XDATA, add(CFA_XSP16, literal(-13)))
          CFI V2 load(1, XDATA, add(CFA_XSP16, literal(-12)))
          CFI V3 load(1, XDATA, add(CFA_XSP16, literal(-11)))
          CFI V4 load(1, XDATA, add(CFA_XSP16, literal(-10)))
          CFI V5 load(1, XDATA, add(CFA_XSP16, literal(-9)))
          CFI V6 load(1, XDATA, add(CFA_XSP16, literal(-8)))
          CFI V7 load(1, XDATA, add(CFA_XSP16, literal(-7)))
          CFI R7 load(1, XDATA, add(CFA_XSP16, literal(-6)))
          CFI ?RET_LOW load(1, XDATA, add(CFA_XSP16, literal(-5)))
          CFI ?RET_HIGH load(1, XDATA, add(CFA_XSP16, literal(-4)))
          CFI ?BRET_EXT load(1, XDATA, add(CFA_XSP16, literal(-3)))
          CFI DPL0 load(1, XDATA, add(CFA_XSP16, literal(-2)))
          CFI DPH0 load(1, XDATA, add(CFA_XSP16, literal(-1)))
          CFI CFA_SP SP+-2
          CFI CFA_XSP16 add(XSP16, 29)
          CFI Block cfiCond93 Using cfiCommon0
          CFI (cfiCond93) Function zclSampleThermostat_ProcessInReportCmd
          CFI (cfiCond93) Conditional ??CrossCallReturnLabel_22
          CFI (cfiCond93) R6 load(1, XDATA, add(CFA_XSP16, literal(-24)))
          CFI (cfiCond93) VB load(1, XDATA, add(CFA_XSP16, literal(-23)))
          CFI (cfiCond93) V0 load(1, XDATA, add(CFA_XSP16, literal(-22)))
          CFI (cfiCond93) V1 load(1, XDATA, add(CFA_XSP16, literal(-21)))
          CFI (cfiCond93) V2 load(1, XDATA, add(CFA_XSP16, literal(-20)))
          CFI (cfiCond93) V3 load(1, XDATA, add(CFA_XSP16, literal(-19)))
          CFI (cfiCond93) V4 load(1, XDATA, add(CFA_XSP16, literal(-18)))
          CFI (cfiCond93) V5 load(1, XDATA, add(CFA_XSP16, literal(-17)))
          CFI (cfiCond93) V6 load(1, XDATA, add(CFA_XSP16, literal(-16)))
          CFI (cfiCond93) V7 load(1, XDATA, add(CFA_XSP16, literal(-15)))
          CFI (cfiCond93) V8 load(1, XDATA, add(CFA_XSP16, literal(-14)))
          CFI (cfiCond93) V9 load(1, XDATA, add(CFA_XSP16, literal(-13)))
          CFI (cfiCond93) V10 load(1, XDATA, add(CFA_XSP16, literal(-12)))
          CFI (cfiCond93) V11 load(1, XDATA, add(CFA_XSP16, literal(-11)))
          CFI (cfiCond93) V12 load(1, XDATA, add(CFA_XSP16, literal(-10)))
          CFI (cfiCond93) V13 load(1, XDATA, add(CFA_XSP16, literal(-9)))
          CFI (cfiCond93) V14 load(1, XDATA, add(CFA_XSP16, literal(-8)))
          CFI (cfiCond93) V15 load(1, XDATA, add(CFA_XSP16, literal(-7)))
          CFI (cfiCond93) R7 load(1, XDATA, add(CFA_XSP16, literal(-6)))
          CFI (cfiCond93) ?RET_LOW load(1, XDATA, add(CFA_XSP16, literal(-5)))
          CFI (cfiCond93) ?RET_HIGH load(1, XDATA, add(CFA_XSP16, literal(-4)))
          CFI (cfiCond93) ?BRET_EXT load(1, XDATA, add(CFA_XSP16, literal(-3)))
          CFI (cfiCond93) DPL0 load(1, XDATA, add(CFA_XSP16, literal(-2)))
          CFI (cfiCond93) DPH0 load(1, XDATA, add(CFA_XSP16, literal(-1)))
          CFI (cfiCond93) CFA_SP SP+-2
          CFI (cfiCond93) CFA_XSP16 add(XSP16, 62)
          CFI Block cfiCond94 Using cfiCommon0
          CFI (cfiCond94) Function zclSampleThermostat_ProcessInReportCmd
          CFI (cfiCond94) Conditional ??CrossCallReturnLabel_23
          CFI (cfiCond94) R6 load(1, XDATA, add(CFA_XSP16, literal(-24)))
          CFI (cfiCond94) VB load(1, XDATA, add(CFA_XSP16, literal(-23)))
          CFI (cfiCond94) V0 load(1, XDATA, add(CFA_XSP16, literal(-22)))
          CFI (cfiCond94) V1 load(1, XDATA, add(CFA_XSP16, literal(-21)))
          CFI (cfiCond94) V2 load(1, XDATA, add(CFA_XSP16, literal(-20)))
          CFI (cfiCond94) V3 load(1, XDATA, add(CFA_XSP16, literal(-19)))
          CFI (cfiCond94) V4 load(1, XDATA, add(CFA_XSP16, literal(-18)))
          CFI (cfiCond94) V5 load(1, XDATA, add(CFA_XSP16, literal(-17)))
          CFI (cfiCond94) V6 load(1, XDATA, add(CFA_XSP16, literal(-16)))
          CFI (cfiCond94) V7 load(1, XDATA, add(CFA_XSP16, literal(-15)))
          CFI (cfiCond94) V8 load(1, XDATA, add(CFA_XSP16, literal(-14)))
          CFI (cfiCond94) V9 load(1, XDATA, add(CFA_XSP16, literal(-13)))
          CFI (cfiCond94) V10 load(1, XDATA, add(CFA_XSP16, literal(-12)))
          CFI (cfiCond94) V11 load(1, XDATA, add(CFA_XSP16, literal(-11)))
          CFI (cfiCond94) V12 load(1, XDATA, add(CFA_XSP16, literal(-10)))
          CFI (cfiCond94) V13 load(1, XDATA, add(CFA_XSP16, literal(-9)))
          CFI (cfiCond94) V14 load(1, XDATA, add(CFA_XSP16, literal(-8)))
          CFI (cfiCond94) V15 load(1, XDATA, add(CFA_XSP16, literal(-7)))
          CFI (cfiCond94) R7 load(1, XDATA, add(CFA_XSP16, literal(-6)))
          CFI (cfiCond94) ?RET_LOW load(1, XDATA, add(CFA_XSP16, literal(-5)))
          CFI (cfiCond94) ?RET_HIGH load(1, XDATA, add(CFA_XSP16, literal(-4)))
          CFI (cfiCond94) ?BRET_EXT load(1, XDATA, add(CFA_XSP16, literal(-3)))
          CFI (cfiCond94) DPL0 load(1, XDATA, add(CFA_XSP16, literal(-2)))
          CFI (cfiCond94) DPH0 load(1, XDATA, add(CFA_XSP16, literal(-1)))
          CFI (cfiCond94) CFA_SP SP+-2
          CFI (cfiCond94) CFA_XSP16 add(XSP16, 62)
          CFI Block cfiPicker95 Using cfiCommon1
          CFI (cfiPicker95) NoFunction
          CFI (cfiPicker95) Picker
        MOVX    A,@DPTR
        MOV     ?V0,A
        INC     DPTR
        MOVX    A,@DPTR
        MOV     R2,?V0
        MOV     R3,A
        CLR     A
        MOV     R4,A
        MOV     R5,A
        MOV     R1,A
        RET
          CFI EndBlock cfiCond92
          CFI EndBlock cfiCond93
          CFI EndBlock cfiCond94
          CFI EndBlock cfiPicker95

        RSEG BANKED_CODE:HUGECODE:NOROOT(0)
?Subroutine12:
          CFI Block cfiCond96 Using cfiCommon0
          CFI Function zclSampleThermostat_ProcessInReportCmd
          CFI Conditional ??CrossCallReturnLabel_16
          CFI R6 load(1, XDATA, add(CFA_XSP16, literal(-24)))
          CFI VB load(1, XDATA, add(CFA_XSP16, literal(-23)))
          CFI V0 load(1, XDATA, add(CFA_XSP16, literal(-22)))
          CFI V1 load(1, XDATA, add(CFA_XSP16, literal(-21)))
          CFI V2 load(1, XDATA, add(CFA_XSP16, literal(-20)))
          CFI V3 load(1, XDATA, add(CFA_XSP16, literal(-19)))
          CFI V4 load(1, XDATA, add(CFA_XSP16, literal(-18)))
          CFI V5 load(1, XDATA, add(CFA_XSP16, literal(-17)))
          CFI V6 load(1, XDATA, add(CFA_XSP16, literal(-16)))
          CFI V7 load(1, XDATA, add(CFA_XSP16, literal(-15)))
          CFI V8 load(1, XDATA, add(CFA_XSP16, literal(-14)))
          CFI V9 load(1, XDATA, add(CFA_XSP16, literal(-13)))
          CFI V10 load(1, XDATA, add(CFA_XSP16, literal(-12)))
          CFI V11 load(1, XDATA, add(CFA_XSP16, literal(-11)))
          CFI V12 load(1, XDATA, add(CFA_XSP16, literal(-10)))
          CFI V13 load(1, XDATA, add(CFA_XSP16, literal(-9)))
          CFI V14 load(1, XDATA, add(CFA_XSP16, literal(-8)))
          CFI V15 load(1, XDATA, add(CFA_XSP16, literal(-7)))
          CFI R7 load(1, XDATA, add(CFA_XSP16, literal(-6)))
          CFI ?RET_LOW load(1, XDATA, add(CFA_XSP16, literal(-5)))
          CFI ?RET_HIGH load(1, XDATA, add(CFA_XSP16, literal(-4)))
          CFI ?BRET_EXT load(1, XDATA, add(CFA_XSP16, literal(-3)))
          CFI DPL0 load(1, XDATA, add(CFA_XSP16, literal(-2)))
          CFI DPH0 load(1, XDATA, add(CFA_XSP16, literal(-1)))
          CFI CFA_SP SP+-2
          CFI CFA_XSP16 add(XSP16, 62)
          CFI Block cfiCond97 Using cfiCommon0
          CFI (cfiCond97) Function zclSampleThermostat_ProcessInReportCmd
          CFI (cfiCond97) Conditional ??CrossCallReturnLabel_17
          CFI (cfiCond97) R6 load(1, XDATA, add(CFA_XSP16, literal(-24)))
          CFI (cfiCond97) VB load(1, XDATA, add(CFA_XSP16, literal(-23)))
          CFI (cfiCond97) V0 load(1, XDATA, add(CFA_XSP16, literal(-22)))
          CFI (cfiCond97) V1 load(1, XDATA, add(CFA_XSP16, literal(-21)))
          CFI (cfiCond97) V2 load(1, XDATA, add(CFA_XSP16, literal(-20)))
          CFI (cfiCond97) V3 load(1, XDATA, add(CFA_XSP16, literal(-19)))
          CFI (cfiCond97) V4 load(1, XDATA, add(CFA_XSP16, literal(-18)))
          CFI (cfiCond97) V5 load(1, XDATA, add(CFA_XSP16, literal(-17)))
          CFI (cfiCond97) V6 load(1, XDATA, add(CFA_XSP16, literal(-16)))
          CFI (cfiCond97) V7 load(1, XDATA, add(CFA_XSP16, literal(-15)))
          CFI (cfiCond97) V8 load(1, XDATA, add(CFA_XSP16, literal(-14)))
          CFI (cfiCond97) V9 load(1, XDATA, add(CFA_XSP16, literal(-13)))
          CFI (cfiCond97) V10 load(1, XDATA, add(CFA_XSP16, literal(-12)))
          CFI (cfiCond97) V11 load(1, XDATA, add(CFA_XSP16, literal(-11)))
          CFI (cfiCond97) V12 load(1, XDATA, add(CFA_XSP16, literal(-10)))
          CFI (cfiCond97) V13 load(1, XDATA, add(CFA_XSP16, literal(-9)))
          CFI (cfiCond97) V14 load(1, XDATA, add(CFA_XSP16, literal(-8)))
          CFI (cfiCond97) V15 load(1, XDATA, add(CFA_XSP16, literal(-7)))
          CFI (cfiCond97) R7 load(1, XDATA, add(CFA_XSP16, literal(-6)))
          CFI (cfiCond97) ?RET_LOW load(1, XDATA, add(CFA_XSP16, literal(-5)))
          CFI (cfiCond97) ?RET_HIGH load(1, XDATA, add(CFA_XSP16, literal(-4)))
          CFI (cfiCond97) ?BRET_EXT load(1, XDATA, add(CFA_XSP16, literal(-3)))
          CFI (cfiCond97) DPL0 load(1, XDATA, add(CFA_XSP16, literal(-2)))
          CFI (cfiCond97) DPH0 load(1, XDATA, add(CFA_XSP16, literal(-1)))
          CFI (cfiCond97) CFA_SP SP+-2
          CFI (cfiCond97) CFA_XSP16 add(XSP16, 62)
          CFI Block cfiCond98 Using cfiCommon0
          CFI (cfiCond98) Function zclSampleThermostat_ProcessInReportCmd
          CFI (cfiCond98) Conditional ??CrossCallReturnLabel_18
          CFI (cfiCond98) R6 load(1, XDATA, add(CFA_XSP16, literal(-24)))
          CFI (cfiCond98) VB load(1, XDATA, add(CFA_XSP16, literal(-23)))
          CFI (cfiCond98) V0 load(1, XDATA, add(CFA_XSP16, literal(-22)))
          CFI (cfiCond98) V1 load(1, XDATA, add(CFA_XSP16, literal(-21)))
          CFI (cfiCond98) V2 load(1, XDATA, add(CFA_XSP16, literal(-20)))
          CFI (cfiCond98) V3 load(1, XDATA, add(CFA_XSP16, literal(-19)))
          CFI (cfiCond98) V4 load(1, XDATA, add(CFA_XSP16, literal(-18)))
          CFI (cfiCond98) V5 load(1, XDATA, add(CFA_XSP16, literal(-17)))
          CFI (cfiCond98) V6 load(1, XDATA, add(CFA_XSP16, literal(-16)))
          CFI (cfiCond98) V7 load(1, XDATA, add(CFA_XSP16, literal(-15)))
          CFI (cfiCond98) V8 load(1, XDATA, add(CFA_XSP16, literal(-14)))
          CFI (cfiCond98) V9 load(1, XDATA, add(CFA_XSP16, literal(-13)))
          CFI (cfiCond98) V10 load(1, XDATA, add(CFA_XSP16, literal(-12)))
          CFI (cfiCond98) V11 load(1, XDATA, add(CFA_XSP16, literal(-11)))
          CFI (cfiCond98) V12 load(1, XDATA, add(CFA_XSP16, literal(-10)))
          CFI (cfiCond98) V13 load(1, XDATA, add(CFA_XSP16, literal(-9)))
          CFI (cfiCond98) V14 load(1, XDATA, add(CFA_XSP16, literal(-8)))
          CFI (cfiCond98) V15 load(1, XDATA, add(CFA_XSP16, literal(-7)))
          CFI (cfiCond98) R7 load(1, XDATA, add(CFA_XSP16, literal(-6)))
          CFI (cfiCond98) ?RET_LOW load(1, XDATA, add(CFA_XSP16, literal(-5)))
          CFI (cfiCond98) ?RET_HIGH load(1, XDATA, add(CFA_XSP16, literal(-4)))
          CFI (cfiCond98) ?BRET_EXT load(1, XDATA, add(CFA_XSP16, literal(-3)))
          CFI (cfiCond98) DPL0 load(1, XDATA, add(CFA_XSP16, literal(-2)))
          CFI (cfiCond98) DPH0 load(1, XDATA, add(CFA_XSP16, literal(-1)))
          CFI (cfiCond98) CFA_SP SP+-2
          CFI (cfiCond98) CFA_XSP16 add(XSP16, 62)
          CFI Block cfiCond99 Using cfiCommon0
          CFI (cfiCond99) Function zclSampleThermostat_ProcessInReportCmd
          CFI (cfiCond99) Conditional ??CrossCallReturnLabel_19
          CFI (cfiCond99) R6 load(1, XDATA, add(CFA_XSP16, literal(-24)))
          CFI (cfiCond99) VB load(1, XDATA, add(CFA_XSP16, literal(-23)))
          CFI (cfiCond99) V0 load(1, XDATA, add(CFA_XSP16, literal(-22)))
          CFI (cfiCond99) V1 load(1, XDATA, add(CFA_XSP16, literal(-21)))
          CFI (cfiCond99) V2 load(1, XDATA, add(CFA_XSP16, literal(-20)))
          CFI (cfiCond99) V3 load(1, XDATA, add(CFA_XSP16, literal(-19)))
          CFI (cfiCond99) V4 load(1, XDATA, add(CFA_XSP16, literal(-18)))
          CFI (cfiCond99) V5 load(1, XDATA, add(CFA_XSP16, literal(-17)))
          CFI (cfiCond99) V6 load(1, XDATA, add(CFA_XSP16, literal(-16)))
          CFI (cfiCond99) V7 load(1, XDATA, add(CFA_XSP16, literal(-15)))
          CFI (cfiCond99) V8 load(1, XDATA, add(CFA_XSP16, literal(-14)))
          CFI (cfiCond99) V9 load(1, XDATA, add(CFA_XSP16, literal(-13)))
          CFI (cfiCond99) V10 load(1, XDATA, add(CFA_XSP16, literal(-12)))
          CFI (cfiCond99) V11 load(1, XDATA, add(CFA_XSP16, literal(-11)))
          CFI (cfiCond99) V12 load(1, XDATA, add(CFA_XSP16, literal(-10)))
          CFI (cfiCond99) V13 load(1, XDATA, add(CFA_XSP16, literal(-9)))
          CFI (cfiCond99) V14 load(1, XDATA, add(CFA_XSP16, literal(-8)))
          CFI (cfiCond99) V15 load(1, XDATA, add(CFA_XSP16, literal(-7)))
          CFI (cfiCond99) R7 load(1, XDATA, add(CFA_XSP16, literal(-6)))
          CFI (cfiCond99) ?RET_LOW load(1, XDATA, add(CFA_XSP16, literal(-5)))
          CFI (cfiCond99) ?RET_HIGH load(1, XDATA, add(CFA_XSP16, literal(-4)))
          CFI (cfiCond99) ?BRET_EXT load(1, XDATA, add(CFA_XSP16, literal(-3)))
          CFI (cfiCond99) DPL0 load(1, XDATA, add(CFA_XSP16, literal(-2)))
          CFI (cfiCond99) DPH0 load(1, XDATA, add(CFA_XSP16, literal(-1)))
          CFI (cfiCond99) CFA_SP SP+-2
          CFI (cfiCond99) CFA_XSP16 add(XSP16, 62)
          CFI Block cfiCond100 Using cfiCommon0
          CFI (cfiCond100) Function zclSampleThermostat_ProcessInReportCmd
          CFI (cfiCond100) Conditional ??CrossCallReturnLabel_20
          CFI (cfiCond100) R6 load(1, XDATA, add(CFA_XSP16, literal(-24)))
          CFI (cfiCond100) VB load(1, XDATA, add(CFA_XSP16, literal(-23)))
          CFI (cfiCond100) V0 load(1, XDATA, add(CFA_XSP16, literal(-22)))
          CFI (cfiCond100) V1 load(1, XDATA, add(CFA_XSP16, literal(-21)))
          CFI (cfiCond100) V2 load(1, XDATA, add(CFA_XSP16, literal(-20)))
          CFI (cfiCond100) V3 load(1, XDATA, add(CFA_XSP16, literal(-19)))
          CFI (cfiCond100) V4 load(1, XDATA, add(CFA_XSP16, literal(-18)))
          CFI (cfiCond100) V5 load(1, XDATA, add(CFA_XSP16, literal(-17)))
          CFI (cfiCond100) V6 load(1, XDATA, add(CFA_XSP16, literal(-16)))
          CFI (cfiCond100) V7 load(1, XDATA, add(CFA_XSP16, literal(-15)))
          CFI (cfiCond100) V8 load(1, XDATA, add(CFA_XSP16, literal(-14)))
          CFI (cfiCond100) V9 load(1, XDATA, add(CFA_XSP16, literal(-13)))
          CFI (cfiCond100) V10 load(1, XDATA, add(CFA_XSP16, literal(-12)))
          CFI (cfiCond100) V11 load(1, XDATA, add(CFA_XSP16, literal(-11)))
          CFI (cfiCond100) V12 load(1, XDATA, add(CFA_XSP16, literal(-10)))
          CFI (cfiCond100) V13 load(1, XDATA, add(CFA_XSP16, literal(-9)))
          CFI (cfiCond100) V14 load(1, XDATA, add(CFA_XSP16, literal(-8)))
          CFI (cfiCond100) V15 load(1, XDATA, add(CFA_XSP16, literal(-7)))
          CFI (cfiCond100) R7 load(1, XDATA, add(CFA_XSP16, literal(-6)))
          CFI (cfiCond100) ?RET_LOW load(1, XDATA, add(CFA_XSP16, literal(-5)))
          CFI (cfiCond100) ?RET_HIGH load(1, XDATA, add(CFA_XSP16, literal(-4)))
          CFI (cfiCond100) ?BRET_EXT load(1, XDATA, add(CFA_XSP16, literal(-3)))
          CFI (cfiCond100) DPL0 load(1, XDATA, add(CFA_XSP16, literal(-2)))
          CFI (cfiCond100) DPH0 load(1, XDATA, add(CFA_XSP16, literal(-1)))
          CFI (cfiCond100) CFA_SP SP+-2
          CFI (cfiCond100) CFA_XSP16 add(XSP16, 62)
          CFI Block cfiPicker101 Using cfiCommon1
          CFI (cfiPicker101) NoFunction
          CFI (cfiPicker101) Picker
        MOV     DPTR,#msg_RSSI
        MOVX    A,@DPTR
        MOV     R2,A
        RLC     A
        SUBB    A,0xE0 /* A   */
        MOV     R3,A
        MOV     R4,A
        MOV     R5,A
        MOV     R1,#0x0
        RET
          CFI EndBlock cfiCond96
          CFI EndBlock cfiCond97
          CFI EndBlock cfiCond98
          CFI EndBlock cfiCond99
          CFI EndBlock cfiCond100
          CFI EndBlock cfiPicker101

        RSEG BANKED_CODE:HUGECODE:NOROOT(0)
?Subroutine10:
          CFI Block cfiCond102 Using cfiCommon0
          CFI Function zclSampleThermostat_ProcessInReportCmd
          CFI Conditional ??CrossCallReturnLabel_78
          CFI R6 load(1, XDATA, add(CFA_XSP16, literal(-24)))
          CFI VB load(1, XDATA, add(CFA_XSP16, literal(-23)))
          CFI V0 load(1, XDATA, add(CFA_XSP16, literal(-22)))
          CFI V1 load(1, XDATA, add(CFA_XSP16, literal(-21)))
          CFI V2 load(1, XDATA, add(CFA_XSP16, literal(-20)))
          CFI V3 load(1, XDATA, add(CFA_XSP16, literal(-19)))
          CFI V4 load(1, XDATA, add(CFA_XSP16, literal(-18)))
          CFI V5 load(1, XDATA, add(CFA_XSP16, literal(-17)))
          CFI V6 load(1, XDATA, add(CFA_XSP16, literal(-16)))
          CFI V7 load(1, XDATA, add(CFA_XSP16, literal(-15)))
          CFI V8 load(1, XDATA, add(CFA_XSP16, literal(-14)))
          CFI V9 load(1, XDATA, add(CFA_XSP16, literal(-13)))
          CFI V10 load(1, XDATA, add(CFA_XSP16, literal(-12)))
          CFI V11 load(1, XDATA, add(CFA_XSP16, literal(-11)))
          CFI V12 load(1, XDATA, add(CFA_XSP16, literal(-10)))
          CFI V13 load(1, XDATA, add(CFA_XSP16, literal(-9)))
          CFI V14 load(1, XDATA, add(CFA_XSP16, literal(-8)))
          CFI V15 load(1, XDATA, add(CFA_XSP16, literal(-7)))
          CFI R7 load(1, XDATA, add(CFA_XSP16, literal(-6)))
          CFI ?RET_LOW load(1, XDATA, add(CFA_XSP16, literal(-5)))
          CFI ?RET_HIGH load(1, XDATA, add(CFA_XSP16, literal(-4)))
          CFI ?BRET_EXT load(1, XDATA, add(CFA_XSP16, literal(-3)))
          CFI DPL0 load(1, XDATA, add(CFA_XSP16, literal(-2)))
          CFI DPH0 load(1, XDATA, add(CFA_XSP16, literal(-1)))
          CFI CFA_SP SP+-2
          CFI CFA_XSP16 add(XSP16, 62)
          CFI Block cfiCond103 Using cfiCommon0
          CFI (cfiCond103) Function zclSampleThermostat_ProcessInReportCmd
          CFI (cfiCond103) Conditional ??CrossCallReturnLabel_79
          CFI (cfiCond103) R6 load(1, XDATA, add(CFA_XSP16, literal(-24)))
          CFI (cfiCond103) VB load(1, XDATA, add(CFA_XSP16, literal(-23)))
          CFI (cfiCond103) V0 load(1, XDATA, add(CFA_XSP16, literal(-22)))
          CFI (cfiCond103) V1 load(1, XDATA, add(CFA_XSP16, literal(-21)))
          CFI (cfiCond103) V2 load(1, XDATA, add(CFA_XSP16, literal(-20)))
          CFI (cfiCond103) V3 load(1, XDATA, add(CFA_XSP16, literal(-19)))
          CFI (cfiCond103) V4 load(1, XDATA, add(CFA_XSP16, literal(-18)))
          CFI (cfiCond103) V5 load(1, XDATA, add(CFA_XSP16, literal(-17)))
          CFI (cfiCond103) V6 load(1, XDATA, add(CFA_XSP16, literal(-16)))
          CFI (cfiCond103) V7 load(1, XDATA, add(CFA_XSP16, literal(-15)))
          CFI (cfiCond103) V8 load(1, XDATA, add(CFA_XSP16, literal(-14)))
          CFI (cfiCond103) V9 load(1, XDATA, add(CFA_XSP16, literal(-13)))
          CFI (cfiCond103) V10 load(1, XDATA, add(CFA_XSP16, literal(-12)))
          CFI (cfiCond103) V11 load(1, XDATA, add(CFA_XSP16, literal(-11)))
          CFI (cfiCond103) V12 load(1, XDATA, add(CFA_XSP16, literal(-10)))
          CFI (cfiCond103) V13 load(1, XDATA, add(CFA_XSP16, literal(-9)))
          CFI (cfiCond103) V14 load(1, XDATA, add(CFA_XSP16, literal(-8)))
          CFI (cfiCond103) V15 load(1, XDATA, add(CFA_XSP16, literal(-7)))
          CFI (cfiCond103) R7 load(1, XDATA, add(CFA_XSP16, literal(-6)))
          CFI (cfiCond103) ?RET_LOW load(1, XDATA, add(CFA_XSP16, literal(-5)))
          CFI (cfiCond103) ?RET_HIGH load(1, XDATA, add(CFA_XSP16, literal(-4)))
          CFI (cfiCond103) ?BRET_EXT load(1, XDATA, add(CFA_XSP16, literal(-3)))
          CFI (cfiCond103) DPL0 load(1, XDATA, add(CFA_XSP16, literal(-2)))
          CFI (cfiCond103) DPH0 load(1, XDATA, add(CFA_XSP16, literal(-1)))
          CFI (cfiCond103) CFA_SP SP+-2
          CFI (cfiCond103) CFA_XSP16 add(XSP16, 62)
          CFI Block cfiPicker104 Using cfiCommon1
          CFI (cfiPicker104) NoFunction
          CFI (cfiPicker104) Picker
        MOV     DPL,?V4
        MOV     DPH,?V5
          CFI EndBlock cfiCond102
          CFI EndBlock cfiCond103
          CFI EndBlock cfiPicker104
        REQUIRE ??Subroutine34_0
        ; // Fall through to label ??Subroutine34_0

        RSEG BANKED_CODE:HUGECODE:NOROOT(0)
??Subroutine34_0:
          CFI Block cfiCond105 Using cfiCommon0
          CFI Function zclSampleThermostat_ProcessInReportCmd
          CFI Conditional ??CrossCallReturnLabel_76
          CFI R6 load(1, XDATA, add(CFA_XSP16, literal(-24)))
          CFI VB load(1, XDATA, add(CFA_XSP16, literal(-23)))
          CFI V0 load(1, XDATA, add(CFA_XSP16, literal(-22)))
          CFI V1 load(1, XDATA, add(CFA_XSP16, literal(-21)))
          CFI V2 load(1, XDATA, add(CFA_XSP16, literal(-20)))
          CFI V3 load(1, XDATA, add(CFA_XSP16, literal(-19)))
          CFI V4 load(1, XDATA, add(CFA_XSP16, literal(-18)))
          CFI V5 load(1, XDATA, add(CFA_XSP16, literal(-17)))
          CFI V6 load(1, XDATA, add(CFA_XSP16, literal(-16)))
          CFI V7 load(1, XDATA, add(CFA_XSP16, literal(-15)))
          CFI V8 load(1, XDATA, add(CFA_XSP16, literal(-14)))
          CFI V9 load(1, XDATA, add(CFA_XSP16, literal(-13)))
          CFI V10 load(1, XDATA, add(CFA_XSP16, literal(-12)))
          CFI V11 load(1, XDATA, add(CFA_XSP16, literal(-11)))
          CFI V12 load(1, XDATA, add(CFA_XSP16, literal(-10)))
          CFI V13 load(1, XDATA, add(CFA_XSP16, literal(-9)))
          CFI V14 load(1, XDATA, add(CFA_XSP16, literal(-8)))
          CFI V15 load(1, XDATA, add(CFA_XSP16, literal(-7)))
          CFI R7 load(1, XDATA, add(CFA_XSP16, literal(-6)))
          CFI ?RET_LOW load(1, XDATA, add(CFA_XSP16, literal(-5)))
          CFI ?RET_HIGH load(1, XDATA, add(CFA_XSP16, literal(-4)))
          CFI ?BRET_EXT load(1, XDATA, add(CFA_XSP16, literal(-3)))
          CFI DPL0 load(1, XDATA, add(CFA_XSP16, literal(-2)))
          CFI DPH0 load(1, XDATA, add(CFA_XSP16, literal(-1)))
          CFI CFA_SP SP+-2
          CFI CFA_XSP16 add(XSP16, 62)
          CFI Block cfiCond106 Using cfiCommon0
          CFI (cfiCond106) Function zclSampleThermostat_ProcessInReportCmd
          CFI (cfiCond106) Conditional ??CrossCallReturnLabel_77
          CFI (cfiCond106) R6 load(1, XDATA, add(CFA_XSP16, literal(-24)))
          CFI (cfiCond106) VB load(1, XDATA, add(CFA_XSP16, literal(-23)))
          CFI (cfiCond106) V0 load(1, XDATA, add(CFA_XSP16, literal(-22)))
          CFI (cfiCond106) V1 load(1, XDATA, add(CFA_XSP16, literal(-21)))
          CFI (cfiCond106) V2 load(1, XDATA, add(CFA_XSP16, literal(-20)))
          CFI (cfiCond106) V3 load(1, XDATA, add(CFA_XSP16, literal(-19)))
          CFI (cfiCond106) V4 load(1, XDATA, add(CFA_XSP16, literal(-18)))
          CFI (cfiCond106) V5 load(1, XDATA, add(CFA_XSP16, literal(-17)))
          CFI (cfiCond106) V6 load(1, XDATA, add(CFA_XSP16, literal(-16)))
          CFI (cfiCond106) V7 load(1, XDATA, add(CFA_XSP16, literal(-15)))
          CFI (cfiCond106) V8 load(1, XDATA, add(CFA_XSP16, literal(-14)))
          CFI (cfiCond106) V9 load(1, XDATA, add(CFA_XSP16, literal(-13)))
          CFI (cfiCond106) V10 load(1, XDATA, add(CFA_XSP16, literal(-12)))
          CFI (cfiCond106) V11 load(1, XDATA, add(CFA_XSP16, literal(-11)))
          CFI (cfiCond106) V12 load(1, XDATA, add(CFA_XSP16, literal(-10)))
          CFI (cfiCond106) V13 load(1, XDATA, add(CFA_XSP16, literal(-9)))
          CFI (cfiCond106) V14 load(1, XDATA, add(CFA_XSP16, literal(-8)))
          CFI (cfiCond106) V15 load(1, XDATA, add(CFA_XSP16, literal(-7)))
          CFI (cfiCond106) R7 load(1, XDATA, add(CFA_XSP16, literal(-6)))
          CFI (cfiCond106) ?RET_LOW load(1, XDATA, add(CFA_XSP16, literal(-5)))
          CFI (cfiCond106) ?RET_HIGH load(1, XDATA, add(CFA_XSP16, literal(-4)))
          CFI (cfiCond106) ?BRET_EXT load(1, XDATA, add(CFA_XSP16, literal(-3)))
          CFI (cfiCond106) DPL0 load(1, XDATA, add(CFA_XSP16, literal(-2)))
          CFI (cfiCond106) DPH0 load(1, XDATA, add(CFA_XSP16, literal(-1)))
          CFI (cfiCond106) CFA_SP SP+-2
          CFI (cfiCond106) CFA_XSP16 add(XSP16, 62)
          CFI Block cfiCond107 Using cfiCommon0
          CFI (cfiCond107) Function zclSampleThermostat_ProcessInReportCmd
          CFI (cfiCond107) Conditional ??CrossCallReturnLabel_78
          CFI (cfiCond107) R6 load(1, XDATA, add(CFA_XSP16, literal(-24)))
          CFI (cfiCond107) VB load(1, XDATA, add(CFA_XSP16, literal(-23)))
          CFI (cfiCond107) V0 load(1, XDATA, add(CFA_XSP16, literal(-22)))
          CFI (cfiCond107) V1 load(1, XDATA, add(CFA_XSP16, literal(-21)))
          CFI (cfiCond107) V2 load(1, XDATA, add(CFA_XSP16, literal(-20)))
          CFI (cfiCond107) V3 load(1, XDATA, add(CFA_XSP16, literal(-19)))
          CFI (cfiCond107) V4 load(1, XDATA, add(CFA_XSP16, literal(-18)))
          CFI (cfiCond107) V5 load(1, XDATA, add(CFA_XSP16, literal(-17)))
          CFI (cfiCond107) V6 load(1, XDATA, add(CFA_XSP16, literal(-16)))
          CFI (cfiCond107) V7 load(1, XDATA, add(CFA_XSP16, literal(-15)))
          CFI (cfiCond107) V8 load(1, XDATA, add(CFA_XSP16, literal(-14)))
          CFI (cfiCond107) V9 load(1, XDATA, add(CFA_XSP16, literal(-13)))
          CFI (cfiCond107) V10 load(1, XDATA, add(CFA_XSP16, literal(-12)))
          CFI (cfiCond107) V11 load(1, XDATA, add(CFA_XSP16, literal(-11)))
          CFI (cfiCond107) V12 load(1, XDATA, add(CFA_XSP16, literal(-10)))
          CFI (cfiCond107) V13 load(1, XDATA, add(CFA_XSP16, literal(-9)))
          CFI (cfiCond107) V14 load(1, XDATA, add(CFA_XSP16, literal(-8)))
          CFI (cfiCond107) V15 load(1, XDATA, add(CFA_XSP16, literal(-7)))
          CFI (cfiCond107) R7 load(1, XDATA, add(CFA_XSP16, literal(-6)))
          CFI (cfiCond107) ?RET_LOW load(1, XDATA, add(CFA_XSP16, literal(-5)))
          CFI (cfiCond107) ?RET_HIGH load(1, XDATA, add(CFA_XSP16, literal(-4)))
          CFI (cfiCond107) ?BRET_EXT load(1, XDATA, add(CFA_XSP16, literal(-3)))
          CFI (cfiCond107) DPL0 load(1, XDATA, add(CFA_XSP16, literal(-2)))
          CFI (cfiCond107) DPH0 load(1, XDATA, add(CFA_XSP16, literal(-1)))
          CFI (cfiCond107) CFA_SP SP+-2
          CFI (cfiCond107) CFA_XSP16 add(XSP16, 62)
          CFI Block cfiCond108 Using cfiCommon0
          CFI (cfiCond108) Function zclSampleThermostat_ProcessInReportCmd
          CFI (cfiCond108) Conditional ??CrossCallReturnLabel_79
          CFI (cfiCond108) R6 load(1, XDATA, add(CFA_XSP16, literal(-24)))
          CFI (cfiCond108) VB load(1, XDATA, add(CFA_XSP16, literal(-23)))
          CFI (cfiCond108) V0 load(1, XDATA, add(CFA_XSP16, literal(-22)))
          CFI (cfiCond108) V1 load(1, XDATA, add(CFA_XSP16, literal(-21)))
          CFI (cfiCond108) V2 load(1, XDATA, add(CFA_XSP16, literal(-20)))
          CFI (cfiCond108) V3 load(1, XDATA, add(CFA_XSP16, literal(-19)))
          CFI (cfiCond108) V4 load(1, XDATA, add(CFA_XSP16, literal(-18)))
          CFI (cfiCond108) V5 load(1, XDATA, add(CFA_XSP16, literal(-17)))
          CFI (cfiCond108) V6 load(1, XDATA, add(CFA_XSP16, literal(-16)))
          CFI (cfiCond108) V7 load(1, XDATA, add(CFA_XSP16, literal(-15)))
          CFI (cfiCond108) V8 load(1, XDATA, add(CFA_XSP16, literal(-14)))
          CFI (cfiCond108) V9 load(1, XDATA, add(CFA_XSP16, literal(-13)))
          CFI (cfiCond108) V10 load(1, XDATA, add(CFA_XSP16, literal(-12)))
          CFI (cfiCond108) V11 load(1, XDATA, add(CFA_XSP16, literal(-11)))
          CFI (cfiCond108) V12 load(1, XDATA, add(CFA_XSP16, literal(-10)))
          CFI (cfiCond108) V13 load(1, XDATA, add(CFA_XSP16, literal(-9)))
          CFI (cfiCond108) V14 load(1, XDATA, add(CFA_XSP16, literal(-8)))
          CFI (cfiCond108) V15 load(1, XDATA, add(CFA_XSP16, literal(-7)))
          CFI (cfiCond108) R7 load(1, XDATA, add(CFA_XSP16, literal(-6)))
          CFI (cfiCond108) ?RET_LOW load(1, XDATA, add(CFA_XSP16, literal(-5)))
          CFI (cfiCond108) ?RET_HIGH load(1, XDATA, add(CFA_XSP16, literal(-4)))
          CFI (cfiCond108) ?BRET_EXT load(1, XDATA, add(CFA_XSP16, literal(-3)))
          CFI (cfiCond108) DPL0 load(1, XDATA, add(CFA_XSP16, literal(-2)))
          CFI (cfiCond108) DPH0 load(1, XDATA, add(CFA_XSP16, literal(-1)))
          CFI (cfiCond108) CFA_SP SP+-2
          CFI (cfiCond108) CFA_XSP16 add(XSP16, 62)
          CFI Block cfiPicker109 Using cfiCommon1
          CFI (cfiPicker109) NoFunction
          CFI (cfiPicker109) Picker
        LCALL   ?Subroutine29 & 0xFFFF
??CrossCallReturnLabel_92:
          CFI EndBlock cfiCond105
          CFI EndBlock cfiCond106
          CFI EndBlock cfiCond107
          CFI EndBlock cfiCond108
          CFI EndBlock cfiPicker109
        REQUIRE ??Subroutine35_0
        ; // Fall through to label ??Subroutine35_0

        RSEG BANKED_CODE:HUGECODE:NOROOT(0)
??Subroutine35_0:
          CFI Block cfiCond110 Using cfiCommon0
          CFI Function zclSampleThermostat_HandleKeys
          CFI Conditional ??CrossCallReturnLabel_75
          CFI R6 load(1, XDATA, add(CFA_XSP16, literal(-16)))
          CFI VB load(1, XDATA, add(CFA_XSP16, literal(-15)))
          CFI V0 load(1, XDATA, add(CFA_XSP16, literal(-14)))
          CFI V1 load(1, XDATA, add(CFA_XSP16, literal(-13)))
          CFI V2 load(1, XDATA, add(CFA_XSP16, literal(-12)))
          CFI V3 load(1, XDATA, add(CFA_XSP16, literal(-11)))
          CFI V4 load(1, XDATA, add(CFA_XSP16, literal(-10)))
          CFI V5 load(1, XDATA, add(CFA_XSP16, literal(-9)))
          CFI V6 load(1, XDATA, add(CFA_XSP16, literal(-8)))
          CFI V7 load(1, XDATA, add(CFA_XSP16, literal(-7)))
          CFI R7 load(1, XDATA, add(CFA_XSP16, literal(-6)))
          CFI ?RET_LOW load(1, XDATA, add(CFA_XSP16, literal(-5)))
          CFI ?RET_HIGH load(1, XDATA, add(CFA_XSP16, literal(-4)))
          CFI ?BRET_EXT load(1, XDATA, add(CFA_XSP16, literal(-3)))
          CFI DPL0 load(1, XDATA, add(CFA_XSP16, literal(-2)))
          CFI DPH0 load(1, XDATA, add(CFA_XSP16, literal(-1)))
          CFI CFA_SP SP+-2
          CFI CFA_XSP16 add(XSP16, 29)
          CFI Block cfiCond111 Using cfiCommon0
          CFI (cfiCond111) Function zclSampleThermostat_ProcessInReportCmd
          CFI (cfiCond111) Conditional ??CrossCallReturnLabel_76
          CFI (cfiCond111) R6 load(1, XDATA, add(CFA_XSP16, literal(-24)))
          CFI (cfiCond111) VB load(1, XDATA, add(CFA_XSP16, literal(-23)))
          CFI (cfiCond111) V0 load(1, XDATA, add(CFA_XSP16, literal(-22)))
          CFI (cfiCond111) V1 load(1, XDATA, add(CFA_XSP16, literal(-21)))
          CFI (cfiCond111) V2 load(1, XDATA, add(CFA_XSP16, literal(-20)))
          CFI (cfiCond111) V3 load(1, XDATA, add(CFA_XSP16, literal(-19)))
          CFI (cfiCond111) V4 load(1, XDATA, add(CFA_XSP16, literal(-18)))
          CFI (cfiCond111) V5 load(1, XDATA, add(CFA_XSP16, literal(-17)))
          CFI (cfiCond111) V6 load(1, XDATA, add(CFA_XSP16, literal(-16)))
          CFI (cfiCond111) V7 load(1, XDATA, add(CFA_XSP16, literal(-15)))
          CFI (cfiCond111) V8 load(1, XDATA, add(CFA_XSP16, literal(-14)))
          CFI (cfiCond111) V9 load(1, XDATA, add(CFA_XSP16, literal(-13)))
          CFI (cfiCond111) V10 load(1, XDATA, add(CFA_XSP16, literal(-12)))
          CFI (cfiCond111) V11 load(1, XDATA, add(CFA_XSP16, literal(-11)))
          CFI (cfiCond111) V12 load(1, XDATA, add(CFA_XSP16, literal(-10)))
          CFI (cfiCond111) V13 load(1, XDATA, add(CFA_XSP16, literal(-9)))
          CFI (cfiCond111) V14 load(1, XDATA, add(CFA_XSP16, literal(-8)))
          CFI (cfiCond111) V15 load(1, XDATA, add(CFA_XSP16, literal(-7)))
          CFI (cfiCond111) R7 load(1, XDATA, add(CFA_XSP16, literal(-6)))
          CFI (cfiCond111) ?RET_LOW load(1, XDATA, add(CFA_XSP16, literal(-5)))
          CFI (cfiCond111) ?RET_HIGH load(1, XDATA, add(CFA_XSP16, literal(-4)))
          CFI (cfiCond111) ?BRET_EXT load(1, XDATA, add(CFA_XSP16, literal(-3)))
          CFI (cfiCond111) DPL0 load(1, XDATA, add(CFA_XSP16, literal(-2)))
          CFI (cfiCond111) DPH0 load(1, XDATA, add(CFA_XSP16, literal(-1)))
          CFI (cfiCond111) CFA_SP SP+-2
          CFI (cfiCond111) CFA_XSP16 add(XSP16, 62)
          CFI Block cfiCond112 Using cfiCommon0
          CFI (cfiCond112) Function zclSampleThermostat_ProcessInReportCmd
          CFI (cfiCond112) Conditional ??CrossCallReturnLabel_77
          CFI (cfiCond112) R6 load(1, XDATA, add(CFA_XSP16, literal(-24)))
          CFI (cfiCond112) VB load(1, XDATA, add(CFA_XSP16, literal(-23)))
          CFI (cfiCond112) V0 load(1, XDATA, add(CFA_XSP16, literal(-22)))
          CFI (cfiCond112) V1 load(1, XDATA, add(CFA_XSP16, literal(-21)))
          CFI (cfiCond112) V2 load(1, XDATA, add(CFA_XSP16, literal(-20)))
          CFI (cfiCond112) V3 load(1, XDATA, add(CFA_XSP16, literal(-19)))
          CFI (cfiCond112) V4 load(1, XDATA, add(CFA_XSP16, literal(-18)))
          CFI (cfiCond112) V5 load(1, XDATA, add(CFA_XSP16, literal(-17)))
          CFI (cfiCond112) V6 load(1, XDATA, add(CFA_XSP16, literal(-16)))
          CFI (cfiCond112) V7 load(1, XDATA, add(CFA_XSP16, literal(-15)))
          CFI (cfiCond112) V8 load(1, XDATA, add(CFA_XSP16, literal(-14)))
          CFI (cfiCond112) V9 load(1, XDATA, add(CFA_XSP16, literal(-13)))
          CFI (cfiCond112) V10 load(1, XDATA, add(CFA_XSP16, literal(-12)))
          CFI (cfiCond112) V11 load(1, XDATA, add(CFA_XSP16, literal(-11)))
          CFI (cfiCond112) V12 load(1, XDATA, add(CFA_XSP16, literal(-10)))
          CFI (cfiCond112) V13 load(1, XDATA, add(CFA_XSP16, literal(-9)))
          CFI (cfiCond112) V14 load(1, XDATA, add(CFA_XSP16, literal(-8)))
          CFI (cfiCond112) V15 load(1, XDATA, add(CFA_XSP16, literal(-7)))
          CFI (cfiCond112) R7 load(1, XDATA, add(CFA_XSP16, literal(-6)))
          CFI (cfiCond112) ?RET_LOW load(1, XDATA, add(CFA_XSP16, literal(-5)))
          CFI (cfiCond112) ?RET_HIGH load(1, XDATA, add(CFA_XSP16, literal(-4)))
          CFI (cfiCond112) ?BRET_EXT load(1, XDATA, add(CFA_XSP16, literal(-3)))
          CFI (cfiCond112) DPL0 load(1, XDATA, add(CFA_XSP16, literal(-2)))
          CFI (cfiCond112) DPH0 load(1, XDATA, add(CFA_XSP16, literal(-1)))
          CFI (cfiCond112) CFA_SP SP+-2
          CFI (cfiCond112) CFA_XSP16 add(XSP16, 62)
          CFI Block cfiCond113 Using cfiCommon0
          CFI (cfiCond113) Function zclSampleThermostat_ProcessInReportCmd
          CFI (cfiCond113) Conditional ??CrossCallReturnLabel_78
          CFI (cfiCond113) R6 load(1, XDATA, add(CFA_XSP16, literal(-24)))
          CFI (cfiCond113) VB load(1, XDATA, add(CFA_XSP16, literal(-23)))
          CFI (cfiCond113) V0 load(1, XDATA, add(CFA_XSP16, literal(-22)))
          CFI (cfiCond113) V1 load(1, XDATA, add(CFA_XSP16, literal(-21)))
          CFI (cfiCond113) V2 load(1, XDATA, add(CFA_XSP16, literal(-20)))
          CFI (cfiCond113) V3 load(1, XDATA, add(CFA_XSP16, literal(-19)))
          CFI (cfiCond113) V4 load(1, XDATA, add(CFA_XSP16, literal(-18)))
          CFI (cfiCond113) V5 load(1, XDATA, add(CFA_XSP16, literal(-17)))
          CFI (cfiCond113) V6 load(1, XDATA, add(CFA_XSP16, literal(-16)))
          CFI (cfiCond113) V7 load(1, XDATA, add(CFA_XSP16, literal(-15)))
          CFI (cfiCond113) V8 load(1, XDATA, add(CFA_XSP16, literal(-14)))
          CFI (cfiCond113) V9 load(1, XDATA, add(CFA_XSP16, literal(-13)))
          CFI (cfiCond113) V10 load(1, XDATA, add(CFA_XSP16, literal(-12)))
          CFI (cfiCond113) V11 load(1, XDATA, add(CFA_XSP16, literal(-11)))
          CFI (cfiCond113) V12 load(1, XDATA, add(CFA_XSP16, literal(-10)))
          CFI (cfiCond113) V13 load(1, XDATA, add(CFA_XSP16, literal(-9)))
          CFI (cfiCond113) V14 load(1, XDATA, add(CFA_XSP16, literal(-8)))
          CFI (cfiCond113) V15 load(1, XDATA, add(CFA_XSP16, literal(-7)))
          CFI (cfiCond113) R7 load(1, XDATA, add(CFA_XSP16, literal(-6)))
          CFI (cfiCond113) ?RET_LOW load(1, XDATA, add(CFA_XSP16, literal(-5)))
          CFI (cfiCond113) ?RET_HIGH load(1, XDATA, add(CFA_XSP16, literal(-4)))
          CFI (cfiCond113) ?BRET_EXT load(1, XDATA, add(CFA_XSP16, literal(-3)))
          CFI (cfiCond113) DPL0 load(1, XDATA, add(CFA_XSP16, literal(-2)))
          CFI (cfiCond113) DPH0 load(1, XDATA, add(CFA_XSP16, literal(-1)))
          CFI (cfiCond113) CFA_SP SP+-2
          CFI (cfiCond113) CFA_XSP16 add(XSP16, 62)
          CFI Block cfiCond114 Using cfiCommon0
          CFI (cfiCond114) Function zclSampleThermostat_ProcessInReportCmd
          CFI (cfiCond114) Conditional ??CrossCallReturnLabel_79
          CFI (cfiCond114) R6 load(1, XDATA, add(CFA_XSP16, literal(-24)))
          CFI (cfiCond114) VB load(1, XDATA, add(CFA_XSP16, literal(-23)))
          CFI (cfiCond114) V0 load(1, XDATA, add(CFA_XSP16, literal(-22)))
          CFI (cfiCond114) V1 load(1, XDATA, add(CFA_XSP16, literal(-21)))
          CFI (cfiCond114) V2 load(1, XDATA, add(CFA_XSP16, literal(-20)))
          CFI (cfiCond114) V3 load(1, XDATA, add(CFA_XSP16, literal(-19)))
          CFI (cfiCond114) V4 load(1, XDATA, add(CFA_XSP16, literal(-18)))
          CFI (cfiCond114) V5 load(1, XDATA, add(CFA_XSP16, literal(-17)))
          CFI (cfiCond114) V6 load(1, XDATA, add(CFA_XSP16, literal(-16)))
          CFI (cfiCond114) V7 load(1, XDATA, add(CFA_XSP16, literal(-15)))
          CFI (cfiCond114) V8 load(1, XDATA, add(CFA_XSP16, literal(-14)))
          CFI (cfiCond114) V9 load(1, XDATA, add(CFA_XSP16, literal(-13)))
          CFI (cfiCond114) V10 load(1, XDATA, add(CFA_XSP16, literal(-12)))
          CFI (cfiCond114) V11 load(1, XDATA, add(CFA_XSP16, literal(-11)))
          CFI (cfiCond114) V12 load(1, XDATA, add(CFA_XSP16, literal(-10)))
          CFI (cfiCond114) V13 load(1, XDATA, add(CFA_XSP16, literal(-9)))
          CFI (cfiCond114) V14 load(1, XDATA, add(CFA_XSP16, literal(-8)))
          CFI (cfiCond114) V15 load(1, XDATA, add(CFA_XSP16, literal(-7)))
          CFI (cfiCond114) R7 load(1, XDATA, add(CFA_XSP16, literal(-6)))
          CFI (cfiCond114) ?RET_LOW load(1, XDATA, add(CFA_XSP16, literal(-5)))
          CFI (cfiCond114) ?RET_HIGH load(1, XDATA, add(CFA_XSP16, literal(-4)))
          CFI (cfiCond114) ?BRET_EXT load(1, XDATA, add(CFA_XSP16, literal(-3)))
          CFI (cfiCond114) DPL0 load(1, XDATA, add(CFA_XSP16, literal(-2)))
          CFI (cfiCond114) DPH0 load(1, XDATA, add(CFA_XSP16, literal(-1)))
          CFI (cfiCond114) CFA_SP SP+-2
          CFI (cfiCond114) CFA_XSP16 add(XSP16, 62)
          CFI Block cfiPicker115 Using cfiCommon1
          CFI (cfiPicker115) NoFunction
          CFI (cfiPicker115) Picker
        INC     DPTR
          CFI EndBlock cfiCond110
          CFI EndBlock cfiCond111
          CFI EndBlock cfiCond112
          CFI EndBlock cfiCond113
          CFI EndBlock cfiCond114
          CFI EndBlock cfiPicker115
        REQUIRE ??Subroutine36_0
        ; // Fall through to label ??Subroutine36_0

        RSEG BANKED_CODE:HUGECODE:NOROOT(0)
??Subroutine36_0:
          CFI Block cfiCond116 Using cfiCommon0
          CFI Function zclSampleThermostat_HandleKeys
          CFI Conditional ??CrossCallReturnLabel_66
          CFI R6 load(1, XDATA, add(CFA_XSP16, literal(-16)))
          CFI VB load(1, XDATA, add(CFA_XSP16, literal(-15)))
          CFI V0 load(1, XDATA, add(CFA_XSP16, literal(-14)))
          CFI V1 load(1, XDATA, add(CFA_XSP16, literal(-13)))
          CFI V2 load(1, XDATA, add(CFA_XSP16, literal(-12)))
          CFI V3 load(1, XDATA, add(CFA_XSP16, literal(-11)))
          CFI V4 load(1, XDATA, add(CFA_XSP16, literal(-10)))
          CFI V5 load(1, XDATA, add(CFA_XSP16, literal(-9)))
          CFI V6 load(1, XDATA, add(CFA_XSP16, literal(-8)))
          CFI V7 load(1, XDATA, add(CFA_XSP16, literal(-7)))
          CFI R7 load(1, XDATA, add(CFA_XSP16, literal(-6)))
          CFI ?RET_LOW load(1, XDATA, add(CFA_XSP16, literal(-5)))
          CFI ?RET_HIGH load(1, XDATA, add(CFA_XSP16, literal(-4)))
          CFI ?BRET_EXT load(1, XDATA, add(CFA_XSP16, literal(-3)))
          CFI DPL0 load(1, XDATA, add(CFA_XSP16, literal(-2)))
          CFI DPH0 load(1, XDATA, add(CFA_XSP16, literal(-1)))
          CFI CFA_SP SP+-2
          CFI CFA_XSP16 add(XSP16, 29)
          CFI Block cfiCond117 Using cfiCommon0
          CFI (cfiCond117) Function zclSampleThermostat_HandleKeys
          CFI (cfiCond117) Conditional ??CrossCallReturnLabel_67
          CFI (cfiCond117) R6 load(1, XDATA, add(CFA_XSP16, literal(-16)))
          CFI (cfiCond117) VB load(1, XDATA, add(CFA_XSP16, literal(-15)))
          CFI (cfiCond117) V0 load(1, XDATA, add(CFA_XSP16, literal(-14)))
          CFI (cfiCond117) V1 load(1, XDATA, add(CFA_XSP16, literal(-13)))
          CFI (cfiCond117) V2 load(1, XDATA, add(CFA_XSP16, literal(-12)))
          CFI (cfiCond117) V3 load(1, XDATA, add(CFA_XSP16, literal(-11)))
          CFI (cfiCond117) V4 load(1, XDATA, add(CFA_XSP16, literal(-10)))
          CFI (cfiCond117) V5 load(1, XDATA, add(CFA_XSP16, literal(-9)))
          CFI (cfiCond117) V6 load(1, XDATA, add(CFA_XSP16, literal(-8)))
          CFI (cfiCond117) V7 load(1, XDATA, add(CFA_XSP16, literal(-7)))
          CFI (cfiCond117) R7 load(1, XDATA, add(CFA_XSP16, literal(-6)))
          CFI (cfiCond117) ?RET_LOW load(1, XDATA, add(CFA_XSP16, literal(-5)))
          CFI (cfiCond117) ?RET_HIGH load(1, XDATA, add(CFA_XSP16, literal(-4)))
          CFI (cfiCond117) ?BRET_EXT load(1, XDATA, add(CFA_XSP16, literal(-3)))
          CFI (cfiCond117) DPL0 load(1, XDATA, add(CFA_XSP16, literal(-2)))
          CFI (cfiCond117) DPH0 load(1, XDATA, add(CFA_XSP16, literal(-1)))
          CFI (cfiCond117) CFA_SP SP+-2
          CFI (cfiCond117) CFA_XSP16 add(XSP16, 29)
          CFI Block cfiCond118 Using cfiCommon0
          CFI (cfiCond118) Function zclSampleThermostat_HandleKeys
          CFI (cfiCond118) Conditional ??CrossCallReturnLabel_68
          CFI (cfiCond118) R6 load(1, XDATA, add(CFA_XSP16, literal(-16)))
          CFI (cfiCond118) VB load(1, XDATA, add(CFA_XSP16, literal(-15)))
          CFI (cfiCond118) V0 load(1, XDATA, add(CFA_XSP16, literal(-14)))
          CFI (cfiCond118) V1 load(1, XDATA, add(CFA_XSP16, literal(-13)))
          CFI (cfiCond118) V2 load(1, XDATA, add(CFA_XSP16, literal(-12)))
          CFI (cfiCond118) V3 load(1, XDATA, add(CFA_XSP16, literal(-11)))
          CFI (cfiCond118) V4 load(1, XDATA, add(CFA_XSP16, literal(-10)))
          CFI (cfiCond118) V5 load(1, XDATA, add(CFA_XSP16, literal(-9)))
          CFI (cfiCond118) V6 load(1, XDATA, add(CFA_XSP16, literal(-8)))
          CFI (cfiCond118) V7 load(1, XDATA, add(CFA_XSP16, literal(-7)))
          CFI (cfiCond118) R7 load(1, XDATA, add(CFA_XSP16, literal(-6)))
          CFI (cfiCond118) ?RET_LOW load(1, XDATA, add(CFA_XSP16, literal(-5)))
          CFI (cfiCond118) ?RET_HIGH load(1, XDATA, add(CFA_XSP16, literal(-4)))
          CFI (cfiCond118) ?BRET_EXT load(1, XDATA, add(CFA_XSP16, literal(-3)))
          CFI (cfiCond118) DPL0 load(1, XDATA, add(CFA_XSP16, literal(-2)))
          CFI (cfiCond118) DPH0 load(1, XDATA, add(CFA_XSP16, literal(-1)))
          CFI (cfiCond118) CFA_SP SP+-2
          CFI (cfiCond118) CFA_XSP16 add(XSP16, 29)
          CFI Block cfiCond119 Using cfiCommon0
          CFI (cfiCond119) Function zclSampleThermostat_HandleKeys
          CFI (cfiCond119) Conditional ??CrossCallReturnLabel_69
          CFI (cfiCond119) R6 load(1, XDATA, add(CFA_XSP16, literal(-16)))
          CFI (cfiCond119) VB load(1, XDATA, add(CFA_XSP16, literal(-15)))
          CFI (cfiCond119) V0 load(1, XDATA, add(CFA_XSP16, literal(-14)))
          CFI (cfiCond119) V1 load(1, XDATA, add(CFA_XSP16, literal(-13)))
          CFI (cfiCond119) V2 load(1, XDATA, add(CFA_XSP16, literal(-12)))
          CFI (cfiCond119) V3 load(1, XDATA, add(CFA_XSP16, literal(-11)))
          CFI (cfiCond119) V4 load(1, XDATA, add(CFA_XSP16, literal(-10)))
          CFI (cfiCond119) V5 load(1, XDATA, add(CFA_XSP16, literal(-9)))
          CFI (cfiCond119) V6 load(1, XDATA, add(CFA_XSP16, literal(-8)))
          CFI (cfiCond119) V7 load(1, XDATA, add(CFA_XSP16, literal(-7)))
          CFI (cfiCond119) R7 load(1, XDATA, add(CFA_XSP16, literal(-6)))
          CFI (cfiCond119) ?RET_LOW load(1, XDATA, add(CFA_XSP16, literal(-5)))
          CFI (cfiCond119) ?RET_HIGH load(1, XDATA, add(CFA_XSP16, literal(-4)))
          CFI (cfiCond119) ?BRET_EXT load(1, XDATA, add(CFA_XSP16, literal(-3)))
          CFI (cfiCond119) DPL0 load(1, XDATA, add(CFA_XSP16, literal(-2)))
          CFI (cfiCond119) DPH0 load(1, XDATA, add(CFA_XSP16, literal(-1)))
          CFI (cfiCond119) CFA_SP SP+-2
          CFI (cfiCond119) CFA_XSP16 add(XSP16, 29)
          CFI Block cfiCond120 Using cfiCommon0
          CFI (cfiCond120) Function zclSampleThermostat_HandleKeys
          CFI (cfiCond120) Conditional ??CrossCallReturnLabel_70
          CFI (cfiCond120) R6 load(1, XDATA, add(CFA_XSP16, literal(-16)))
          CFI (cfiCond120) VB load(1, XDATA, add(CFA_XSP16, literal(-15)))
          CFI (cfiCond120) V0 load(1, XDATA, add(CFA_XSP16, literal(-14)))
          CFI (cfiCond120) V1 load(1, XDATA, add(CFA_XSP16, literal(-13)))
          CFI (cfiCond120) V2 load(1, XDATA, add(CFA_XSP16, literal(-12)))
          CFI (cfiCond120) V3 load(1, XDATA, add(CFA_XSP16, literal(-11)))
          CFI (cfiCond120) V4 load(1, XDATA, add(CFA_XSP16, literal(-10)))
          CFI (cfiCond120) V5 load(1, XDATA, add(CFA_XSP16, literal(-9)))
          CFI (cfiCond120) V6 load(1, XDATA, add(CFA_XSP16, literal(-8)))
          CFI (cfiCond120) V7 load(1, XDATA, add(CFA_XSP16, literal(-7)))
          CFI (cfiCond120) R7 load(1, XDATA, add(CFA_XSP16, literal(-6)))
          CFI (cfiCond120) ?RET_LOW load(1, XDATA, add(CFA_XSP16, literal(-5)))
          CFI (cfiCond120) ?RET_HIGH load(1, XDATA, add(CFA_XSP16, literal(-4)))
          CFI (cfiCond120) ?BRET_EXT load(1, XDATA, add(CFA_XSP16, literal(-3)))
          CFI (cfiCond120) DPL0 load(1, XDATA, add(CFA_XSP16, literal(-2)))
          CFI (cfiCond120) DPH0 load(1, XDATA, add(CFA_XSP16, literal(-1)))
          CFI (cfiCond120) CFA_SP SP+-2
          CFI (cfiCond120) CFA_XSP16 add(XSP16, 29)
          CFI Block cfiCond121 Using cfiCommon0
          CFI (cfiCond121) Function zclSampleThermostat_HandleKeys
          CFI (cfiCond121) Conditional ??CrossCallReturnLabel_71
          CFI (cfiCond121) R6 load(1, XDATA, add(CFA_XSP16, literal(-16)))
          CFI (cfiCond121) VB load(1, XDATA, add(CFA_XSP16, literal(-15)))
          CFI (cfiCond121) V0 load(1, XDATA, add(CFA_XSP16, literal(-14)))
          CFI (cfiCond121) V1 load(1, XDATA, add(CFA_XSP16, literal(-13)))
          CFI (cfiCond121) V2 load(1, XDATA, add(CFA_XSP16, literal(-12)))
          CFI (cfiCond121) V3 load(1, XDATA, add(CFA_XSP16, literal(-11)))
          CFI (cfiCond121) V4 load(1, XDATA, add(CFA_XSP16, literal(-10)))
          CFI (cfiCond121) V5 load(1, XDATA, add(CFA_XSP16, literal(-9)))
          CFI (cfiCond121) V6 load(1, XDATA, add(CFA_XSP16, literal(-8)))
          CFI (cfiCond121) V7 load(1, XDATA, add(CFA_XSP16, literal(-7)))
          CFI (cfiCond121) R7 load(1, XDATA, add(CFA_XSP16, literal(-6)))
          CFI (cfiCond121) ?RET_LOW load(1, XDATA, add(CFA_XSP16, literal(-5)))
          CFI (cfiCond121) ?RET_HIGH load(1, XDATA, add(CFA_XSP16, literal(-4)))
          CFI (cfiCond121) ?BRET_EXT load(1, XDATA, add(CFA_XSP16, literal(-3)))
          CFI (cfiCond121) DPL0 load(1, XDATA, add(CFA_XSP16, literal(-2)))
          CFI (cfiCond121) DPH0 load(1, XDATA, add(CFA_XSP16, literal(-1)))
          CFI (cfiCond121) CFA_SP SP+-2
          CFI (cfiCond121) CFA_XSP16 add(XSP16, 29)
          CFI Block cfiCond122 Using cfiCommon0
          CFI (cfiCond122) Function zclSampleThermostat_HandleKeys
          CFI (cfiCond122) Conditional ??CrossCallReturnLabel_72
          CFI (cfiCond122) R6 load(1, XDATA, add(CFA_XSP16, literal(-16)))
          CFI (cfiCond122) VB load(1, XDATA, add(CFA_XSP16, literal(-15)))
          CFI (cfiCond122) V0 load(1, XDATA, add(CFA_XSP16, literal(-14)))
          CFI (cfiCond122) V1 load(1, XDATA, add(CFA_XSP16, literal(-13)))
          CFI (cfiCond122) V2 load(1, XDATA, add(CFA_XSP16, literal(-12)))
          CFI (cfiCond122) V3 load(1, XDATA, add(CFA_XSP16, literal(-11)))
          CFI (cfiCond122) V4 load(1, XDATA, add(CFA_XSP16, literal(-10)))
          CFI (cfiCond122) V5 load(1, XDATA, add(CFA_XSP16, literal(-9)))
          CFI (cfiCond122) V6 load(1, XDATA, add(CFA_XSP16, literal(-8)))
          CFI (cfiCond122) V7 load(1, XDATA, add(CFA_XSP16, literal(-7)))
          CFI (cfiCond122) R7 load(1, XDATA, add(CFA_XSP16, literal(-6)))
          CFI (cfiCond122) ?RET_LOW load(1, XDATA, add(CFA_XSP16, literal(-5)))
          CFI (cfiCond122) ?RET_HIGH load(1, XDATA, add(CFA_XSP16, literal(-4)))
          CFI (cfiCond122) ?BRET_EXT load(1, XDATA, add(CFA_XSP16, literal(-3)))
          CFI (cfiCond122) DPL0 load(1, XDATA, add(CFA_XSP16, literal(-2)))
          CFI (cfiCond122) DPH0 load(1, XDATA, add(CFA_XSP16, literal(-1)))
          CFI (cfiCond122) CFA_SP SP+-2
          CFI (cfiCond122) CFA_XSP16 add(XSP16, 29)
          CFI Block cfiCond123 Using cfiCommon0
          CFI (cfiCond123) Function zclSampleThermostat_ProcessInReportCmd
          CFI (cfiCond123) Conditional ??CrossCallReturnLabel_73
          CFI (cfiCond123) R6 load(1, XDATA, add(CFA_XSP16, literal(-24)))
          CFI (cfiCond123) VB load(1, XDATA, add(CFA_XSP16, literal(-23)))
          CFI (cfiCond123) V0 load(1, XDATA, add(CFA_XSP16, literal(-22)))
          CFI (cfiCond123) V1 load(1, XDATA, add(CFA_XSP16, literal(-21)))
          CFI (cfiCond123) V2 load(1, XDATA, add(CFA_XSP16, literal(-20)))
          CFI (cfiCond123) V3 load(1, XDATA, add(CFA_XSP16, literal(-19)))
          CFI (cfiCond123) V4 load(1, XDATA, add(CFA_XSP16, literal(-18)))
          CFI (cfiCond123) V5 load(1, XDATA, add(CFA_XSP16, literal(-17)))
          CFI (cfiCond123) V6 load(1, XDATA, add(CFA_XSP16, literal(-16)))
          CFI (cfiCond123) V7 load(1, XDATA, add(CFA_XSP16, literal(-15)))
          CFI (cfiCond123) V8 load(1, XDATA, add(CFA_XSP16, literal(-14)))
          CFI (cfiCond123) V9 load(1, XDATA, add(CFA_XSP16, literal(-13)))
          CFI (cfiCond123) V10 load(1, XDATA, add(CFA_XSP16, literal(-12)))
          CFI (cfiCond123) V11 load(1, XDATA, add(CFA_XSP16, literal(-11)))
          CFI (cfiCond123) V12 load(1, XDATA, add(CFA_XSP16, literal(-10)))
          CFI (cfiCond123) V13 load(1, XDATA, add(CFA_XSP16, literal(-9)))
          CFI (cfiCond123) V14 load(1, XDATA, add(CFA_XSP16, literal(-8)))
          CFI (cfiCond123) V15 load(1, XDATA, add(CFA_XSP16, literal(-7)))
          CFI (cfiCond123) R7 load(1, XDATA, add(CFA_XSP16, literal(-6)))
          CFI (cfiCond123) ?RET_LOW load(1, XDATA, add(CFA_XSP16, literal(-5)))
          CFI (cfiCond123) ?RET_HIGH load(1, XDATA, add(CFA_XSP16, literal(-4)))
          CFI (cfiCond123) ?BRET_EXT load(1, XDATA, add(CFA_XSP16, literal(-3)))
          CFI (cfiCond123) DPL0 load(1, XDATA, add(CFA_XSP16, literal(-2)))
          CFI (cfiCond123) DPH0 load(1, XDATA, add(CFA_XSP16, literal(-1)))
          CFI (cfiCond123) CFA_SP SP+-2
          CFI (cfiCond123) CFA_XSP16 add(XSP16, 62)
          CFI Block cfiCond124 Using cfiCommon0
          CFI (cfiCond124) Function zclSampleThermostat_ProcessInReportCmd
          CFI (cfiCond124) Conditional ??CrossCallReturnLabel_74
          CFI (cfiCond124) R6 load(1, XDATA, add(CFA_XSP16, literal(-24)))
          CFI (cfiCond124) VB load(1, XDATA, add(CFA_XSP16, literal(-23)))
          CFI (cfiCond124) V0 load(1, XDATA, add(CFA_XSP16, literal(-22)))
          CFI (cfiCond124) V1 load(1, XDATA, add(CFA_XSP16, literal(-21)))
          CFI (cfiCond124) V2 load(1, XDATA, add(CFA_XSP16, literal(-20)))
          CFI (cfiCond124) V3 load(1, XDATA, add(CFA_XSP16, literal(-19)))
          CFI (cfiCond124) V4 load(1, XDATA, add(CFA_XSP16, literal(-18)))
          CFI (cfiCond124) V5 load(1, XDATA, add(CFA_XSP16, literal(-17)))
          CFI (cfiCond124) V6 load(1, XDATA, add(CFA_XSP16, literal(-16)))
          CFI (cfiCond124) V7 load(1, XDATA, add(CFA_XSP16, literal(-15)))
          CFI (cfiCond124) V8 load(1, XDATA, add(CFA_XSP16, literal(-14)))
          CFI (cfiCond124) V9 load(1, XDATA, add(CFA_XSP16, literal(-13)))
          CFI (cfiCond124) V10 load(1, XDATA, add(CFA_XSP16, literal(-12)))
          CFI (cfiCond124) V11 load(1, XDATA, add(CFA_XSP16, literal(-11)))
          CFI (cfiCond124) V12 load(1, XDATA, add(CFA_XSP16, literal(-10)))
          CFI (cfiCond124) V13 load(1, XDATA, add(CFA_XSP16, literal(-9)))
          CFI (cfiCond124) V14 load(1, XDATA, add(CFA_XSP16, literal(-8)))
          CFI (cfiCond124) V15 load(1, XDATA, add(CFA_XSP16, literal(-7)))
          CFI (cfiCond124) R7 load(1, XDATA, add(CFA_XSP16, literal(-6)))
          CFI (cfiCond124) ?RET_LOW load(1, XDATA, add(CFA_XSP16, literal(-5)))
          CFI (cfiCond124) ?RET_HIGH load(1, XDATA, add(CFA_XSP16, literal(-4)))
          CFI (cfiCond124) ?BRET_EXT load(1, XDATA, add(CFA_XSP16, literal(-3)))
          CFI (cfiCond124) DPL0 load(1, XDATA, add(CFA_XSP16, literal(-2)))
          CFI (cfiCond124) DPH0 load(1, XDATA, add(CFA_XSP16, literal(-1)))
          CFI (cfiCond124) CFA_SP SP+-2
          CFI (cfiCond124) CFA_XSP16 add(XSP16, 62)
          CFI Block cfiCond125 Using cfiCommon0
          CFI (cfiCond125) Function zclSampleThermostat_HandleKeys
          CFI (cfiCond125) Conditional ??CrossCallReturnLabel_75
          CFI (cfiCond125) R6 load(1, XDATA, add(CFA_XSP16, literal(-16)))
          CFI (cfiCond125) VB load(1, XDATA, add(CFA_XSP16, literal(-15)))
          CFI (cfiCond125) V0 load(1, XDATA, add(CFA_XSP16, literal(-14)))
          CFI (cfiCond125) V1 load(1, XDATA, add(CFA_XSP16, literal(-13)))
          CFI (cfiCond125) V2 load(1, XDATA, add(CFA_XSP16, literal(-12)))
          CFI (cfiCond125) V3 load(1, XDATA, add(CFA_XSP16, literal(-11)))
          CFI (cfiCond125) V4 load(1, XDATA, add(CFA_XSP16, literal(-10)))
          CFI (cfiCond125) V5 load(1, XDATA, add(CFA_XSP16, literal(-9)))
          CFI (cfiCond125) V6 load(1, XDATA, add(CFA_XSP16, literal(-8)))
          CFI (cfiCond125) V7 load(1, XDATA, add(CFA_XSP16, literal(-7)))
          CFI (cfiCond125) R7 load(1, XDATA, add(CFA_XSP16, literal(-6)))
          CFI (cfiCond125) ?RET_LOW load(1, XDATA, add(CFA_XSP16, literal(-5)))
          CFI (cfiCond125) ?RET_HIGH load(1, XDATA, add(CFA_XSP16, literal(-4)))
          CFI (cfiCond125) ?BRET_EXT load(1, XDATA, add(CFA_XSP16, literal(-3)))
          CFI (cfiCond125) DPL0 load(1, XDATA, add(CFA_XSP16, literal(-2)))
          CFI (cfiCond125) DPH0 load(1, XDATA, add(CFA_XSP16, literal(-1)))
          CFI (cfiCond125) CFA_SP SP+-2
          CFI (cfiCond125) CFA_XSP16 add(XSP16, 29)
          CFI Block cfiCond126 Using cfiCommon0
          CFI (cfiCond126) Function zclSampleThermostat_ProcessInReportCmd
          CFI (cfiCond126) Conditional ??CrossCallReturnLabel_76
          CFI (cfiCond126) R6 load(1, XDATA, add(CFA_XSP16, literal(-24)))
          CFI (cfiCond126) VB load(1, XDATA, add(CFA_XSP16, literal(-23)))
          CFI (cfiCond126) V0 load(1, XDATA, add(CFA_XSP16, literal(-22)))
          CFI (cfiCond126) V1 load(1, XDATA, add(CFA_XSP16, literal(-21)))
          CFI (cfiCond126) V2 load(1, XDATA, add(CFA_XSP16, literal(-20)))
          CFI (cfiCond126) V3 load(1, XDATA, add(CFA_XSP16, literal(-19)))
          CFI (cfiCond126) V4 load(1, XDATA, add(CFA_XSP16, literal(-18)))
          CFI (cfiCond126) V5 load(1, XDATA, add(CFA_XSP16, literal(-17)))
          CFI (cfiCond126) V6 load(1, XDATA, add(CFA_XSP16, literal(-16)))
          CFI (cfiCond126) V7 load(1, XDATA, add(CFA_XSP16, literal(-15)))
          CFI (cfiCond126) V8 load(1, XDATA, add(CFA_XSP16, literal(-14)))
          CFI (cfiCond126) V9 load(1, XDATA, add(CFA_XSP16, literal(-13)))
          CFI (cfiCond126) V10 load(1, XDATA, add(CFA_XSP16, literal(-12)))
          CFI (cfiCond126) V11 load(1, XDATA, add(CFA_XSP16, literal(-11)))
          CFI (cfiCond126) V12 load(1, XDATA, add(CFA_XSP16, literal(-10)))
          CFI (cfiCond126) V13 load(1, XDATA, add(CFA_XSP16, literal(-9)))
          CFI (cfiCond126) V14 load(1, XDATA, add(CFA_XSP16, literal(-8)))
          CFI (cfiCond126) V15 load(1, XDATA, add(CFA_XSP16, literal(-7)))
          CFI (cfiCond126) R7 load(1, XDATA, add(CFA_XSP16, literal(-6)))
          CFI (cfiCond126) ?RET_LOW load(1, XDATA, add(CFA_XSP16, literal(-5)))
          CFI (cfiCond126) ?RET_HIGH load(1, XDATA, add(CFA_XSP16, literal(-4)))
          CFI (cfiCond126) ?BRET_EXT load(1, XDATA, add(CFA_XSP16, literal(-3)))
          CFI (cfiCond126) DPL0 load(1, XDATA, add(CFA_XSP16, literal(-2)))
          CFI (cfiCond126) DPH0 load(1, XDATA, add(CFA_XSP16, literal(-1)))
          CFI (cfiCond126) CFA_SP SP+-2
          CFI (cfiCond126) CFA_XSP16 add(XSP16, 62)
          CFI Block cfiCond127 Using cfiCommon0
          CFI (cfiCond127) Function zclSampleThermostat_ProcessInReportCmd
          CFI (cfiCond127) Conditional ??CrossCallReturnLabel_77
          CFI (cfiCond127) R6 load(1, XDATA, add(CFA_XSP16, literal(-24)))
          CFI (cfiCond127) VB load(1, XDATA, add(CFA_XSP16, literal(-23)))
          CFI (cfiCond127) V0 load(1, XDATA, add(CFA_XSP16, literal(-22)))
          CFI (cfiCond127) V1 load(1, XDATA, add(CFA_XSP16, literal(-21)))
          CFI (cfiCond127) V2 load(1, XDATA, add(CFA_XSP16, literal(-20)))
          CFI (cfiCond127) V3 load(1, XDATA, add(CFA_XSP16, literal(-19)))
          CFI (cfiCond127) V4 load(1, XDATA, add(CFA_XSP16, literal(-18)))
          CFI (cfiCond127) V5 load(1, XDATA, add(CFA_XSP16, literal(-17)))
          CFI (cfiCond127) V6 load(1, XDATA, add(CFA_XSP16, literal(-16)))
          CFI (cfiCond127) V7 load(1, XDATA, add(CFA_XSP16, literal(-15)))
          CFI (cfiCond127) V8 load(1, XDATA, add(CFA_XSP16, literal(-14)))
          CFI (cfiCond127) V9 load(1, XDATA, add(CFA_XSP16, literal(-13)))
          CFI (cfiCond127) V10 load(1, XDATA, add(CFA_XSP16, literal(-12)))
          CFI (cfiCond127) V11 load(1, XDATA, add(CFA_XSP16, literal(-11)))
          CFI (cfiCond127) V12 load(1, XDATA, add(CFA_XSP16, literal(-10)))
          CFI (cfiCond127) V13 load(1, XDATA, add(CFA_XSP16, literal(-9)))
          CFI (cfiCond127) V14 load(1, XDATA, add(CFA_XSP16, literal(-8)))
          CFI (cfiCond127) V15 load(1, XDATA, add(CFA_XSP16, literal(-7)))
          CFI (cfiCond127) R7 load(1, XDATA, add(CFA_XSP16, literal(-6)))
          CFI (cfiCond127) ?RET_LOW load(1, XDATA, add(CFA_XSP16, literal(-5)))
          CFI (cfiCond127) ?RET_HIGH load(1, XDATA, add(CFA_XSP16, literal(-4)))
          CFI (cfiCond127) ?BRET_EXT load(1, XDATA, add(CFA_XSP16, literal(-3)))
          CFI (cfiCond127) DPL0 load(1, XDATA, add(CFA_XSP16, literal(-2)))
          CFI (cfiCond127) DPH0 load(1, XDATA, add(CFA_XSP16, literal(-1)))
          CFI (cfiCond127) CFA_SP SP+-2
          CFI (cfiCond127) CFA_XSP16 add(XSP16, 62)
          CFI Block cfiCond128 Using cfiCommon0
          CFI (cfiCond128) Function zclSampleThermostat_ProcessInReportCmd
          CFI (cfiCond128) Conditional ??CrossCallReturnLabel_78
          CFI (cfiCond128) R6 load(1, XDATA, add(CFA_XSP16, literal(-24)))
          CFI (cfiCond128) VB load(1, XDATA, add(CFA_XSP16, literal(-23)))
          CFI (cfiCond128) V0 load(1, XDATA, add(CFA_XSP16, literal(-22)))
          CFI (cfiCond128) V1 load(1, XDATA, add(CFA_XSP16, literal(-21)))
          CFI (cfiCond128) V2 load(1, XDATA, add(CFA_XSP16, literal(-20)))
          CFI (cfiCond128) V3 load(1, XDATA, add(CFA_XSP16, literal(-19)))
          CFI (cfiCond128) V4 load(1, XDATA, add(CFA_XSP16, literal(-18)))
          CFI (cfiCond128) V5 load(1, XDATA, add(CFA_XSP16, literal(-17)))
          CFI (cfiCond128) V6 load(1, XDATA, add(CFA_XSP16, literal(-16)))
          CFI (cfiCond128) V7 load(1, XDATA, add(CFA_XSP16, literal(-15)))
          CFI (cfiCond128) V8 load(1, XDATA, add(CFA_XSP16, literal(-14)))
          CFI (cfiCond128) V9 load(1, XDATA, add(CFA_XSP16, literal(-13)))
          CFI (cfiCond128) V10 load(1, XDATA, add(CFA_XSP16, literal(-12)))
          CFI (cfiCond128) V11 load(1, XDATA, add(CFA_XSP16, literal(-11)))
          CFI (cfiCond128) V12 load(1, XDATA, add(CFA_XSP16, literal(-10)))
          CFI (cfiCond128) V13 load(1, XDATA, add(CFA_XSP16, literal(-9)))
          CFI (cfiCond128) V14 load(1, XDATA, add(CFA_XSP16, literal(-8)))
          CFI (cfiCond128) V15 load(1, XDATA, add(CFA_XSP16, literal(-7)))
          CFI (cfiCond128) R7 load(1, XDATA, add(CFA_XSP16, literal(-6)))
          CFI (cfiCond128) ?RET_LOW load(1, XDATA, add(CFA_XSP16, literal(-5)))
          CFI (cfiCond128) ?RET_HIGH load(1, XDATA, add(CFA_XSP16, literal(-4)))
          CFI (cfiCond128) ?BRET_EXT load(1, XDATA, add(CFA_XSP16, literal(-3)))
          CFI (cfiCond128) DPL0 load(1, XDATA, add(CFA_XSP16, literal(-2)))
          CFI (cfiCond128) DPH0 load(1, XDATA, add(CFA_XSP16, literal(-1)))
          CFI (cfiCond128) CFA_SP SP+-2
          CFI (cfiCond128) CFA_XSP16 add(XSP16, 62)
          CFI Block cfiCond129 Using cfiCommon0
          CFI (cfiCond129) Function zclSampleThermostat_ProcessInReportCmd
          CFI (cfiCond129) Conditional ??CrossCallReturnLabel_79
          CFI (cfiCond129) R6 load(1, XDATA, add(CFA_XSP16, literal(-24)))
          CFI (cfiCond129) VB load(1, XDATA, add(CFA_XSP16, literal(-23)))
          CFI (cfiCond129) V0 load(1, XDATA, add(CFA_XSP16, literal(-22)))
          CFI (cfiCond129) V1 load(1, XDATA, add(CFA_XSP16, literal(-21)))
          CFI (cfiCond129) V2 load(1, XDATA, add(CFA_XSP16, literal(-20)))
          CFI (cfiCond129) V3 load(1, XDATA, add(CFA_XSP16, literal(-19)))
          CFI (cfiCond129) V4 load(1, XDATA, add(CFA_XSP16, literal(-18)))
          CFI (cfiCond129) V5 load(1, XDATA, add(CFA_XSP16, literal(-17)))
          CFI (cfiCond129) V6 load(1, XDATA, add(CFA_XSP16, literal(-16)))
          CFI (cfiCond129) V7 load(1, XDATA, add(CFA_XSP16, literal(-15)))
          CFI (cfiCond129) V8 load(1, XDATA, add(CFA_XSP16, literal(-14)))
          CFI (cfiCond129) V9 load(1, XDATA, add(CFA_XSP16, literal(-13)))
          CFI (cfiCond129) V10 load(1, XDATA, add(CFA_XSP16, literal(-12)))
          CFI (cfiCond129) V11 load(1, XDATA, add(CFA_XSP16, literal(-11)))
          CFI (cfiCond129) V12 load(1, XDATA, add(CFA_XSP16, literal(-10)))
          CFI (cfiCond129) V13 load(1, XDATA, add(CFA_XSP16, literal(-9)))
          CFI (cfiCond129) V14 load(1, XDATA, add(CFA_XSP16, literal(-8)))
          CFI (cfiCond129) V15 load(1, XDATA, add(CFA_XSP16, literal(-7)))
          CFI (cfiCond129) R7 load(1, XDATA, add(CFA_XSP16, literal(-6)))
          CFI (cfiCond129) ?RET_LOW load(1, XDATA, add(CFA_XSP16, literal(-5)))
          CFI (cfiCond129) ?RET_HIGH load(1, XDATA, add(CFA_XSP16, literal(-4)))
          CFI (cfiCond129) ?BRET_EXT load(1, XDATA, add(CFA_XSP16, literal(-3)))
          CFI (cfiCond129) DPL0 load(1, XDATA, add(CFA_XSP16, literal(-2)))
          CFI (cfiCond129) DPH0 load(1, XDATA, add(CFA_XSP16, literal(-1)))
          CFI (cfiCond129) CFA_SP SP+-2
          CFI (cfiCond129) CFA_XSP16 add(XSP16, 62)
          CFI Block cfiPicker130 Using cfiCommon1
          CFI (cfiPicker130) NoFunction
          CFI (cfiPicker130) Picker
        LCALL   ?Subroutine28 & 0xFFFF
??CrossCallReturnLabel_89:
        MOV     R1,A
        RET
          CFI EndBlock cfiCond116
          CFI EndBlock cfiCond117
          CFI EndBlock cfiCond118
          CFI EndBlock cfiCond119
          CFI EndBlock cfiCond120
          CFI EndBlock cfiCond121
          CFI EndBlock cfiCond122
          CFI EndBlock cfiCond123
          CFI EndBlock cfiCond124
          CFI EndBlock cfiCond125
          CFI EndBlock cfiCond126
          CFI EndBlock cfiCond127
          CFI EndBlock cfiCond128
          CFI EndBlock cfiCond129
          CFI EndBlock cfiPicker130

        RSEG BANKED_CODE:HUGECODE:NOROOT(0)
?Subroutine29:
          CFI Block cfiCond131 Using cfiCommon0
          CFI Function zclSampleThermostat_ProcessInReportCmd
          CFI Conditional ??CrossCallReturnLabel_91
          CFI R6 load(1, XDATA, add(CFA_XSP16, literal(-24)))
          CFI VB load(1, XDATA, add(CFA_XSP16, literal(-23)))
          CFI V0 load(1, XDATA, add(CFA_XSP16, literal(-22)))
          CFI V1 load(1, XDATA, add(CFA_XSP16, literal(-21)))
          CFI V2 load(1, XDATA, add(CFA_XSP16, literal(-20)))
          CFI V3 load(1, XDATA, add(CFA_XSP16, literal(-19)))
          CFI V4 load(1, XDATA, add(CFA_XSP16, literal(-18)))
          CFI V5 load(1, XDATA, add(CFA_XSP16, literal(-17)))
          CFI V6 load(1, XDATA, add(CFA_XSP16, literal(-16)))
          CFI V7 load(1, XDATA, add(CFA_XSP16, literal(-15)))
          CFI V8 load(1, XDATA, add(CFA_XSP16, literal(-14)))
          CFI V9 load(1, XDATA, add(CFA_XSP16, literal(-13)))
          CFI V10 load(1, XDATA, add(CFA_XSP16, literal(-12)))
          CFI V11 load(1, XDATA, add(CFA_XSP16, literal(-11)))
          CFI V12 load(1, XDATA, add(CFA_XSP16, literal(-10)))
          CFI V13 load(1, XDATA, add(CFA_XSP16, literal(-9)))
          CFI V14 load(1, XDATA, add(CFA_XSP16, literal(-8)))
          CFI V15 load(1, XDATA, add(CFA_XSP16, literal(-7)))
          CFI R7 load(1, XDATA, add(CFA_XSP16, literal(-6)))
          CFI ?RET_LOW load(1, XDATA, add(CFA_XSP16, literal(-5)))
          CFI ?RET_HIGH load(1, XDATA, add(CFA_XSP16, literal(-4)))
          CFI ?BRET_EXT load(1, XDATA, add(CFA_XSP16, literal(-3)))
          CFI DPL0 load(1, XDATA, add(CFA_XSP16, literal(-2)))
          CFI DPH0 load(1, XDATA, add(CFA_XSP16, literal(-1)))
          CFI CFA_SP SP+-2
          CFI CFA_XSP16 add(XSP16, 62)
          CFI Block cfiCond132 Using cfiCommon0
          CFI (cfiCond132) Function zclSampleThermostat_ProcessInReportCmd
          CFI (cfiCond132) Conditional ??CrossCallReturnLabel_92, ??CrossCallReturnLabel_78
          CFI (cfiCond132) R6 load(1, XDATA, add(CFA_XSP16, literal(-24)))
          CFI (cfiCond132) VB load(1, XDATA, add(CFA_XSP16, literal(-23)))
          CFI (cfiCond132) V0 load(1, XDATA, add(CFA_XSP16, literal(-22)))
          CFI (cfiCond132) V1 load(1, XDATA, add(CFA_XSP16, literal(-21)))
          CFI (cfiCond132) V2 load(1, XDATA, add(CFA_XSP16, literal(-20)))
          CFI (cfiCond132) V3 load(1, XDATA, add(CFA_XSP16, literal(-19)))
          CFI (cfiCond132) V4 load(1, XDATA, add(CFA_XSP16, literal(-18)))
          CFI (cfiCond132) V5 load(1, XDATA, add(CFA_XSP16, literal(-17)))
          CFI (cfiCond132) V6 load(1, XDATA, add(CFA_XSP16, literal(-16)))
          CFI (cfiCond132) V7 load(1, XDATA, add(CFA_XSP16, literal(-15)))
          CFI (cfiCond132) V8 load(1, XDATA, add(CFA_XSP16, literal(-14)))
          CFI (cfiCond132) V9 load(1, XDATA, add(CFA_XSP16, literal(-13)))
          CFI (cfiCond132) V10 load(1, XDATA, add(CFA_XSP16, literal(-12)))
          CFI (cfiCond132) V11 load(1, XDATA, add(CFA_XSP16, literal(-11)))
          CFI (cfiCond132) V12 load(1, XDATA, add(CFA_XSP16, literal(-10)))
          CFI (cfiCond132) V13 load(1, XDATA, add(CFA_XSP16, literal(-9)))
          CFI (cfiCond132) V14 load(1, XDATA, add(CFA_XSP16, literal(-8)))
          CFI (cfiCond132) V15 load(1, XDATA, add(CFA_XSP16, literal(-7)))
          CFI (cfiCond132) R7 load(1, XDATA, add(CFA_XSP16, literal(-6)))
          CFI (cfiCond132) ?RET_LOW load(1, XDATA, add(CFA_XSP16, literal(-5)))
          CFI (cfiCond132) ?RET_HIGH load(1, XDATA, add(CFA_XSP16, literal(-4)))
          CFI (cfiCond132) ?BRET_EXT load(1, XDATA, add(CFA_XSP16, literal(-3)))
          CFI (cfiCond132) DPL0 load(1, XDATA, add(CFA_XSP16, literal(-2)))
          CFI (cfiCond132) DPH0 load(1, XDATA, add(CFA_XSP16, literal(-1)))
          CFI (cfiCond132) CFA_SP SP+-4
          CFI (cfiCond132) CFA_XSP16 add(XSP16, 62)
          CFI Block cfiCond133 Using cfiCommon0
          CFI (cfiCond133) Function zclSampleThermostat_ProcessInReportCmd
          CFI (cfiCond133) Conditional ??CrossCallReturnLabel_92, ??CrossCallReturnLabel_79
          CFI (cfiCond133) R6 load(1, XDATA, add(CFA_XSP16, literal(-24)))
          CFI (cfiCond133) VB load(1, XDATA, add(CFA_XSP16, literal(-23)))
          CFI (cfiCond133) V0 load(1, XDATA, add(CFA_XSP16, literal(-22)))
          CFI (cfiCond133) V1 load(1, XDATA, add(CFA_XSP16, literal(-21)))
          CFI (cfiCond133) V2 load(1, XDATA, add(CFA_XSP16, literal(-20)))
          CFI (cfiCond133) V3 load(1, XDATA, add(CFA_XSP16, literal(-19)))
          CFI (cfiCond133) V4 load(1, XDATA, add(CFA_XSP16, literal(-18)))
          CFI (cfiCond133) V5 load(1, XDATA, add(CFA_XSP16, literal(-17)))
          CFI (cfiCond133) V6 load(1, XDATA, add(CFA_XSP16, literal(-16)))
          CFI (cfiCond133) V7 load(1, XDATA, add(CFA_XSP16, literal(-15)))
          CFI (cfiCond133) V8 load(1, XDATA, add(CFA_XSP16, literal(-14)))
          CFI (cfiCond133) V9 load(1, XDATA, add(CFA_XSP16, literal(-13)))
          CFI (cfiCond133) V10 load(1, XDATA, add(CFA_XSP16, literal(-12)))
          CFI (cfiCond133) V11 load(1, XDATA, add(CFA_XSP16, literal(-11)))
          CFI (cfiCond133) V12 load(1, XDATA, add(CFA_XSP16, literal(-10)))
          CFI (cfiCond133) V13 load(1, XDATA, add(CFA_XSP16, literal(-9)))
          CFI (cfiCond133) V14 load(1, XDATA, add(CFA_XSP16, literal(-8)))
          CFI (cfiCond133) V15 load(1, XDATA, add(CFA_XSP16, literal(-7)))
          CFI (cfiCond133) R7 load(1, XDATA, add(CFA_XSP16, literal(-6)))
          CFI (cfiCond133) ?RET_LOW load(1, XDATA, add(CFA_XSP16, literal(-5)))
          CFI (cfiCond133) ?RET_HIGH load(1, XDATA, add(CFA_XSP16, literal(-4)))
          CFI (cfiCond133) ?BRET_EXT load(1, XDATA, add(CFA_XSP16, literal(-3)))
          CFI (cfiCond133) DPL0 load(1, XDATA, add(CFA_XSP16, literal(-2)))
          CFI (cfiCond133) DPH0 load(1, XDATA, add(CFA_XSP16, literal(-1)))
          CFI (cfiCond133) CFA_SP SP+-4
          CFI (cfiCond133) CFA_XSP16 add(XSP16, 62)
          CFI Block cfiCond134 Using cfiCommon0
          CFI (cfiCond134) Function zclSampleThermostat_ProcessInReportCmd
          CFI (cfiCond134) Conditional ??CrossCallReturnLabel_92, ??CrossCallReturnLabel_76
          CFI (cfiCond134) R6 load(1, XDATA, add(CFA_XSP16, literal(-24)))
          CFI (cfiCond134) VB load(1, XDATA, add(CFA_XSP16, literal(-23)))
          CFI (cfiCond134) V0 load(1, XDATA, add(CFA_XSP16, literal(-22)))
          CFI (cfiCond134) V1 load(1, XDATA, add(CFA_XSP16, literal(-21)))
          CFI (cfiCond134) V2 load(1, XDATA, add(CFA_XSP16, literal(-20)))
          CFI (cfiCond134) V3 load(1, XDATA, add(CFA_XSP16, literal(-19)))
          CFI (cfiCond134) V4 load(1, XDATA, add(CFA_XSP16, literal(-18)))
          CFI (cfiCond134) V5 load(1, XDATA, add(CFA_XSP16, literal(-17)))
          CFI (cfiCond134) V6 load(1, XDATA, add(CFA_XSP16, literal(-16)))
          CFI (cfiCond134) V7 load(1, XDATA, add(CFA_XSP16, literal(-15)))
          CFI (cfiCond134) V8 load(1, XDATA, add(CFA_XSP16, literal(-14)))
          CFI (cfiCond134) V9 load(1, XDATA, add(CFA_XSP16, literal(-13)))
          CFI (cfiCond134) V10 load(1, XDATA, add(CFA_XSP16, literal(-12)))
          CFI (cfiCond134) V11 load(1, XDATA, add(CFA_XSP16, literal(-11)))
          CFI (cfiCond134) V12 load(1, XDATA, add(CFA_XSP16, literal(-10)))
          CFI (cfiCond134) V13 load(1, XDATA, add(CFA_XSP16, literal(-9)))
          CFI (cfiCond134) V14 load(1, XDATA, add(CFA_XSP16, literal(-8)))
          CFI (cfiCond134) V15 load(1, XDATA, add(CFA_XSP16, literal(-7)))
          CFI (cfiCond134) R7 load(1, XDATA, add(CFA_XSP16, literal(-6)))
          CFI (cfiCond134) ?RET_LOW load(1, XDATA, add(CFA_XSP16, literal(-5)))
          CFI (cfiCond134) ?RET_HIGH load(1, XDATA, add(CFA_XSP16, literal(-4)))
          CFI (cfiCond134) ?BRET_EXT load(1, XDATA, add(CFA_XSP16, literal(-3)))
          CFI (cfiCond134) DPL0 load(1, XDATA, add(CFA_XSP16, literal(-2)))
          CFI (cfiCond134) DPH0 load(1, XDATA, add(CFA_XSP16, literal(-1)))
          CFI (cfiCond134) CFA_SP SP+-4
          CFI (cfiCond134) CFA_XSP16 add(XSP16, 62)
          CFI Block cfiCond135 Using cfiCommon0
          CFI (cfiCond135) Function zclSampleThermostat_ProcessInReportCmd
          CFI (cfiCond135) Conditional ??CrossCallReturnLabel_92, ??CrossCallReturnLabel_77
          CFI (cfiCond135) R6 load(1, XDATA, add(CFA_XSP16, literal(-24)))
          CFI (cfiCond135) VB load(1, XDATA, add(CFA_XSP16, literal(-23)))
          CFI (cfiCond135) V0 load(1, XDATA, add(CFA_XSP16, literal(-22)))
          CFI (cfiCond135) V1 load(1, XDATA, add(CFA_XSP16, literal(-21)))
          CFI (cfiCond135) V2 load(1, XDATA, add(CFA_XSP16, literal(-20)))
          CFI (cfiCond135) V3 load(1, XDATA, add(CFA_XSP16, literal(-19)))
          CFI (cfiCond135) V4 load(1, XDATA, add(CFA_XSP16, literal(-18)))
          CFI (cfiCond135) V5 load(1, XDATA, add(CFA_XSP16, literal(-17)))
          CFI (cfiCond135) V6 load(1, XDATA, add(CFA_XSP16, literal(-16)))
          CFI (cfiCond135) V7 load(1, XDATA, add(CFA_XSP16, literal(-15)))
          CFI (cfiCond135) V8 load(1, XDATA, add(CFA_XSP16, literal(-14)))
          CFI (cfiCond135) V9 load(1, XDATA, add(CFA_XSP16, literal(-13)))
          CFI (cfiCond135) V10 load(1, XDATA, add(CFA_XSP16, literal(-12)))
          CFI (cfiCond135) V11 load(1, XDATA, add(CFA_XSP16, literal(-11)))
          CFI (cfiCond135) V12 load(1, XDATA, add(CFA_XSP16, literal(-10)))
          CFI (cfiCond135) V13 load(1, XDATA, add(CFA_XSP16, literal(-9)))
          CFI (cfiCond135) V14 load(1, XDATA, add(CFA_XSP16, literal(-8)))
          CFI (cfiCond135) V15 load(1, XDATA, add(CFA_XSP16, literal(-7)))
          CFI (cfiCond135) R7 load(1, XDATA, add(CFA_XSP16, literal(-6)))
          CFI (cfiCond135) ?RET_LOW load(1, XDATA, add(CFA_XSP16, literal(-5)))
          CFI (cfiCond135) ?RET_HIGH load(1, XDATA, add(CFA_XSP16, literal(-4)))
          CFI (cfiCond135) ?BRET_EXT load(1, XDATA, add(CFA_XSP16, literal(-3)))
          CFI (cfiCond135) DPL0 load(1, XDATA, add(CFA_XSP16, literal(-2)))
          CFI (cfiCond135) DPH0 load(1, XDATA, add(CFA_XSP16, literal(-1)))
          CFI (cfiCond135) CFA_SP SP+-4
          CFI (cfiCond135) CFA_XSP16 add(XSP16, 62)
          CFI Block cfiCond136 Using cfiCommon0
          CFI (cfiCond136) Function zclSampleThermostat_ProcessInReportCmd
          CFI (cfiCond136) Conditional ??CrossCallReturnLabel_93, ??CrossCallReturnLabel_84
          CFI (cfiCond136) R6 load(1, XDATA, add(CFA_XSP16, literal(-24)))
          CFI (cfiCond136) VB load(1, XDATA, add(CFA_XSP16, literal(-23)))
          CFI (cfiCond136) V0 load(1, XDATA, add(CFA_XSP16, literal(-22)))
          CFI (cfiCond136) V1 load(1, XDATA, add(CFA_XSP16, literal(-21)))
          CFI (cfiCond136) V2 load(1, XDATA, add(CFA_XSP16, literal(-20)))
          CFI (cfiCond136) V3 load(1, XDATA, add(CFA_XSP16, literal(-19)))
          CFI (cfiCond136) V4 load(1, XDATA, add(CFA_XSP16, literal(-18)))
          CFI (cfiCond136) V5 load(1, XDATA, add(CFA_XSP16, literal(-17)))
          CFI (cfiCond136) V6 load(1, XDATA, add(CFA_XSP16, literal(-16)))
          CFI (cfiCond136) V7 load(1, XDATA, add(CFA_XSP16, literal(-15)))
          CFI (cfiCond136) V8 load(1, XDATA, add(CFA_XSP16, literal(-14)))
          CFI (cfiCond136) V9 load(1, XDATA, add(CFA_XSP16, literal(-13)))
          CFI (cfiCond136) V10 load(1, XDATA, add(CFA_XSP16, literal(-12)))
          CFI (cfiCond136) V11 load(1, XDATA, add(CFA_XSP16, literal(-11)))
          CFI (cfiCond136) V12 load(1, XDATA, add(CFA_XSP16, literal(-10)))
          CFI (cfiCond136) V13 load(1, XDATA, add(CFA_XSP16, literal(-9)))
          CFI (cfiCond136) V14 load(1, XDATA, add(CFA_XSP16, literal(-8)))
          CFI (cfiCond136) V15 load(1, XDATA, add(CFA_XSP16, literal(-7)))
          CFI (cfiCond136) R7 load(1, XDATA, add(CFA_XSP16, literal(-6)))
          CFI (cfiCond136) ?RET_LOW load(1, XDATA, add(CFA_XSP16, literal(-5)))
          CFI (cfiCond136) ?RET_HIGH load(1, XDATA, add(CFA_XSP16, literal(-4)))
          CFI (cfiCond136) ?BRET_EXT load(1, XDATA, add(CFA_XSP16, literal(-3)))
          CFI (cfiCond136) DPL0 load(1, XDATA, add(CFA_XSP16, literal(-2)))
          CFI (cfiCond136) DPH0 load(1, XDATA, add(CFA_XSP16, literal(-1)))
          CFI (cfiCond136) CFA_SP SP+-4
          CFI (cfiCond136) CFA_XSP16 add(XSP16, 62)
          CFI Block cfiCond137 Using cfiCommon0
          CFI (cfiCond137) Function zclSampleThermostat_ProcessInReportCmd
          CFI (cfiCond137) Conditional ??CrossCallReturnLabel_93, ??CrossCallReturnLabel_85
          CFI (cfiCond137) R6 load(1, XDATA, add(CFA_XSP16, literal(-24)))
          CFI (cfiCond137) VB load(1, XDATA, add(CFA_XSP16, literal(-23)))
          CFI (cfiCond137) V0 load(1, XDATA, add(CFA_XSP16, literal(-22)))
          CFI (cfiCond137) V1 load(1, XDATA, add(CFA_XSP16, literal(-21)))
          CFI (cfiCond137) V2 load(1, XDATA, add(CFA_XSP16, literal(-20)))
          CFI (cfiCond137) V3 load(1, XDATA, add(CFA_XSP16, literal(-19)))
          CFI (cfiCond137) V4 load(1, XDATA, add(CFA_XSP16, literal(-18)))
          CFI (cfiCond137) V5 load(1, XDATA, add(CFA_XSP16, literal(-17)))
          CFI (cfiCond137) V6 load(1, XDATA, add(CFA_XSP16, literal(-16)))
          CFI (cfiCond137) V7 load(1, XDATA, add(CFA_XSP16, literal(-15)))
          CFI (cfiCond137) V8 load(1, XDATA, add(CFA_XSP16, literal(-14)))
          CFI (cfiCond137) V9 load(1, XDATA, add(CFA_XSP16, literal(-13)))
          CFI (cfiCond137) V10 load(1, XDATA, add(CFA_XSP16, literal(-12)))
          CFI (cfiCond137) V11 load(1, XDATA, add(CFA_XSP16, literal(-11)))
          CFI (cfiCond137) V12 load(1, XDATA, add(CFA_XSP16, literal(-10)))
          CFI (cfiCond137) V13 load(1, XDATA, add(CFA_XSP16, literal(-9)))
          CFI (cfiCond137) V14 load(1, XDATA, add(CFA_XSP16, literal(-8)))
          CFI (cfiCond137) V15 load(1, XDATA, add(CFA_XSP16, literal(-7)))
          CFI (cfiCond137) R7 load(1, XDATA, add(CFA_XSP16, literal(-6)))
          CFI (cfiCond137) ?RET_LOW load(1, XDATA, add(CFA_XSP16, literal(-5)))
          CFI (cfiCond137) ?RET_HIGH load(1, XDATA, add(CFA_XSP16, literal(-4)))
          CFI (cfiCond137) ?BRET_EXT load(1, XDATA, add(CFA_XSP16, literal(-3)))
          CFI (cfiCond137) DPL0 load(1, XDATA, add(CFA_XSP16, literal(-2)))
          CFI (cfiCond137) DPH0 load(1, XDATA, add(CFA_XSP16, literal(-1)))
          CFI (cfiCond137) CFA_SP SP+-4
          CFI (cfiCond137) CFA_XSP16 add(XSP16, 62)
          CFI Block cfiCond138 Using cfiCommon0
          CFI (cfiCond138) Function zclSampleThermostat_ProcessInReportCmd
          CFI (cfiCond138) Conditional ??CrossCallReturnLabel_93, ??CrossCallReturnLabel_86
          CFI (cfiCond138) R6 load(1, XDATA, add(CFA_XSP16, literal(-24)))
          CFI (cfiCond138) VB load(1, XDATA, add(CFA_XSP16, literal(-23)))
          CFI (cfiCond138) V0 load(1, XDATA, add(CFA_XSP16, literal(-22)))
          CFI (cfiCond138) V1 load(1, XDATA, add(CFA_XSP16, literal(-21)))
          CFI (cfiCond138) V2 load(1, XDATA, add(CFA_XSP16, literal(-20)))
          CFI (cfiCond138) V3 load(1, XDATA, add(CFA_XSP16, literal(-19)))
          CFI (cfiCond138) V4 load(1, XDATA, add(CFA_XSP16, literal(-18)))
          CFI (cfiCond138) V5 load(1, XDATA, add(CFA_XSP16, literal(-17)))
          CFI (cfiCond138) V6 load(1, XDATA, add(CFA_XSP16, literal(-16)))
          CFI (cfiCond138) V7 load(1, XDATA, add(CFA_XSP16, literal(-15)))
          CFI (cfiCond138) V8 load(1, XDATA, add(CFA_XSP16, literal(-14)))
          CFI (cfiCond138) V9 load(1, XDATA, add(CFA_XSP16, literal(-13)))
          CFI (cfiCond138) V10 load(1, XDATA, add(CFA_XSP16, literal(-12)))
          CFI (cfiCond138) V11 load(1, XDATA, add(CFA_XSP16, literal(-11)))
          CFI (cfiCond138) V12 load(1, XDATA, add(CFA_XSP16, literal(-10)))
          CFI (cfiCond138) V13 load(1, XDATA, add(CFA_XSP16, literal(-9)))
          CFI (cfiCond138) V14 load(1, XDATA, add(CFA_XSP16, literal(-8)))
          CFI (cfiCond138) V15 load(1, XDATA, add(CFA_XSP16, literal(-7)))
          CFI (cfiCond138) R7 load(1, XDATA, add(CFA_XSP16, literal(-6)))
          CFI (cfiCond138) ?RET_LOW load(1, XDATA, add(CFA_XSP16, literal(-5)))
          CFI (cfiCond138) ?RET_HIGH load(1, XDATA, add(CFA_XSP16, literal(-4)))
          CFI (cfiCond138) ?BRET_EXT load(1, XDATA, add(CFA_XSP16, literal(-3)))
          CFI (cfiCond138) DPL0 load(1, XDATA, add(CFA_XSP16, literal(-2)))
          CFI (cfiCond138) DPH0 load(1, XDATA, add(CFA_XSP16, literal(-1)))
          CFI (cfiCond138) CFA_SP SP+-4
          CFI (cfiCond138) CFA_XSP16 add(XSP16, 62)
          CFI Block cfiCond139 Using cfiCommon0
          CFI (cfiCond139) Function zclSampleThermostat_ProcessInReportCmd
          CFI (cfiCond139) Conditional ??CrossCallReturnLabel_93, ??CrossCallReturnLabel_87
          CFI (cfiCond139) R6 load(1, XDATA, add(CFA_XSP16, literal(-24)))
          CFI (cfiCond139) VB load(1, XDATA, add(CFA_XSP16, literal(-23)))
          CFI (cfiCond139) V0 load(1, XDATA, add(CFA_XSP16, literal(-22)))
          CFI (cfiCond139) V1 load(1, XDATA, add(CFA_XSP16, literal(-21)))
          CFI (cfiCond139) V2 load(1, XDATA, add(CFA_XSP16, literal(-20)))
          CFI (cfiCond139) V3 load(1, XDATA, add(CFA_XSP16, literal(-19)))
          CFI (cfiCond139) V4 load(1, XDATA, add(CFA_XSP16, literal(-18)))
          CFI (cfiCond139) V5 load(1, XDATA, add(CFA_XSP16, literal(-17)))
          CFI (cfiCond139) V6 load(1, XDATA, add(CFA_XSP16, literal(-16)))
          CFI (cfiCond139) V7 load(1, XDATA, add(CFA_XSP16, literal(-15)))
          CFI (cfiCond139) V8 load(1, XDATA, add(CFA_XSP16, literal(-14)))
          CFI (cfiCond139) V9 load(1, XDATA, add(CFA_XSP16, literal(-13)))
          CFI (cfiCond139) V10 load(1, XDATA, add(CFA_XSP16, literal(-12)))
          CFI (cfiCond139) V11 load(1, XDATA, add(CFA_XSP16, literal(-11)))
          CFI (cfiCond139) V12 load(1, XDATA, add(CFA_XSP16, literal(-10)))
          CFI (cfiCond139) V13 load(1, XDATA, add(CFA_XSP16, literal(-9)))
          CFI (cfiCond139) V14 load(1, XDATA, add(CFA_XSP16, literal(-8)))
          CFI (cfiCond139) V15 load(1, XDATA, add(CFA_XSP16, literal(-7)))
          CFI (cfiCond139) R7 load(1, XDATA, add(CFA_XSP16, literal(-6)))
          CFI (cfiCond139) ?RET_LOW load(1, XDATA, add(CFA_XSP16, literal(-5)))
          CFI (cfiCond139) ?RET_HIGH load(1, XDATA, add(CFA_XSP16, literal(-4)))
          CFI (cfiCond139) ?BRET_EXT load(1, XDATA, add(CFA_XSP16, literal(-3)))
          CFI (cfiCond139) DPL0 load(1, XDATA, add(CFA_XSP16, literal(-2)))
          CFI (cfiCond139) DPH0 load(1, XDATA, add(CFA_XSP16, literal(-1)))
          CFI (cfiCond139) CFA_SP SP+-4
          CFI (cfiCond139) CFA_XSP16 add(XSP16, 62)
          CFI Block cfiCond140 Using cfiCommon0
          CFI (cfiCond140) Function zclSampleThermostat_ProcessInReportCmd
          CFI (cfiCond140) Conditional ??CrossCallReturnLabel_93, ??CrossCallReturnLabel_80
          CFI (cfiCond140) R6 load(1, XDATA, add(CFA_XSP16, literal(-24)))
          CFI (cfiCond140) VB load(1, XDATA, add(CFA_XSP16, literal(-23)))
          CFI (cfiCond140) V0 load(1, XDATA, add(CFA_XSP16, literal(-22)))
          CFI (cfiCond140) V1 load(1, XDATA, add(CFA_XSP16, literal(-21)))
          CFI (cfiCond140) V2 load(1, XDATA, add(CFA_XSP16, literal(-20)))
          CFI (cfiCond140) V3 load(1, XDATA, add(CFA_XSP16, literal(-19)))
          CFI (cfiCond140) V4 load(1, XDATA, add(CFA_XSP16, literal(-18)))
          CFI (cfiCond140) V5 load(1, XDATA, add(CFA_XSP16, literal(-17)))
          CFI (cfiCond140) V6 load(1, XDATA, add(CFA_XSP16, literal(-16)))
          CFI (cfiCond140) V7 load(1, XDATA, add(CFA_XSP16, literal(-15)))
          CFI (cfiCond140) V8 load(1, XDATA, add(CFA_XSP16, literal(-14)))
          CFI (cfiCond140) V9 load(1, XDATA, add(CFA_XSP16, literal(-13)))
          CFI (cfiCond140) V10 load(1, XDATA, add(CFA_XSP16, literal(-12)))
          CFI (cfiCond140) V11 load(1, XDATA, add(CFA_XSP16, literal(-11)))
          CFI (cfiCond140) V12 load(1, XDATA, add(CFA_XSP16, literal(-10)))
          CFI (cfiCond140) V13 load(1, XDATA, add(CFA_XSP16, literal(-9)))
          CFI (cfiCond140) V14 load(1, XDATA, add(CFA_XSP16, literal(-8)))
          CFI (cfiCond140) V15 load(1, XDATA, add(CFA_XSP16, literal(-7)))
          CFI (cfiCond140) R7 load(1, XDATA, add(CFA_XSP16, literal(-6)))
          CFI (cfiCond140) ?RET_LOW load(1, XDATA, add(CFA_XSP16, literal(-5)))
          CFI (cfiCond140) ?RET_HIGH load(1, XDATA, add(CFA_XSP16, literal(-4)))
          CFI (cfiCond140) ?BRET_EXT load(1, XDATA, add(CFA_XSP16, literal(-3)))
          CFI (cfiCond140) DPL0 load(1, XDATA, add(CFA_XSP16, literal(-2)))
          CFI (cfiCond140) DPH0 load(1, XDATA, add(CFA_XSP16, literal(-1)))
          CFI (cfiCond140) CFA_SP SP+-4
          CFI (cfiCond140) CFA_XSP16 add(XSP16, 62)
          CFI Block cfiCond141 Using cfiCommon0
          CFI (cfiCond141) Function zclSampleThermostat_ProcessInReportCmd
          CFI (cfiCond141) Conditional ??CrossCallReturnLabel_93, ??CrossCallReturnLabel_81
          CFI (cfiCond141) R6 load(1, XDATA, add(CFA_XSP16, literal(-24)))
          CFI (cfiCond141) VB load(1, XDATA, add(CFA_XSP16, literal(-23)))
          CFI (cfiCond141) V0 load(1, XDATA, add(CFA_XSP16, literal(-22)))
          CFI (cfiCond141) V1 load(1, XDATA, add(CFA_XSP16, literal(-21)))
          CFI (cfiCond141) V2 load(1, XDATA, add(CFA_XSP16, literal(-20)))
          CFI (cfiCond141) V3 load(1, XDATA, add(CFA_XSP16, literal(-19)))
          CFI (cfiCond141) V4 load(1, XDATA, add(CFA_XSP16, literal(-18)))
          CFI (cfiCond141) V5 load(1, XDATA, add(CFA_XSP16, literal(-17)))
          CFI (cfiCond141) V6 load(1, XDATA, add(CFA_XSP16, literal(-16)))
          CFI (cfiCond141) V7 load(1, XDATA, add(CFA_XSP16, literal(-15)))
          CFI (cfiCond141) V8 load(1, XDATA, add(CFA_XSP16, literal(-14)))
          CFI (cfiCond141) V9 load(1, XDATA, add(CFA_XSP16, literal(-13)))
          CFI (cfiCond141) V10 load(1, XDATA, add(CFA_XSP16, literal(-12)))
          CFI (cfiCond141) V11 load(1, XDATA, add(CFA_XSP16, literal(-11)))
          CFI (cfiCond141) V12 load(1, XDATA, add(CFA_XSP16, literal(-10)))
          CFI (cfiCond141) V13 load(1, XDATA, add(CFA_XSP16, literal(-9)))
          CFI (cfiCond141) V14 load(1, XDATA, add(CFA_XSP16, literal(-8)))
          CFI (cfiCond141) V15 load(1, XDATA, add(CFA_XSP16, literal(-7)))
          CFI (cfiCond141) R7 load(1, XDATA, add(CFA_XSP16, literal(-6)))
          CFI (cfiCond141) ?RET_LOW load(1, XDATA, add(CFA_XSP16, literal(-5)))
          CFI (cfiCond141) ?RET_HIGH load(1, XDATA, add(CFA_XSP16, literal(-4)))
          CFI (cfiCond141) ?BRET_EXT load(1, XDATA, add(CFA_XSP16, literal(-3)))
          CFI (cfiCond141) DPL0 load(1, XDATA, add(CFA_XSP16, literal(-2)))
          CFI (cfiCond141) DPH0 load(1, XDATA, add(CFA_XSP16, literal(-1)))
          CFI (cfiCond141) CFA_SP SP+-4
          CFI (cfiCond141) CFA_XSP16 add(XSP16, 62)
          CFI Block cfiCond142 Using cfiCommon0
          CFI (cfiCond142) Function zclSampleThermostat_ProcessInReportCmd
          CFI (cfiCond142) Conditional ??CrossCallReturnLabel_93, ??CrossCallReturnLabel_82
          CFI (cfiCond142) R6 load(1, XDATA, add(CFA_XSP16, literal(-24)))
          CFI (cfiCond142) VB load(1, XDATA, add(CFA_XSP16, literal(-23)))
          CFI (cfiCond142) V0 load(1, XDATA, add(CFA_XSP16, literal(-22)))
          CFI (cfiCond142) V1 load(1, XDATA, add(CFA_XSP16, literal(-21)))
          CFI (cfiCond142) V2 load(1, XDATA, add(CFA_XSP16, literal(-20)))
          CFI (cfiCond142) V3 load(1, XDATA, add(CFA_XSP16, literal(-19)))
          CFI (cfiCond142) V4 load(1, XDATA, add(CFA_XSP16, literal(-18)))
          CFI (cfiCond142) V5 load(1, XDATA, add(CFA_XSP16, literal(-17)))
          CFI (cfiCond142) V6 load(1, XDATA, add(CFA_XSP16, literal(-16)))
          CFI (cfiCond142) V7 load(1, XDATA, add(CFA_XSP16, literal(-15)))
          CFI (cfiCond142) V8 load(1, XDATA, add(CFA_XSP16, literal(-14)))
          CFI (cfiCond142) V9 load(1, XDATA, add(CFA_XSP16, literal(-13)))
          CFI (cfiCond142) V10 load(1, XDATA, add(CFA_XSP16, literal(-12)))
          CFI (cfiCond142) V11 load(1, XDATA, add(CFA_XSP16, literal(-11)))
          CFI (cfiCond142) V12 load(1, XDATA, add(CFA_XSP16, literal(-10)))
          CFI (cfiCond142) V13 load(1, XDATA, add(CFA_XSP16, literal(-9)))
          CFI (cfiCond142) V14 load(1, XDATA, add(CFA_XSP16, literal(-8)))
          CFI (cfiCond142) V15 load(1, XDATA, add(CFA_XSP16, literal(-7)))
          CFI (cfiCond142) R7 load(1, XDATA, add(CFA_XSP16, literal(-6)))
          CFI (cfiCond142) ?RET_LOW load(1, XDATA, add(CFA_XSP16, literal(-5)))
          CFI (cfiCond142) ?RET_HIGH load(1, XDATA, add(CFA_XSP16, literal(-4)))
          CFI (cfiCond142) ?BRET_EXT load(1, XDATA, add(CFA_XSP16, literal(-3)))
          CFI (cfiCond142) DPL0 load(1, XDATA, add(CFA_XSP16, literal(-2)))
          CFI (cfiCond142) DPH0 load(1, XDATA, add(CFA_XSP16, literal(-1)))
          CFI (cfiCond142) CFA_SP SP+-4
          CFI (cfiCond142) CFA_XSP16 add(XSP16, 62)
          CFI Block cfiCond143 Using cfiCommon0
          CFI (cfiCond143) Function zclSampleThermostat_ProcessInReportCmd
          CFI (cfiCond143) Conditional ??CrossCallReturnLabel_93, ??CrossCallReturnLabel_83
          CFI (cfiCond143) R6 load(1, XDATA, add(CFA_XSP16, literal(-24)))
          CFI (cfiCond143) VB load(1, XDATA, add(CFA_XSP16, literal(-23)))
          CFI (cfiCond143) V0 load(1, XDATA, add(CFA_XSP16, literal(-22)))
          CFI (cfiCond143) V1 load(1, XDATA, add(CFA_XSP16, literal(-21)))
          CFI (cfiCond143) V2 load(1, XDATA, add(CFA_XSP16, literal(-20)))
          CFI (cfiCond143) V3 load(1, XDATA, add(CFA_XSP16, literal(-19)))
          CFI (cfiCond143) V4 load(1, XDATA, add(CFA_XSP16, literal(-18)))
          CFI (cfiCond143) V5 load(1, XDATA, add(CFA_XSP16, literal(-17)))
          CFI (cfiCond143) V6 load(1, XDATA, add(CFA_XSP16, literal(-16)))
          CFI (cfiCond143) V7 load(1, XDATA, add(CFA_XSP16, literal(-15)))
          CFI (cfiCond143) V8 load(1, XDATA, add(CFA_XSP16, literal(-14)))
          CFI (cfiCond143) V9 load(1, XDATA, add(CFA_XSP16, literal(-13)))
          CFI (cfiCond143) V10 load(1, XDATA, add(CFA_XSP16, literal(-12)))
          CFI (cfiCond143) V11 load(1, XDATA, add(CFA_XSP16, literal(-11)))
          CFI (cfiCond143) V12 load(1, XDATA, add(CFA_XSP16, literal(-10)))
          CFI (cfiCond143) V13 load(1, XDATA, add(CFA_XSP16, literal(-9)))
          CFI (cfiCond143) V14 load(1, XDATA, add(CFA_XSP16, literal(-8)))
          CFI (cfiCond143) V15 load(1, XDATA, add(CFA_XSP16, literal(-7)))
          CFI (cfiCond143) R7 load(1, XDATA, add(CFA_XSP16, literal(-6)))
          CFI (cfiCond143) ?RET_LOW load(1, XDATA, add(CFA_XSP16, literal(-5)))
          CFI (cfiCond143) ?RET_HIGH load(1, XDATA, add(CFA_XSP16, literal(-4)))
          CFI (cfiCond143) ?BRET_EXT load(1, XDATA, add(CFA_XSP16, literal(-3)))
          CFI (cfiCond143) DPL0 load(1, XDATA, add(CFA_XSP16, literal(-2)))
          CFI (cfiCond143) DPH0 load(1, XDATA, add(CFA_XSP16, literal(-1)))
          CFI (cfiCond143) CFA_SP SP+-4
          CFI (cfiCond143) CFA_XSP16 add(XSP16, 62)
          CFI Block cfiPicker144 Using cfiCommon1
          CFI (cfiPicker144) NoFunction
          CFI (cfiPicker144) Picker
        MOVX    A,@DPTR
        MOV     R0,A
        INC     DPTR
        MOVX    A,@DPTR
        MOV     DPH,A
        MOV     DPL,R0
        RET
          CFI EndBlock cfiCond131
          CFI EndBlock cfiCond132
          CFI EndBlock cfiCond133
          CFI EndBlock cfiCond134
          CFI EndBlock cfiCond135
          CFI EndBlock cfiCond136
          CFI EndBlock cfiCond137
          CFI EndBlock cfiCond138
          CFI EndBlock cfiCond139
          CFI EndBlock cfiCond140
          CFI EndBlock cfiCond141
          CFI EndBlock cfiCond142
          CFI EndBlock cfiCond143
          CFI EndBlock cfiPicker144

        RSEG BANKED_CODE:HUGECODE:NOROOT(0)
?Subroutine9:
          CFI Block cfiCond145 Using cfiCommon0
          CFI Function zclSampleThermostat_ProcessInReportCmd
          CFI Conditional ??CrossCallReturnLabel_84
          CFI R6 load(1, XDATA, add(CFA_XSP16, literal(-24)))
          CFI VB load(1, XDATA, add(CFA_XSP16, literal(-23)))
          CFI V0 load(1, XDATA, add(CFA_XSP16, literal(-22)))
          CFI V1 load(1, XDATA, add(CFA_XSP16, literal(-21)))
          CFI V2 load(1, XDATA, add(CFA_XSP16, literal(-20)))
          CFI V3 load(1, XDATA, add(CFA_XSP16, literal(-19)))
          CFI V4 load(1, XDATA, add(CFA_XSP16, literal(-18)))
          CFI V5 load(1, XDATA, add(CFA_XSP16, literal(-17)))
          CFI V6 load(1, XDATA, add(CFA_XSP16, literal(-16)))
          CFI V7 load(1, XDATA, add(CFA_XSP16, literal(-15)))
          CFI V8 load(1, XDATA, add(CFA_XSP16, literal(-14)))
          CFI V9 load(1, XDATA, add(CFA_XSP16, literal(-13)))
          CFI V10 load(1, XDATA, add(CFA_XSP16, literal(-12)))
          CFI V11 load(1, XDATA, add(CFA_XSP16, literal(-11)))
          CFI V12 load(1, XDATA, add(CFA_XSP16, literal(-10)))
          CFI V13 load(1, XDATA, add(CFA_XSP16, literal(-9)))
          CFI V14 load(1, XDATA, add(CFA_XSP16, literal(-8)))
          CFI V15 load(1, XDATA, add(CFA_XSP16, literal(-7)))
          CFI R7 load(1, XDATA, add(CFA_XSP16, literal(-6)))
          CFI ?RET_LOW load(1, XDATA, add(CFA_XSP16, literal(-5)))
          CFI ?RET_HIGH load(1, XDATA, add(CFA_XSP16, literal(-4)))
          CFI ?BRET_EXT load(1, XDATA, add(CFA_XSP16, literal(-3)))
          CFI DPL0 load(1, XDATA, add(CFA_XSP16, literal(-2)))
          CFI DPH0 load(1, XDATA, add(CFA_XSP16, literal(-1)))
          CFI CFA_SP SP+-2
          CFI CFA_XSP16 add(XSP16, 62)
          CFI Block cfiCond146 Using cfiCommon0
          CFI (cfiCond146) Function zclSampleThermostat_ProcessInReportCmd
          CFI (cfiCond146) Conditional ??CrossCallReturnLabel_85
          CFI (cfiCond146) R6 load(1, XDATA, add(CFA_XSP16, literal(-24)))
          CFI (cfiCond146) VB load(1, XDATA, add(CFA_XSP16, literal(-23)))
          CFI (cfiCond146) V0 load(1, XDATA, add(CFA_XSP16, literal(-22)))
          CFI (cfiCond146) V1 load(1, XDATA, add(CFA_XSP16, literal(-21)))
          CFI (cfiCond146) V2 load(1, XDATA, add(CFA_XSP16, literal(-20)))
          CFI (cfiCond146) V3 load(1, XDATA, add(CFA_XSP16, literal(-19)))
          CFI (cfiCond146) V4 load(1, XDATA, add(CFA_XSP16, literal(-18)))
          CFI (cfiCond146) V5 load(1, XDATA, add(CFA_XSP16, literal(-17)))
          CFI (cfiCond146) V6 load(1, XDATA, add(CFA_XSP16, literal(-16)))
          CFI (cfiCond146) V7 load(1, XDATA, add(CFA_XSP16, literal(-15)))
          CFI (cfiCond146) V8 load(1, XDATA, add(CFA_XSP16, literal(-14)))
          CFI (cfiCond146) V9 load(1, XDATA, add(CFA_XSP16, literal(-13)))
          CFI (cfiCond146) V10 load(1, XDATA, add(CFA_XSP16, literal(-12)))
          CFI (cfiCond146) V11 load(1, XDATA, add(CFA_XSP16, literal(-11)))
          CFI (cfiCond146) V12 load(1, XDATA, add(CFA_XSP16, literal(-10)))
          CFI (cfiCond146) V13 load(1, XDATA, add(CFA_XSP16, literal(-9)))
          CFI (cfiCond146) V14 load(1, XDATA, add(CFA_XSP16, literal(-8)))
          CFI (cfiCond146) V15 load(1, XDATA, add(CFA_XSP16, literal(-7)))
          CFI (cfiCond146) R7 load(1, XDATA, add(CFA_XSP16, literal(-6)))
          CFI (cfiCond146) ?RET_LOW load(1, XDATA, add(CFA_XSP16, literal(-5)))
          CFI (cfiCond146) ?RET_HIGH load(1, XDATA, add(CFA_XSP16, literal(-4)))
          CFI (cfiCond146) ?BRET_EXT load(1, XDATA, add(CFA_XSP16, literal(-3)))
          CFI (cfiCond146) DPL0 load(1, XDATA, add(CFA_XSP16, literal(-2)))
          CFI (cfiCond146) DPH0 load(1, XDATA, add(CFA_XSP16, literal(-1)))
          CFI (cfiCond146) CFA_SP SP+-2
          CFI (cfiCond146) CFA_XSP16 add(XSP16, 62)
          CFI Block cfiCond147 Using cfiCommon0
          CFI (cfiCond147) Function zclSampleThermostat_ProcessInReportCmd
          CFI (cfiCond147) Conditional ??CrossCallReturnLabel_86
          CFI (cfiCond147) R6 load(1, XDATA, add(CFA_XSP16, literal(-24)))
          CFI (cfiCond147) VB load(1, XDATA, add(CFA_XSP16, literal(-23)))
          CFI (cfiCond147) V0 load(1, XDATA, add(CFA_XSP16, literal(-22)))
          CFI (cfiCond147) V1 load(1, XDATA, add(CFA_XSP16, literal(-21)))
          CFI (cfiCond147) V2 load(1, XDATA, add(CFA_XSP16, literal(-20)))
          CFI (cfiCond147) V3 load(1, XDATA, add(CFA_XSP16, literal(-19)))
          CFI (cfiCond147) V4 load(1, XDATA, add(CFA_XSP16, literal(-18)))
          CFI (cfiCond147) V5 load(1, XDATA, add(CFA_XSP16, literal(-17)))
          CFI (cfiCond147) V6 load(1, XDATA, add(CFA_XSP16, literal(-16)))
          CFI (cfiCond147) V7 load(1, XDATA, add(CFA_XSP16, literal(-15)))
          CFI (cfiCond147) V8 load(1, XDATA, add(CFA_XSP16, literal(-14)))
          CFI (cfiCond147) V9 load(1, XDATA, add(CFA_XSP16, literal(-13)))
          CFI (cfiCond147) V10 load(1, XDATA, add(CFA_XSP16, literal(-12)))
          CFI (cfiCond147) V11 load(1, XDATA, add(CFA_XSP16, literal(-11)))
          CFI (cfiCond147) V12 load(1, XDATA, add(CFA_XSP16, literal(-10)))
          CFI (cfiCond147) V13 load(1, XDATA, add(CFA_XSP16, literal(-9)))
          CFI (cfiCond147) V14 load(1, XDATA, add(CFA_XSP16, literal(-8)))
          CFI (cfiCond147) V15 load(1, XDATA, add(CFA_XSP16, literal(-7)))
          CFI (cfiCond147) R7 load(1, XDATA, add(CFA_XSP16, literal(-6)))
          CFI (cfiCond147) ?RET_LOW load(1, XDATA, add(CFA_XSP16, literal(-5)))
          CFI (cfiCond147) ?RET_HIGH load(1, XDATA, add(CFA_XSP16, literal(-4)))
          CFI (cfiCond147) ?BRET_EXT load(1, XDATA, add(CFA_XSP16, literal(-3)))
          CFI (cfiCond147) DPL0 load(1, XDATA, add(CFA_XSP16, literal(-2)))
          CFI (cfiCond147) DPH0 load(1, XDATA, add(CFA_XSP16, literal(-1)))
          CFI (cfiCond147) CFA_SP SP+-2
          CFI (cfiCond147) CFA_XSP16 add(XSP16, 62)
          CFI Block cfiCond148 Using cfiCommon0
          CFI (cfiCond148) Function zclSampleThermostat_ProcessInReportCmd
          CFI (cfiCond148) Conditional ??CrossCallReturnLabel_87
          CFI (cfiCond148) R6 load(1, XDATA, add(CFA_XSP16, literal(-24)))
          CFI (cfiCond148) VB load(1, XDATA, add(CFA_XSP16, literal(-23)))
          CFI (cfiCond148) V0 load(1, XDATA, add(CFA_XSP16, literal(-22)))
          CFI (cfiCond148) V1 load(1, XDATA, add(CFA_XSP16, literal(-21)))
          CFI (cfiCond148) V2 load(1, XDATA, add(CFA_XSP16, literal(-20)))
          CFI (cfiCond148) V3 load(1, XDATA, add(CFA_XSP16, literal(-19)))
          CFI (cfiCond148) V4 load(1, XDATA, add(CFA_XSP16, literal(-18)))
          CFI (cfiCond148) V5 load(1, XDATA, add(CFA_XSP16, literal(-17)))
          CFI (cfiCond148) V6 load(1, XDATA, add(CFA_XSP16, literal(-16)))
          CFI (cfiCond148) V7 load(1, XDATA, add(CFA_XSP16, literal(-15)))
          CFI (cfiCond148) V8 load(1, XDATA, add(CFA_XSP16, literal(-14)))
          CFI (cfiCond148) V9 load(1, XDATA, add(CFA_XSP16, literal(-13)))
          CFI (cfiCond148) V10 load(1, XDATA, add(CFA_XSP16, literal(-12)))
          CFI (cfiCond148) V11 load(1, XDATA, add(CFA_XSP16, literal(-11)))
          CFI (cfiCond148) V12 load(1, XDATA, add(CFA_XSP16, literal(-10)))
          CFI (cfiCond148) V13 load(1, XDATA, add(CFA_XSP16, literal(-9)))
          CFI (cfiCond148) V14 load(1, XDATA, add(CFA_XSP16, literal(-8)))
          CFI (cfiCond148) V15 load(1, XDATA, add(CFA_XSP16, literal(-7)))
          CFI (cfiCond148) R7 load(1, XDATA, add(CFA_XSP16, literal(-6)))
          CFI (cfiCond148) ?RET_LOW load(1, XDATA, add(CFA_XSP16, literal(-5)))
          CFI (cfiCond148) ?RET_HIGH load(1, XDATA, add(CFA_XSP16, literal(-4)))
          CFI (cfiCond148) ?BRET_EXT load(1, XDATA, add(CFA_XSP16, literal(-3)))
          CFI (cfiCond148) DPL0 load(1, XDATA, add(CFA_XSP16, literal(-2)))
          CFI (cfiCond148) DPH0 load(1, XDATA, add(CFA_XSP16, literal(-1)))
          CFI (cfiCond148) CFA_SP SP+-2
          CFI (cfiCond148) CFA_XSP16 add(XSP16, 62)
          CFI Block cfiPicker149 Using cfiCommon1
          CFI (cfiPicker149) NoFunction
          CFI (cfiPicker149) Picker
        MOV     DPL,?V2
        MOV     DPH,?V3
          CFI EndBlock cfiCond145
          CFI EndBlock cfiCond146
          CFI EndBlock cfiCond147
          CFI EndBlock cfiCond148
          CFI EndBlock cfiPicker149
        REQUIRE ??Subroutine37_0
        ; // Fall through to label ??Subroutine37_0

        RSEG BANKED_CODE:HUGECODE:NOROOT(0)
??Subroutine37_0:
          CFI Block cfiCond150 Using cfiCommon0
          CFI Function zclSampleThermostat_ProcessInReportCmd
          CFI Conditional ??CrossCallReturnLabel_80
          CFI R6 load(1, XDATA, add(CFA_XSP16, literal(-24)))
          CFI VB load(1, XDATA, add(CFA_XSP16, literal(-23)))
          CFI V0 load(1, XDATA, add(CFA_XSP16, literal(-22)))
          CFI V1 load(1, XDATA, add(CFA_XSP16, literal(-21)))
          CFI V2 load(1, XDATA, add(CFA_XSP16, literal(-20)))
          CFI V3 load(1, XDATA, add(CFA_XSP16, literal(-19)))
          CFI V4 load(1, XDATA, add(CFA_XSP16, literal(-18)))
          CFI V5 load(1, XDATA, add(CFA_XSP16, literal(-17)))
          CFI V6 load(1, XDATA, add(CFA_XSP16, literal(-16)))
          CFI V7 load(1, XDATA, add(CFA_XSP16, literal(-15)))
          CFI V8 load(1, XDATA, add(CFA_XSP16, literal(-14)))
          CFI V9 load(1, XDATA, add(CFA_XSP16, literal(-13)))
          CFI V10 load(1, XDATA, add(CFA_XSP16, literal(-12)))
          CFI V11 load(1, XDATA, add(CFA_XSP16, literal(-11)))
          CFI V12 load(1, XDATA, add(CFA_XSP16, literal(-10)))
          CFI V13 load(1, XDATA, add(CFA_XSP16, literal(-9)))
          CFI V14 load(1, XDATA, add(CFA_XSP16, literal(-8)))
          CFI V15 load(1, XDATA, add(CFA_XSP16, literal(-7)))
          CFI R7 load(1, XDATA, add(CFA_XSP16, literal(-6)))
          CFI ?RET_LOW load(1, XDATA, add(CFA_XSP16, literal(-5)))
          CFI ?RET_HIGH load(1, XDATA, add(CFA_XSP16, literal(-4)))
          CFI ?BRET_EXT load(1, XDATA, add(CFA_XSP16, literal(-3)))
          CFI DPL0 load(1, XDATA, add(CFA_XSP16, literal(-2)))
          CFI DPH0 load(1, XDATA, add(CFA_XSP16, literal(-1)))
          CFI CFA_SP SP+-2
          CFI CFA_XSP16 add(XSP16, 62)
          CFI Block cfiCond151 Using cfiCommon0
          CFI (cfiCond151) Function zclSampleThermostat_ProcessInReportCmd
          CFI (cfiCond151) Conditional ??CrossCallReturnLabel_81
          CFI (cfiCond151) R6 load(1, XDATA, add(CFA_XSP16, literal(-24)))
          CFI (cfiCond151) VB load(1, XDATA, add(CFA_XSP16, literal(-23)))
          CFI (cfiCond151) V0 load(1, XDATA, add(CFA_XSP16, literal(-22)))
          CFI (cfiCond151) V1 load(1, XDATA, add(CFA_XSP16, literal(-21)))
          CFI (cfiCond151) V2 load(1, XDATA, add(CFA_XSP16, literal(-20)))
          CFI (cfiCond151) V3 load(1, XDATA, add(CFA_XSP16, literal(-19)))
          CFI (cfiCond151) V4 load(1, XDATA, add(CFA_XSP16, literal(-18)))
          CFI (cfiCond151) V5 load(1, XDATA, add(CFA_XSP16, literal(-17)))
          CFI (cfiCond151) V6 load(1, XDATA, add(CFA_XSP16, literal(-16)))
          CFI (cfiCond151) V7 load(1, XDATA, add(CFA_XSP16, literal(-15)))
          CFI (cfiCond151) V8 load(1, XDATA, add(CFA_XSP16, literal(-14)))
          CFI (cfiCond151) V9 load(1, XDATA, add(CFA_XSP16, literal(-13)))
          CFI (cfiCond151) V10 load(1, XDATA, add(CFA_XSP16, literal(-12)))
          CFI (cfiCond151) V11 load(1, XDATA, add(CFA_XSP16, literal(-11)))
          CFI (cfiCond151) V12 load(1, XDATA, add(CFA_XSP16, literal(-10)))
          CFI (cfiCond151) V13 load(1, XDATA, add(CFA_XSP16, literal(-9)))
          CFI (cfiCond151) V14 load(1, XDATA, add(CFA_XSP16, literal(-8)))
          CFI (cfiCond151) V15 load(1, XDATA, add(CFA_XSP16, literal(-7)))
          CFI (cfiCond151) R7 load(1, XDATA, add(CFA_XSP16, literal(-6)))
          CFI (cfiCond151) ?RET_LOW load(1, XDATA, add(CFA_XSP16, literal(-5)))
          CFI (cfiCond151) ?RET_HIGH load(1, XDATA, add(CFA_XSP16, literal(-4)))
          CFI (cfiCond151) ?BRET_EXT load(1, XDATA, add(CFA_XSP16, literal(-3)))
          CFI (cfiCond151) DPL0 load(1, XDATA, add(CFA_XSP16, literal(-2)))
          CFI (cfiCond151) DPH0 load(1, XDATA, add(CFA_XSP16, literal(-1)))
          CFI (cfiCond151) CFA_SP SP+-2
          CFI (cfiCond151) CFA_XSP16 add(XSP16, 62)
          CFI Block cfiCond152 Using cfiCommon0
          CFI (cfiCond152) Function zclSampleThermostat_ProcessInReportCmd
          CFI (cfiCond152) Conditional ??CrossCallReturnLabel_82
          CFI (cfiCond152) R6 load(1, XDATA, add(CFA_XSP16, literal(-24)))
          CFI (cfiCond152) VB load(1, XDATA, add(CFA_XSP16, literal(-23)))
          CFI (cfiCond152) V0 load(1, XDATA, add(CFA_XSP16, literal(-22)))
          CFI (cfiCond152) V1 load(1, XDATA, add(CFA_XSP16, literal(-21)))
          CFI (cfiCond152) V2 load(1, XDATA, add(CFA_XSP16, literal(-20)))
          CFI (cfiCond152) V3 load(1, XDATA, add(CFA_XSP16, literal(-19)))
          CFI (cfiCond152) V4 load(1, XDATA, add(CFA_XSP16, literal(-18)))
          CFI (cfiCond152) V5 load(1, XDATA, add(CFA_XSP16, literal(-17)))
          CFI (cfiCond152) V6 load(1, XDATA, add(CFA_XSP16, literal(-16)))
          CFI (cfiCond152) V7 load(1, XDATA, add(CFA_XSP16, literal(-15)))
          CFI (cfiCond152) V8 load(1, XDATA, add(CFA_XSP16, literal(-14)))
          CFI (cfiCond152) V9 load(1, XDATA, add(CFA_XSP16, literal(-13)))
          CFI (cfiCond152) V10 load(1, XDATA, add(CFA_XSP16, literal(-12)))
          CFI (cfiCond152) V11 load(1, XDATA, add(CFA_XSP16, literal(-11)))
          CFI (cfiCond152) V12 load(1, XDATA, add(CFA_XSP16, literal(-10)))
          CFI (cfiCond152) V13 load(1, XDATA, add(CFA_XSP16, literal(-9)))
          CFI (cfiCond152) V14 load(1, XDATA, add(CFA_XSP16, literal(-8)))
          CFI (cfiCond152) V15 load(1, XDATA, add(CFA_XSP16, literal(-7)))
          CFI (cfiCond152) R7 load(1, XDATA, add(CFA_XSP16, literal(-6)))
          CFI (cfiCond152) ?RET_LOW load(1, XDATA, add(CFA_XSP16, literal(-5)))
          CFI (cfiCond152) ?RET_HIGH load(1, XDATA, add(CFA_XSP16, literal(-4)))
          CFI (cfiCond152) ?BRET_EXT load(1, XDATA, add(CFA_XSP16, literal(-3)))
          CFI (cfiCond152) DPL0 load(1, XDATA, add(CFA_XSP16, literal(-2)))
          CFI (cfiCond152) DPH0 load(1, XDATA, add(CFA_XSP16, literal(-1)))
          CFI (cfiCond152) CFA_SP SP+-2
          CFI (cfiCond152) CFA_XSP16 add(XSP16, 62)
          CFI Block cfiCond153 Using cfiCommon0
          CFI (cfiCond153) Function zclSampleThermostat_ProcessInReportCmd
          CFI (cfiCond153) Conditional ??CrossCallReturnLabel_83
          CFI (cfiCond153) R6 load(1, XDATA, add(CFA_XSP16, literal(-24)))
          CFI (cfiCond153) VB load(1, XDATA, add(CFA_XSP16, literal(-23)))
          CFI (cfiCond153) V0 load(1, XDATA, add(CFA_XSP16, literal(-22)))
          CFI (cfiCond153) V1 load(1, XDATA, add(CFA_XSP16, literal(-21)))
          CFI (cfiCond153) V2 load(1, XDATA, add(CFA_XSP16, literal(-20)))
          CFI (cfiCond153) V3 load(1, XDATA, add(CFA_XSP16, literal(-19)))
          CFI (cfiCond153) V4 load(1, XDATA, add(CFA_XSP16, literal(-18)))
          CFI (cfiCond153) V5 load(1, XDATA, add(CFA_XSP16, literal(-17)))
          CFI (cfiCond153) V6 load(1, XDATA, add(CFA_XSP16, literal(-16)))
          CFI (cfiCond153) V7 load(1, XDATA, add(CFA_XSP16, literal(-15)))
          CFI (cfiCond153) V8 load(1, XDATA, add(CFA_XSP16, literal(-14)))
          CFI (cfiCond153) V9 load(1, XDATA, add(CFA_XSP16, literal(-13)))
          CFI (cfiCond153) V10 load(1, XDATA, add(CFA_XSP16, literal(-12)))
          CFI (cfiCond153) V11 load(1, XDATA, add(CFA_XSP16, literal(-11)))
          CFI (cfiCond153) V12 load(1, XDATA, add(CFA_XSP16, literal(-10)))
          CFI (cfiCond153) V13 load(1, XDATA, add(CFA_XSP16, literal(-9)))
          CFI (cfiCond153) V14 load(1, XDATA, add(CFA_XSP16, literal(-8)))
          CFI (cfiCond153) V15 load(1, XDATA, add(CFA_XSP16, literal(-7)))
          CFI (cfiCond153) R7 load(1, XDATA, add(CFA_XSP16, literal(-6)))
          CFI (cfiCond153) ?RET_LOW load(1, XDATA, add(CFA_XSP16, literal(-5)))
          CFI (cfiCond153) ?RET_HIGH load(1, XDATA, add(CFA_XSP16, literal(-4)))
          CFI (cfiCond153) ?BRET_EXT load(1, XDATA, add(CFA_XSP16, literal(-3)))
          CFI (cfiCond153) DPL0 load(1, XDATA, add(CFA_XSP16, literal(-2)))
          CFI (cfiCond153) DPH0 load(1, XDATA, add(CFA_XSP16, literal(-1)))
          CFI (cfiCond153) CFA_SP SP+-2
          CFI (cfiCond153) CFA_XSP16 add(XSP16, 62)
          CFI Block cfiCond154 Using cfiCommon0
          CFI (cfiCond154) Function zclSampleThermostat_ProcessInReportCmd
          CFI (cfiCond154) Conditional ??CrossCallReturnLabel_84
          CFI (cfiCond154) R6 load(1, XDATA, add(CFA_XSP16, literal(-24)))
          CFI (cfiCond154) VB load(1, XDATA, add(CFA_XSP16, literal(-23)))
          CFI (cfiCond154) V0 load(1, XDATA, add(CFA_XSP16, literal(-22)))
          CFI (cfiCond154) V1 load(1, XDATA, add(CFA_XSP16, literal(-21)))
          CFI (cfiCond154) V2 load(1, XDATA, add(CFA_XSP16, literal(-20)))
          CFI (cfiCond154) V3 load(1, XDATA, add(CFA_XSP16, literal(-19)))
          CFI (cfiCond154) V4 load(1, XDATA, add(CFA_XSP16, literal(-18)))
          CFI (cfiCond154) V5 load(1, XDATA, add(CFA_XSP16, literal(-17)))
          CFI (cfiCond154) V6 load(1, XDATA, add(CFA_XSP16, literal(-16)))
          CFI (cfiCond154) V7 load(1, XDATA, add(CFA_XSP16, literal(-15)))
          CFI (cfiCond154) V8 load(1, XDATA, add(CFA_XSP16, literal(-14)))
          CFI (cfiCond154) V9 load(1, XDATA, add(CFA_XSP16, literal(-13)))
          CFI (cfiCond154) V10 load(1, XDATA, add(CFA_XSP16, literal(-12)))
          CFI (cfiCond154) V11 load(1, XDATA, add(CFA_XSP16, literal(-11)))
          CFI (cfiCond154) V12 load(1, XDATA, add(CFA_XSP16, literal(-10)))
          CFI (cfiCond154) V13 load(1, XDATA, add(CFA_XSP16, literal(-9)))
          CFI (cfiCond154) V14 load(1, XDATA, add(CFA_XSP16, literal(-8)))
          CFI (cfiCond154) V15 load(1, XDATA, add(CFA_XSP16, literal(-7)))
          CFI (cfiCond154) R7 load(1, XDATA, add(CFA_XSP16, literal(-6)))
          CFI (cfiCond154) ?RET_LOW load(1, XDATA, add(CFA_XSP16, literal(-5)))
          CFI (cfiCond154) ?RET_HIGH load(1, XDATA, add(CFA_XSP16, literal(-4)))
          CFI (cfiCond154) ?BRET_EXT load(1, XDATA, add(CFA_XSP16, literal(-3)))
          CFI (cfiCond154) DPL0 load(1, XDATA, add(CFA_XSP16, literal(-2)))
          CFI (cfiCond154) DPH0 load(1, XDATA, add(CFA_XSP16, literal(-1)))
          CFI (cfiCond154) CFA_SP SP+-2
          CFI (cfiCond154) CFA_XSP16 add(XSP16, 62)
          CFI Block cfiCond155 Using cfiCommon0
          CFI (cfiCond155) Function zclSampleThermostat_ProcessInReportCmd
          CFI (cfiCond155) Conditional ??CrossCallReturnLabel_85
          CFI (cfiCond155) R6 load(1, XDATA, add(CFA_XSP16, literal(-24)))
          CFI (cfiCond155) VB load(1, XDATA, add(CFA_XSP16, literal(-23)))
          CFI (cfiCond155) V0 load(1, XDATA, add(CFA_XSP16, literal(-22)))
          CFI (cfiCond155) V1 load(1, XDATA, add(CFA_XSP16, literal(-21)))
          CFI (cfiCond155) V2 load(1, XDATA, add(CFA_XSP16, literal(-20)))
          CFI (cfiCond155) V3 load(1, XDATA, add(CFA_XSP16, literal(-19)))
          CFI (cfiCond155) V4 load(1, XDATA, add(CFA_XSP16, literal(-18)))
          CFI (cfiCond155) V5 load(1, XDATA, add(CFA_XSP16, literal(-17)))
          CFI (cfiCond155) V6 load(1, XDATA, add(CFA_XSP16, literal(-16)))
          CFI (cfiCond155) V7 load(1, XDATA, add(CFA_XSP16, literal(-15)))
          CFI (cfiCond155) V8 load(1, XDATA, add(CFA_XSP16, literal(-14)))
          CFI (cfiCond155) V9 load(1, XDATA, add(CFA_XSP16, literal(-13)))
          CFI (cfiCond155) V10 load(1, XDATA, add(CFA_XSP16, literal(-12)))
          CFI (cfiCond155) V11 load(1, XDATA, add(CFA_XSP16, literal(-11)))
          CFI (cfiCond155) V12 load(1, XDATA, add(CFA_XSP16, literal(-10)))
          CFI (cfiCond155) V13 load(1, XDATA, add(CFA_XSP16, literal(-9)))
          CFI (cfiCond155) V14 load(1, XDATA, add(CFA_XSP16, literal(-8)))
          CFI (cfiCond155) V15 load(1, XDATA, add(CFA_XSP16, literal(-7)))
          CFI (cfiCond155) R7 load(1, XDATA, add(CFA_XSP16, literal(-6)))
          CFI (cfiCond155) ?RET_LOW load(1, XDATA, add(CFA_XSP16, literal(-5)))
          CFI (cfiCond155) ?RET_HIGH load(1, XDATA, add(CFA_XSP16, literal(-4)))
          CFI (cfiCond155) ?BRET_EXT load(1, XDATA, add(CFA_XSP16, literal(-3)))
          CFI (cfiCond155) DPL0 load(1, XDATA, add(CFA_XSP16, literal(-2)))
          CFI (cfiCond155) DPH0 load(1, XDATA, add(CFA_XSP16, literal(-1)))
          CFI (cfiCond155) CFA_SP SP+-2
          CFI (cfiCond155) CFA_XSP16 add(XSP16, 62)
          CFI Block cfiCond156 Using cfiCommon0
          CFI (cfiCond156) Function zclSampleThermostat_ProcessInReportCmd
          CFI (cfiCond156) Conditional ??CrossCallReturnLabel_86
          CFI (cfiCond156) R6 load(1, XDATA, add(CFA_XSP16, literal(-24)))
          CFI (cfiCond156) VB load(1, XDATA, add(CFA_XSP16, literal(-23)))
          CFI (cfiCond156) V0 load(1, XDATA, add(CFA_XSP16, literal(-22)))
          CFI (cfiCond156) V1 load(1, XDATA, add(CFA_XSP16, literal(-21)))
          CFI (cfiCond156) V2 load(1, XDATA, add(CFA_XSP16, literal(-20)))
          CFI (cfiCond156) V3 load(1, XDATA, add(CFA_XSP16, literal(-19)))
          CFI (cfiCond156) V4 load(1, XDATA, add(CFA_XSP16, literal(-18)))
          CFI (cfiCond156) V5 load(1, XDATA, add(CFA_XSP16, literal(-17)))
          CFI (cfiCond156) V6 load(1, XDATA, add(CFA_XSP16, literal(-16)))
          CFI (cfiCond156) V7 load(1, XDATA, add(CFA_XSP16, literal(-15)))
          CFI (cfiCond156) V8 load(1, XDATA, add(CFA_XSP16, literal(-14)))
          CFI (cfiCond156) V9 load(1, XDATA, add(CFA_XSP16, literal(-13)))
          CFI (cfiCond156) V10 load(1, XDATA, add(CFA_XSP16, literal(-12)))
          CFI (cfiCond156) V11 load(1, XDATA, add(CFA_XSP16, literal(-11)))
          CFI (cfiCond156) V12 load(1, XDATA, add(CFA_XSP16, literal(-10)))
          CFI (cfiCond156) V13 load(1, XDATA, add(CFA_XSP16, literal(-9)))
          CFI (cfiCond156) V14 load(1, XDATA, add(CFA_XSP16, literal(-8)))
          CFI (cfiCond156) V15 load(1, XDATA, add(CFA_XSP16, literal(-7)))
          CFI (cfiCond156) R7 load(1, XDATA, add(CFA_XSP16, literal(-6)))
          CFI (cfiCond156) ?RET_LOW load(1, XDATA, add(CFA_XSP16, literal(-5)))
          CFI (cfiCond156) ?RET_HIGH load(1, XDATA, add(CFA_XSP16, literal(-4)))
          CFI (cfiCond156) ?BRET_EXT load(1, XDATA, add(CFA_XSP16, literal(-3)))
          CFI (cfiCond156) DPL0 load(1, XDATA, add(CFA_XSP16, literal(-2)))
          CFI (cfiCond156) DPH0 load(1, XDATA, add(CFA_XSP16, literal(-1)))
          CFI (cfiCond156) CFA_SP SP+-2
          CFI (cfiCond156) CFA_XSP16 add(XSP16, 62)
          CFI Block cfiCond157 Using cfiCommon0
          CFI (cfiCond157) Function zclSampleThermostat_ProcessInReportCmd
          CFI (cfiCond157) Conditional ??CrossCallReturnLabel_87
          CFI (cfiCond157) R6 load(1, XDATA, add(CFA_XSP16, literal(-24)))
          CFI (cfiCond157) VB load(1, XDATA, add(CFA_XSP16, literal(-23)))
          CFI (cfiCond157) V0 load(1, XDATA, add(CFA_XSP16, literal(-22)))
          CFI (cfiCond157) V1 load(1, XDATA, add(CFA_XSP16, literal(-21)))
          CFI (cfiCond157) V2 load(1, XDATA, add(CFA_XSP16, literal(-20)))
          CFI (cfiCond157) V3 load(1, XDATA, add(CFA_XSP16, literal(-19)))
          CFI (cfiCond157) V4 load(1, XDATA, add(CFA_XSP16, literal(-18)))
          CFI (cfiCond157) V5 load(1, XDATA, add(CFA_XSP16, literal(-17)))
          CFI (cfiCond157) V6 load(1, XDATA, add(CFA_XSP16, literal(-16)))
          CFI (cfiCond157) V7 load(1, XDATA, add(CFA_XSP16, literal(-15)))
          CFI (cfiCond157) V8 load(1, XDATA, add(CFA_XSP16, literal(-14)))
          CFI (cfiCond157) V9 load(1, XDATA, add(CFA_XSP16, literal(-13)))
          CFI (cfiCond157) V10 load(1, XDATA, add(CFA_XSP16, literal(-12)))
          CFI (cfiCond157) V11 load(1, XDATA, add(CFA_XSP16, literal(-11)))
          CFI (cfiCond157) V12 load(1, XDATA, add(CFA_XSP16, literal(-10)))
          CFI (cfiCond157) V13 load(1, XDATA, add(CFA_XSP16, literal(-9)))
          CFI (cfiCond157) V14 load(1, XDATA, add(CFA_XSP16, literal(-8)))
          CFI (cfiCond157) V15 load(1, XDATA, add(CFA_XSP16, literal(-7)))
          CFI (cfiCond157) R7 load(1, XDATA, add(CFA_XSP16, literal(-6)))
          CFI (cfiCond157) ?RET_LOW load(1, XDATA, add(CFA_XSP16, literal(-5)))
          CFI (cfiCond157) ?RET_HIGH load(1, XDATA, add(CFA_XSP16, literal(-4)))
          CFI (cfiCond157) ?BRET_EXT load(1, XDATA, add(CFA_XSP16, literal(-3)))
          CFI (cfiCond157) DPL0 load(1, XDATA, add(CFA_XSP16, literal(-2)))
          CFI (cfiCond157) DPH0 load(1, XDATA, add(CFA_XSP16, literal(-1)))
          CFI (cfiCond157) CFA_SP SP+-2
          CFI (cfiCond157) CFA_XSP16 add(XSP16, 62)
          CFI Block cfiPicker158 Using cfiCommon1
          CFI (cfiPicker158) NoFunction
          CFI (cfiPicker158) Picker
        LCALL   ?Subroutine29 & 0xFFFF
??CrossCallReturnLabel_93:
        LCALL   ?Subroutine28 & 0xFFFF
??CrossCallReturnLabel_90:
        MOV     R1,A
        RET
          CFI EndBlock cfiCond150
          CFI EndBlock cfiCond151
          CFI EndBlock cfiCond152
          CFI EndBlock cfiCond153
          CFI EndBlock cfiCond154
          CFI EndBlock cfiCond155
          CFI EndBlock cfiCond156
          CFI EndBlock cfiCond157
          CFI EndBlock cfiPicker158

        RSEG BANKED_CODE:HUGECODE:NOROOT(0)
?Subroutine28:
          CFI Block cfiCond159 Using cfiCommon0
          CFI Function zclSampleThermostat_ProcessInReportCmd
          CFI Conditional ??CrossCallReturnLabel_89, ??CrossCallReturnLabel_78
          CFI R6 load(1, XDATA, add(CFA_XSP16, literal(-24)))
          CFI VB load(1, XDATA, add(CFA_XSP16, literal(-23)))
          CFI V0 load(1, XDATA, add(CFA_XSP16, literal(-22)))
          CFI V1 load(1, XDATA, add(CFA_XSP16, literal(-21)))
          CFI V2 load(1, XDATA, add(CFA_XSP16, literal(-20)))
          CFI V3 load(1, XDATA, add(CFA_XSP16, literal(-19)))
          CFI V4 load(1, XDATA, add(CFA_XSP16, literal(-18)))
          CFI V5 load(1, XDATA, add(CFA_XSP16, literal(-17)))
          CFI V6 load(1, XDATA, add(CFA_XSP16, literal(-16)))
          CFI V7 load(1, XDATA, add(CFA_XSP16, literal(-15)))
          CFI V8 load(1, XDATA, add(CFA_XSP16, literal(-14)))
          CFI V9 load(1, XDATA, add(CFA_XSP16, literal(-13)))
          CFI V10 load(1, XDATA, add(CFA_XSP16, literal(-12)))
          CFI V11 load(1, XDATA, add(CFA_XSP16, literal(-11)))
          CFI V12 load(1, XDATA, add(CFA_XSP16, literal(-10)))
          CFI V13 load(1, XDATA, add(CFA_XSP16, literal(-9)))
          CFI V14 load(1, XDATA, add(CFA_XSP16, literal(-8)))
          CFI V15 load(1, XDATA, add(CFA_XSP16, literal(-7)))
          CFI R7 load(1, XDATA, add(CFA_XSP16, literal(-6)))
          CFI ?RET_LOW load(1, XDATA, add(CFA_XSP16, literal(-5)))
          CFI ?RET_HIGH load(1, XDATA, add(CFA_XSP16, literal(-4)))
          CFI ?BRET_EXT load(1, XDATA, add(CFA_XSP16, literal(-3)))
          CFI DPL0 load(1, XDATA, add(CFA_XSP16, literal(-2)))
          CFI DPH0 load(1, XDATA, add(CFA_XSP16, literal(-1)))
          CFI CFA_SP SP+-4
          CFI CFA_XSP16 add(XSP16, 62)
          CFI Block cfiCond160 Using cfiCommon0
          CFI (cfiCond160) Function zclSampleThermostat_ProcessInReportCmd
          CFI (cfiCond160) Conditional ??CrossCallReturnLabel_89, ??CrossCallReturnLabel_79
          CFI (cfiCond160) R6 load(1, XDATA, add(CFA_XSP16, literal(-24)))
          CFI (cfiCond160) VB load(1, XDATA, add(CFA_XSP16, literal(-23)))
          CFI (cfiCond160) V0 load(1, XDATA, add(CFA_XSP16, literal(-22)))
          CFI (cfiCond160) V1 load(1, XDATA, add(CFA_XSP16, literal(-21)))
          CFI (cfiCond160) V2 load(1, XDATA, add(CFA_XSP16, literal(-20)))
          CFI (cfiCond160) V3 load(1, XDATA, add(CFA_XSP16, literal(-19)))
          CFI (cfiCond160) V4 load(1, XDATA, add(CFA_XSP16, literal(-18)))
          CFI (cfiCond160) V5 load(1, XDATA, add(CFA_XSP16, literal(-17)))
          CFI (cfiCond160) V6 load(1, XDATA, add(CFA_XSP16, literal(-16)))
          CFI (cfiCond160) V7 load(1, XDATA, add(CFA_XSP16, literal(-15)))
          CFI (cfiCond160) V8 load(1, XDATA, add(CFA_XSP16, literal(-14)))
          CFI (cfiCond160) V9 load(1, XDATA, add(CFA_XSP16, literal(-13)))
          CFI (cfiCond160) V10 load(1, XDATA, add(CFA_XSP16, literal(-12)))
          CFI (cfiCond160) V11 load(1, XDATA, add(CFA_XSP16, literal(-11)))
          CFI (cfiCond160) V12 load(1, XDATA, add(CFA_XSP16, literal(-10)))
          CFI (cfiCond160) V13 load(1, XDATA, add(CFA_XSP16, literal(-9)))
          CFI (cfiCond160) V14 load(1, XDATA, add(CFA_XSP16, literal(-8)))
          CFI (cfiCond160) V15 load(1, XDATA, add(CFA_XSP16, literal(-7)))
          CFI (cfiCond160) R7 load(1, XDATA, add(CFA_XSP16, literal(-6)))
          CFI (cfiCond160) ?RET_LOW load(1, XDATA, add(CFA_XSP16, literal(-5)))
          CFI (cfiCond160) ?RET_HIGH load(1, XDATA, add(CFA_XSP16, literal(-4)))
          CFI (cfiCond160) ?BRET_EXT load(1, XDATA, add(CFA_XSP16, literal(-3)))
          CFI (cfiCond160) DPL0 load(1, XDATA, add(CFA_XSP16, literal(-2)))
          CFI (cfiCond160) DPH0 load(1, XDATA, add(CFA_XSP16, literal(-1)))
          CFI (cfiCond160) CFA_SP SP+-4
          CFI (cfiCond160) CFA_XSP16 add(XSP16, 62)
          CFI Block cfiCond161 Using cfiCommon0
          CFI (cfiCond161) Function zclSampleThermostat_ProcessInReportCmd
          CFI (cfiCond161) Conditional ??CrossCallReturnLabel_89, ??CrossCallReturnLabel_76
          CFI (cfiCond161) R6 load(1, XDATA, add(CFA_XSP16, literal(-24)))
          CFI (cfiCond161) VB load(1, XDATA, add(CFA_XSP16, literal(-23)))
          CFI (cfiCond161) V0 load(1, XDATA, add(CFA_XSP16, literal(-22)))
          CFI (cfiCond161) V1 load(1, XDATA, add(CFA_XSP16, literal(-21)))
          CFI (cfiCond161) V2 load(1, XDATA, add(CFA_XSP16, literal(-20)))
          CFI (cfiCond161) V3 load(1, XDATA, add(CFA_XSP16, literal(-19)))
          CFI (cfiCond161) V4 load(1, XDATA, add(CFA_XSP16, literal(-18)))
          CFI (cfiCond161) V5 load(1, XDATA, add(CFA_XSP16, literal(-17)))
          CFI (cfiCond161) V6 load(1, XDATA, add(CFA_XSP16, literal(-16)))
          CFI (cfiCond161) V7 load(1, XDATA, add(CFA_XSP16, literal(-15)))
          CFI (cfiCond161) V8 load(1, XDATA, add(CFA_XSP16, literal(-14)))
          CFI (cfiCond161) V9 load(1, XDATA, add(CFA_XSP16, literal(-13)))
          CFI (cfiCond161) V10 load(1, XDATA, add(CFA_XSP16, literal(-12)))
          CFI (cfiCond161) V11 load(1, XDATA, add(CFA_XSP16, literal(-11)))
          CFI (cfiCond161) V12 load(1, XDATA, add(CFA_XSP16, literal(-10)))
          CFI (cfiCond161) V13 load(1, XDATA, add(CFA_XSP16, literal(-9)))
          CFI (cfiCond161) V14 load(1, XDATA, add(CFA_XSP16, literal(-8)))
          CFI (cfiCond161) V15 load(1, XDATA, add(CFA_XSP16, literal(-7)))
          CFI (cfiCond161) R7 load(1, XDATA, add(CFA_XSP16, literal(-6)))
          CFI (cfiCond161) ?RET_LOW load(1, XDATA, add(CFA_XSP16, literal(-5)))
          CFI (cfiCond161) ?RET_HIGH load(1, XDATA, add(CFA_XSP16, literal(-4)))
          CFI (cfiCond161) ?BRET_EXT load(1, XDATA, add(CFA_XSP16, literal(-3)))
          CFI (cfiCond161) DPL0 load(1, XDATA, add(CFA_XSP16, literal(-2)))
          CFI (cfiCond161) DPH0 load(1, XDATA, add(CFA_XSP16, literal(-1)))
          CFI (cfiCond161) CFA_SP SP+-4
          CFI (cfiCond161) CFA_XSP16 add(XSP16, 62)
          CFI Block cfiCond162 Using cfiCommon0
          CFI (cfiCond162) Function zclSampleThermostat_ProcessInReportCmd
          CFI (cfiCond162) Conditional ??CrossCallReturnLabel_89, ??CrossCallReturnLabel_77
          CFI (cfiCond162) R6 load(1, XDATA, add(CFA_XSP16, literal(-24)))
          CFI (cfiCond162) VB load(1, XDATA, add(CFA_XSP16, literal(-23)))
          CFI (cfiCond162) V0 load(1, XDATA, add(CFA_XSP16, literal(-22)))
          CFI (cfiCond162) V1 load(1, XDATA, add(CFA_XSP16, literal(-21)))
          CFI (cfiCond162) V2 load(1, XDATA, add(CFA_XSP16, literal(-20)))
          CFI (cfiCond162) V3 load(1, XDATA, add(CFA_XSP16, literal(-19)))
          CFI (cfiCond162) V4 load(1, XDATA, add(CFA_XSP16, literal(-18)))
          CFI (cfiCond162) V5 load(1, XDATA, add(CFA_XSP16, literal(-17)))
          CFI (cfiCond162) V6 load(1, XDATA, add(CFA_XSP16, literal(-16)))
          CFI (cfiCond162) V7 load(1, XDATA, add(CFA_XSP16, literal(-15)))
          CFI (cfiCond162) V8 load(1, XDATA, add(CFA_XSP16, literal(-14)))
          CFI (cfiCond162) V9 load(1, XDATA, add(CFA_XSP16, literal(-13)))
          CFI (cfiCond162) V10 load(1, XDATA, add(CFA_XSP16, literal(-12)))
          CFI (cfiCond162) V11 load(1, XDATA, add(CFA_XSP16, literal(-11)))
          CFI (cfiCond162) V12 load(1, XDATA, add(CFA_XSP16, literal(-10)))
          CFI (cfiCond162) V13 load(1, XDATA, add(CFA_XSP16, literal(-9)))
          CFI (cfiCond162) V14 load(1, XDATA, add(CFA_XSP16, literal(-8)))
          CFI (cfiCond162) V15 load(1, XDATA, add(CFA_XSP16, literal(-7)))
          CFI (cfiCond162) R7 load(1, XDATA, add(CFA_XSP16, literal(-6)))
          CFI (cfiCond162) ?RET_LOW load(1, XDATA, add(CFA_XSP16, literal(-5)))
          CFI (cfiCond162) ?RET_HIGH load(1, XDATA, add(CFA_XSP16, literal(-4)))
          CFI (cfiCond162) ?BRET_EXT load(1, XDATA, add(CFA_XSP16, literal(-3)))
          CFI (cfiCond162) DPL0 load(1, XDATA, add(CFA_XSP16, literal(-2)))
          CFI (cfiCond162) DPH0 load(1, XDATA, add(CFA_XSP16, literal(-1)))
          CFI (cfiCond162) CFA_SP SP+-4
          CFI (cfiCond162) CFA_XSP16 add(XSP16, 62)
          CFI Block cfiCond163 Using cfiCommon0
          CFI (cfiCond163) Function zclSampleThermostat_HandleKeys
          CFI (cfiCond163) Conditional ??CrossCallReturnLabel_89, ??CrossCallReturnLabel_75
          CFI (cfiCond163) R6 load(1, XDATA, add(CFA_XSP16, literal(-16)))
          CFI (cfiCond163) VB load(1, XDATA, add(CFA_XSP16, literal(-15)))
          CFI (cfiCond163) V0 load(1, XDATA, add(CFA_XSP16, literal(-14)))
          CFI (cfiCond163) V1 load(1, XDATA, add(CFA_XSP16, literal(-13)))
          CFI (cfiCond163) V2 load(1, XDATA, add(CFA_XSP16, literal(-12)))
          CFI (cfiCond163) V3 load(1, XDATA, add(CFA_XSP16, literal(-11)))
          CFI (cfiCond163) V4 load(1, XDATA, add(CFA_XSP16, literal(-10)))
          CFI (cfiCond163) V5 load(1, XDATA, add(CFA_XSP16, literal(-9)))
          CFI (cfiCond163) V6 load(1, XDATA, add(CFA_XSP16, literal(-8)))
          CFI (cfiCond163) V7 load(1, XDATA, add(CFA_XSP16, literal(-7)))
          CFI (cfiCond163) R7 load(1, XDATA, add(CFA_XSP16, literal(-6)))
          CFI (cfiCond163) ?RET_LOW load(1, XDATA, add(CFA_XSP16, literal(-5)))
          CFI (cfiCond163) ?RET_HIGH load(1, XDATA, add(CFA_XSP16, literal(-4)))
          CFI (cfiCond163) ?BRET_EXT load(1, XDATA, add(CFA_XSP16, literal(-3)))
          CFI (cfiCond163) DPL0 load(1, XDATA, add(CFA_XSP16, literal(-2)))
          CFI (cfiCond163) DPH0 load(1, XDATA, add(CFA_XSP16, literal(-1)))
          CFI (cfiCond163) CFA_SP SP+-4
          CFI (cfiCond163) CFA_XSP16 add(XSP16, 29)
          CFI Block cfiCond164 Using cfiCommon0
          CFI (cfiCond164) Function zclSampleThermostat_HandleKeys
          CFI (cfiCond164) Conditional ??CrossCallReturnLabel_89, ??CrossCallReturnLabel_66
          CFI (cfiCond164) R6 load(1, XDATA, add(CFA_XSP16, literal(-16)))
          CFI (cfiCond164) VB load(1, XDATA, add(CFA_XSP16, literal(-15)))
          CFI (cfiCond164) V0 load(1, XDATA, add(CFA_XSP16, literal(-14)))
          CFI (cfiCond164) V1 load(1, XDATA, add(CFA_XSP16, literal(-13)))
          CFI (cfiCond164) V2 load(1, XDATA, add(CFA_XSP16, literal(-12)))
          CFI (cfiCond164) V3 load(1, XDATA, add(CFA_XSP16, literal(-11)))
          CFI (cfiCond164) V4 load(1, XDATA, add(CFA_XSP16, literal(-10)))
          CFI (cfiCond164) V5 load(1, XDATA, add(CFA_XSP16, literal(-9)))
          CFI (cfiCond164) V6 load(1, XDATA, add(CFA_XSP16, literal(-8)))
          CFI (cfiCond164) V7 load(1, XDATA, add(CFA_XSP16, literal(-7)))
          CFI (cfiCond164) R7 load(1, XDATA, add(CFA_XSP16, literal(-6)))
          CFI (cfiCond164) ?RET_LOW load(1, XDATA, add(CFA_XSP16, literal(-5)))
          CFI (cfiCond164) ?RET_HIGH load(1, XDATA, add(CFA_XSP16, literal(-4)))
          CFI (cfiCond164) ?BRET_EXT load(1, XDATA, add(CFA_XSP16, literal(-3)))
          CFI (cfiCond164) DPL0 load(1, XDATA, add(CFA_XSP16, literal(-2)))
          CFI (cfiCond164) DPH0 load(1, XDATA, add(CFA_XSP16, literal(-1)))
          CFI (cfiCond164) CFA_SP SP+-4
          CFI (cfiCond164) CFA_XSP16 add(XSP16, 29)
          CFI Block cfiCond165 Using cfiCommon0
          CFI (cfiCond165) Function zclSampleThermostat_HandleKeys
          CFI (cfiCond165) Conditional ??CrossCallReturnLabel_89, ??CrossCallReturnLabel_67
          CFI (cfiCond165) R6 load(1, XDATA, add(CFA_XSP16, literal(-16)))
          CFI (cfiCond165) VB load(1, XDATA, add(CFA_XSP16, literal(-15)))
          CFI (cfiCond165) V0 load(1, XDATA, add(CFA_XSP16, literal(-14)))
          CFI (cfiCond165) V1 load(1, XDATA, add(CFA_XSP16, literal(-13)))
          CFI (cfiCond165) V2 load(1, XDATA, add(CFA_XSP16, literal(-12)))
          CFI (cfiCond165) V3 load(1, XDATA, add(CFA_XSP16, literal(-11)))
          CFI (cfiCond165) V4 load(1, XDATA, add(CFA_XSP16, literal(-10)))
          CFI (cfiCond165) V5 load(1, XDATA, add(CFA_XSP16, literal(-9)))
          CFI (cfiCond165) V6 load(1, XDATA, add(CFA_XSP16, literal(-8)))
          CFI (cfiCond165) V7 load(1, XDATA, add(CFA_XSP16, literal(-7)))
          CFI (cfiCond165) R7 load(1, XDATA, add(CFA_XSP16, literal(-6)))
          CFI (cfiCond165) ?RET_LOW load(1, XDATA, add(CFA_XSP16, literal(-5)))
          CFI (cfiCond165) ?RET_HIGH load(1, XDATA, add(CFA_XSP16, literal(-4)))
          CFI (cfiCond165) ?BRET_EXT load(1, XDATA, add(CFA_XSP16, literal(-3)))
          CFI (cfiCond165) DPL0 load(1, XDATA, add(CFA_XSP16, literal(-2)))
          CFI (cfiCond165) DPH0 load(1, XDATA, add(CFA_XSP16, literal(-1)))
          CFI (cfiCond165) CFA_SP SP+-4
          CFI (cfiCond165) CFA_XSP16 add(XSP16, 29)
          CFI Block cfiCond166 Using cfiCommon0
          CFI (cfiCond166) Function zclSampleThermostat_HandleKeys
          CFI (cfiCond166) Conditional ??CrossCallReturnLabel_89, ??CrossCallReturnLabel_68
          CFI (cfiCond166) R6 load(1, XDATA, add(CFA_XSP16, literal(-16)))
          CFI (cfiCond166) VB load(1, XDATA, add(CFA_XSP16, literal(-15)))
          CFI (cfiCond166) V0 load(1, XDATA, add(CFA_XSP16, literal(-14)))
          CFI (cfiCond166) V1 load(1, XDATA, add(CFA_XSP16, literal(-13)))
          CFI (cfiCond166) V2 load(1, XDATA, add(CFA_XSP16, literal(-12)))
          CFI (cfiCond166) V3 load(1, XDATA, add(CFA_XSP16, literal(-11)))
          CFI (cfiCond166) V4 load(1, XDATA, add(CFA_XSP16, literal(-10)))
          CFI (cfiCond166) V5 load(1, XDATA, add(CFA_XSP16, literal(-9)))
          CFI (cfiCond166) V6 load(1, XDATA, add(CFA_XSP16, literal(-8)))
          CFI (cfiCond166) V7 load(1, XDATA, add(CFA_XSP16, literal(-7)))
          CFI (cfiCond166) R7 load(1, XDATA, add(CFA_XSP16, literal(-6)))
          CFI (cfiCond166) ?RET_LOW load(1, XDATA, add(CFA_XSP16, literal(-5)))
          CFI (cfiCond166) ?RET_HIGH load(1, XDATA, add(CFA_XSP16, literal(-4)))
          CFI (cfiCond166) ?BRET_EXT load(1, XDATA, add(CFA_XSP16, literal(-3)))
          CFI (cfiCond166) DPL0 load(1, XDATA, add(CFA_XSP16, literal(-2)))
          CFI (cfiCond166) DPH0 load(1, XDATA, add(CFA_XSP16, literal(-1)))
          CFI (cfiCond166) CFA_SP SP+-4
          CFI (cfiCond166) CFA_XSP16 add(XSP16, 29)
          CFI Block cfiCond167 Using cfiCommon0
          CFI (cfiCond167) Function zclSampleThermostat_HandleKeys
          CFI (cfiCond167) Conditional ??CrossCallReturnLabel_89, ??CrossCallReturnLabel_69
          CFI (cfiCond167) R6 load(1, XDATA, add(CFA_XSP16, literal(-16)))
          CFI (cfiCond167) VB load(1, XDATA, add(CFA_XSP16, literal(-15)))
          CFI (cfiCond167) V0 load(1, XDATA, add(CFA_XSP16, literal(-14)))
          CFI (cfiCond167) V1 load(1, XDATA, add(CFA_XSP16, literal(-13)))
          CFI (cfiCond167) V2 load(1, XDATA, add(CFA_XSP16, literal(-12)))
          CFI (cfiCond167) V3 load(1, XDATA, add(CFA_XSP16, literal(-11)))
          CFI (cfiCond167) V4 load(1, XDATA, add(CFA_XSP16, literal(-10)))
          CFI (cfiCond167) V5 load(1, XDATA, add(CFA_XSP16, literal(-9)))
          CFI (cfiCond167) V6 load(1, XDATA, add(CFA_XSP16, literal(-8)))
          CFI (cfiCond167) V7 load(1, XDATA, add(CFA_XSP16, literal(-7)))
          CFI (cfiCond167) R7 load(1, XDATA, add(CFA_XSP16, literal(-6)))
          CFI (cfiCond167) ?RET_LOW load(1, XDATA, add(CFA_XSP16, literal(-5)))
          CFI (cfiCond167) ?RET_HIGH load(1, XDATA, add(CFA_XSP16, literal(-4)))
          CFI (cfiCond167) ?BRET_EXT load(1, XDATA, add(CFA_XSP16, literal(-3)))
          CFI (cfiCond167) DPL0 load(1, XDATA, add(CFA_XSP16, literal(-2)))
          CFI (cfiCond167) DPH0 load(1, XDATA, add(CFA_XSP16, literal(-1)))
          CFI (cfiCond167) CFA_SP SP+-4
          CFI (cfiCond167) CFA_XSP16 add(XSP16, 29)
          CFI Block cfiCond168 Using cfiCommon0
          CFI (cfiCond168) Function zclSampleThermostat_HandleKeys
          CFI (cfiCond168) Conditional ??CrossCallReturnLabel_89, ??CrossCallReturnLabel_70
          CFI (cfiCond168) R6 load(1, XDATA, add(CFA_XSP16, literal(-16)))
          CFI (cfiCond168) VB load(1, XDATA, add(CFA_XSP16, literal(-15)))
          CFI (cfiCond168) V0 load(1, XDATA, add(CFA_XSP16, literal(-14)))
          CFI (cfiCond168) V1 load(1, XDATA, add(CFA_XSP16, literal(-13)))
          CFI (cfiCond168) V2 load(1, XDATA, add(CFA_XSP16, literal(-12)))
          CFI (cfiCond168) V3 load(1, XDATA, add(CFA_XSP16, literal(-11)))
          CFI (cfiCond168) V4 load(1, XDATA, add(CFA_XSP16, literal(-10)))
          CFI (cfiCond168) V5 load(1, XDATA, add(CFA_XSP16, literal(-9)))
          CFI (cfiCond168) V6 load(1, XDATA, add(CFA_XSP16, literal(-8)))
          CFI (cfiCond168) V7 load(1, XDATA, add(CFA_XSP16, literal(-7)))
          CFI (cfiCond168) R7 load(1, XDATA, add(CFA_XSP16, literal(-6)))
          CFI (cfiCond168) ?RET_LOW load(1, XDATA, add(CFA_XSP16, literal(-5)))
          CFI (cfiCond168) ?RET_HIGH load(1, XDATA, add(CFA_XSP16, literal(-4)))
          CFI (cfiCond168) ?BRET_EXT load(1, XDATA, add(CFA_XSP16, literal(-3)))
          CFI (cfiCond168) DPL0 load(1, XDATA, add(CFA_XSP16, literal(-2)))
          CFI (cfiCond168) DPH0 load(1, XDATA, add(CFA_XSP16, literal(-1)))
          CFI (cfiCond168) CFA_SP SP+-4
          CFI (cfiCond168) CFA_XSP16 add(XSP16, 29)
          CFI Block cfiCond169 Using cfiCommon0
          CFI (cfiCond169) Function zclSampleThermostat_HandleKeys
          CFI (cfiCond169) Conditional ??CrossCallReturnLabel_89, ??CrossCallReturnLabel_71
          CFI (cfiCond169) R6 load(1, XDATA, add(CFA_XSP16, literal(-16)))
          CFI (cfiCond169) VB load(1, XDATA, add(CFA_XSP16, literal(-15)))
          CFI (cfiCond169) V0 load(1, XDATA, add(CFA_XSP16, literal(-14)))
          CFI (cfiCond169) V1 load(1, XDATA, add(CFA_XSP16, literal(-13)))
          CFI (cfiCond169) V2 load(1, XDATA, add(CFA_XSP16, literal(-12)))
          CFI (cfiCond169) V3 load(1, XDATA, add(CFA_XSP16, literal(-11)))
          CFI (cfiCond169) V4 load(1, XDATA, add(CFA_XSP16, literal(-10)))
          CFI (cfiCond169) V5 load(1, XDATA, add(CFA_XSP16, literal(-9)))
          CFI (cfiCond169) V6 load(1, XDATA, add(CFA_XSP16, literal(-8)))
          CFI (cfiCond169) V7 load(1, XDATA, add(CFA_XSP16, literal(-7)))
          CFI (cfiCond169) R7 load(1, XDATA, add(CFA_XSP16, literal(-6)))
          CFI (cfiCond169) ?RET_LOW load(1, XDATA, add(CFA_XSP16, literal(-5)))
          CFI (cfiCond169) ?RET_HIGH load(1, XDATA, add(CFA_XSP16, literal(-4)))
          CFI (cfiCond169) ?BRET_EXT load(1, XDATA, add(CFA_XSP16, literal(-3)))
          CFI (cfiCond169) DPL0 load(1, XDATA, add(CFA_XSP16, literal(-2)))
          CFI (cfiCond169) DPH0 load(1, XDATA, add(CFA_XSP16, literal(-1)))
          CFI (cfiCond169) CFA_SP SP+-4
          CFI (cfiCond169) CFA_XSP16 add(XSP16, 29)
          CFI Block cfiCond170 Using cfiCommon0
          CFI (cfiCond170) Function zclSampleThermostat_HandleKeys
          CFI (cfiCond170) Conditional ??CrossCallReturnLabel_89, ??CrossCallReturnLabel_72
          CFI (cfiCond170) R6 load(1, XDATA, add(CFA_XSP16, literal(-16)))
          CFI (cfiCond170) VB load(1, XDATA, add(CFA_XSP16, literal(-15)))
          CFI (cfiCond170) V0 load(1, XDATA, add(CFA_XSP16, literal(-14)))
          CFI (cfiCond170) V1 load(1, XDATA, add(CFA_XSP16, literal(-13)))
          CFI (cfiCond170) V2 load(1, XDATA, add(CFA_XSP16, literal(-12)))
          CFI (cfiCond170) V3 load(1, XDATA, add(CFA_XSP16, literal(-11)))
          CFI (cfiCond170) V4 load(1, XDATA, add(CFA_XSP16, literal(-10)))
          CFI (cfiCond170) V5 load(1, XDATA, add(CFA_XSP16, literal(-9)))
          CFI (cfiCond170) V6 load(1, XDATA, add(CFA_XSP16, literal(-8)))
          CFI (cfiCond170) V7 load(1, XDATA, add(CFA_XSP16, literal(-7)))
          CFI (cfiCond170) R7 load(1, XDATA, add(CFA_XSP16, literal(-6)))
          CFI (cfiCond170) ?RET_LOW load(1, XDATA, add(CFA_XSP16, literal(-5)))
          CFI (cfiCond170) ?RET_HIGH load(1, XDATA, add(CFA_XSP16, literal(-4)))
          CFI (cfiCond170) ?BRET_EXT load(1, XDATA, add(CFA_XSP16, literal(-3)))
          CFI (cfiCond170) DPL0 load(1, XDATA, add(CFA_XSP16, literal(-2)))
          CFI (cfiCond170) DPH0 load(1, XDATA, add(CFA_XSP16, literal(-1)))
          CFI (cfiCond170) CFA_SP SP+-4
          CFI (cfiCond170) CFA_XSP16 add(XSP16, 29)
          CFI Block cfiCond171 Using cfiCommon0
          CFI (cfiCond171) Function zclSampleThermostat_ProcessInReportCmd
          CFI (cfiCond171) Conditional ??CrossCallReturnLabel_89, ??CrossCallReturnLabel_73
          CFI (cfiCond171) R6 load(1, XDATA, add(CFA_XSP16, literal(-24)))
          CFI (cfiCond171) VB load(1, XDATA, add(CFA_XSP16, literal(-23)))
          CFI (cfiCond171) V0 load(1, XDATA, add(CFA_XSP16, literal(-22)))
          CFI (cfiCond171) V1 load(1, XDATA, add(CFA_XSP16, literal(-21)))
          CFI (cfiCond171) V2 load(1, XDATA, add(CFA_XSP16, literal(-20)))
          CFI (cfiCond171) V3 load(1, XDATA, add(CFA_XSP16, literal(-19)))
          CFI (cfiCond171) V4 load(1, XDATA, add(CFA_XSP16, literal(-18)))
          CFI (cfiCond171) V5 load(1, XDATA, add(CFA_XSP16, literal(-17)))
          CFI (cfiCond171) V6 load(1, XDATA, add(CFA_XSP16, literal(-16)))
          CFI (cfiCond171) V7 load(1, XDATA, add(CFA_XSP16, literal(-15)))
          CFI (cfiCond171) V8 load(1, XDATA, add(CFA_XSP16, literal(-14)))
          CFI (cfiCond171) V9 load(1, XDATA, add(CFA_XSP16, literal(-13)))
          CFI (cfiCond171) V10 load(1, XDATA, add(CFA_XSP16, literal(-12)))
          CFI (cfiCond171) V11 load(1, XDATA, add(CFA_XSP16, literal(-11)))
          CFI (cfiCond171) V12 load(1, XDATA, add(CFA_XSP16, literal(-10)))
          CFI (cfiCond171) V13 load(1, XDATA, add(CFA_XSP16, literal(-9)))
          CFI (cfiCond171) V14 load(1, XDATA, add(CFA_XSP16, literal(-8)))
          CFI (cfiCond171) V15 load(1, XDATA, add(CFA_XSP16, literal(-7)))
          CFI (cfiCond171) R7 load(1, XDATA, add(CFA_XSP16, literal(-6)))
          CFI (cfiCond171) ?RET_LOW load(1, XDATA, add(CFA_XSP16, literal(-5)))
          CFI (cfiCond171) ?RET_HIGH load(1, XDATA, add(CFA_XSP16, literal(-4)))
          CFI (cfiCond171) ?BRET_EXT load(1, XDATA, add(CFA_XSP16, literal(-3)))
          CFI (cfiCond171) DPL0 load(1, XDATA, add(CFA_XSP16, literal(-2)))
          CFI (cfiCond171) DPH0 load(1, XDATA, add(CFA_XSP16, literal(-1)))
          CFI (cfiCond171) CFA_SP SP+-4
          CFI (cfiCond171) CFA_XSP16 add(XSP16, 62)
          CFI Block cfiCond172 Using cfiCommon0
          CFI (cfiCond172) Function zclSampleThermostat_ProcessInReportCmd
          CFI (cfiCond172) Conditional ??CrossCallReturnLabel_89, ??CrossCallReturnLabel_74
          CFI (cfiCond172) R6 load(1, XDATA, add(CFA_XSP16, literal(-24)))
          CFI (cfiCond172) VB load(1, XDATA, add(CFA_XSP16, literal(-23)))
          CFI (cfiCond172) V0 load(1, XDATA, add(CFA_XSP16, literal(-22)))
          CFI (cfiCond172) V1 load(1, XDATA, add(CFA_XSP16, literal(-21)))
          CFI (cfiCond172) V2 load(1, XDATA, add(CFA_XSP16, literal(-20)))
          CFI (cfiCond172) V3 load(1, XDATA, add(CFA_XSP16, literal(-19)))
          CFI (cfiCond172) V4 load(1, XDATA, add(CFA_XSP16, literal(-18)))
          CFI (cfiCond172) V5 load(1, XDATA, add(CFA_XSP16, literal(-17)))
          CFI (cfiCond172) V6 load(1, XDATA, add(CFA_XSP16, literal(-16)))
          CFI (cfiCond172) V7 load(1, XDATA, add(CFA_XSP16, literal(-15)))
          CFI (cfiCond172) V8 load(1, XDATA, add(CFA_XSP16, literal(-14)))
          CFI (cfiCond172) V9 load(1, XDATA, add(CFA_XSP16, literal(-13)))
          CFI (cfiCond172) V10 load(1, XDATA, add(CFA_XSP16, literal(-12)))
          CFI (cfiCond172) V11 load(1, XDATA, add(CFA_XSP16, literal(-11)))
          CFI (cfiCond172) V12 load(1, XDATA, add(CFA_XSP16, literal(-10)))
          CFI (cfiCond172) V13 load(1, XDATA, add(CFA_XSP16, literal(-9)))
          CFI (cfiCond172) V14 load(1, XDATA, add(CFA_XSP16, literal(-8)))
          CFI (cfiCond172) V15 load(1, XDATA, add(CFA_XSP16, literal(-7)))
          CFI (cfiCond172) R7 load(1, XDATA, add(CFA_XSP16, literal(-6)))
          CFI (cfiCond172) ?RET_LOW load(1, XDATA, add(CFA_XSP16, literal(-5)))
          CFI (cfiCond172) ?RET_HIGH load(1, XDATA, add(CFA_XSP16, literal(-4)))
          CFI (cfiCond172) ?BRET_EXT load(1, XDATA, add(CFA_XSP16, literal(-3)))
          CFI (cfiCond172) DPL0 load(1, XDATA, add(CFA_XSP16, literal(-2)))
          CFI (cfiCond172) DPH0 load(1, XDATA, add(CFA_XSP16, literal(-1)))
          CFI (cfiCond172) CFA_SP SP+-4
          CFI (cfiCond172) CFA_XSP16 add(XSP16, 62)
          CFI Block cfiCond173 Using cfiCommon0
          CFI (cfiCond173) Function zclSampleThermostat_ProcessInReportCmd
          CFI (cfiCond173) Conditional ??CrossCallReturnLabel_90, ??CrossCallReturnLabel_84
          CFI (cfiCond173) R6 load(1, XDATA, add(CFA_XSP16, literal(-24)))
          CFI (cfiCond173) VB load(1, XDATA, add(CFA_XSP16, literal(-23)))
          CFI (cfiCond173) V0 load(1, XDATA, add(CFA_XSP16, literal(-22)))
          CFI (cfiCond173) V1 load(1, XDATA, add(CFA_XSP16, literal(-21)))
          CFI (cfiCond173) V2 load(1, XDATA, add(CFA_XSP16, literal(-20)))
          CFI (cfiCond173) V3 load(1, XDATA, add(CFA_XSP16, literal(-19)))
          CFI (cfiCond173) V4 load(1, XDATA, add(CFA_XSP16, literal(-18)))
          CFI (cfiCond173) V5 load(1, XDATA, add(CFA_XSP16, literal(-17)))
          CFI (cfiCond173) V6 load(1, XDATA, add(CFA_XSP16, literal(-16)))
          CFI (cfiCond173) V7 load(1, XDATA, add(CFA_XSP16, literal(-15)))
          CFI (cfiCond173) V8 load(1, XDATA, add(CFA_XSP16, literal(-14)))
          CFI (cfiCond173) V9 load(1, XDATA, add(CFA_XSP16, literal(-13)))
          CFI (cfiCond173) V10 load(1, XDATA, add(CFA_XSP16, literal(-12)))
          CFI (cfiCond173) V11 load(1, XDATA, add(CFA_XSP16, literal(-11)))
          CFI (cfiCond173) V12 load(1, XDATA, add(CFA_XSP16, literal(-10)))
          CFI (cfiCond173) V13 load(1, XDATA, add(CFA_XSP16, literal(-9)))
          CFI (cfiCond173) V14 load(1, XDATA, add(CFA_XSP16, literal(-8)))
          CFI (cfiCond173) V15 load(1, XDATA, add(CFA_XSP16, literal(-7)))
          CFI (cfiCond173) R7 load(1, XDATA, add(CFA_XSP16, literal(-6)))
          CFI (cfiCond173) ?RET_LOW load(1, XDATA, add(CFA_XSP16, literal(-5)))
          CFI (cfiCond173) ?RET_HIGH load(1, XDATA, add(CFA_XSP16, literal(-4)))
          CFI (cfiCond173) ?BRET_EXT load(1, XDATA, add(CFA_XSP16, literal(-3)))
          CFI (cfiCond173) DPL0 load(1, XDATA, add(CFA_XSP16, literal(-2)))
          CFI (cfiCond173) DPH0 load(1, XDATA, add(CFA_XSP16, literal(-1)))
          CFI (cfiCond173) CFA_SP SP+-4
          CFI (cfiCond173) CFA_XSP16 add(XSP16, 62)
          CFI Block cfiCond174 Using cfiCommon0
          CFI (cfiCond174) Function zclSampleThermostat_ProcessInReportCmd
          CFI (cfiCond174) Conditional ??CrossCallReturnLabel_90, ??CrossCallReturnLabel_85
          CFI (cfiCond174) R6 load(1, XDATA, add(CFA_XSP16, literal(-24)))
          CFI (cfiCond174) VB load(1, XDATA, add(CFA_XSP16, literal(-23)))
          CFI (cfiCond174) V0 load(1, XDATA, add(CFA_XSP16, literal(-22)))
          CFI (cfiCond174) V1 load(1, XDATA, add(CFA_XSP16, literal(-21)))
          CFI (cfiCond174) V2 load(1, XDATA, add(CFA_XSP16, literal(-20)))
          CFI (cfiCond174) V3 load(1, XDATA, add(CFA_XSP16, literal(-19)))
          CFI (cfiCond174) V4 load(1, XDATA, add(CFA_XSP16, literal(-18)))
          CFI (cfiCond174) V5 load(1, XDATA, add(CFA_XSP16, literal(-17)))
          CFI (cfiCond174) V6 load(1, XDATA, add(CFA_XSP16, literal(-16)))
          CFI (cfiCond174) V7 load(1, XDATA, add(CFA_XSP16, literal(-15)))
          CFI (cfiCond174) V8 load(1, XDATA, add(CFA_XSP16, literal(-14)))
          CFI (cfiCond174) V9 load(1, XDATA, add(CFA_XSP16, literal(-13)))
          CFI (cfiCond174) V10 load(1, XDATA, add(CFA_XSP16, literal(-12)))
          CFI (cfiCond174) V11 load(1, XDATA, add(CFA_XSP16, literal(-11)))
          CFI (cfiCond174) V12 load(1, XDATA, add(CFA_XSP16, literal(-10)))
          CFI (cfiCond174) V13 load(1, XDATA, add(CFA_XSP16, literal(-9)))
          CFI (cfiCond174) V14 load(1, XDATA, add(CFA_XSP16, literal(-8)))
          CFI (cfiCond174) V15 load(1, XDATA, add(CFA_XSP16, literal(-7)))
          CFI (cfiCond174) R7 load(1, XDATA, add(CFA_XSP16, literal(-6)))
          CFI (cfiCond174) ?RET_LOW load(1, XDATA, add(CFA_XSP16, literal(-5)))
          CFI (cfiCond174) ?RET_HIGH load(1, XDATA, add(CFA_XSP16, literal(-4)))
          CFI (cfiCond174) ?BRET_EXT load(1, XDATA, add(CFA_XSP16, literal(-3)))
          CFI (cfiCond174) DPL0 load(1, XDATA, add(CFA_XSP16, literal(-2)))
          CFI (cfiCond174) DPH0 load(1, XDATA, add(CFA_XSP16, literal(-1)))
          CFI (cfiCond174) CFA_SP SP+-4
          CFI (cfiCond174) CFA_XSP16 add(XSP16, 62)
          CFI Block cfiCond175 Using cfiCommon0
          CFI (cfiCond175) Function zclSampleThermostat_ProcessInReportCmd
          CFI (cfiCond175) Conditional ??CrossCallReturnLabel_90, ??CrossCallReturnLabel_86
          CFI (cfiCond175) R6 load(1, XDATA, add(CFA_XSP16, literal(-24)))
          CFI (cfiCond175) VB load(1, XDATA, add(CFA_XSP16, literal(-23)))
          CFI (cfiCond175) V0 load(1, XDATA, add(CFA_XSP16, literal(-22)))
          CFI (cfiCond175) V1 load(1, XDATA, add(CFA_XSP16, literal(-21)))
          CFI (cfiCond175) V2 load(1, XDATA, add(CFA_XSP16, literal(-20)))
          CFI (cfiCond175) V3 load(1, XDATA, add(CFA_XSP16, literal(-19)))
          CFI (cfiCond175) V4 load(1, XDATA, add(CFA_XSP16, literal(-18)))
          CFI (cfiCond175) V5 load(1, XDATA, add(CFA_XSP16, literal(-17)))
          CFI (cfiCond175) V6 load(1, XDATA, add(CFA_XSP16, literal(-16)))
          CFI (cfiCond175) V7 load(1, XDATA, add(CFA_XSP16, literal(-15)))
          CFI (cfiCond175) V8 load(1, XDATA, add(CFA_XSP16, literal(-14)))
          CFI (cfiCond175) V9 load(1, XDATA, add(CFA_XSP16, literal(-13)))
          CFI (cfiCond175) V10 load(1, XDATA, add(CFA_XSP16, literal(-12)))
          CFI (cfiCond175) V11 load(1, XDATA, add(CFA_XSP16, literal(-11)))
          CFI (cfiCond175) V12 load(1, XDATA, add(CFA_XSP16, literal(-10)))
          CFI (cfiCond175) V13 load(1, XDATA, add(CFA_XSP16, literal(-9)))
          CFI (cfiCond175) V14 load(1, XDATA, add(CFA_XSP16, literal(-8)))
          CFI (cfiCond175) V15 load(1, XDATA, add(CFA_XSP16, literal(-7)))
          CFI (cfiCond175) R7 load(1, XDATA, add(CFA_XSP16, literal(-6)))
          CFI (cfiCond175) ?RET_LOW load(1, XDATA, add(CFA_XSP16, literal(-5)))
          CFI (cfiCond175) ?RET_HIGH load(1, XDATA, add(CFA_XSP16, literal(-4)))
          CFI (cfiCond175) ?BRET_EXT load(1, XDATA, add(CFA_XSP16, literal(-3)))
          CFI (cfiCond175) DPL0 load(1, XDATA, add(CFA_XSP16, literal(-2)))
          CFI (cfiCond175) DPH0 load(1, XDATA, add(CFA_XSP16, literal(-1)))
          CFI (cfiCond175) CFA_SP SP+-4
          CFI (cfiCond175) CFA_XSP16 add(XSP16, 62)
          CFI Block cfiCond176 Using cfiCommon0
          CFI (cfiCond176) Function zclSampleThermostat_ProcessInReportCmd
          CFI (cfiCond176) Conditional ??CrossCallReturnLabel_90, ??CrossCallReturnLabel_87
          CFI (cfiCond176) R6 load(1, XDATA, add(CFA_XSP16, literal(-24)))
          CFI (cfiCond176) VB load(1, XDATA, add(CFA_XSP16, literal(-23)))
          CFI (cfiCond176) V0 load(1, XDATA, add(CFA_XSP16, literal(-22)))
          CFI (cfiCond176) V1 load(1, XDATA, add(CFA_XSP16, literal(-21)))
          CFI (cfiCond176) V2 load(1, XDATA, add(CFA_XSP16, literal(-20)))
          CFI (cfiCond176) V3 load(1, XDATA, add(CFA_XSP16, literal(-19)))
          CFI (cfiCond176) V4 load(1, XDATA, add(CFA_XSP16, literal(-18)))
          CFI (cfiCond176) V5 load(1, XDATA, add(CFA_XSP16, literal(-17)))
          CFI (cfiCond176) V6 load(1, XDATA, add(CFA_XSP16, literal(-16)))
          CFI (cfiCond176) V7 load(1, XDATA, add(CFA_XSP16, literal(-15)))
          CFI (cfiCond176) V8 load(1, XDATA, add(CFA_XSP16, literal(-14)))
          CFI (cfiCond176) V9 load(1, XDATA, add(CFA_XSP16, literal(-13)))
          CFI (cfiCond176) V10 load(1, XDATA, add(CFA_XSP16, literal(-12)))
          CFI (cfiCond176) V11 load(1, XDATA, add(CFA_XSP16, literal(-11)))
          CFI (cfiCond176) V12 load(1, XDATA, add(CFA_XSP16, literal(-10)))
          CFI (cfiCond176) V13 load(1, XDATA, add(CFA_XSP16, literal(-9)))
          CFI (cfiCond176) V14 load(1, XDATA, add(CFA_XSP16, literal(-8)))
          CFI (cfiCond176) V15 load(1, XDATA, add(CFA_XSP16, literal(-7)))
          CFI (cfiCond176) R7 load(1, XDATA, add(CFA_XSP16, literal(-6)))
          CFI (cfiCond176) ?RET_LOW load(1, XDATA, add(CFA_XSP16, literal(-5)))
          CFI (cfiCond176) ?RET_HIGH load(1, XDATA, add(CFA_XSP16, literal(-4)))
          CFI (cfiCond176) ?BRET_EXT load(1, XDATA, add(CFA_XSP16, literal(-3)))
          CFI (cfiCond176) DPL0 load(1, XDATA, add(CFA_XSP16, literal(-2)))
          CFI (cfiCond176) DPH0 load(1, XDATA, add(CFA_XSP16, literal(-1)))
          CFI (cfiCond176) CFA_SP SP+-4
          CFI (cfiCond176) CFA_XSP16 add(XSP16, 62)
          CFI Block cfiCond177 Using cfiCommon0
          CFI (cfiCond177) Function zclSampleThermostat_ProcessInReportCmd
          CFI (cfiCond177) Conditional ??CrossCallReturnLabel_90, ??CrossCallReturnLabel_80
          CFI (cfiCond177) R6 load(1, XDATA, add(CFA_XSP16, literal(-24)))
          CFI (cfiCond177) VB load(1, XDATA, add(CFA_XSP16, literal(-23)))
          CFI (cfiCond177) V0 load(1, XDATA, add(CFA_XSP16, literal(-22)))
          CFI (cfiCond177) V1 load(1, XDATA, add(CFA_XSP16, literal(-21)))
          CFI (cfiCond177) V2 load(1, XDATA, add(CFA_XSP16, literal(-20)))
          CFI (cfiCond177) V3 load(1, XDATA, add(CFA_XSP16, literal(-19)))
          CFI (cfiCond177) V4 load(1, XDATA, add(CFA_XSP16, literal(-18)))
          CFI (cfiCond177) V5 load(1, XDATA, add(CFA_XSP16, literal(-17)))
          CFI (cfiCond177) V6 load(1, XDATA, add(CFA_XSP16, literal(-16)))
          CFI (cfiCond177) V7 load(1, XDATA, add(CFA_XSP16, literal(-15)))
          CFI (cfiCond177) V8 load(1, XDATA, add(CFA_XSP16, literal(-14)))
          CFI (cfiCond177) V9 load(1, XDATA, add(CFA_XSP16, literal(-13)))
          CFI (cfiCond177) V10 load(1, XDATA, add(CFA_XSP16, literal(-12)))
          CFI (cfiCond177) V11 load(1, XDATA, add(CFA_XSP16, literal(-11)))
          CFI (cfiCond177) V12 load(1, XDATA, add(CFA_XSP16, literal(-10)))
          CFI (cfiCond177) V13 load(1, XDATA, add(CFA_XSP16, literal(-9)))
          CFI (cfiCond177) V14 load(1, XDATA, add(CFA_XSP16, literal(-8)))
          CFI (cfiCond177) V15 load(1, XDATA, add(CFA_XSP16, literal(-7)))
          CFI (cfiCond177) R7 load(1, XDATA, add(CFA_XSP16, literal(-6)))
          CFI (cfiCond177) ?RET_LOW load(1, XDATA, add(CFA_XSP16, literal(-5)))
          CFI (cfiCond177) ?RET_HIGH load(1, XDATA, add(CFA_XSP16, literal(-4)))
          CFI (cfiCond177) ?BRET_EXT load(1, XDATA, add(CFA_XSP16, literal(-3)))
          CFI (cfiCond177) DPL0 load(1, XDATA, add(CFA_XSP16, literal(-2)))
          CFI (cfiCond177) DPH0 load(1, XDATA, add(CFA_XSP16, literal(-1)))
          CFI (cfiCond177) CFA_SP SP+-4
          CFI (cfiCond177) CFA_XSP16 add(XSP16, 62)
          CFI Block cfiCond178 Using cfiCommon0
          CFI (cfiCond178) Function zclSampleThermostat_ProcessInReportCmd
          CFI (cfiCond178) Conditional ??CrossCallReturnLabel_90, ??CrossCallReturnLabel_81
          CFI (cfiCond178) R6 load(1, XDATA, add(CFA_XSP16, literal(-24)))
          CFI (cfiCond178) VB load(1, XDATA, add(CFA_XSP16, literal(-23)))
          CFI (cfiCond178) V0 load(1, XDATA, add(CFA_XSP16, literal(-22)))
          CFI (cfiCond178) V1 load(1, XDATA, add(CFA_XSP16, literal(-21)))
          CFI (cfiCond178) V2 load(1, XDATA, add(CFA_XSP16, literal(-20)))
          CFI (cfiCond178) V3 load(1, XDATA, add(CFA_XSP16, literal(-19)))
          CFI (cfiCond178) V4 load(1, XDATA, add(CFA_XSP16, literal(-18)))
          CFI (cfiCond178) V5 load(1, XDATA, add(CFA_XSP16, literal(-17)))
          CFI (cfiCond178) V6 load(1, XDATA, add(CFA_XSP16, literal(-16)))
          CFI (cfiCond178) V7 load(1, XDATA, add(CFA_XSP16, literal(-15)))
          CFI (cfiCond178) V8 load(1, XDATA, add(CFA_XSP16, literal(-14)))
          CFI (cfiCond178) V9 load(1, XDATA, add(CFA_XSP16, literal(-13)))
          CFI (cfiCond178) V10 load(1, XDATA, add(CFA_XSP16, literal(-12)))
          CFI (cfiCond178) V11 load(1, XDATA, add(CFA_XSP16, literal(-11)))
          CFI (cfiCond178) V12 load(1, XDATA, add(CFA_XSP16, literal(-10)))
          CFI (cfiCond178) V13 load(1, XDATA, add(CFA_XSP16, literal(-9)))
          CFI (cfiCond178) V14 load(1, XDATA, add(CFA_XSP16, literal(-8)))
          CFI (cfiCond178) V15 load(1, XDATA, add(CFA_XSP16, literal(-7)))
          CFI (cfiCond178) R7 load(1, XDATA, add(CFA_XSP16, literal(-6)))
          CFI (cfiCond178) ?RET_LOW load(1, XDATA, add(CFA_XSP16, literal(-5)))
          CFI (cfiCond178) ?RET_HIGH load(1, XDATA, add(CFA_XSP16, literal(-4)))
          CFI (cfiCond178) ?BRET_EXT load(1, XDATA, add(CFA_XSP16, literal(-3)))
          CFI (cfiCond178) DPL0 load(1, XDATA, add(CFA_XSP16, literal(-2)))
          CFI (cfiCond178) DPH0 load(1, XDATA, add(CFA_XSP16, literal(-1)))
          CFI (cfiCond178) CFA_SP SP+-4
          CFI (cfiCond178) CFA_XSP16 add(XSP16, 62)
          CFI Block cfiCond179 Using cfiCommon0
          CFI (cfiCond179) Function zclSampleThermostat_ProcessInReportCmd
          CFI (cfiCond179) Conditional ??CrossCallReturnLabel_90, ??CrossCallReturnLabel_82
          CFI (cfiCond179) R6 load(1, XDATA, add(CFA_XSP16, literal(-24)))
          CFI (cfiCond179) VB load(1, XDATA, add(CFA_XSP16, literal(-23)))
          CFI (cfiCond179) V0 load(1, XDATA, add(CFA_XSP16, literal(-22)))
          CFI (cfiCond179) V1 load(1, XDATA, add(CFA_XSP16, literal(-21)))
          CFI (cfiCond179) V2 load(1, XDATA, add(CFA_XSP16, literal(-20)))
          CFI (cfiCond179) V3 load(1, XDATA, add(CFA_XSP16, literal(-19)))
          CFI (cfiCond179) V4 load(1, XDATA, add(CFA_XSP16, literal(-18)))
          CFI (cfiCond179) V5 load(1, XDATA, add(CFA_XSP16, literal(-17)))
          CFI (cfiCond179) V6 load(1, XDATA, add(CFA_XSP16, literal(-16)))
          CFI (cfiCond179) V7 load(1, XDATA, add(CFA_XSP16, literal(-15)))
          CFI (cfiCond179) V8 load(1, XDATA, add(CFA_XSP16, literal(-14)))
          CFI (cfiCond179) V9 load(1, XDATA, add(CFA_XSP16, literal(-13)))
          CFI (cfiCond179) V10 load(1, XDATA, add(CFA_XSP16, literal(-12)))
          CFI (cfiCond179) V11 load(1, XDATA, add(CFA_XSP16, literal(-11)))
          CFI (cfiCond179) V12 load(1, XDATA, add(CFA_XSP16, literal(-10)))
          CFI (cfiCond179) V13 load(1, XDATA, add(CFA_XSP16, literal(-9)))
          CFI (cfiCond179) V14 load(1, XDATA, add(CFA_XSP16, literal(-8)))
          CFI (cfiCond179) V15 load(1, XDATA, add(CFA_XSP16, literal(-7)))
          CFI (cfiCond179) R7 load(1, XDATA, add(CFA_XSP16, literal(-6)))
          CFI (cfiCond179) ?RET_LOW load(1, XDATA, add(CFA_XSP16, literal(-5)))
          CFI (cfiCond179) ?RET_HIGH load(1, XDATA, add(CFA_XSP16, literal(-4)))
          CFI (cfiCond179) ?BRET_EXT load(1, XDATA, add(CFA_XSP16, literal(-3)))
          CFI (cfiCond179) DPL0 load(1, XDATA, add(CFA_XSP16, literal(-2)))
          CFI (cfiCond179) DPH0 load(1, XDATA, add(CFA_XSP16, literal(-1)))
          CFI (cfiCond179) CFA_SP SP+-4
          CFI (cfiCond179) CFA_XSP16 add(XSP16, 62)
          CFI Block cfiCond180 Using cfiCommon0
          CFI (cfiCond180) Function zclSampleThermostat_ProcessInReportCmd
          CFI (cfiCond180) Conditional ??CrossCallReturnLabel_90, ??CrossCallReturnLabel_83
          CFI (cfiCond180) R6 load(1, XDATA, add(CFA_XSP16, literal(-24)))
          CFI (cfiCond180) VB load(1, XDATA, add(CFA_XSP16, literal(-23)))
          CFI (cfiCond180) V0 load(1, XDATA, add(CFA_XSP16, literal(-22)))
          CFI (cfiCond180) V1 load(1, XDATA, add(CFA_XSP16, literal(-21)))
          CFI (cfiCond180) V2 load(1, XDATA, add(CFA_XSP16, literal(-20)))
          CFI (cfiCond180) V3 load(1, XDATA, add(CFA_XSP16, literal(-19)))
          CFI (cfiCond180) V4 load(1, XDATA, add(CFA_XSP16, literal(-18)))
          CFI (cfiCond180) V5 load(1, XDATA, add(CFA_XSP16, literal(-17)))
          CFI (cfiCond180) V6 load(1, XDATA, add(CFA_XSP16, literal(-16)))
          CFI (cfiCond180) V7 load(1, XDATA, add(CFA_XSP16, literal(-15)))
          CFI (cfiCond180) V8 load(1, XDATA, add(CFA_XSP16, literal(-14)))
          CFI (cfiCond180) V9 load(1, XDATA, add(CFA_XSP16, literal(-13)))
          CFI (cfiCond180) V10 load(1, XDATA, add(CFA_XSP16, literal(-12)))
          CFI (cfiCond180) V11 load(1, XDATA, add(CFA_XSP16, literal(-11)))
          CFI (cfiCond180) V12 load(1, XDATA, add(CFA_XSP16, literal(-10)))
          CFI (cfiCond180) V13 load(1, XDATA, add(CFA_XSP16, literal(-9)))
          CFI (cfiCond180) V14 load(1, XDATA, add(CFA_XSP16, literal(-8)))
          CFI (cfiCond180) V15 load(1, XDATA, add(CFA_XSP16, literal(-7)))
          CFI (cfiCond180) R7 load(1, XDATA, add(CFA_XSP16, literal(-6)))
          CFI (cfiCond180) ?RET_LOW load(1, XDATA, add(CFA_XSP16, literal(-5)))
          CFI (cfiCond180) ?RET_HIGH load(1, XDATA, add(CFA_XSP16, literal(-4)))
          CFI (cfiCond180) ?BRET_EXT load(1, XDATA, add(CFA_XSP16, literal(-3)))
          CFI (cfiCond180) DPL0 load(1, XDATA, add(CFA_XSP16, literal(-2)))
          CFI (cfiCond180) DPH0 load(1, XDATA, add(CFA_XSP16, literal(-1)))
          CFI (cfiCond180) CFA_SP SP+-4
          CFI (cfiCond180) CFA_XSP16 add(XSP16, 62)
          CFI Block cfiCond181 Using cfiCommon0
          CFI (cfiCond181) Function zclSampleThermostat_EZModeCB
          CFI (cfiCond181) Conditional ??CrossCallReturnLabel_88
          CFI (cfiCond181) R6 load(1, XDATA, add(CFA_XSP16, literal(-15)))
          CFI (cfiCond181) VB load(1, XDATA, add(CFA_XSP16, literal(-14)))
          CFI (cfiCond181) V0 load(1, XDATA, add(CFA_XSP16, literal(-13)))
          CFI (cfiCond181) V1 load(1, XDATA, add(CFA_XSP16, literal(-12)))
          CFI (cfiCond181) V2 load(1, XDATA, add(CFA_XSP16, literal(-11)))
          CFI (cfiCond181) V3 load(1, XDATA, add(CFA_XSP16, literal(-10)))
          CFI (cfiCond181) V4 load(1, XDATA, add(CFA_XSP16, literal(-9)))
          CFI (cfiCond181) V5 load(1, XDATA, add(CFA_XSP16, literal(-8)))
          CFI (cfiCond181) V6 load(1, XDATA, add(CFA_XSP16, literal(-7)))
          CFI (cfiCond181) R7 load(1, XDATA, add(CFA_XSP16, literal(-6)))
          CFI (cfiCond181) ?RET_LOW load(1, XDATA, add(CFA_XSP16, literal(-5)))
          CFI (cfiCond181) ?RET_HIGH load(1, XDATA, add(CFA_XSP16, literal(-4)))
          CFI (cfiCond181) ?BRET_EXT load(1, XDATA, add(CFA_XSP16, literal(-3)))
          CFI (cfiCond181) DPL0 load(1, XDATA, add(CFA_XSP16, literal(-2)))
          CFI (cfiCond181) DPH0 load(1, XDATA, add(CFA_XSP16, literal(-1)))
          CFI (cfiCond181) CFA_SP SP+-2
          CFI (cfiCond181) CFA_XSP16 add(XSP16, 37)
          CFI Block cfiPicker182 Using cfiCommon1
          CFI (cfiPicker182) NoFunction
          CFI (cfiPicker182) Picker
        MOVX    A,@DPTR
        MOV     R2,A
        CLR     A
        MOV     R3,A
        MOV     R4,A
        MOV     R5,A
        RET
          CFI EndBlock cfiCond159
          CFI EndBlock cfiCond160
          CFI EndBlock cfiCond161
          CFI EndBlock cfiCond162
          CFI EndBlock cfiCond163
          CFI EndBlock cfiCond164
          CFI EndBlock cfiCond165
          CFI EndBlock cfiCond166
          CFI EndBlock cfiCond167
          CFI EndBlock cfiCond168
          CFI EndBlock cfiCond169
          CFI EndBlock cfiCond170
          CFI EndBlock cfiCond171
          CFI EndBlock cfiCond172
          CFI EndBlock cfiCond173
          CFI EndBlock cfiCond174
          CFI EndBlock cfiCond175
          CFI EndBlock cfiCond176
          CFI EndBlock cfiCond177
          CFI EndBlock cfiCond178
          CFI EndBlock cfiCond179
          CFI EndBlock cfiCond180
          CFI EndBlock cfiCond181
          CFI EndBlock cfiPicker182
// 1456 #endif  // ZCL_REPORT
// 1457 
// 1458 /*********************************************************************
// 1459  * @fn      zclSampleThermostat_ProcessInDefaultRspCmd
// 1460  *
// 1461  * @brief   Process the "Profile" Default Response Command
// 1462  *
// 1463  * @param   pInMsg - incoming message to process
// 1464  *
// 1465  * @return  none
// 1466  */
// 1467 static uint8 zclSampleThermostat_ProcessInDefaultRspCmd( zclIncomingMsg_t *pInMsg )
// 1468 {
// 1469   // zclDefaultRspCmd_t *defaultRspCmd = (zclDefaultRspCmd_t *)pInMsg->attrCmd;
// 1470 
// 1471   // Device is notified of the Default Response command.
// 1472   (void)pInMsg;
// 1473 
// 1474   return ( TRUE );
// 1475 }
// 1476 
// 1477 #ifdef ZCL_EZMODE
// 1478 /*********************************************************************
// 1479  * @fn      zclSampleThermostat_ProcessZDOMsgs
// 1480  *
// 1481  * @brief   Called when this node receives a ZDO/ZDP response.
// 1482  *
// 1483  * @param   none
// 1484  *
// 1485  * @return  status
// 1486  */
// 1487 static void zclSampleThermostat_ProcessZDOMsgs( zdoIncomingMsg_t *pMsg )
// 1488 {
// 1489   zclEZMode_ActionData_t data;
// 1490   ZDO_MatchDescRsp_t *pMatchDescRsp;
// 1491 
// 1492   // Let EZ-Mode know of the Match Descriptor Response
// 1493   if ( pMsg->clusterID == Match_Desc_rsp )
// 1494   {
// 1495     pMatchDescRsp = ZDO_ParseEPListRsp( pMsg );
// 1496     data.pMatchDescRsp = pMatchDescRsp;
// 1497     zcl_EZModeAction( EZMODE_ACTION_MATCH_DESC_RSP, &data );
// 1498     osal_mem_free( pMatchDescRsp );
// 1499   }
// 1500 }
// 1501 
// 1502 /*********************************************************************
// 1503  * @fn      zclSampleThermostat_EZModeCB
// 1504  *
// 1505  * @brief   The Application is informed of events. This can be used to show on the UI what is
// 1506 *           going on during EZ-Mode steering/finding/binding.
// 1507  *
// 1508  * @param   state - EZ-Mode state
// 1509  *          pData - data appropriate to state
// 1510  *
// 1511  * @return  none
// 1512  */

        RSEG BANKED_CODE:HUGECODE:NOROOT(0)
// 1513 static void zclSampleThermostat_EZModeCB( zlcEZMode_State_t state, zclEZMode_CBData_t *pData )
zclSampleThermostat_EZModeCB:
          CFI Block cfiBlock183 Using cfiCommon0
          CFI Function zclSampleThermostat_EZModeCB
        CODE
// 1514 {
        FUNCALL zclSampleThermostat_EZModeCB, zclSampleThermostat_ProcessIdentifyTimeChange
        LOCFRAME ISTACK, 0, STACK
        LOCFRAME PSTACK, 0, STACK
        LOCFRAME XSTACK, 35, STACK
        LOCFRAME IOVERLAY, 0, STATIC
        LOCFRAME DOVERLAY, 0, STATIC
        ARGFRAME ISTACK, 0, STACK
        ARGFRAME PSTACK, 0, STACK
        ARGFRAME XSTACK, 35, STACK
        ARGFRAME IOVERLAY, 0, STATIC
        ARGFRAME DOVERLAY, 0, STATIC
        FUNCALL zclSampleThermostat_EZModeCB, HalLcdWriteString
        LOCFRAME ISTACK, 0, STACK
        LOCFRAME PSTACK, 0, STACK
        LOCFRAME XSTACK, 35, STACK
        LOCFRAME IOVERLAY, 0, STATIC
        LOCFRAME DOVERLAY, 0, STATIC
        ARGFRAME ISTACK, 0, STACK
        ARGFRAME PSTACK, 0, STACK
        ARGFRAME XSTACK, 35, STACK
        ARGFRAME IOVERLAY, 0, STATIC
        ARGFRAME DOVERLAY, 0, STATIC
        FUNCALL zclSampleThermostat_EZModeCB, zclSampleThermostat_ProcessIdentifyTimeChange
        LOCFRAME ISTACK, 0, STACK
        LOCFRAME PSTACK, 0, STACK
        LOCFRAME XSTACK, 35, STACK
        LOCFRAME IOVERLAY, 0, STATIC
        LOCFRAME DOVERLAY, 0, STATIC
        ARGFRAME ISTACK, 0, STACK
        ARGFRAME PSTACK, 0, STACK
        ARGFRAME XSTACK, 35, STACK
        ARGFRAME IOVERLAY, 0, STATIC
        ARGFRAME DOVERLAY, 0, STATIC
        FUNCALL zclSampleThermostat_EZModeCB, osal_memcpy
        LOCFRAME ISTACK, 0, STACK
        LOCFRAME PSTACK, 0, STACK
        LOCFRAME XSTACK, 38, STACK
        LOCFRAME IOVERLAY, 0, STATIC
        LOCFRAME DOVERLAY, 0, STATIC
        ARGFRAME ISTACK, 0, STACK
        ARGFRAME PSTACK, 0, STACK
        ARGFRAME XSTACK, 38, STACK
        ARGFRAME IOVERLAY, 0, STATIC
        ARGFRAME DOVERLAY, 0, STATIC
        FUNCALL zclSampleThermostat_EZModeCB, zclHA_uint16toa
        LOCFRAME ISTACK, 0, STACK
        LOCFRAME PSTACK, 0, STACK
        LOCFRAME XSTACK, 35, STACK
        LOCFRAME IOVERLAY, 0, STATIC
        LOCFRAME DOVERLAY, 0, STATIC
        ARGFRAME ISTACK, 0, STACK
        ARGFRAME PSTACK, 0, STACK
        ARGFRAME XSTACK, 35, STACK
        ARGFRAME IOVERLAY, 0, STATIC
        ARGFRAME DOVERLAY, 0, STATIC
        FUNCALL zclSampleThermostat_EZModeCB, osal_memcpy
        LOCFRAME ISTACK, 0, STACK
        LOCFRAME PSTACK, 0, STACK
        LOCFRAME XSTACK, 38, STACK
        LOCFRAME IOVERLAY, 0, STATIC
        LOCFRAME DOVERLAY, 0, STATIC
        ARGFRAME ISTACK, 0, STACK
        ARGFRAME PSTACK, 0, STACK
        ARGFRAME XSTACK, 38, STACK
        ARGFRAME IOVERLAY, 0, STATIC
        ARGFRAME DOVERLAY, 0, STATIC
        FUNCALL zclSampleThermostat_EZModeCB, _ltoa
        LOCFRAME ISTACK, 0, STACK
        LOCFRAME PSTACK, 0, STACK
        LOCFRAME XSTACK, 37, STACK
        LOCFRAME IOVERLAY, 0, STATIC
        LOCFRAME DOVERLAY, 0, STATIC
        ARGFRAME ISTACK, 0, STACK
        ARGFRAME PSTACK, 0, STACK
        ARGFRAME XSTACK, 37, STACK
        ARGFRAME IOVERLAY, 0, STATIC
        ARGFRAME DOVERLAY, 0, STATIC
        FUNCALL zclSampleThermostat_EZModeCB, HalLcdWriteString
        LOCFRAME ISTACK, 0, STACK
        LOCFRAME PSTACK, 0, STACK
        LOCFRAME XSTACK, 35, STACK
        LOCFRAME IOVERLAY, 0, STATIC
        LOCFRAME DOVERLAY, 0, STATIC
        ARGFRAME ISTACK, 0, STACK
        ARGFRAME PSTACK, 0, STACK
        ARGFRAME XSTACK, 35, STACK
        ARGFRAME IOVERLAY, 0, STATIC
        ARGFRAME DOVERLAY, 0, STATIC
        FUNCALL zclSampleThermostat_EZModeCB, osal_start_timerEx
        LOCFRAME ISTACK, 0, STACK
        LOCFRAME PSTACK, 0, STACK
        LOCFRAME XSTACK, 39, STACK
        LOCFRAME IOVERLAY, 0, STATIC
        LOCFRAME DOVERLAY, 0, STATIC
        ARGFRAME ISTACK, 0, STACK
        ARGFRAME PSTACK, 0, STACK
        ARGFRAME XSTACK, 39, STACK
        ARGFRAME IOVERLAY, 0, STATIC
        ARGFRAME DOVERLAY, 0, STATIC
        REQUIRE ?V0
        REQUIRE ?V1
        REQUIRE ?V2
        REQUIRE ?V4
        REQUIRE ?V5
        REQUIRE ?V6
        MOV     A,#-0xf
        LCALL   ?BANKED_ENTER_XDATA
          CFI DPH0 load(1, XDATA, add(CFA_XSP16, literal(-1)))
          CFI DPL0 load(1, XDATA, add(CFA_XSP16, literal(-2)))
          CFI ?BRET_EXT load(1, XDATA, add(CFA_XSP16, literal(-3)))
          CFI ?RET_HIGH load(1, XDATA, add(CFA_XSP16, literal(-4)))
          CFI ?RET_LOW load(1, XDATA, add(CFA_XSP16, literal(-5)))
          CFI R7 load(1, XDATA, add(CFA_XSP16, literal(-6)))
          CFI V6 load(1, XDATA, add(CFA_XSP16, literal(-7)))
          CFI V5 load(1, XDATA, add(CFA_XSP16, literal(-8)))
          CFI V4 load(1, XDATA, add(CFA_XSP16, literal(-9)))
          CFI V3 load(1, XDATA, add(CFA_XSP16, literal(-10)))
          CFI V2 load(1, XDATA, add(CFA_XSP16, literal(-11)))
          CFI V1 load(1, XDATA, add(CFA_XSP16, literal(-12)))
          CFI V0 load(1, XDATA, add(CFA_XSP16, literal(-13)))
          CFI VB load(1, XDATA, add(CFA_XSP16, literal(-14)))
          CFI R6 load(1, XDATA, add(CFA_XSP16, literal(-15)))
          CFI CFA_SP SP+0
          CFI CFA_XSP16 add(XSP16, 15)
        ; Saved register size: 15
        ; Auto size: 20
        MOV     A,#-0x14
        LCALL   ?ALLOC_XSTACK8
          CFI CFA_XSP16 add(XSP16, 35)
        MOV     ?V2,R1
        MOV     A,R2
        MOV     R6,A
        MOV     A,R3
        MOV     R7,A
// 1515 #ifdef LCD_SUPPORTED
// 1516   char szLine[20];
// 1517   char *pStr;
// 1518   uint8 err;
// 1519 #endif
// 1520 
// 1521   // time to go into identify mode
// 1522   if ( state == EZMODE_STATE_IDENTIFYING )
        MOV     A,#0x4
        XRL     A,?V2
        JNZ     ??zclSampleThermostat_EZModeCB_0
// 1523   {
// 1524     zclSampleThermostat_IdentifyTime = (EZMODE_TIME / 1000);  // convert to seconds
        MOV     DPTR,#zclSampleThermostat_IdentifyTime
        MOV     A,#-0x4c
        MOVX    @DPTR,A
        INC     DPTR
        CLR     A
        MOVX    @DPTR,A
// 1525     zclSampleThermostat_ProcessIdentifyTimeChange();
        ; Setup parameters for call to function zclSampleThermostat_ProcessIdentifyTimeChange
        LCALL   ??zclSampleThermostat_ProcessIdentifyTimeChange; Banked call to: zclSampleThermostat_ProcessIdentifyTimeChange
        LJMP    ??zclSampleThermostat_EZModeCB_1 & 0xFFFF
// 1526   }
// 1527 
// 1528   // autoclosing, show what happened (success, cancelled, etc...)
// 1529   if( state == EZMODE_STATE_AUTOCLOSE )
??zclSampleThermostat_EZModeCB_0:
        MOV     A,#0x7
        XRL     A,?V2
        JNZ     ??zclSampleThermostat_EZModeCB_2
// 1530   {
// 1531 #ifdef LCD_SUPPORTED
// 1532     pStr = NULL;
// 1533     err = pData->sAutoClose.err;
// 1534     if ( err == EZMODE_ERR_SUCCESS )
        MOV     DPL,R6
        MOV     DPH,R7
        MOVX    A,@DPTR
        JZ      $+5
        LJMP    ??zclSampleThermostat_EZModeCB_1 & 0xFFFF
// 1535     {
// 1536       pStr = "EZMode: Success";
// 1537     }
// 1538     if ( pStr )
// 1539     {
// 1540       if ( giThermostatScreenMode == THERMOSTAT_MAINMODE )
        MOV     DPTR,#giThermostatScreenMode
        MOVX    A,@DPTR
        JZ      $+5
        LJMP    ??zclSampleThermostat_EZModeCB_1 & 0xFFFF
// 1541         HalLcdWriteString ( pStr, HAL_LCD_LINE_2 );
        ; Setup parameters for call to function HalLcdWriteString
        MOV     R1,#0x2
        MOV     R2,#`?<Constant "EZMode: Success">` & 0xff
        MOV     R3,#(`?<Constant "EZMode: Success">` >> 8) & 0xff
        LCALL   `??HalLcdWriteString::?relay`; Banked call to: HalLcdWriteString
        LJMP    ??zclSampleThermostat_EZModeCB_1 & 0xFFFF
// 1542     }
// 1543 #endif
// 1544   }
// 1545 
// 1546   // finished, either show DstAddr/EP, or nothing (depending on success or not)
// 1547   if ( state == EZMODE_STATE_FINISH )
??zclSampleThermostat_EZModeCB_2:
        MOV     A,#0x63
        XRL     A,?V2
        JZ      $+5
        LJMP    ??zclSampleThermostat_EZModeCB_1 & 0xFFFF
// 1548   {
// 1549     // turn off identify mode
// 1550     zclSampleThermostat_IdentifyTime = 0;
        MOV     DPTR,#zclSampleThermostat_IdentifyTime
        CLR     A
        MOVX    @DPTR,A
        INC     DPTR
        MOVX    @DPTR,A
// 1551     zclSampleThermostat_ProcessIdentifyTimeChange();
        ; Setup parameters for call to function zclSampleThermostat_ProcessIdentifyTimeChange
        LCALL   ??zclSampleThermostat_ProcessIdentifyTimeChange; Banked call to: zclSampleThermostat_ProcessIdentifyTimeChange
// 1552 
// 1553 #ifdef LCD_SUPPORTED
// 1554     // if successful, inform user which nwkaddr/ep we bound to
// 1555     pStr = NULL;
// 1556     err = pData->sFinish.err;
        MOV     DPL,R6
        MOV     DPH,R7
        MOVX    A,@DPTR
        MOV     R0,A
// 1557     if ( err == EZMODE_ERR_SUCCESS )
        JZ      $+5
        LJMP    ??zclSampleThermostat_EZModeCB_3 & 0xFFFF
// 1558     {
// 1559       // "EZDst:1234 EP:34"
// 1560       osal_memcpy(szLine, "EZDst:", 6);
        ; Setup parameters for call to function osal_memcpy
        MOV     ?V4,#`?<Constant "EZDst:">` & 0xff
        MOV     ?V5,#(`?<Constant "EZDst:">` >> 8) & 0xff
        MOV     ?V6,#0x0
        MOV     R0,#?V4
        LCALL   ?PUSH_XSTACK_I_THREE
          CFI CFA_XSP16 add(XSP16, 38)
        MOV     R4,#0x6
        MOV     R5,#0x0
        MOV     A,#0x3
        LCALL   ?XSTACK_DISP101_8
        LCALL   `??osal_memcpy::?relay`; Banked call to: osal_memcpy
        MOV     A,#0x3
        LCALL   ?DEALLOC_XSTACK8
          CFI CFA_XSP16 add(XSP16, 35)
// 1561       zclHA_uint16toa( pData->sFinish.nwkaddr, &szLine[6]);
        ; Setup parameters for call to function zclHA_uint16toa
        MOV     A,#0x6
        LCALL   ?XSTACK_DISP0_8
        MOV     R4,DPL
        MOV     R5,DPH
        MOV     DPL,R6
        MOV     DPH,R7
        INC     DPTR
        INC     DPTR
        LCALL   ??Subroutine38_0 & 0xFFFF
??CrossCallReturnLabel_95:
        LCALL   `??zclHA_uint16toa::?relay`; Banked call to: zclHA_uint16toa
// 1562       osal_memcpy(&szLine[10], " EP:", 4);
        ; Setup parameters for call to function osal_memcpy
        MOV     ?V4,#`?<Constant " EP:">` & 0xff
        MOV     ?V5,#(`?<Constant " EP:">` >> 8) & 0xff
        MOV     R0,#?V4
        LCALL   ?PUSH_XSTACK_I_THREE
          CFI CFA_XSP16 add(XSP16, 38)
        MOV     R4,#0x4
        MOV     R5,#0x0
        MOV     A,#0xd
        LCALL   ?XSTACK_DISP0_8
        MOV     R2,DPL
        MOV     R3,DPH
        LCALL   `??osal_memcpy::?relay`; Banked call to: osal_memcpy
        MOV     A,#0x3
        LCALL   ?DEALLOC_XSTACK8
          CFI CFA_XSP16 add(XSP16, 35)
// 1563       _ltoa( pData->sFinish.ep, (void *)(&szLine[14]), 16 );  // _ltoa NULL terminates
        ; Setup parameters for call to function _ltoa
        MOV     A,#0xe
        LCALL   ?XSTACK_DISP0_8
        MOV     ?V0,DPL
        MOV     ?V1,DPH
        MOV     R0,#?V0
        LCALL   ?PUSH_XSTACK_I_TWO
          CFI CFA_XSP16 add(XSP16, 37)
        MOV     R1,#0x10
        MOV     DPL,R6
        MOV     DPH,R7
        INC     DPTR
        LCALL   ?Subroutine28 & 0xFFFF
??CrossCallReturnLabel_88:
        LCALL   `??_ltoa::?relay`    ; Banked call to: _ltoa
        MOV     A,#0x2
        LCALL   ?DEALLOC_XSTACK8
          CFI CFA_XSP16 add(XSP16, 35)
// 1564       pStr = szLine;
        MOV     R0,?XSP + 0
        MOV     R1,?XSP + 1
        MOV     ?V0,R0
        MOV     ?V1,R1
        MOV     R2,?V0
        MOV     R3,?V1
        SJMP    ??zclSampleThermostat_EZModeCB_4
// 1565     }
// 1566     else if ( err == EZMODE_ERR_BAD_PARAMETER )
??zclSampleThermostat_EZModeCB_3:
        MOV     A,#0x1
        XRL     A,R0
        JNZ     ??zclSampleThermostat_EZModeCB_5
// 1567     {
// 1568       pStr = "EZMode: BadParm";
        MOV     R2,#`?<Constant "EZMode: BadParm">` & 0xff
        MOV     R3,#(`?<Constant "EZMode: BadParm">` >> 8) & 0xff
        SJMP    ??zclSampleThermostat_EZModeCB_4
// 1569     }
// 1570     else if ( err == EZMODE_ERR_CANCELLED )
??zclSampleThermostat_EZModeCB_5:
        MOV     A,#0x2
        XRL     A,R0
        JNZ     ??zclSampleThermostat_EZModeCB_6
// 1571     {
// 1572       pStr = "EZMode: Cancel";
        MOV     R2,#`?<Constant "EZMode: Cancel">` & 0xff
        MOV     R3,#(`?<Constant "EZMode: Cancel">` >> 8) & 0xff
        SJMP    ??zclSampleThermostat_EZModeCB_4
// 1573     }
// 1574     else if ( err == EZMODE_ERR_NOMATCH )
??zclSampleThermostat_EZModeCB_6:
        MOV     A,#0x4
        XRL     A,R0
        JNZ     ??zclSampleThermostat_EZModeCB_7
// 1575     {
// 1576       pStr = "EZMode: NoMatch"; // not a match made in heaven
        MOV     R2,#`?<Constant "EZMode: NoMatch">` & 0xff
        MOV     R3,#(`?<Constant "EZMode: NoMatch">` >> 8) & 0xff
        SJMP    ??zclSampleThermostat_EZModeCB_4
// 1577     }
// 1578     else
// 1579     {
// 1580       pStr = "EZMode: TimeOut";
??zclSampleThermostat_EZModeCB_7:
        MOV     R2,#`?<Constant "EZMode: TimeOut">` & 0xff
        MOV     R3,#(`?<Constant "EZMode: TimeOut">` >> 8) & 0xff
// 1581     }
// 1582     if ( pStr )
??zclSampleThermostat_EZModeCB_4:
        MOV     A,R2
        ORL     A,R3
        JZ      ??zclSampleThermostat_EZModeCB_8
// 1583     {
// 1584       if ( giThermostatScreenMode == THERMOSTAT_MAINMODE )
        MOV     DPTR,#giThermostatScreenMode
        MOVX    A,@DPTR
        JNZ     ??zclSampleThermostat_EZModeCB_8
// 1585       {
// 1586         HalLcdWriteString ( pStr, HAL_LCD_LINE_2 );
        ; Setup parameters for call to function HalLcdWriteString
        MOV     R1,#0x2
        LCALL   `??HalLcdWriteString::?relay`; Banked call to: HalLcdWriteString
// 1587       }
// 1588     }
// 1589 #endif  // LCD_SUPPORTED
// 1590 
// 1591     // show main UI screen 3 seconds after completing EZ-Mode
// 1592     osal_start_timerEx( zclSampleThermostat_TaskID, SAMPLETHERMOSTAT_MAIN_SCREEN_EVT, 3000 );
??zclSampleThermostat_EZModeCB_8:
        ; Setup parameters for call to function osal_start_timerEx
        MOV     DPTR,#__Constant_bb8
        LCALL   ?PUSH_XSTACK8_X_FOUR
          CFI CFA_XSP16 add(XSP16, 39)
        MOV     R2,#0x10
        MOV     R3,#0x0
        MOV     DPTR,#zclSampleThermostat_TaskID
        MOVX    A,@DPTR
        MOV     R1,A
        LCALL   `??osal_start_timerEx::?relay`; Banked call to: osal_start_timerEx
        MOV     A,#0x4
        LCALL   ?DEALLOC_XSTACK8
          CFI CFA_XSP16 add(XSP16, 35)
// 1593   }
// 1594 }
??zclSampleThermostat_EZModeCB_1:
        MOV     A,#0x14
        LCALL   ?DEALLOC_XSTACK8
          CFI CFA_XSP16 add(XSP16, 15)
        MOV     R7,#0x7
        LJMP    ?BANKED_LEAVE_XDATA
          CFI EndBlock cfiBlock183

        RSEG BANKED_CODE:HUGECODE:NOROOT(0)
?Subroutine20:
          CFI Block cfiCond184 Using cfiCommon0
          CFI Function zclSampleThermostat_ProcessInReportCmd
          CFI Conditional ??CrossCallReturnLabel_96
          CFI R6 load(1, XDATA, add(CFA_XSP16, literal(-24)))
          CFI VB load(1, XDATA, add(CFA_XSP16, literal(-23)))
          CFI V0 load(1, XDATA, add(CFA_XSP16, literal(-22)))
          CFI V1 load(1, XDATA, add(CFA_XSP16, literal(-21)))
          CFI V2 load(1, XDATA, add(CFA_XSP16, literal(-20)))
          CFI V3 load(1, XDATA, add(CFA_XSP16, literal(-19)))
          CFI V4 load(1, XDATA, add(CFA_XSP16, literal(-18)))
          CFI V5 load(1, XDATA, add(CFA_XSP16, literal(-17)))
          CFI V6 load(1, XDATA, add(CFA_XSP16, literal(-16)))
          CFI V7 load(1, XDATA, add(CFA_XSP16, literal(-15)))
          CFI V8 load(1, XDATA, add(CFA_XSP16, literal(-14)))
          CFI V9 load(1, XDATA, add(CFA_XSP16, literal(-13)))
          CFI V10 load(1, XDATA, add(CFA_XSP16, literal(-12)))
          CFI V11 load(1, XDATA, add(CFA_XSP16, literal(-11)))
          CFI V12 load(1, XDATA, add(CFA_XSP16, literal(-10)))
          CFI V13 load(1, XDATA, add(CFA_XSP16, literal(-9)))
          CFI V14 load(1, XDATA, add(CFA_XSP16, literal(-8)))
          CFI V15 load(1, XDATA, add(CFA_XSP16, literal(-7)))
          CFI R7 load(1, XDATA, add(CFA_XSP16, literal(-6)))
          CFI ?RET_LOW load(1, XDATA, add(CFA_XSP16, literal(-5)))
          CFI ?RET_HIGH load(1, XDATA, add(CFA_XSP16, literal(-4)))
          CFI ?BRET_EXT load(1, XDATA, add(CFA_XSP16, literal(-3)))
          CFI DPL0 load(1, XDATA, add(CFA_XSP16, literal(-2)))
          CFI DPH0 load(1, XDATA, add(CFA_XSP16, literal(-1)))
          CFI CFA_SP SP+-2
          CFI CFA_XSP16 add(XSP16, 62)
          CFI Block cfiCond185 Using cfiCommon0
          CFI (cfiCond185) Function zclSampleThermostat_ProcessInReportCmd
          CFI (cfiCond185) Conditional ??CrossCallReturnLabel_97
          CFI (cfiCond185) R6 load(1, XDATA, add(CFA_XSP16, literal(-24)))
          CFI (cfiCond185) VB load(1, XDATA, add(CFA_XSP16, literal(-23)))
          CFI (cfiCond185) V0 load(1, XDATA, add(CFA_XSP16, literal(-22)))
          CFI (cfiCond185) V1 load(1, XDATA, add(CFA_XSP16, literal(-21)))
          CFI (cfiCond185) V2 load(1, XDATA, add(CFA_XSP16, literal(-20)))
          CFI (cfiCond185) V3 load(1, XDATA, add(CFA_XSP16, literal(-19)))
          CFI (cfiCond185) V4 load(1, XDATA, add(CFA_XSP16, literal(-18)))
          CFI (cfiCond185) V5 load(1, XDATA, add(CFA_XSP16, literal(-17)))
          CFI (cfiCond185) V6 load(1, XDATA, add(CFA_XSP16, literal(-16)))
          CFI (cfiCond185) V7 load(1, XDATA, add(CFA_XSP16, literal(-15)))
          CFI (cfiCond185) V8 load(1, XDATA, add(CFA_XSP16, literal(-14)))
          CFI (cfiCond185) V9 load(1, XDATA, add(CFA_XSP16, literal(-13)))
          CFI (cfiCond185) V10 load(1, XDATA, add(CFA_XSP16, literal(-12)))
          CFI (cfiCond185) V11 load(1, XDATA, add(CFA_XSP16, literal(-11)))
          CFI (cfiCond185) V12 load(1, XDATA, add(CFA_XSP16, literal(-10)))
          CFI (cfiCond185) V13 load(1, XDATA, add(CFA_XSP16, literal(-9)))
          CFI (cfiCond185) V14 load(1, XDATA, add(CFA_XSP16, literal(-8)))
          CFI (cfiCond185) V15 load(1, XDATA, add(CFA_XSP16, literal(-7)))
          CFI (cfiCond185) R7 load(1, XDATA, add(CFA_XSP16, literal(-6)))
          CFI (cfiCond185) ?RET_LOW load(1, XDATA, add(CFA_XSP16, literal(-5)))
          CFI (cfiCond185) ?RET_HIGH load(1, XDATA, add(CFA_XSP16, literal(-4)))
          CFI (cfiCond185) ?BRET_EXT load(1, XDATA, add(CFA_XSP16, literal(-3)))
          CFI (cfiCond185) DPL0 load(1, XDATA, add(CFA_XSP16, literal(-2)))
          CFI (cfiCond185) DPH0 load(1, XDATA, add(CFA_XSP16, literal(-1)))
          CFI (cfiCond185) CFA_SP SP+-2
          CFI (cfiCond185) CFA_XSP16 add(XSP16, 62)
          CFI Block cfiPicker186 Using cfiCommon1
          CFI (cfiPicker186) NoFunction
          CFI (cfiPicker186) Picker
        MOV     DPL,?XSP + 0
        MOV     DPH,?XSP + 1
          CFI EndBlock cfiCond184
          CFI EndBlock cfiCond185
          CFI EndBlock cfiPicker186
        REQUIRE ??Subroutine38_0
        ; // Fall through to label ??Subroutine38_0

        RSEG BANKED_CODE:HUGECODE:NOROOT(0)
??Subroutine38_0:
          CFI Block cfiCond187 Using cfiCommon0
          CFI Function zclSampleThermostat_event_loop
          CFI Conditional ??CrossCallReturnLabel_94
          CFI R6 load(1, XDATA, add(CFA_XSP16, literal(-14)))
          CFI VB load(1, XDATA, add(CFA_XSP16, literal(-13)))
          CFI V0 load(1, XDATA, add(CFA_XSP16, literal(-12)))
          CFI V1 load(1, XDATA, add(CFA_XSP16, literal(-11)))
          CFI V2 load(1, XDATA, add(CFA_XSP16, literal(-10)))
          CFI V3 load(1, XDATA, add(CFA_XSP16, literal(-9)))
          CFI V4 load(1, XDATA, add(CFA_XSP16, literal(-8)))
          CFI V5 load(1, XDATA, add(CFA_XSP16, literal(-7)))
          CFI R7 load(1, XDATA, add(CFA_XSP16, literal(-6)))
          CFI ?RET_LOW load(1, XDATA, add(CFA_XSP16, literal(-5)))
          CFI ?RET_HIGH load(1, XDATA, add(CFA_XSP16, literal(-4)))
          CFI ?BRET_EXT load(1, XDATA, add(CFA_XSP16, literal(-3)))
          CFI DPL0 load(1, XDATA, add(CFA_XSP16, literal(-2)))
          CFI DPH0 load(1, XDATA, add(CFA_XSP16, literal(-1)))
          CFI CFA_SP SP+-2
          CFI CFA_XSP16 add(XSP16, 16)
          CFI Block cfiCond188 Using cfiCommon0
          CFI (cfiCond188) Function zclSampleThermostat_EZModeCB
          CFI (cfiCond188) Conditional ??CrossCallReturnLabel_95
          CFI (cfiCond188) R6 load(1, XDATA, add(CFA_XSP16, literal(-15)))
          CFI (cfiCond188) VB load(1, XDATA, add(CFA_XSP16, literal(-14)))
          CFI (cfiCond188) V0 load(1, XDATA, add(CFA_XSP16, literal(-13)))
          CFI (cfiCond188) V1 load(1, XDATA, add(CFA_XSP16, literal(-12)))
          CFI (cfiCond188) V2 load(1, XDATA, add(CFA_XSP16, literal(-11)))
          CFI (cfiCond188) V3 load(1, XDATA, add(CFA_XSP16, literal(-10)))
          CFI (cfiCond188) V4 load(1, XDATA, add(CFA_XSP16, literal(-9)))
          CFI (cfiCond188) V5 load(1, XDATA, add(CFA_XSP16, literal(-8)))
          CFI (cfiCond188) V6 load(1, XDATA, add(CFA_XSP16, literal(-7)))
          CFI (cfiCond188) R7 load(1, XDATA, add(CFA_XSP16, literal(-6)))
          CFI (cfiCond188) ?RET_LOW load(1, XDATA, add(CFA_XSP16, literal(-5)))
          CFI (cfiCond188) ?RET_HIGH load(1, XDATA, add(CFA_XSP16, literal(-4)))
          CFI (cfiCond188) ?BRET_EXT load(1, XDATA, add(CFA_XSP16, literal(-3)))
          CFI (cfiCond188) DPL0 load(1, XDATA, add(CFA_XSP16, literal(-2)))
          CFI (cfiCond188) DPH0 load(1, XDATA, add(CFA_XSP16, literal(-1)))
          CFI (cfiCond188) CFA_SP SP+-2
          CFI (cfiCond188) CFA_XSP16 add(XSP16, 35)
          CFI Block cfiCond189 Using cfiCommon0
          CFI (cfiCond189) Function zclSampleThermostat_ProcessInReportCmd
          CFI (cfiCond189) Conditional ??CrossCallReturnLabel_96
          CFI (cfiCond189) R6 load(1, XDATA, add(CFA_XSP16, literal(-24)))
          CFI (cfiCond189) VB load(1, XDATA, add(CFA_XSP16, literal(-23)))
          CFI (cfiCond189) V0 load(1, XDATA, add(CFA_XSP16, literal(-22)))
          CFI (cfiCond189) V1 load(1, XDATA, add(CFA_XSP16, literal(-21)))
          CFI (cfiCond189) V2 load(1, XDATA, add(CFA_XSP16, literal(-20)))
          CFI (cfiCond189) V3 load(1, XDATA, add(CFA_XSP16, literal(-19)))
          CFI (cfiCond189) V4 load(1, XDATA, add(CFA_XSP16, literal(-18)))
          CFI (cfiCond189) V5 load(1, XDATA, add(CFA_XSP16, literal(-17)))
          CFI (cfiCond189) V6 load(1, XDATA, add(CFA_XSP16, literal(-16)))
          CFI (cfiCond189) V7 load(1, XDATA, add(CFA_XSP16, literal(-15)))
          CFI (cfiCond189) V8 load(1, XDATA, add(CFA_XSP16, literal(-14)))
          CFI (cfiCond189) V9 load(1, XDATA, add(CFA_XSP16, literal(-13)))
          CFI (cfiCond189) V10 load(1, XDATA, add(CFA_XSP16, literal(-12)))
          CFI (cfiCond189) V11 load(1, XDATA, add(CFA_XSP16, literal(-11)))
          CFI (cfiCond189) V12 load(1, XDATA, add(CFA_XSP16, literal(-10)))
          CFI (cfiCond189) V13 load(1, XDATA, add(CFA_XSP16, literal(-9)))
          CFI (cfiCond189) V14 load(1, XDATA, add(CFA_XSP16, literal(-8)))
          CFI (cfiCond189) V15 load(1, XDATA, add(CFA_XSP16, literal(-7)))
          CFI (cfiCond189) R7 load(1, XDATA, add(CFA_XSP16, literal(-6)))
          CFI (cfiCond189) ?RET_LOW load(1, XDATA, add(CFA_XSP16, literal(-5)))
          CFI (cfiCond189) ?RET_HIGH load(1, XDATA, add(CFA_XSP16, literal(-4)))
          CFI (cfiCond189) ?BRET_EXT load(1, XDATA, add(CFA_XSP16, literal(-3)))
          CFI (cfiCond189) DPL0 load(1, XDATA, add(CFA_XSP16, literal(-2)))
          CFI (cfiCond189) DPH0 load(1, XDATA, add(CFA_XSP16, literal(-1)))
          CFI (cfiCond189) CFA_SP SP+-2
          CFI (cfiCond189) CFA_XSP16 add(XSP16, 62)
          CFI Block cfiCond190 Using cfiCommon0
          CFI (cfiCond190) Function zclSampleThermostat_ProcessInReportCmd
          CFI (cfiCond190) Conditional ??CrossCallReturnLabel_97
          CFI (cfiCond190) R6 load(1, XDATA, add(CFA_XSP16, literal(-24)))
          CFI (cfiCond190) VB load(1, XDATA, add(CFA_XSP16, literal(-23)))
          CFI (cfiCond190) V0 load(1, XDATA, add(CFA_XSP16, literal(-22)))
          CFI (cfiCond190) V1 load(1, XDATA, add(CFA_XSP16, literal(-21)))
          CFI (cfiCond190) V2 load(1, XDATA, add(CFA_XSP16, literal(-20)))
          CFI (cfiCond190) V3 load(1, XDATA, add(CFA_XSP16, literal(-19)))
          CFI (cfiCond190) V4 load(1, XDATA, add(CFA_XSP16, literal(-18)))
          CFI (cfiCond190) V5 load(1, XDATA, add(CFA_XSP16, literal(-17)))
          CFI (cfiCond190) V6 load(1, XDATA, add(CFA_XSP16, literal(-16)))
          CFI (cfiCond190) V7 load(1, XDATA, add(CFA_XSP16, literal(-15)))
          CFI (cfiCond190) V8 load(1, XDATA, add(CFA_XSP16, literal(-14)))
          CFI (cfiCond190) V9 load(1, XDATA, add(CFA_XSP16, literal(-13)))
          CFI (cfiCond190) V10 load(1, XDATA, add(CFA_XSP16, literal(-12)))
          CFI (cfiCond190) V11 load(1, XDATA, add(CFA_XSP16, literal(-11)))
          CFI (cfiCond190) V12 load(1, XDATA, add(CFA_XSP16, literal(-10)))
          CFI (cfiCond190) V13 load(1, XDATA, add(CFA_XSP16, literal(-9)))
          CFI (cfiCond190) V14 load(1, XDATA, add(CFA_XSP16, literal(-8)))
          CFI (cfiCond190) V15 load(1, XDATA, add(CFA_XSP16, literal(-7)))
          CFI (cfiCond190) R7 load(1, XDATA, add(CFA_XSP16, literal(-6)))
          CFI (cfiCond190) ?RET_LOW load(1, XDATA, add(CFA_XSP16, literal(-5)))
          CFI (cfiCond190) ?RET_HIGH load(1, XDATA, add(CFA_XSP16, literal(-4)))
          CFI (cfiCond190) ?BRET_EXT load(1, XDATA, add(CFA_XSP16, literal(-3)))
          CFI (cfiCond190) DPL0 load(1, XDATA, add(CFA_XSP16, literal(-2)))
          CFI (cfiCond190) DPH0 load(1, XDATA, add(CFA_XSP16, literal(-1)))
          CFI (cfiCond190) CFA_SP SP+-2
          CFI (cfiCond190) CFA_XSP16 add(XSP16, 62)
          CFI Block cfiPicker191 Using cfiCommon1
          CFI (cfiPicker191) NoFunction
          CFI (cfiPicker191) Picker
        MOVX    A,@DPTR
        MOV     R2,A
        INC     DPTR
        MOVX    A,@DPTR
        MOV     R3,A
        RET
          CFI EndBlock cfiCond187
          CFI EndBlock cfiCond188
          CFI EndBlock cfiCond189
          CFI EndBlock cfiCond190
          CFI EndBlock cfiPicker191
// 1595 #endif // ZCL_EZMODE
// 1596 
// 1597 /*******************************************************************************
// 1598 ********************************************************************************/

        RSEG BANKED_CODE:HUGECODE:NOROOT(0)
// 1599 void zclSampleThermostat_BindingProcess(void)
zclSampleThermostat_BindingProcess:
          CFI Block cfiBlock192 Using cfiCommon0
          CFI Function zclSampleThermostat_BindingProcess
        CODE
// 1600 {
        FUNCALL zclSampleThermostat_BindingProcess, zcl_InvokeEZMode
        LOCFRAME ISTACK, 2, STACK
        LOCFRAME PSTACK, 0, STACK
        LOCFRAME XSTACK, 9, STACK
        LOCFRAME IOVERLAY, 0, STATIC
        LOCFRAME DOVERLAY, 0, STATIC
        ARGFRAME ISTACK, 2, STACK
        ARGFRAME PSTACK, 0, STACK
        ARGFRAME XSTACK, 9, STACK
        ARGFRAME IOVERLAY, 0, STATIC
        ARGFRAME DOVERLAY, 0, STATIC
        FUNCALL zclSampleThermostat_BindingProcess, HalLcdWriteString
        LOCFRAME ISTACK, 2, STACK
        LOCFRAME PSTACK, 0, STACK
        LOCFRAME XSTACK, 9, STACK
        LOCFRAME IOVERLAY, 0, STATIC
        LOCFRAME DOVERLAY, 0, STATIC
        ARGFRAME ISTACK, 2, STACK
        ARGFRAME PSTACK, 0, STACK
        ARGFRAME XSTACK, 9, STACK
        ARGFRAME IOVERLAY, 0, STATIC
        ARGFRAME DOVERLAY, 0, STATIC
        PUSH    DPL
          CFI DPL0 Frame(CFA_SP, 4)
          CFI CFA_SP SP+-4
        PUSH    DPH
          CFI DPH0 Frame(CFA_SP, 5)
          CFI CFA_SP SP+-5
        ; Saved register size: 2
        ; Auto size: 9
        MOV     A,#-0x9
        LCALL   ?ALLOC_XSTACK8
          CFI CFA_XSP16 add(XSP16, 9)
// 1601 	if ( ( giThermostatScreenMode == THERMOSTAT_MAINMODE ) ||
// 1602 			 ( giThermostatScreenMode == THERMOSTAT_HELPMODE ) )
        MOV     DPTR,#giThermostatScreenMode
        MOVX    A,@DPTR
        JZ      ??zclSampleThermostat_BindingProcess_0
        XRL     A,#0x1
        JNZ     ??zclSampleThermostat_BindingProcess_1
// 1603 	{
// 1604 		giThermostatScreenMode = THERMOSTAT_MAINMODE;
??zclSampleThermostat_BindingProcess_0:
        CLR     A
        MOVX    @DPTR,A
// 1605 
// 1606 		FLAG_BINDING = !FLAG_BINDING;
        MOV     DPTR,#FLAG_BINDING
        MOVX    A,@DPTR
        JNZ     ??zclSampleThermostat_BindingProcess_2
        MOV     A,#0x1
        SJMP    ??zclSampleThermostat_BindingProcess_3
??zclSampleThermostat_BindingProcess_2:
        CLR     A
??zclSampleThermostat_BindingProcess_3:
        LCALL   ?Subroutine6 & 0xFFFF
// 1607 	
// 1608 	#ifdef ZCL_EZMODE
// 1609 		zclEZMode_InvokeData_t ezModeData;
// 1610 		static uint16 clusterIDs[] = { ZCL_CLUSTER_ID_HVAC_THERMOSTAT };	 // only bind on the Thermostat cluster
// 1611 	
// 1612 		// Invoke EZ-Mode
// 1613 		ezModeData.endpoint = SAMPLETHERMOSTAT_ENDPOINT; // endpoint on which to invoke EZ-Mode
// 1614 		if ( ( zclSampleThermostat_NwkState == DEV_ZB_COORD ) ||
// 1615 				 ( zclSampleThermostat_NwkState == DEV_ROUTER ) 	||
// 1616 				 ( zclSampleThermostat_NwkState == DEV_END_DEVICE ) )
??CrossCallReturnLabel_5:
        JZ      ??zclSampleThermostat_BindingProcess_4
        MOVX    A,@DPTR
        XRL     A,#0x7
        JZ      ??zclSampleThermostat_BindingProcess_4
        MOVX    A,@DPTR
        XRL     A,#0x6
        JNZ     ??zclSampleThermostat_BindingProcess_5
// 1617 		{
// 1618 			ezModeData.onNetwork = TRUE;			// node is already on the network
??zclSampleThermostat_BindingProcess_4:
        MOV     A,#0x1
        LCALL   ?XSTACK_DISP0_8
        MOV     A,#0x1
        SJMP    ??zclSampleThermostat_BindingProcess_6
// 1619 		}
// 1620 		else
// 1621 		{
// 1622 			ezModeData.onNetwork = FALSE; 		// node is not yet on the network
??zclSampleThermostat_BindingProcess_5:
        MOV     A,#0x1
        LCALL   ?XSTACK_DISP0_8
        CLR     A
??zclSampleThermostat_BindingProcess_6:
        MOVX    @DPTR,A
// 1623 		}
// 1624 		ezModeData.initiator = TRUE;				// Thermostat is an initiator
        MOV     A,#0x2
        LCALL   ?XSTACK_DISP0_8
        MOV     A,#0x1
        MOVX    @DPTR,A
// 1625 		ezModeData.numActiveInClusters = 0;
        MOV     A,#0x3
        LCALL   ?XSTACK_DISP0_8
        CLR     A
        MOVX    @DPTR,A
// 1626 		ezModeData.pActiveInClusterIDs = NULL;
        MOV     A,#0x4
        LCALL   ?XSTACK_DISP0_8
        CLR     A
        MOVX    @DPTR,A
        INC     DPTR
        MOVX    @DPTR,A
// 1627 		ezModeData.numActiveOutClusters = 1;	 // active output cluster
        MOV     A,#0x6
        LCALL   ?XSTACK_DISP0_8
        MOV     A,#0x1
        MOVX    @DPTR,A
// 1628 		ezModeData.pActiveOutClusterIDs = clusterIDs;
        MOV     A,#0x7
        LCALL   ?XSTACK_DISP0_8
        MOV     A,#??clusterIDs_1 & 0xff
        MOVX    @DPTR,A
        INC     DPTR
        MOV     A,#(??clusterIDs_1 >> 8) & 0xff
        LCALL   ??Subroutine31_0 & 0xFFFF
// 1629 		zcl_InvokeEZMode( &ezModeData );
??CrossCallReturnLabel_65:
        LCALL   `??zcl_InvokeEZMode::?relay`; Banked call to: zcl_InvokeEZMode
// 1630 	
// 1631 		#ifdef LCD_SUPPORTED
// 1632 			HalLcdWriteString( "EZMode", HAL_LCD_LINE_2 );
        ; Setup parameters for call to function HalLcdWriteString
        MOV     R1,#0x2
        MOV     R2,#`?<Constant "EZMode">` & 0xff
        MOV     R3,#(`?<Constant "EZMode">` >> 8) & 0xff
        LCALL   `??HalLcdWriteString::?relay`; Banked call to: HalLcdWriteString
// 1633 		#endif
// 1634 	
// 1635 		// NOT ZCL_EZMODE, use EndDeviceBind
// 1636 	#else
// 1637 		zAddrType_t dstAddr;
// 1638 		HalLedSet ( HAL_LED_4, HAL_LED_MODE_OFF );
// 1639 	
// 1640 		// Initiate an End Device Bind Request, this bind request will
// 1641 		// only use a cluster list that is important to binding.
// 1642 		dstAddr.addrMode = afAddr16Bit;
// 1643 		dstAddr.addr.shortAddr = 0; 	// Coordinator makes the match
// 1644 		ZDP_EndDeviceBindReq( &dstAddr, NLME_GetShortAddr(),
// 1645 													SAMPLETHERMOSTAT_ENDPOINT,
// 1646 													ZCL_HA_PROFILE_ID,
// 1647 													ZCLSAMPLETHERMOSTAT_BINDINGLIST_IN, bindingInClusters,
// 1648 													ZCLSAMPLETHERMOSTAT_BINDINGLIST_OUT, bindingOutClusters,
// 1649 													TRUE );
// 1650 	#endif // ZCL_EZMODE
// 1651 	}
// 1652 	
// 1653 }
??zclSampleThermostat_BindingProcess_1:
        MOV     A,#0x9
        LJMP    ?Subroutine0 & 0xFFFF
          CFI EndBlock cfiBlock192

        RSEG BANKED_CODE:HUGECODE:NOROOT(0)
?Subroutine6:
          CFI Block cfiCond193 Using cfiCommon0
          CFI Function zclSampleThermostat_HandleKeys
          CFI Conditional ??CrossCallReturnLabel_4
          CFI R6 load(1, XDATA, add(CFA_XSP16, literal(-16)))
          CFI VB load(1, XDATA, add(CFA_XSP16, literal(-15)))
          CFI V0 load(1, XDATA, add(CFA_XSP16, literal(-14)))
          CFI V1 load(1, XDATA, add(CFA_XSP16, literal(-13)))
          CFI V2 load(1, XDATA, add(CFA_XSP16, literal(-12)))
          CFI V3 load(1, XDATA, add(CFA_XSP16, literal(-11)))
          CFI V4 load(1, XDATA, add(CFA_XSP16, literal(-10)))
          CFI V5 load(1, XDATA, add(CFA_XSP16, literal(-9)))
          CFI V6 load(1, XDATA, add(CFA_XSP16, literal(-8)))
          CFI V7 load(1, XDATA, add(CFA_XSP16, literal(-7)))
          CFI R7 load(1, XDATA, add(CFA_XSP16, literal(-6)))
          CFI ?RET_LOW load(1, XDATA, add(CFA_XSP16, literal(-5)))
          CFI ?RET_HIGH load(1, XDATA, add(CFA_XSP16, literal(-4)))
          CFI ?BRET_EXT load(1, XDATA, add(CFA_XSP16, literal(-3)))
          CFI DPL0 load(1, XDATA, add(CFA_XSP16, literal(-2)))
          CFI DPH0 load(1, XDATA, add(CFA_XSP16, literal(-1)))
          CFI CFA_SP SP+-2
          CFI CFA_XSP16 add(XSP16, 29)
          CFI Block cfiCond194 Using cfiCommon0
          CFI (cfiCond194) Function zclSampleThermostat_BindingProcess
          CFI (cfiCond194) Conditional ??CrossCallReturnLabel_5
          CFI (cfiCond194) DPL0 Frame(CFA_SP, 4)
          CFI (cfiCond194) DPH0 Frame(CFA_SP, 5)
          CFI (cfiCond194) CFA_SP SP+-7
          CFI (cfiCond194) CFA_XSP16 add(XSP16, 9)
          CFI Block cfiPicker195 Using cfiCommon1
          CFI (cfiPicker195) NoFunction
          CFI (cfiPicker195) Picker
        MOVX    @DPTR,A
        MOV     DPL,?XSP + 0
        MOV     DPH,?XSP + 1
        MOV     A,#0x8
        MOVX    @DPTR,A
        MOV     DPTR,#zclSampleThermostat_NwkState
        MOVX    A,@DPTR
        XRL     A,#0x9
        RET
          CFI EndBlock cfiCond193
          CFI EndBlock cfiCond194
          CFI EndBlock cfiPicker195

        RSEG XDATA_I:XDATA:NOROOT(0)
??clusterIDs_1:
        DATA16
        DS 2
        REQUIRE `?<Initializer for clusterIDs>_1`
        REQUIRE __INIT_XDATA_I
// 1654 
// 1655 #ifndef COORDINATOR
// 1656 static void zclSampleThermostat_RollCall(void)
// 1657 {
// 1658 
// 1659 	afAddrType_t RollCall_DstAddr;
// 1660 	// Set destination address to ZB Coordinator
// 1661   RollCall_DstAddr.addrMode = (afAddrMode_t)Addr16Bit;
// 1662   RollCall_DstAddr.endPoint = 8;
// 1663   RollCall_DstAddr.addr.shortAddr = 0;
// 1664 	
// 1665 	zclReportCmd_t *pReportCmd;
// 1666 	uint16 src_coordShortAddr = NLME_GetCoordShortAddr();
// 1667 	uint8 device_type = 0;
// 1668 
// 1669 	switch (zclSampleThermostat_NwkState)
// 1670 	{
// 1671 		case DEV_ZB_COORD:
// 1672 			device_type = 1;
// 1673 			break;
// 1674 
// 1675 		case DEV_ROUTER:
// 1676 			device_type = 2;
// 1677 			break;
// 1678 
// 1679 		case DEV_END_DEVICE:
// 1680 			device_type = 3;
// 1681 			break;
// 1682 
// 1683 		default:
// 1684 			device_type = 0;
// 1685 			break;
// 1686 	}
// 1687 	
// 1688 	pReportCmd = osal_mem_alloc( sizeof(zclReportCmd_t) + 2 * sizeof(zclReport_t) );
// 1689 	if ( pReportCmd != NULL )
// 1690 	{
// 1691 	  pReportCmd->numAttr = 2;
// 1692 		// Data
// 1693 	  pReportCmd->attrList[0].attrID 		= ATTRID_ROLL_CALL;
// 1694 	  pReportCmd->attrList[0].dataType 	= ZCL_DATATYPE_UINT16;
// 1695 	  pReportCmd->attrList[0].attrData 	= (void *)(&src_coordShortAddr);
// 1696 	  pReportCmd->attrList[1].attrID 		= ATTRID_ROLL_CALL;
// 1697 	  pReportCmd->attrList[1].dataType 	= ZCL_DATATYPE_UINT8;
// 1698 	  pReportCmd->attrList[1].attrData 	= (void *)(&device_type);
// 1699 
// 1700 	  zcl_SendReportCmd( SAMPLETHERMOSTAT_ENDPOINT, &RollCall_DstAddr,
// 1701 	                     ZCL_CLUSTER_ID_HVAC_THERMOSTAT,
// 1702 	                     pReportCmd, ZCL_FRAME_SERVER_CLIENT_DIR, TRUE, zclSampleThermostatSeqNum++ );
// 1703 	}
// 1704 
// 1705 	osal_mem_free( pReportCmd );
// 1706 }
// 1707 #endif
// 1708 

        RSEG BANKED_CODE:HUGECODE:NOROOT(0)
// 1709 void zclSampleThermostat_SendFreeData(void)
zclSampleThermostat_SendFreeData:
          CFI Block cfiBlock196 Using cfiCommon0
          CFI Function zclSampleThermostat_SendFreeData
        CODE
// 1710 {
        FUNCALL zclSampleThermostat_SendFreeData, osal_mem_alloc
        LOCFRAME ISTACK, 0, STACK
        LOCFRAME PSTACK, 0, STACK
        LOCFRAME XSTACK, 24, STACK
        LOCFRAME IOVERLAY, 0, STATIC
        LOCFRAME DOVERLAY, 0, STATIC
        ARGFRAME ISTACK, 0, STACK
        ARGFRAME PSTACK, 0, STACK
        ARGFRAME XSTACK, 24, STACK
        ARGFRAME IOVERLAY, 0, STATIC
        ARGFRAME DOVERLAY, 0, STATIC
        FUNCALL zclSampleThermostat_SendFreeData, NLME_GetCoordShortAddr
        LOCFRAME ISTACK, 0, STACK
        LOCFRAME PSTACK, 0, STACK
        LOCFRAME XSTACK, 24, STACK
        LOCFRAME IOVERLAY, 0, STATIC
        LOCFRAME DOVERLAY, 0, STATIC
        ARGFRAME ISTACK, 0, STACK
        ARGFRAME PSTACK, 0, STACK
        ARGFRAME XSTACK, 24, STACK
        ARGFRAME IOVERLAY, 0, STATIC
        ARGFRAME DOVERLAY, 0, STATIC
        FUNCALL zclSampleThermostat_SendFreeData, zcl_SendReportCmd
        LOCFRAME ISTACK, 0, STACK
        LOCFRAME PSTACK, 0, STACK
        LOCFRAME XSTACK, 29, STACK
        LOCFRAME IOVERLAY, 0, STATIC
        LOCFRAME DOVERLAY, 0, STATIC
        ARGFRAME ISTACK, 0, STACK
        ARGFRAME PSTACK, 0, STACK
        ARGFRAME XSTACK, 29, STACK
        ARGFRAME IOVERLAY, 0, STATIC
        ARGFRAME DOVERLAY, 0, STATIC
        FUNCALL zclSampleThermostat_SendFreeData, osal_mem_free
        LOCFRAME ISTACK, 0, STACK
        LOCFRAME PSTACK, 0, STACK
        LOCFRAME XSTACK, 24, STACK
        LOCFRAME IOVERLAY, 0, STATIC
        LOCFRAME DOVERLAY, 0, STATIC
        ARGFRAME ISTACK, 0, STACK
        ARGFRAME PSTACK, 0, STACK
        ARGFRAME XSTACK, 24, STACK
        ARGFRAME IOVERLAY, 0, STATIC
        ARGFRAME DOVERLAY, 0, STATIC
        REQUIRE ?V0
        REQUIRE ?V1
        REQUIRE ?V2
        REQUIRE ?V3
        MOV     A,#-0xc
        LCALL   ?BANKED_ENTER_XDATA
          CFI DPH0 load(1, XDATA, add(CFA_XSP16, literal(-1)))
          CFI DPL0 load(1, XDATA, add(CFA_XSP16, literal(-2)))
          CFI ?BRET_EXT load(1, XDATA, add(CFA_XSP16, literal(-3)))
          CFI ?RET_HIGH load(1, XDATA, add(CFA_XSP16, literal(-4)))
          CFI ?RET_LOW load(1, XDATA, add(CFA_XSP16, literal(-5)))
          CFI R7 load(1, XDATA, add(CFA_XSP16, literal(-6)))
          CFI V3 load(1, XDATA, add(CFA_XSP16, literal(-7)))
          CFI V2 load(1, XDATA, add(CFA_XSP16, literal(-8)))
          CFI V1 load(1, XDATA, add(CFA_XSP16, literal(-9)))
          CFI V0 load(1, XDATA, add(CFA_XSP16, literal(-10)))
          CFI VB load(1, XDATA, add(CFA_XSP16, literal(-11)))
          CFI R6 load(1, XDATA, add(CFA_XSP16, literal(-12)))
          CFI CFA_SP SP+0
          CFI CFA_XSP16 add(XSP16, 12)
        ; Saved register size: 12
        ; Auto size: 12
        MOV     A,#-0xc
        LCALL   ?ALLOC_XSTACK8
          CFI CFA_XSP16 add(XSP16, 24)
// 1711 	#ifdef ZCL_REPORT
// 1712 	// Can't send via indirect ??? (system reset)
// 1713 	afAddrType_t DstAddr;
// 1714   DstAddr.addrMode = (afAddrMode_t)AddrBroadcast;
        MOV     A,#0x8
        LCALL   ?XSTACK_DISP0_8
        MOV     A,#0xf
        MOVX    @DPTR,A
// 1715   DstAddr.endPoint = 0xFF;
        MOV     A,#0x9
        LCALL   ?XSTACK_DISP0_8
        LCALL   ?Subroutine7 & 0xFFFF
// 1716   DstAddr.addr.shortAddr = 0xFFFF;
// 1717 	
// 1718   zclReportCmd_t *pReportCmd;
// 1719   pReportCmd = osal_mem_alloc( sizeof(zclReportCmd_t) + 2 * sizeof(zclReport_t) );
??CrossCallReturnLabel_6:
        ; Setup parameters for call to function osal_mem_alloc
        MOV     R2,#0xb
        MOV     R3,#0x0
        LCALL   `??osal_mem_alloc::?relay`; Banked call to: osal_mem_alloc
        MOV     ?V0,R2
        MOV     ?V1,R3
// 1720   if ( pReportCmd != NULL )
        MOV     A,R2
        ORL     A,?V1
        JZ      ??zclSampleThermostat_SendFreeData_0
// 1721   {
// 1722     pReportCmd->numAttr = 2;
        MOV     DPL,R2
        MOV     DPH,R3
        MOV     A,#0x2
        MOVX    @DPTR,A
// 1723 		
// 1724 		// Data
// 1725     pReportCmd->attrList[0].attrID 		= ATTRID_FREE_DATA;
        INC     DPTR
        INC     A
        LCALL   ?Subroutine5 & 0xFFFF
// 1726     pReportCmd->attrList[0].dataType 	= ZCL_DATATYPE_CHAR_STR;
// 1727     pReportCmd->attrList[0].attrData 	= (void *)(Free_Data);
// 1728 		// Endpoint and coordShortAddr
// 1729 	pReportCmd->attrList[1].attrID 		= NLME_GetCoordShortAddr();
??CrossCallReturnLabel_2:
        ; Setup parameters for call to function NLME_GetCoordShortAddr
        LCALL   `??NLME_GetCoordShortAddr::?relay`; Banked call to: NLME_GetCoordShortAddr
        LCALL   ?Subroutine4 & 0xFFFF
// 1730     pReportCmd->attrList[1].dataType 	= ZCL_DATATYPE_UINT8;
// 1731     pReportCmd->attrList[1].attrData 	= (void *)(&Free_Data_Size);
// 1732 
// 1733     zcl_SendReportCmd( SAMPLETHERMOSTAT_ENDPOINT, &DstAddr,
// 1734                        ZCL_CLUSTER_ID_HVAC_THERMOSTAT,
// 1735                        pReportCmd, ZCL_FRAME_SERVER_CLIENT_DIR, TRUE, zclSampleThermostatSeqNum++ );
// 1736   }
??CrossCallReturnLabel_0:
        LCALL   ?PUSH_XSTACK_I_ONE
          CFI CFA_XSP16 add(XSP16, 25)
        MOV     ?V2,#0x1
        MOV     R0,#?V2
        LCALL   ?PUSH_XSTACK_I_ONE
          CFI CFA_XSP16 add(XSP16, 26)
        MOV     R0,#?V2
        LCALL   ?PUSH_XSTACK_I_ONE
          CFI CFA_XSP16 add(XSP16, 27)
        MOV     R0,#?V0
        LCALL   ?PUSH_XSTACK_I_TWO
          CFI CFA_XSP16 add(XSP16, 29)
        MOV     R4,#0x1
        MOV     R5,#0x2
        MOV     A,#0x5
        LCALL   ?XSTACK_DISP101_8
        MOV     R1,#0x8
        LCALL   `??zcl_SendReportCmd::?relay`; Banked call to: zcl_SendReportCmd
        MOV     A,#0x5
        LCALL   ?DEALLOC_XSTACK8
          CFI CFA_XSP16 add(XSP16, 24)
// 1737 
// 1738   osal_mem_free( pReportCmd );
??zclSampleThermostat_SendFreeData_0:
        ; Setup parameters for call to function osal_mem_free
        MOV     R2,?V0
        MOV     R3,?V1
        LCALL   `??osal_mem_free::?relay`; Banked call to: osal_mem_free
// 1739 	#endif  // ZCL_REPORT
// 1740 }
        MOV     A,#0xc
          CFI EndBlock cfiBlock196
        REQUIRE ?Subroutine3
        ; // Fall through to label ?Subroutine3

        RSEG BANKED_CODE:HUGECODE:NOROOT(0)
?Subroutine3:
          CFI Block cfiBlock197 Using cfiCommon0
          CFI NoFunction
          CFI CFA_SP SP+0
          CFI CFA_XSP16 add(XSP16, 24)
          CFI VB load(1, XDATA, add(CFA_XSP16, literal(-11)))
          CFI DPL0 load(1, XDATA, add(CFA_XSP16, literal(-2)))
          CFI DPH0 load(1, XDATA, add(CFA_XSP16, literal(-1)))
          CFI R6 load(1, XDATA, add(CFA_XSP16, literal(-12)))
          CFI R7 load(1, XDATA, add(CFA_XSP16, literal(-6)))
          CFI V0 load(1, XDATA, add(CFA_XSP16, literal(-10)))
          CFI V1 load(1, XDATA, add(CFA_XSP16, literal(-9)))
          CFI V2 load(1, XDATA, add(CFA_XSP16, literal(-8)))
          CFI V3 load(1, XDATA, add(CFA_XSP16, literal(-7)))
          CFI ?BRET_EXT load(1, XDATA, add(CFA_XSP16, literal(-3)))
          CFI ?RET_HIGH load(1, XDATA, add(CFA_XSP16, literal(-4)))
          CFI ?RET_LOW load(1, XDATA, add(CFA_XSP16, literal(-5)))
          CFI Invalid
        LCALL   ?DEALLOC_XSTACK8
          CFI CFA_XSP16 add(XSP16, 12)
          CFI Valid
        MOV     R7,#0x4
        LJMP    ?BANKED_LEAVE_XDATA
          CFI EndBlock cfiBlock197

        RSEG BANKED_CODE:HUGECODE:NOROOT(0)
// 1741 void zclSampleThermostat_SendC(void)
zclSampleThermostat_SendC:
          CFI Block cfiBlock198 Using cfiCommon0
          CFI Function zclSampleThermostat_SendC
        CODE
// 1742 {
        FUNCALL zclSampleThermostat_SendC, osal_mem_alloc
        LOCFRAME ISTACK, 0, STACK
        LOCFRAME PSTACK, 0, STACK
        LOCFRAME XSTACK, 41, STACK
        LOCFRAME IOVERLAY, 0, STATIC
        LOCFRAME DOVERLAY, 0, STATIC
        ARGFRAME ISTACK, 0, STACK
        ARGFRAME PSTACK, 0, STACK
        ARGFRAME XSTACK, 41, STACK
        ARGFRAME IOVERLAY, 0, STATIC
        ARGFRAME DOVERLAY, 0, STATIC
        FUNCALL zclSampleThermostat_SendC, NLME_GetCoordShortAddr
        LOCFRAME ISTACK, 0, STACK
        LOCFRAME PSTACK, 0, STACK
        LOCFRAME XSTACK, 41, STACK
        LOCFRAME IOVERLAY, 0, STATIC
        LOCFRAME DOVERLAY, 0, STATIC
        ARGFRAME ISTACK, 0, STACK
        ARGFRAME PSTACK, 0, STACK
        ARGFRAME XSTACK, 41, STACK
        ARGFRAME IOVERLAY, 0, STATIC
        ARGFRAME DOVERLAY, 0, STATIC
        FUNCALL zclSampleThermostat_SendC, zcl_SendReportCmd
        LOCFRAME ISTACK, 0, STACK
        LOCFRAME PSTACK, 0, STACK
        LOCFRAME XSTACK, 46, STACK
        LOCFRAME IOVERLAY, 0, STATIC
        LOCFRAME DOVERLAY, 0, STATIC
        ARGFRAME ISTACK, 0, STACK
        ARGFRAME PSTACK, 0, STACK
        ARGFRAME XSTACK, 46, STACK
        ARGFRAME IOVERLAY, 0, STATIC
        ARGFRAME DOVERLAY, 0, STATIC
        FUNCALL zclSampleThermostat_SendC, osal_mem_free
        LOCFRAME ISTACK, 0, STACK
        LOCFRAME PSTACK, 0, STACK
        LOCFRAME XSTACK, 41, STACK
        LOCFRAME IOVERLAY, 0, STATIC
        LOCFRAME DOVERLAY, 0, STATIC
        ARGFRAME ISTACK, 0, STACK
        ARGFRAME PSTACK, 0, STACK
        ARGFRAME XSTACK, 41, STACK
        ARGFRAME IOVERLAY, 0, STATIC
        ARGFRAME DOVERLAY, 0, STATIC
        REQUIRE ?V0
        REQUIRE ?V1
        REQUIRE ?V2
        REQUIRE ?V3
        MOV     A,#-0xc
        LCALL   ?BANKED_ENTER_XDATA
          CFI DPH0 load(1, XDATA, add(CFA_XSP16, literal(-1)))
          CFI DPL0 load(1, XDATA, add(CFA_XSP16, literal(-2)))
          CFI ?BRET_EXT load(1, XDATA, add(CFA_XSP16, literal(-3)))
          CFI ?RET_HIGH load(1, XDATA, add(CFA_XSP16, literal(-4)))
          CFI ?RET_LOW load(1, XDATA, add(CFA_XSP16, literal(-5)))
          CFI R7 load(1, XDATA, add(CFA_XSP16, literal(-6)))
          CFI V3 load(1, XDATA, add(CFA_XSP16, literal(-7)))
          CFI V2 load(1, XDATA, add(CFA_XSP16, literal(-8)))
          CFI V1 load(1, XDATA, add(CFA_XSP16, literal(-9)))
          CFI V0 load(1, XDATA, add(CFA_XSP16, literal(-10)))
          CFI VB load(1, XDATA, add(CFA_XSP16, literal(-11)))
          CFI R6 load(1, XDATA, add(CFA_XSP16, literal(-12)))
          CFI CFA_SP SP+0
          CFI CFA_XSP16 add(XSP16, 12)
        ; Saved register size: 12
        ; Auto size: 29
        MOV     A,#-0x1d
        LCALL   ?ALLOC_XSTACK8
          CFI CFA_XSP16 add(XSP16, 41)
// 1743 	char add[17];
// 1744 	for(uint8 i = 1;i<=16;i++)
        MOV     R2,#0x1
// 1745 	{
// 1746 		add[i-1] =  Free_Data[i];
??zclSampleThermostat_SendC_0:
        MOV     A,R2
        MOV     R0,A
        MOV     A,#Free_Data & 0xff
        ADD     A,R0
        MOV     DPL,A
        CLR     A
        ADDC    A,#(Free_Data >> 8) & 0xff
        MOV     DPH,A
        MOVX    A,@DPTR
        PUSH    A
          CFI CFA_SP SP+-1
        MOV     A,#0xc
        LCALL   ?XSTACK_DISP0_8
        LCALL   ?Subroutine23 & 0xFFFF
// 1747 	}
??CrossCallReturnLabel_47:
        POP     A
          CFI CFA_SP SP+0
        MOVX    @DPTR,A
        INC     R2
        MOV     A,R2
        CLR     C
        SUBB    A,#0x11
        JC      ??zclSampleThermostat_SendC_0
// 1748 	for(uint8 i = 0; i < 16;i++) 
        MOV     R2,#0x0
// 1749 	{
// 1750 	   	if( add[i] >= 'A' )
??zclSampleThermostat_SendC_1:
        MOV     A,R2
        MOV     R0,A
        MOV     A,#0xc
        LCALL   ?XSTACK_DISP0_8
        MOV     A,DPL
        ADD     A,R0
        MOV     DPL,A
        CLR     A
        ADDC    A,DPH
        MOV     DPH,A
        MOVX    A,@DPTR
        CLR     C
        SUBB    A,#0x41
        MOVX    A,@DPTR
        JC      ??zclSampleThermostat_SendC_2
// 1751 	  		add[i] = add[i] - '7';
        ADD     A,#-0x37
        SJMP    ??zclSampleThermostat_SendC_3
// 1752 	   	else 
// 1753 	      	add[i] = add[i] - '0';
??zclSampleThermostat_SendC_2:
        ADD     A,#-0x30
??zclSampleThermostat_SendC_3:
        MOVX    @DPTR,A
// 1754 		if ( i%2 != 0 ) 
        MOV     A,R2
        MOV     C,0xE0 /* A   */.0
        JNC     ??zclSampleThermostat_SendC_4
// 1755 			add[i-1] = (add[i-1]<<4) + add[i];
        MOV     A,DPL
        ADD     A,#-0x1
        MOV     R0,A
        MOV     A,DPH
        ADDC    A,#-0x1
        MOV     R1,A
        MOVX    A,@DPTR
        MOV     R3,A
        MOV     DPL,R0
        MOV     DPH,R1
        MOVX    A,@DPTR
        SWAP    A
        ANL     A,#0xf0
        ADD     A,R3
        MOVX    @DPTR,A
// 1756  	}	
??zclSampleThermostat_SendC_4:
        INC     R2
        MOV     A,R2
        CLR     C
        SUBB    A,#0x10
        JC      ??zclSampleThermostat_SendC_1
// 1757 	#ifdef ZCL_REPORT
// 1758 	// Can't send via indirect ??? (system reset)
// 1759 	afAddrType_t DstAddr;
// 1760   DstAddr.addrMode = (afAddrMode_t)afAddr64Bit;
        MOV     A,#0x8
        LCALL   ?XSTACK_DISP0_8
        MOV     A,#0x3
        MOVX    @DPTR,A
// 1761   DstAddr.endPoint = 0xFF;
        MOV     A,#0x9
        LCALL   ?XSTACK_DISP0_8
        LCALL   ?Subroutine7 & 0xFFFF
// 1762   DstAddr.addr.shortAddr = 0xFFFF;
// 1763   DstAddr.addr.extAddr[0] = add[14];
??CrossCallReturnLabel_7:
        MOV     A,#0x1a
        LCALL   ?XSTACK_DISP0_8
        MOVX    A,@DPTR
        MOV     DPL,?XSP + 0
        MOV     DPH,?XSP + 1
        MOVX    @DPTR,A
// 1764   DstAddr.addr.extAddr[1] = add[12];
        MOV     A,#0x18
        LCALL   ?XSTACK_DISP0_8
        MOVX    A,@DPTR
        PUSH    A
          CFI CFA_SP SP+-1
        MOV     A,#0x1
        LCALL   ?XSTACK_DISP0_8
        POP     A
          CFI CFA_SP SP+0
        MOVX    @DPTR,A
// 1765   DstAddr.addr.extAddr[2] = add[10];
        MOV     A,#0x16
        LCALL   ?XSTACK_DISP0_8
        MOVX    A,@DPTR
        PUSH    A
          CFI CFA_SP SP+-1
        MOV     A,#0x2
        LCALL   ?XSTACK_DISP0_8
        POP     A
          CFI CFA_SP SP+0
        MOVX    @DPTR,A
// 1766   DstAddr.addr.extAddr[3] = add[8];
        MOV     A,#0x14
        LCALL   ?XSTACK_DISP0_8
        MOVX    A,@DPTR
        PUSH    A
          CFI CFA_SP SP+-1
        MOV     A,#0x3
        LCALL   ?XSTACK_DISP0_8
        POP     A
          CFI CFA_SP SP+0
        MOVX    @DPTR,A
// 1767   DstAddr.addr.extAddr[4] = add[6];
        MOV     A,#0x12
        LCALL   ?XSTACK_DISP0_8
        MOVX    A,@DPTR
        PUSH    A
          CFI CFA_SP SP+-1
        MOV     A,#0x4
        LCALL   ?XSTACK_DISP0_8
        POP     A
          CFI CFA_SP SP+0
        MOVX    @DPTR,A
// 1768   DstAddr.addr.extAddr[5] = add[4];
        MOV     A,#0x10
        LCALL   ?XSTACK_DISP0_8
        MOVX    A,@DPTR
        PUSH    A
          CFI CFA_SP SP+-1
        MOV     A,#0x5
        LCALL   ?XSTACK_DISP0_8
        POP     A
          CFI CFA_SP SP+0
        MOVX    @DPTR,A
// 1769   DstAddr.addr.extAddr[6] = add[2];
        MOV     A,#0xe
        LCALL   ?XSTACK_DISP0_8
        MOVX    A,@DPTR
        PUSH    A
          CFI CFA_SP SP+-1
        MOV     A,#0x6
        LCALL   ?XSTACK_DISP0_8
        POP     A
          CFI CFA_SP SP+0
        MOVX    @DPTR,A
// 1770   DstAddr.addr.extAddr[7] = add[0];
        MOV     A,#0xc
        LCALL   ?XSTACK_DISP0_8
        MOVX    A,@DPTR
        PUSH    A
          CFI CFA_SP SP+-1
        MOV     A,#0x7
        LCALL   ?XSTACK_DISP0_8
        POP     A
          CFI CFA_SP SP+0
        MOVX    @DPTR,A
// 1771 	
// 1772   zclReportCmd_t *pReportCmd;
// 1773   pReportCmd = osal_mem_alloc( sizeof(zclReportCmd_t) + 2 * sizeof(zclReport_t) );
        ; Setup parameters for call to function osal_mem_alloc
        MOV     R2,#0xb
        MOV     R3,#0x0
        LCALL   `??osal_mem_alloc::?relay`; Banked call to: osal_mem_alloc
        MOV     ?V0,R2
        MOV     ?V1,R3
// 1774   if ( pReportCmd != NULL )
        MOV     A,R2
        ORL     A,?V1
        JZ      ??zclSampleThermostat_SendC_5
// 1775   {
// 1776     pReportCmd->numAttr = 2;
        MOV     DPL,R2
        MOV     DPH,R3
        MOV     A,#0x2
        MOVX    @DPTR,A
// 1777 		
// 1778 		// Data
// 1779     pReportCmd->attrList[0].attrID 		= ATTRID_CONTROL_S;
        INC     DPTR
        MOV     A,#0x8
        LCALL   ?Subroutine5 & 0xFFFF
// 1780     pReportCmd->attrList[0].dataType 	= ZCL_DATATYPE_CHAR_STR;
// 1781     pReportCmd->attrList[0].attrData 	= (void *)(Free_Data);
// 1782 		// Endpoint and coordShortAddr
// 1783 	pReportCmd->attrList[1].attrID 		= NLME_GetCoordShortAddr();
??CrossCallReturnLabel_3:
        ; Setup parameters for call to function NLME_GetCoordShortAddr
        LCALL   `??NLME_GetCoordShortAddr::?relay`; Banked call to: NLME_GetCoordShortAddr
        LCALL   ?Subroutine4 & 0xFFFF
// 1784     pReportCmd->attrList[1].dataType 	= ZCL_DATATYPE_UINT8;
// 1785     pReportCmd->attrList[1].attrData 	= (void *)(&Free_Data_Size);
// 1786 
// 1787     zcl_SendReportCmd( SAMPLETHERMOSTAT_ENDPOINT, &DstAddr,
// 1788                        ZCL_CLUSTER_ID_HVAC_THERMOSTAT,
// 1789                        pReportCmd, ZCL_FRAME_SERVER_CLIENT_DIR, TRUE, zclSampleThermostatSeqNum++ );
// 1790   }
??CrossCallReturnLabel_1:
        LCALL   ?PUSH_XSTACK_I_ONE
          CFI CFA_XSP16 add(XSP16, 42)
        MOV     ?V2,#0x1
        MOV     R0,#?V2
        LCALL   ?PUSH_XSTACK_I_ONE
          CFI CFA_XSP16 add(XSP16, 43)
        MOV     R0,#?V2
        LCALL   ?PUSH_XSTACK_I_ONE
          CFI CFA_XSP16 add(XSP16, 44)
        MOV     R0,#?V0
        LCALL   ?PUSH_XSTACK_I_TWO
          CFI CFA_XSP16 add(XSP16, 46)
        MOV     R4,#0x1
        MOV     R5,#0x2
        MOV     A,#0x5
        LCALL   ?XSTACK_DISP101_8
        MOV     R1,#0x8
        LCALL   `??zcl_SendReportCmd::?relay`; Banked call to: zcl_SendReportCmd
        MOV     A,#0x5
        LCALL   ?DEALLOC_XSTACK8
          CFI CFA_XSP16 add(XSP16, 41)
// 1791 
// 1792   osal_mem_free( pReportCmd );
??zclSampleThermostat_SendC_5:
        ; Setup parameters for call to function osal_mem_free
        MOV     R2,?V0
        MOV     R3,?V1
        LCALL   `??osal_mem_free::?relay`; Banked call to: osal_mem_free
// 1793 	#endif  // ZCL_REPORT
// 1794 }
        MOV     A,#0x1d
        LJMP    ?Subroutine3 & 0xFFFF
          CFI EndBlock cfiBlock198

        RSEG BANKED_CODE:HUGECODE:NOROOT(0)
?Subroutine23:
          CFI Block cfiCond199 Using cfiCommon0
          CFI Function zclSampleThermostat_ProcessInReportCmd
          CFI Conditional ??CrossCallReturnLabel_46
          CFI R6 load(1, XDATA, add(CFA_XSP16, literal(-24)))
          CFI VB load(1, XDATA, add(CFA_XSP16, literal(-23)))
          CFI V0 load(1, XDATA, add(CFA_XSP16, literal(-22)))
          CFI V1 load(1, XDATA, add(CFA_XSP16, literal(-21)))
          CFI V2 load(1, XDATA, add(CFA_XSP16, literal(-20)))
          CFI V3 load(1, XDATA, add(CFA_XSP16, literal(-19)))
          CFI V4 load(1, XDATA, add(CFA_XSP16, literal(-18)))
          CFI V5 load(1, XDATA, add(CFA_XSP16, literal(-17)))
          CFI V6 load(1, XDATA, add(CFA_XSP16, literal(-16)))
          CFI V7 load(1, XDATA, add(CFA_XSP16, literal(-15)))
          CFI V8 load(1, XDATA, add(CFA_XSP16, literal(-14)))
          CFI V9 load(1, XDATA, add(CFA_XSP16, literal(-13)))
          CFI V10 load(1, XDATA, add(CFA_XSP16, literal(-12)))
          CFI V11 load(1, XDATA, add(CFA_XSP16, literal(-11)))
          CFI V12 load(1, XDATA, add(CFA_XSP16, literal(-10)))
          CFI V13 load(1, XDATA, add(CFA_XSP16, literal(-9)))
          CFI V14 load(1, XDATA, add(CFA_XSP16, literal(-8)))
          CFI V15 load(1, XDATA, add(CFA_XSP16, literal(-7)))
          CFI R7 load(1, XDATA, add(CFA_XSP16, literal(-6)))
          CFI ?RET_LOW load(1, XDATA, add(CFA_XSP16, literal(-5)))
          CFI ?RET_HIGH load(1, XDATA, add(CFA_XSP16, literal(-4)))
          CFI ?BRET_EXT load(1, XDATA, add(CFA_XSP16, literal(-3)))
          CFI DPL0 load(1, XDATA, add(CFA_XSP16, literal(-2)))
          CFI DPH0 load(1, XDATA, add(CFA_XSP16, literal(-1)))
          CFI CFA_XSP16 add(XSP16, 62)
          CFI Block cfiCond200 Using cfiCommon0
          CFI (cfiCond200) Function zclSampleThermostat_SendC
          CFI (cfiCond200) Conditional ??CrossCallReturnLabel_47
          CFI (cfiCond200) R6 load(1, XDATA, add(CFA_XSP16, literal(-12)))
          CFI (cfiCond200) VB load(1, XDATA, add(CFA_XSP16, literal(-11)))
          CFI (cfiCond200) V0 load(1, XDATA, add(CFA_XSP16, literal(-10)))
          CFI (cfiCond200) V1 load(1, XDATA, add(CFA_XSP16, literal(-9)))
          CFI (cfiCond200) V2 load(1, XDATA, add(CFA_XSP16, literal(-8)))
          CFI (cfiCond200) V3 load(1, XDATA, add(CFA_XSP16, literal(-7)))
          CFI (cfiCond200) R7 load(1, XDATA, add(CFA_XSP16, literal(-6)))
          CFI (cfiCond200) ?RET_LOW load(1, XDATA, add(CFA_XSP16, literal(-5)))
          CFI (cfiCond200) ?RET_HIGH load(1, XDATA, add(CFA_XSP16, literal(-4)))
          CFI (cfiCond200) ?BRET_EXT load(1, XDATA, add(CFA_XSP16, literal(-3)))
          CFI (cfiCond200) DPL0 load(1, XDATA, add(CFA_XSP16, literal(-2)))
          CFI (cfiCond200) DPH0 load(1, XDATA, add(CFA_XSP16, literal(-1)))
          CFI (cfiCond200) CFA_XSP16 add(XSP16, 41)
          CFI Block cfiPicker201 Using cfiCommon1
          CFI (cfiPicker201) NoFunction
          CFI (cfiPicker201) Picker
        MOV     A,DPL
        ADD     A,R0
        MOV     R0,A
        CLR     A
        ADDC    A,DPH
        MOV     R1,A
        MOV     A,R0
        ADD     A,#-0x1
        MOV     DPL,A
        MOV     A,R1
        ADDC    A,#-0x1
        MOV     DPH,A
        RET
          CFI EndBlock cfiCond199
          CFI EndBlock cfiCond200
          CFI EndBlock cfiPicker201

        RSEG BANKED_CODE:HUGECODE:NOROOT(0)
?Subroutine7:
          CFI Block cfiCond202 Using cfiCommon0
          CFI Function zclSampleThermostat_SendFreeData
          CFI Conditional ??CrossCallReturnLabel_6
          CFI R6 load(1, XDATA, add(CFA_XSP16, literal(-12)))
          CFI VB load(1, XDATA, add(CFA_XSP16, literal(-11)))
          CFI V0 load(1, XDATA, add(CFA_XSP16, literal(-10)))
          CFI V1 load(1, XDATA, add(CFA_XSP16, literal(-9)))
          CFI V2 load(1, XDATA, add(CFA_XSP16, literal(-8)))
          CFI V3 load(1, XDATA, add(CFA_XSP16, literal(-7)))
          CFI R7 load(1, XDATA, add(CFA_XSP16, literal(-6)))
          CFI ?RET_LOW load(1, XDATA, add(CFA_XSP16, literal(-5)))
          CFI ?RET_HIGH load(1, XDATA, add(CFA_XSP16, literal(-4)))
          CFI ?BRET_EXT load(1, XDATA, add(CFA_XSP16, literal(-3)))
          CFI DPL0 load(1, XDATA, add(CFA_XSP16, literal(-2)))
          CFI DPH0 load(1, XDATA, add(CFA_XSP16, literal(-1)))
          CFI CFA_SP SP+-2
          CFI CFA_XSP16 add(XSP16, 24)
          CFI Block cfiCond203 Using cfiCommon0
          CFI (cfiCond203) Function zclSampleThermostat_SendC
          CFI (cfiCond203) Conditional ??CrossCallReturnLabel_7
          CFI (cfiCond203) R6 load(1, XDATA, add(CFA_XSP16, literal(-12)))
          CFI (cfiCond203) VB load(1, XDATA, add(CFA_XSP16, literal(-11)))
          CFI (cfiCond203) V0 load(1, XDATA, add(CFA_XSP16, literal(-10)))
          CFI (cfiCond203) V1 load(1, XDATA, add(CFA_XSP16, literal(-9)))
          CFI (cfiCond203) V2 load(1, XDATA, add(CFA_XSP16, literal(-8)))
          CFI (cfiCond203) V3 load(1, XDATA, add(CFA_XSP16, literal(-7)))
          CFI (cfiCond203) R7 load(1, XDATA, add(CFA_XSP16, literal(-6)))
          CFI (cfiCond203) ?RET_LOW load(1, XDATA, add(CFA_XSP16, literal(-5)))
          CFI (cfiCond203) ?RET_HIGH load(1, XDATA, add(CFA_XSP16, literal(-4)))
          CFI (cfiCond203) ?BRET_EXT load(1, XDATA, add(CFA_XSP16, literal(-3)))
          CFI (cfiCond203) DPL0 load(1, XDATA, add(CFA_XSP16, literal(-2)))
          CFI (cfiCond203) DPH0 load(1, XDATA, add(CFA_XSP16, literal(-1)))
          CFI (cfiCond203) CFA_SP SP+-2
          CFI (cfiCond203) CFA_XSP16 add(XSP16, 41)
          CFI Block cfiPicker204 Using cfiCommon1
          CFI (cfiPicker204) NoFunction
          CFI (cfiPicker204) Picker
        MOV     A,#-0x1
        MOVX    @DPTR,A
        MOV     DPL,?XSP + 0
        MOV     DPH,?XSP + 1
        MOVX    @DPTR,A
        INC     DPTR
        MOVX    @DPTR,A
        RET
          CFI EndBlock cfiCond202
          CFI EndBlock cfiCond203
          CFI EndBlock cfiPicker204

        RSEG BANKED_CODE:HUGECODE:NOROOT(0)
?Subroutine5:
          CFI Block cfiCond205 Using cfiCommon0
          CFI Function zclSampleThermostat_SendFreeData
          CFI Conditional ??CrossCallReturnLabel_2
          CFI R6 load(1, XDATA, add(CFA_XSP16, literal(-12)))
          CFI VB load(1, XDATA, add(CFA_XSP16, literal(-11)))
          CFI V0 load(1, XDATA, add(CFA_XSP16, literal(-10)))
          CFI V1 load(1, XDATA, add(CFA_XSP16, literal(-9)))
          CFI V2 load(1, XDATA, add(CFA_XSP16, literal(-8)))
          CFI V3 load(1, XDATA, add(CFA_XSP16, literal(-7)))
          CFI R7 load(1, XDATA, add(CFA_XSP16, literal(-6)))
          CFI ?RET_LOW load(1, XDATA, add(CFA_XSP16, literal(-5)))
          CFI ?RET_HIGH load(1, XDATA, add(CFA_XSP16, literal(-4)))
          CFI ?BRET_EXT load(1, XDATA, add(CFA_XSP16, literal(-3)))
          CFI DPL0 load(1, XDATA, add(CFA_XSP16, literal(-2)))
          CFI DPH0 load(1, XDATA, add(CFA_XSP16, literal(-1)))
          CFI CFA_SP SP+-2
          CFI CFA_XSP16 add(XSP16, 24)
          CFI Block cfiCond206 Using cfiCommon0
          CFI (cfiCond206) Function zclSampleThermostat_SendC
          CFI (cfiCond206) Conditional ??CrossCallReturnLabel_3
          CFI (cfiCond206) R6 load(1, XDATA, add(CFA_XSP16, literal(-12)))
          CFI (cfiCond206) VB load(1, XDATA, add(CFA_XSP16, literal(-11)))
          CFI (cfiCond206) V0 load(1, XDATA, add(CFA_XSP16, literal(-10)))
          CFI (cfiCond206) V1 load(1, XDATA, add(CFA_XSP16, literal(-9)))
          CFI (cfiCond206) V2 load(1, XDATA, add(CFA_XSP16, literal(-8)))
          CFI (cfiCond206) V3 load(1, XDATA, add(CFA_XSP16, literal(-7)))
          CFI (cfiCond206) R7 load(1, XDATA, add(CFA_XSP16, literal(-6)))
          CFI (cfiCond206) ?RET_LOW load(1, XDATA, add(CFA_XSP16, literal(-5)))
          CFI (cfiCond206) ?RET_HIGH load(1, XDATA, add(CFA_XSP16, literal(-4)))
          CFI (cfiCond206) ?BRET_EXT load(1, XDATA, add(CFA_XSP16, literal(-3)))
          CFI (cfiCond206) DPL0 load(1, XDATA, add(CFA_XSP16, literal(-2)))
          CFI (cfiCond206) DPH0 load(1, XDATA, add(CFA_XSP16, literal(-1)))
          CFI (cfiCond206) CFA_SP SP+-2
          CFI (cfiCond206) CFA_XSP16 add(XSP16, 41)
          CFI Block cfiPicker207 Using cfiCommon1
          CFI (cfiPicker207) NoFunction
          CFI (cfiPicker207) Picker
        MOVX    @DPTR,A
        INC     DPTR
        MOV     A,#-0x60
        LCALL   ?Subroutine26 & 0xFFFF
??CrossCallReturnLabel_52:
        MOV     A,#0x42
        LCALL   ?Subroutine26 & 0xFFFF
??CrossCallReturnLabel_53:
        INC     DPTR
        MOV     A,#Free_Data & 0xff
        MOVX    @DPTR,A
        INC     DPTR
        MOV     A,#(Free_Data >> 8) & 0xff
        MOVX    @DPTR,A
        RET
          CFI EndBlock cfiCond205
          CFI EndBlock cfiCond206
          CFI EndBlock cfiPicker207

        RSEG BANKED_CODE:HUGECODE:NOROOT(0)
?Subroutine26:
          CFI Block cfiCond208 Using cfiCommon0
          CFI Function zclSampleThermostat_SendFreeData
          CFI Conditional ??CrossCallReturnLabel_52, ??CrossCallReturnLabel_2
          CFI R6 load(1, XDATA, add(CFA_XSP16, literal(-12)))
          CFI VB load(1, XDATA, add(CFA_XSP16, literal(-11)))
          CFI V0 load(1, XDATA, add(CFA_XSP16, literal(-10)))
          CFI V1 load(1, XDATA, add(CFA_XSP16, literal(-9)))
          CFI V2 load(1, XDATA, add(CFA_XSP16, literal(-8)))
          CFI V3 load(1, XDATA, add(CFA_XSP16, literal(-7)))
          CFI R7 load(1, XDATA, add(CFA_XSP16, literal(-6)))
          CFI ?RET_LOW load(1, XDATA, add(CFA_XSP16, literal(-5)))
          CFI ?RET_HIGH load(1, XDATA, add(CFA_XSP16, literal(-4)))
          CFI ?BRET_EXT load(1, XDATA, add(CFA_XSP16, literal(-3)))
          CFI DPL0 load(1, XDATA, add(CFA_XSP16, literal(-2)))
          CFI DPH0 load(1, XDATA, add(CFA_XSP16, literal(-1)))
          CFI CFA_SP SP+-4
          CFI CFA_XSP16 add(XSP16, 24)
          CFI Block cfiCond209 Using cfiCommon0
          CFI (cfiCond209) Function zclSampleThermostat_SendC
          CFI (cfiCond209) Conditional ??CrossCallReturnLabel_52, ??CrossCallReturnLabel_3
          CFI (cfiCond209) R6 load(1, XDATA, add(CFA_XSP16, literal(-12)))
          CFI (cfiCond209) VB load(1, XDATA, add(CFA_XSP16, literal(-11)))
          CFI (cfiCond209) V0 load(1, XDATA, add(CFA_XSP16, literal(-10)))
          CFI (cfiCond209) V1 load(1, XDATA, add(CFA_XSP16, literal(-9)))
          CFI (cfiCond209) V2 load(1, XDATA, add(CFA_XSP16, literal(-8)))
          CFI (cfiCond209) V3 load(1, XDATA, add(CFA_XSP16, literal(-7)))
          CFI (cfiCond209) R7 load(1, XDATA, add(CFA_XSP16, literal(-6)))
          CFI (cfiCond209) ?RET_LOW load(1, XDATA, add(CFA_XSP16, literal(-5)))
          CFI (cfiCond209) ?RET_HIGH load(1, XDATA, add(CFA_XSP16, literal(-4)))
          CFI (cfiCond209) ?BRET_EXT load(1, XDATA, add(CFA_XSP16, literal(-3)))
          CFI (cfiCond209) DPL0 load(1, XDATA, add(CFA_XSP16, literal(-2)))
          CFI (cfiCond209) DPH0 load(1, XDATA, add(CFA_XSP16, literal(-1)))
          CFI (cfiCond209) CFA_SP SP+-4
          CFI (cfiCond209) CFA_XSP16 add(XSP16, 41)
          CFI Block cfiCond210 Using cfiCommon0
          CFI (cfiCond210) Function zclSampleThermostat_SendFreeData
          CFI (cfiCond210) Conditional ??CrossCallReturnLabel_53, ??CrossCallReturnLabel_2
          CFI (cfiCond210) R6 load(1, XDATA, add(CFA_XSP16, literal(-12)))
          CFI (cfiCond210) VB load(1, XDATA, add(CFA_XSP16, literal(-11)))
          CFI (cfiCond210) V0 load(1, XDATA, add(CFA_XSP16, literal(-10)))
          CFI (cfiCond210) V1 load(1, XDATA, add(CFA_XSP16, literal(-9)))
          CFI (cfiCond210) V2 load(1, XDATA, add(CFA_XSP16, literal(-8)))
          CFI (cfiCond210) V3 load(1, XDATA, add(CFA_XSP16, literal(-7)))
          CFI (cfiCond210) R7 load(1, XDATA, add(CFA_XSP16, literal(-6)))
          CFI (cfiCond210) ?RET_LOW load(1, XDATA, add(CFA_XSP16, literal(-5)))
          CFI (cfiCond210) ?RET_HIGH load(1, XDATA, add(CFA_XSP16, literal(-4)))
          CFI (cfiCond210) ?BRET_EXT load(1, XDATA, add(CFA_XSP16, literal(-3)))
          CFI (cfiCond210) DPL0 load(1, XDATA, add(CFA_XSP16, literal(-2)))
          CFI (cfiCond210) DPH0 load(1, XDATA, add(CFA_XSP16, literal(-1)))
          CFI (cfiCond210) CFA_SP SP+-4
          CFI (cfiCond210) CFA_XSP16 add(XSP16, 24)
          CFI Block cfiCond211 Using cfiCommon0
          CFI (cfiCond211) Function zclSampleThermostat_SendC
          CFI (cfiCond211) Conditional ??CrossCallReturnLabel_53, ??CrossCallReturnLabel_3
          CFI (cfiCond211) R6 load(1, XDATA, add(CFA_XSP16, literal(-12)))
          CFI (cfiCond211) VB load(1, XDATA, add(CFA_XSP16, literal(-11)))
          CFI (cfiCond211) V0 load(1, XDATA, add(CFA_XSP16, literal(-10)))
          CFI (cfiCond211) V1 load(1, XDATA, add(CFA_XSP16, literal(-9)))
          CFI (cfiCond211) V2 load(1, XDATA, add(CFA_XSP16, literal(-8)))
          CFI (cfiCond211) V3 load(1, XDATA, add(CFA_XSP16, literal(-7)))
          CFI (cfiCond211) R7 load(1, XDATA, add(CFA_XSP16, literal(-6)))
          CFI (cfiCond211) ?RET_LOW load(1, XDATA, add(CFA_XSP16, literal(-5)))
          CFI (cfiCond211) ?RET_HIGH load(1, XDATA, add(CFA_XSP16, literal(-4)))
          CFI (cfiCond211) ?BRET_EXT load(1, XDATA, add(CFA_XSP16, literal(-3)))
          CFI (cfiCond211) DPL0 load(1, XDATA, add(CFA_XSP16, literal(-2)))
          CFI (cfiCond211) DPH0 load(1, XDATA, add(CFA_XSP16, literal(-1)))
          CFI (cfiCond211) CFA_SP SP+-4
          CFI (cfiCond211) CFA_XSP16 add(XSP16, 41)
          CFI Block cfiPicker212 Using cfiCommon1
          CFI (cfiPicker212) NoFunction
          CFI (cfiPicker212) Picker
        MOVX    @DPTR,A
        MOV     DPL,R2
        MOV     DPH,R3
        INC     DPTR
        INC     DPTR
        INC     DPTR
        RET
          CFI EndBlock cfiCond208
          CFI EndBlock cfiCond209
          CFI EndBlock cfiCond210
          CFI EndBlock cfiCond211
          CFI EndBlock cfiPicker212

        RSEG BANKED_CODE:HUGECODE:NOROOT(0)
?Subroutine4:
          CFI Block cfiCond213 Using cfiCommon0
          CFI Function zclSampleThermostat_SendFreeData
          CFI Conditional ??CrossCallReturnLabel_0
          CFI R6 load(1, XDATA, add(CFA_XSP16, literal(-12)))
          CFI VB load(1, XDATA, add(CFA_XSP16, literal(-11)))
          CFI V0 load(1, XDATA, add(CFA_XSP16, literal(-10)))
          CFI V1 load(1, XDATA, add(CFA_XSP16, literal(-9)))
          CFI V2 load(1, XDATA, add(CFA_XSP16, literal(-8)))
          CFI V3 load(1, XDATA, add(CFA_XSP16, literal(-7)))
          CFI R7 load(1, XDATA, add(CFA_XSP16, literal(-6)))
          CFI ?RET_LOW load(1, XDATA, add(CFA_XSP16, literal(-5)))
          CFI ?RET_HIGH load(1, XDATA, add(CFA_XSP16, literal(-4)))
          CFI ?BRET_EXT load(1, XDATA, add(CFA_XSP16, literal(-3)))
          CFI DPL0 load(1, XDATA, add(CFA_XSP16, literal(-2)))
          CFI DPH0 load(1, XDATA, add(CFA_XSP16, literal(-1)))
          CFI CFA_SP SP+-2
          CFI CFA_XSP16 add(XSP16, 24)
          CFI Block cfiCond214 Using cfiCommon0
          CFI (cfiCond214) Function zclSampleThermostat_SendC
          CFI (cfiCond214) Conditional ??CrossCallReturnLabel_1
          CFI (cfiCond214) R6 load(1, XDATA, add(CFA_XSP16, literal(-12)))
          CFI (cfiCond214) VB load(1, XDATA, add(CFA_XSP16, literal(-11)))
          CFI (cfiCond214) V0 load(1, XDATA, add(CFA_XSP16, literal(-10)))
          CFI (cfiCond214) V1 load(1, XDATA, add(CFA_XSP16, literal(-9)))
          CFI (cfiCond214) V2 load(1, XDATA, add(CFA_XSP16, literal(-8)))
          CFI (cfiCond214) V3 load(1, XDATA, add(CFA_XSP16, literal(-7)))
          CFI (cfiCond214) R7 load(1, XDATA, add(CFA_XSP16, literal(-6)))
          CFI (cfiCond214) ?RET_LOW load(1, XDATA, add(CFA_XSP16, literal(-5)))
          CFI (cfiCond214) ?RET_HIGH load(1, XDATA, add(CFA_XSP16, literal(-4)))
          CFI (cfiCond214) ?BRET_EXT load(1, XDATA, add(CFA_XSP16, literal(-3)))
          CFI (cfiCond214) DPL0 load(1, XDATA, add(CFA_XSP16, literal(-2)))
          CFI (cfiCond214) DPH0 load(1, XDATA, add(CFA_XSP16, literal(-1)))
          CFI (cfiCond214) CFA_SP SP+-2
          CFI (cfiCond214) CFA_XSP16 add(XSP16, 41)
          CFI Block cfiPicker215 Using cfiCommon1
          CFI (cfiPicker215) NoFunction
          CFI (cfiPicker215) Picker
        MOV     DPL,?V0
        MOV     DPH,?V1
        INC     DPTR
        INC     DPTR
        INC     DPTR
        INC     DPTR
        INC     DPTR
        INC     DPTR
        MOV     A,R2
        MOVX    @DPTR,A
        INC     DPTR
        MOV     A,R3
        LCALL   ?Subroutine25 & 0xFFFF
??CrossCallReturnLabel_50:
        MOV     A,#0x20
        LCALL   ?Subroutine25 & 0xFFFF
??CrossCallReturnLabel_51:
        INC     DPTR
        MOV     A,#Free_Data_Size & 0xff
        MOVX    @DPTR,A
        INC     DPTR
        MOV     A,#(Free_Data_Size >> 8) & 0xff
        MOVX    @DPTR,A
        MOV     DPTR,#zclSampleThermostatSeqNum
        MOVX    A,@DPTR
        MOV     R0,A
        MOV     A,#0x1
        ADD     A,R0
        MOVX    @DPTR,A
        ; Setup parameters for call to function zcl_SendReportCmd
        ; Setup parameters for call to function zcl_SendReportCmd
        MOV     A,R0
        MOV     ?V2,A
        MOV     R0,#?V2
        RET
          CFI EndBlock cfiCond213
          CFI EndBlock cfiCond214
          CFI EndBlock cfiPicker215

        RSEG BANKED_CODE:HUGECODE:NOROOT(0)
?Subroutine25:
          CFI Block cfiCond216 Using cfiCommon0
          CFI Function zclSampleThermostat_SendFreeData
          CFI Conditional ??CrossCallReturnLabel_50, ??CrossCallReturnLabel_0
          CFI R6 load(1, XDATA, add(CFA_XSP16, literal(-12)))
          CFI VB load(1, XDATA, add(CFA_XSP16, literal(-11)))
          CFI V0 load(1, XDATA, add(CFA_XSP16, literal(-10)))
          CFI V1 load(1, XDATA, add(CFA_XSP16, literal(-9)))
          CFI V2 load(1, XDATA, add(CFA_XSP16, literal(-8)))
          CFI V3 load(1, XDATA, add(CFA_XSP16, literal(-7)))
          CFI R7 load(1, XDATA, add(CFA_XSP16, literal(-6)))
          CFI ?RET_LOW load(1, XDATA, add(CFA_XSP16, literal(-5)))
          CFI ?RET_HIGH load(1, XDATA, add(CFA_XSP16, literal(-4)))
          CFI ?BRET_EXT load(1, XDATA, add(CFA_XSP16, literal(-3)))
          CFI DPL0 load(1, XDATA, add(CFA_XSP16, literal(-2)))
          CFI DPH0 load(1, XDATA, add(CFA_XSP16, literal(-1)))
          CFI CFA_SP SP+-4
          CFI CFA_XSP16 add(XSP16, 24)
          CFI Block cfiCond217 Using cfiCommon0
          CFI (cfiCond217) Function zclSampleThermostat_SendC
          CFI (cfiCond217) Conditional ??CrossCallReturnLabel_50, ??CrossCallReturnLabel_1
          CFI (cfiCond217) R6 load(1, XDATA, add(CFA_XSP16, literal(-12)))
          CFI (cfiCond217) VB load(1, XDATA, add(CFA_XSP16, literal(-11)))
          CFI (cfiCond217) V0 load(1, XDATA, add(CFA_XSP16, literal(-10)))
          CFI (cfiCond217) V1 load(1, XDATA, add(CFA_XSP16, literal(-9)))
          CFI (cfiCond217) V2 load(1, XDATA, add(CFA_XSP16, literal(-8)))
          CFI (cfiCond217) V3 load(1, XDATA, add(CFA_XSP16, literal(-7)))
          CFI (cfiCond217) R7 load(1, XDATA, add(CFA_XSP16, literal(-6)))
          CFI (cfiCond217) ?RET_LOW load(1, XDATA, add(CFA_XSP16, literal(-5)))
          CFI (cfiCond217) ?RET_HIGH load(1, XDATA, add(CFA_XSP16, literal(-4)))
          CFI (cfiCond217) ?BRET_EXT load(1, XDATA, add(CFA_XSP16, literal(-3)))
          CFI (cfiCond217) DPL0 load(1, XDATA, add(CFA_XSP16, literal(-2)))
          CFI (cfiCond217) DPH0 load(1, XDATA, add(CFA_XSP16, literal(-1)))
          CFI (cfiCond217) CFA_SP SP+-4
          CFI (cfiCond217) CFA_XSP16 add(XSP16, 41)
          CFI Block cfiCond218 Using cfiCommon0
          CFI (cfiCond218) Function zclSampleThermostat_SendFreeData
          CFI (cfiCond218) Conditional ??CrossCallReturnLabel_51, ??CrossCallReturnLabel_0
          CFI (cfiCond218) R6 load(1, XDATA, add(CFA_XSP16, literal(-12)))
          CFI (cfiCond218) VB load(1, XDATA, add(CFA_XSP16, literal(-11)))
          CFI (cfiCond218) V0 load(1, XDATA, add(CFA_XSP16, literal(-10)))
          CFI (cfiCond218) V1 load(1, XDATA, add(CFA_XSP16, literal(-9)))
          CFI (cfiCond218) V2 load(1, XDATA, add(CFA_XSP16, literal(-8)))
          CFI (cfiCond218) V3 load(1, XDATA, add(CFA_XSP16, literal(-7)))
          CFI (cfiCond218) R7 load(1, XDATA, add(CFA_XSP16, literal(-6)))
          CFI (cfiCond218) ?RET_LOW load(1, XDATA, add(CFA_XSP16, literal(-5)))
          CFI (cfiCond218) ?RET_HIGH load(1, XDATA, add(CFA_XSP16, literal(-4)))
          CFI (cfiCond218) ?BRET_EXT load(1, XDATA, add(CFA_XSP16, literal(-3)))
          CFI (cfiCond218) DPL0 load(1, XDATA, add(CFA_XSP16, literal(-2)))
          CFI (cfiCond218) DPH0 load(1, XDATA, add(CFA_XSP16, literal(-1)))
          CFI (cfiCond218) CFA_SP SP+-4
          CFI (cfiCond218) CFA_XSP16 add(XSP16, 24)
          CFI Block cfiCond219 Using cfiCommon0
          CFI (cfiCond219) Function zclSampleThermostat_SendC
          CFI (cfiCond219) Conditional ??CrossCallReturnLabel_51, ??CrossCallReturnLabel_1
          CFI (cfiCond219) R6 load(1, XDATA, add(CFA_XSP16, literal(-12)))
          CFI (cfiCond219) VB load(1, XDATA, add(CFA_XSP16, literal(-11)))
          CFI (cfiCond219) V0 load(1, XDATA, add(CFA_XSP16, literal(-10)))
          CFI (cfiCond219) V1 load(1, XDATA, add(CFA_XSP16, literal(-9)))
          CFI (cfiCond219) V2 load(1, XDATA, add(CFA_XSP16, literal(-8)))
          CFI (cfiCond219) V3 load(1, XDATA, add(CFA_XSP16, literal(-7)))
          CFI (cfiCond219) R7 load(1, XDATA, add(CFA_XSP16, literal(-6)))
          CFI (cfiCond219) ?RET_LOW load(1, XDATA, add(CFA_XSP16, literal(-5)))
          CFI (cfiCond219) ?RET_HIGH load(1, XDATA, add(CFA_XSP16, literal(-4)))
          CFI (cfiCond219) ?BRET_EXT load(1, XDATA, add(CFA_XSP16, literal(-3)))
          CFI (cfiCond219) DPL0 load(1, XDATA, add(CFA_XSP16, literal(-2)))
          CFI (cfiCond219) DPH0 load(1, XDATA, add(CFA_XSP16, literal(-1)))
          CFI (cfiCond219) CFA_SP SP+-4
          CFI (cfiCond219) CFA_XSP16 add(XSP16, 41)
          CFI Block cfiPicker220 Using cfiCommon1
          CFI (cfiPicker220) NoFunction
          CFI (cfiPicker220) Picker
        MOVX    @DPTR,A
        MOV     DPL,?V0
        MOV     DPH,?V1
        INC     DPTR
        INC     DPTR
        INC     DPTR
        INC     DPTR
        INC     DPTR
        INC     DPTR
        INC     DPTR
        INC     DPTR
        RET
          CFI EndBlock cfiCond216
          CFI EndBlock cfiCond217
          CFI EndBlock cfiCond218
          CFI EndBlock cfiCond219
          CFI EndBlock cfiPicker220

        RSEG XDATA_ID:CODE:NOROOT(0)
`?<Initializer for zclSampleThermostat_NwkState`:
        DATA8
        DB 1

        RSEG XDATA_ID:CODE:NOROOT(0)
`?<Initializer for aProcessCmd>`:
        DATA8
        DB 1
        DB 0
        DB 0
        DB 0

        RSEG XDATA_ID:CODE:NOROOT(0)
`?<Initializer for sampleThermostat_TestEp>`:
        DATA8
        DB 20
        DATA16
        DW zclSampleThermostat_TaskID
        DW 0H
        DATA8
        DB 0

        RSEG XDATA_ID:CODE:NOROOT(0)
`?<Initializer for zclSampleThermostat_CmdCallb`:
        DATA16
        DW `??zclSampleThermostat_BasicResetCB::?relay`
        DW `??zclSampleThermostat_IdentifyCB::?relay`
        DW 0H
        DW 0H
        DW 0H
        DW `??zclSampleThermostat_IdentifyQueryRspCB::?rela`
        DW 0H
        DW 0H
        DW 0H
        DW 0H
        DW 0H
        DW 0H

        RSEG XDATA_ID:CODE:NOROOT(0)
`?<Initializer for clusterIDs>`:
        DATA16
        DW 513

        RSEG XDATA_ID:CODE:NOROOT(0)
`?<Initializer for clusterIDs>_1`:
        DATA16
        DW 513

        RSEG BANK_RELAYS:CODE:REORDER:NOROOT(0)
`??zclSampleThermostat_Init::?relay`:
        CODE
        LCALL   ?BDISPATCH
        DATA24
        DC24    zclSampleThermostat_Init

        RSEG BANK_RELAYS:CODE:REORDER:NOROOT(0)
`??zclSampleThermostat_event_loop::?relay`:
        CODE
        LCALL   ?BDISPATCH
        DATA24
        DC24    zclSampleThermostat_event_loop

        RSEG BANK_RELAYS:CODE:REORDER:NOROOT(0)
`??zclSampleThermostat_HandleKeys::?relay`:
        CODE
        LCALL   ?BDISPATCH
        DATA24
        DC24    zclSampleThermostat_HandleKeys

        RSEG BANK_RELAYS:CODE:REORDER:NOROOT(0)
`??zclSampleThermostat_LcdDisplayUpdate::?relay`:
        CODE
        LCALL   ?BDISPATCH
        DATA24
        DC24    zclSampleThermostat_LcdDisplayUpdate

        RSEG BANK_RELAYS:CODE:REORDER:NOROOT(0)
`??zclSampleThermostat_LcdDisplayMainMode::?rela`:
        CODE
        LCALL   ?BDISPATCH
        DATA24
        DC24    zclSampleThermostat_LcdDisplayMainMode

        RSEG BANK_RELAYS:CODE:REORDER:NOROOT(0)
`??zclSampleThermostat_LcdDisplayHelpMode::?rela`:
        CODE
        LCALL   ?BDISPATCH
        DATA24
        DC24    zclSampleThermostat_LcdDisplayHelpMode

        RSEG BANK_RELAYS:CODE:REORDER:NOROOT(0)
`??zclSampleThermostat_LcdDisplayHeatMode::?rela`:
        CODE
        LCALL   ?BDISPATCH
        DATA24
        DC24    zclSampleThermostat_LcdDisplayHeatMode

        RSEG BANK_RELAYS:CODE:REORDER:NOROOT(0)
`??zclSampleThermostat_LcdDisplayCoolMode::?rela`:
        CODE
        LCALL   ?BDISPATCH
        DATA24
        DC24    zclSampleThermostat_LcdDisplayCoolMode

        RSEG BANK_RELAYS:CODE:REORDER:NOROOT(0)
??zclSampleThermostat_ProcessIdentifyTimeChange:
        CODE
        LCALL   ?BDISPATCH
        DATA24
        DC24    zclSampleThermostat_ProcessIdentifyTimeChange

        RSEG BANK_RELAYS:CODE:REORDER:NOROOT(0)
`??zclSampleThermostat_ProcessAppMsg::?relay`:
        CODE
        LCALL   ?BDISPATCH
        DATA24
        DC24    zclSampleThermostat_ProcessAppMsg

        RSEG BANK_RELAYS:CODE:REORDER:NOROOT(0)
`??zclSampleThermostat_ProcessFoundationMsg::?re`:
        CODE
        LCALL   ?BDISPATCH
        DATA24
        DC24    zclSampleThermostat_ProcessFoundationMsg

        RSEG BANK_RELAYS:CODE:REORDER:NOROOT(0)
`??zclSampleThermostat_BasicResetCB::?relay`:
        CODE
        LCALL   ?BDISPATCH
        DATA24
        DC24    zclSampleThermostat_BasicResetCB

        RSEG BANK_RELAYS:CODE:REORDER:NOROOT(0)
`??zclSampleThermostat_IdentifyCB::?relay`:
        CODE
        LCALL   ?BDISPATCH
        DATA24
        DC24    zclSampleThermostat_IdentifyCB

        RSEG BANK_RELAYS:CODE:REORDER:NOROOT(0)
`??zclSampleThermostat_IdentifyQueryRspCB::?rela`:
        CODE
        LCALL   ?BDISPATCH
        DATA24
        DC24    zclSampleThermostat_IdentifyQueryRspCB

        RSEG BANK_RELAYS:CODE:REORDER:NOROOT(0)
`??zclSampleThermostat_ProcessInReportCmd::?rela`:
        CODE
        LCALL   ?BDISPATCH
        DATA24
        DC24    zclSampleThermostat_ProcessInReportCmd

        RSEG BANK_RELAYS:CODE:REORDER:NOROOT(0)
`??zclSampleThermostat_EZModeCB::?relay`:
        CODE
        LCALL   ?BDISPATCH
        DATA24
        DC24    zclSampleThermostat_EZModeCB

        RSEG BANK_RELAYS:CODE:REORDER:NOROOT(0)
`??zclSampleThermostat_BindingProcess::?relay`:
        CODE
        LCALL   ?BDISPATCH
        DATA24
        DC24    zclSampleThermostat_BindingProcess

        RSEG BANK_RELAYS:CODE:REORDER:NOROOT(0)
`??zclSampleThermostat_SendFreeData::?relay`:
        CODE
        LCALL   ?BDISPATCH
        DATA24
        DC24    zclSampleThermostat_SendFreeData

        RSEG BANK_RELAYS:CODE:REORDER:NOROOT(0)
`??zclSampleThermostat_SendC::?relay`:
        CODE
        LCALL   ?BDISPATCH
        DATA24
        DC24    zclSampleThermostat_SendC

        RSEG XDATA_ROM_C:CONST:REORDER:NOROOT(0)
        DATA8
`?<Constant "[EVENT] ZDO_CB_MSG">`:
        DB "[EVENT] ZDO_CB_MSG"

        RSEG XDATA_ROM_C:CONST:REORDER:NOROOT(0)
        DATA8
`?<Constant "[EVENT] MT_SYS_APP_MSG">`:
        DB "[EVENT] MT_SYS_APP_MSG"

        RSEG XDATA_ROM_C:CONST:REORDER:NOROOT(0)
        DATA8
`?<Constant "[EVENT] ZCL_INCOMING_MSG">`:
        DB "[EVENT] ZCL_INCOMING_MSG"

        RSEG XDATA_ROM_C:CONST:REORDER:NOROOT(0)
        DATA8
`?<Constant "[EVENT] KEY_CHANGE">`:
        DB "[EVENT] KEY_CHANGE"

        RSEG XDATA_ROM_C:CONST:REORDER:NOROOT(0)
        DATA8
`?<Constant "[EVENT] ZDO_STATE_CHANGE">`:
        DB "[EVENT] ZDO_STATE_CHANGE"

        RSEG XDATA_ROM_C:CONST:REORDER:NOROOT(0)
        DATA8
`?<Constant "[EVENT] SAMPLETHERMOS...">`:
        DB "[EVENT] SAMPLETHERMOSTAT_IDENTIFY_TIMEOUT_EVT"

        RSEG XDATA_ROM_C:CONST:REORDER:NOROOT(0)
        DATA8
`?<Constant "[EVENT] SAMPLETHERMOS...">_1`:
        DB "[EVENT] SAMPLETHERMOSTAT_MAIN_SCREEN_EVT"

        RSEG XDATA_ROM_C:CONST:REORDER:NOROOT(0)
        DATA8
`?<Constant "[EVENT] SAMPLETHERMOS...">_2`:
        DB "[EVENT] SAMPLETHERMOSTAT_EZMODE_NEXTSTATE_EVT"

        RSEG XDATA_ROM_C:CONST:REORDER:NOROOT(0)
        DATA8
`?<Constant "[EVENT] SAMPLETHERMOS...">_3`:
        DB "[EVENT] SAMPLETHERMOSTAT_EZMODE_TIMEOUT_EVT"

        RSEG XDATA_ROM_C:CONST:REORDER:NOROOT(0)
        DATA8
`?<Constant "SAMPLETHERMOSTAT_JOIN...">`:
        DB "SAMPLETHERMOSTAT_JOIN_SETUP_EVT"

        RSEG XDATA_ROM_C:CONST:REORDER:NOROOT(0)
        DATA32
`?<Constant "SW6">`:
        DB "SW6"

        RSEG XDATA_ROM_C:CONST:REORDER:NOROOT(0)
        DATA8
`?<Constant "usedEntries: ">`:
        DB "usedEntries: "

        RSEG XDATA_ROM_C:CONST:REORDER:NOROOT(0)
        DATA8
`?<Constant "">`:
        DB ""

        RSEG XDATA_ROM_C:CONST:REORDER:NOROOT(0)
        DATA8
`?<Constant "Entry 0: ">`:
        DB "Entry 0: "

        RSEG XDATA_ROM_C:CONST:REORDER:NOROOT(0)
        DATA32
`?<Constant " | ">`:
        DB " | "

        RSEG XDATA_ROM_C:CONST:REORDER:NOROOT(0)
        DATA8
`?<Constant "Entry 1: ">`:
        DB "Entry 1: "

        RSEG XDATA_ROM_C:CONST:REORDER:NOROOT(0)
        DATA8
`?<Constant "Entry 2: ">`:
        DB "Entry 2: "

        RSEG XDATA_ROM_C:CONST:REORDER:NOROOT(0)
        DATA8
`?<Constant "Entry 3: ">`:
        DB "Entry 3: "

        RSEG XDATA_ROM_C:CONST:REORDER:NOROOT(0)
        DATA32
`?<Constant "SW8">`:
        DB "SW8"

        RSEG XDATA_ROM_C:CONST:REORDER:NOROOT(0)
        DATA8
`?<Constant "EZMode">`:
        DB "EZMode"

        RSEG XDATA_ROM_C:CONST:REORDER:NOROOT(0)
        DATA8
`?<Constant "TEMP: ">`:
        DB "TEMP: "

        RSEG XDATA_ROM_C:CONST:REORDER:NOROOT(0)
        DATA32
`?<Constant "N/A">`:
        DB "N/A"

        RSEG XDATA_ROM_C:CONST:REORDER:NOROOT(0)
        DATA16
`?<Constant "C">`:
        DB "C"

        RSEG XDATA_ROM_C:CONST:REORDER:NOROOT(0)
        DATA8
`?<Constant "SW5: Help      *">`:
        DB "SW5: Help      *"

        RSEG XDATA_ROM_C:CONST:REORDER:NOROOT(0)
        DATA8
`?<Constant "SW5: Help       ">`:
        DB "SW5: Help       "

        RSEG XDATA_ROM_C:CONST:REORDER:NOROOT(0)
        DATA8
`?<Constant "HEAT TEMP: ">`:
        DB "HEAT TEMP: "

        RSEG XDATA_ROM_C:CONST:REORDER:NOROOT(0)
        DATA8
`?<Constant "COOL TEMP: ">`:
        DB "COOL TEMP: "

        RSEG XDATA_ROM_C:CONST:REORDER:NOROOT(0)
        DATA8
`?<Constant "@ZBR:">`:
        DB "@ZBR:"

        RSEG XDATA_ROM_C:CONST:REORDER:NOROOT(0)
        DATA16
`?<Constant ";">`:
        DB ";"

        RSEG XDATA_ROM_C:CONST:REORDER:NOROOT(0)
        DATA16
`?<Constant "!">`:
        DB "!"

        RSEG XDATA_ROM_C:CONST:REORDER:NOROOT(0)
        DATA8
`?<Constant "@ZBF:">`:
        DB "@ZBF:"

        RSEG XDATA_ROM_C:CONST:REORDER:NOROOT(0)
        DATA8
`?<Constant "@ZBS:">`:
        DB "@ZBS:"

        RSEG XDATA_ROM_C:CONST:REORDER:NOROOT(0)
        DATA8
`?<Constant "EZMode: Success">`:
        DB "EZMode: Success"

        RSEG XDATA_ROM_C:CONST:REORDER:NOROOT(0)
        DATA8
`?<Constant "EZDst:">`:
        DB "EZDst:"

        RSEG XDATA_ROM_C:CONST:REORDER:NOROOT(0)
        DATA8
`?<Constant " EP:">`:
        DB " EP:"

        RSEG XDATA_ROM_C:CONST:REORDER:NOROOT(0)
        DATA8
`?<Constant "EZMode: BadParm">`:
        DB "EZMode: BadParm"

        RSEG XDATA_ROM_C:CONST:REORDER:NOROOT(0)
        DATA8
`?<Constant "EZMode: Cancel">`:
        DB "EZMode: Cancel"

        RSEG XDATA_ROM_C:CONST:REORDER:NOROOT(0)
        DATA8
`?<Constant "EZMode: NoMatch">`:
        DB "EZMode: NoMatch"

        RSEG XDATA_ROM_C:CONST:REORDER:NOROOT(0)
        DATA8
`?<Constant "EZMode: TimeOut">`:
        DB "EZMode: TimeOut"

        RSEG XDATA_ROM_C:CONST:REORDER:NOROOT(0)
        DATA32
__Constant_a:
        DD 10

        RSEG XDATA_ROM_C:CONST:REORDER:NOROOT(0)
        DATA32
__Constant_2710:
        DD 10000

        RSEG XDATA_ROM_C:CONST:REORDER:NOROOT(0)
        DATA32
__Constant_1388:
        DD 5000

        RSEG XDATA_ROM_C:CONST:REORDER:NOROOT(0)
        DATA32
__Constant_3e8:
        DD 1000

        RSEG XDATA_ROM_C:CONST:REORDER:NOROOT(0)
        DATA32
__Constant_bb8:
        DD 3000

        END
// 
// 5 405 bytes in segment BANKED_CODE
//   114 bytes in segment BANK_RELAYS
//    39 bytes in segment XDATA_I
//    39 bytes in segment XDATA_ID
//   736 bytes in segment XDATA_ROM_C
//    16 bytes in segment XDATA_Z
// 
//   153 bytes of CODE     memory
//   716 bytes of CONST    memory (+ 20 bytes shared)
// 5 405 bytes of HUGECODE memory
//    55 bytes of XDATA    memory
//
//Errors: none
//Warnings: 6
