///////////////////////////////////////////////////////////////////////////////
//
// IAR C/C++ Compiler V9.30.3.3983 for 8051               14/Mar/2017  17:15:58
// Copyright 2004-2016 IAR Systems AB.
// Standalone license - IAR Embedded Workbench for 8051
//
//    Core               =  plain
//    Code model         =  banked
//    Data model         =  large
//    Calling convention =  xdata reentrant
//    Constant location  =  data_rom
//    Dptr setup         =  1,16
//                          
//    Source file        =  
//        D:\GitHub\TripleS_Zigbee\Projects\zstack\HomeAutomation\SampleThermostat\Source\zcl_samplethermostat.c
//    Command line       =  
//        -f
//        D:\GitHub\TripleS_Zigbee\Projects\zstack\HomeAutomation\SampleThermostat\CC2530DB\..\..\..\Tools\CC2530DB\f8wCoord.cfg
//        (-DCPU32MHZ -DROOT=__near_func -DMAC_CFG_APP_PENDING_QUEUE=TRUE
//        -DMAC_CFG_TX_DATA_MAX=5 -DMAC_CFG_TX_MAX=8 -DMAC_CFG_RX_MAX=5
//        -DZDO_COORDINATOR -DRTR_NWK) -f
//        D:\GitHub\TripleS_Zigbee\Projects\zstack\HomeAutomation\SampleThermostat\CC2530DB\..\..\..\Tools\CC2530DB\f8wConfig.cfg
//        (-DZIGBEEPRO -DSECURE=1 -DZG_SECURE_DYNAMIC=0 -DREFLECTOR
//        -DDEFAULT_CHANLIST=0x00000800 -DZDAPP_CONFIG_PAN_ID=0xFAFA
//        -DNWK_START_DELAY=100 -DEXTENDED_JOINING_RANDOM_MASK=0x007F
//        -DBEACON_REQUEST_DELAY=100 -DBEACON_REQ_DELAY_MASK=0x00FF
//        -DLINK_STATUS_JITTER_MASK=0x007F -DROUTE_EXPIRY_TIME=30
//        -DAPSC_ACK_WAIT_DURATION_POLLED=3000 -DNWK_INDIRECT_MSG_TIMEOUT=7
//        -DMAX_RREQ_ENTRIES=8 -DAPSC_MAX_FRAME_RETRIES=3
//        -DNWK_MAX_DATA_RETRIES=2 -DMAX_POLL_FAILURE_RETRIES=2 -DMAX_BCAST=9
//        -DAPS_MAX_GROUPS=16 -DMAX_RTG_ENTRIES=40 -DNWK_MAX_BINDING_ENTRIES=4
//        -DMAX_BINDING_CLUSTER_IDS=4 "-DDEFAULT_KEY={0x01, 0x03, 0x05, 0x07,
//        0x09, 0x0B, 0x0D, 0x0F, 0x00, 0x02, 0x04, 0x06, 0x08, 0x0A, 0x0C,
//        0x0D}" -DMAC_MAX_FRAME_SIZE=116 -DZDNWKMGR_MIN_TRANSMISSIONS=20
//        "-DCONST=const __code" -DGENERIC=__generic -DRFD_RCVC_ALWAYS_ON=FALSE
//        -DPOLL_RATE=1000 -DQUEUED_POLL_RATE=100 -DRESPONSE_POLL_RATE=100
//        -DREJOIN_POLL_RATE=440 -DREJOIN_BACKOFF=900000 -DREJOIN_SCAN=900000)
//        -f
//        D:\GitHub\TripleS_Zigbee\Projects\zstack\HomeAutomation\SampleThermostat\CC2530DB\..\..\..\Tools\CC2530DB\f8wZCL.cfg
//        D:\GitHub\TripleS_Zigbee\Projects\zstack\HomeAutomation\SampleThermostat\Source\zcl_samplethermostat.c
//        -D COORDINATOR -D SECURE=1 -D TC_LINKKEY_JOIN -D NV_INIT -D
//        NV_RESTORE -D xHOLD_AUTO_START -D ZTOOL_P1 -D MT_TASK -D MT_APP_FUNC
//        -D MT_SYS_FUNC -D MT_ZDO_FUNC -D LCD_SUPPORTED=DEBUG -D
//        MULTICAST_ENABLED=FALSE -D ZCL_READ -D ZCL_WRITE -D ZCL_REPORT -D
//        ZCL_EZMODE -D ZCL_BASIC -D ZCL_IDENTIFY -D ZCL_ON_OFF -D
//        ZCL_HVAC_CLUSTER -D xHAL_UART=TRUE -D xHAL_UART_DMA=1 -lC
//        D:\GitHub\TripleS_Zigbee\Projects\zstack\HomeAutomation\SampleThermostat\CC2530DB\CoordinatorEB\List
//        -lA
//        D:\GitHub\TripleS_Zigbee\Projects\zstack\HomeAutomation\SampleThermostat\CC2530DB\CoordinatorEB\List
//        --diag_suppress Pe001,Pa010 -o
//        D:\GitHub\TripleS_Zigbee\Projects\zstack\HomeAutomation\SampleThermostat\CC2530DB\CoordinatorEB\Obj
//        -e --debug --core=plain --dptr=16,1 --data_model=large
//        --code_model=banked --calling_convention=xdata_reentrant
//        --place_constants=data_rom --nr_virtual_regs 16 -I
//        D:\GitHub\TripleS_Zigbee\Projects\zstack\HomeAutomation\SampleThermostat\CC2530DB\
//        -I
//        D:\GitHub\TripleS_Zigbee\Projects\zstack\HomeAutomation\SampleThermostat\CC2530DB\..\Source\
//        -I
//        D:\GitHub\TripleS_Zigbee\Projects\zstack\HomeAutomation\SampleThermostat\CC2530DB\..\..\Source\
//        -I
//        D:\GitHub\TripleS_Zigbee\Projects\zstack\HomeAutomation\SampleThermostat\CC2530DB\..\..\..\HomeAutomation\MY-SOURCE\
//        -I
//        D:\GitHub\TripleS_Zigbee\Projects\zstack\HomeAutomation\SampleThermostat\CC2530DB\..\..\..\ZMain\TI2530DB\
//        -I
//        D:\GitHub\TripleS_Zigbee\Projects\zstack\HomeAutomation\SampleThermostat\CC2530DB\..\..\..\..\..\Components\hal\include\
//        -I
//        D:\GitHub\TripleS_Zigbee\Projects\zstack\HomeAutomation\SampleThermostat\CC2530DB\..\..\..\..\..\Components\hal\target\CC2530EB\
//        -I
//        D:\GitHub\TripleS_Zigbee\Projects\zstack\HomeAutomation\SampleThermostat\CC2530DB\..\..\..\..\..\Components\mac\include\
//        -I
//        D:\GitHub\TripleS_Zigbee\Projects\zstack\HomeAutomation\SampleThermostat\CC2530DB\..\..\..\..\..\Components\mac\high_level\
//        -I
//        D:\GitHub\TripleS_Zigbee\Projects\zstack\HomeAutomation\SampleThermostat\CC2530DB\..\..\..\..\..\Components\mac\low_level\srf04\
//        -I
//        D:\GitHub\TripleS_Zigbee\Projects\zstack\HomeAutomation\SampleThermostat\CC2530DB\..\..\..\..\..\Components\mac\low_level\srf04\single_chip\
//        -I
//        D:\GitHub\TripleS_Zigbee\Projects\zstack\HomeAutomation\SampleThermostat\CC2530DB\..\..\..\..\..\Components\mt\
//        -I
//        D:\GitHub\TripleS_Zigbee\Projects\zstack\HomeAutomation\SampleThermostat\CC2530DB\..\..\..\..\..\Components\osal\include\
//        -I
//        D:\GitHub\TripleS_Zigbee\Projects\zstack\HomeAutomation\SampleThermostat\CC2530DB\..\..\..\..\..\Components\services\saddr\
//        -I
//        D:\GitHub\TripleS_Zigbee\Projects\zstack\HomeAutomation\SampleThermostat\CC2530DB\..\..\..\..\..\Components\services\sdata\
//        -I
//        D:\GitHub\TripleS_Zigbee\Projects\zstack\HomeAutomation\SampleThermostat\CC2530DB\..\..\..\..\..\Components\stack\af\
//        -I
//        D:\GitHub\TripleS_Zigbee\Projects\zstack\HomeAutomation\SampleThermostat\CC2530DB\..\..\..\..\..\Components\stack\nwk\
//        -I
//        D:\GitHub\TripleS_Zigbee\Projects\zstack\HomeAutomation\SampleThermostat\CC2530DB\..\..\..\..\..\Components\stack\sapi\
//        -I
//        D:\GitHub\TripleS_Zigbee\Projects\zstack\HomeAutomation\SampleThermostat\CC2530DB\..\..\..\..\..\Components\stack\sec\
//        -I
//        D:\GitHub\TripleS_Zigbee\Projects\zstack\HomeAutomation\SampleThermostat\CC2530DB\..\..\..\..\..\Components\stack\sys\
//        -I
//        D:\GitHub\TripleS_Zigbee\Projects\zstack\HomeAutomation\SampleThermostat\CC2530DB\..\..\..\..\..\Components\stack\zcl\
//        -I
//        D:\GitHub\TripleS_Zigbee\Projects\zstack\HomeAutomation\SampleThermostat\CC2530DB\..\..\..\..\..\Components\stack\zdo\
//        -I
//        D:\GitHub\TripleS_Zigbee\Projects\zstack\HomeAutomation\SampleThermostat\CC2530DB\..\..\..\..\..\Components\zmac\
//        -I
//        D:\GitHub\TripleS_Zigbee\Projects\zstack\HomeAutomation\SampleThermostat\CC2530DB\..\..\..\..\..\Components\zmac\f8w\
//        -Ohz --require_prototypes
//    List file          =  
//        D:\GitHub\TripleS_Zigbee\Projects\zstack\HomeAutomation\SampleThermostat\CC2530DB\CoordinatorEB\List\zcl_samplethermostat.s51
//
///////////////////////////////////////////////////////////////////////////////

        NAME zcl_samplethermostat

        RTMODEL "__SystemLibrary", "CLib"
        RTMODEL "__calling_convention", "xdata_reentrant"
        RTMODEL "__code_model", "banked"
        RTMODEL "__core", "plain"
        RTMODEL "__data_model", "large"
        RTMODEL "__dptr_size", "16"
        RTMODEL "__extended_stack", "disabled"
        RTMODEL "__location_for_constants", "data"
        RTMODEL "__number_of_dptrs", "1"
        RTMODEL "__rt_version", "1"

        RSEG DOVERLAY:DATA:NOROOT(0)
        RSEG IOVERLAY:IDATA:NOROOT(0)
        RSEG ISTACK:IDATA:NOROOT(0)
        RSEG PSTACK:XDATA:NOROOT(0)
        RSEG XSTACK:XDATA:NOROOT(0)

        EXTERN ?V0
        EXTERN ?V1
        EXTERN ?V2
        EXTERN ?V3
        EXTERN ?V4
        EXTERN ?V5
        EXTERN ?V6
        EXTERN ?V7
        EXTERN ?V8
        EXTERN ?V9
        EXTERN ?V10
        EXTERN ?V11
        EXTERN ?V12
        EXTERN ?V13
        EXTERN ?V14
        EXTERN ?V15
        EXTERN ?ALLOC_XSTACK8
        EXTERN ?BANKED_ENTER_XDATA
        EXTERN ?BANKED_LEAVE_XDATA
        EXTERN ?BDISPATCH
        EXTERN ?BRET
        EXTERN ?DEALLOC_XSTACK8
        EXTERN ?PUSH_XSTACK8_X_FOUR
        EXTERN ?PUSH_XSTACK8_X_TWO
        EXTERN ?PUSH_XSTACK_I_ONE
        EXTERN ?PUSH_XSTACK_I_THREE
        EXTERN ?PUSH_XSTACK_I_TWO
        EXTERN ?S_DIV_MOD
        EXTERN ?XSP
        EXTERN ?XSTACK_DISP0_8
        EXTERN ?XSTACK_DISP100_8
        EXTERN ?XSTACK_DISP101_8
        EXTERN ?XSTACK_DISP102_8
        EXTERN __INIT_XDATA_I
        EXTERN __INIT_XDATA_Z

        FUNCTION `??zclSampleThermostat_BasicResetCB::?relay`,0203H
        PUBLIC `??zclSampleThermostat_BindingProcess::?relay`
        FUNCTION `??zclSampleThermostat_BindingProcess::?relay`,0203H
        FUNCTION `??zclSampleThermostat_EZModeCB::?relay`,0203H
        FUNCTION `??zclSampleThermostat_HandleKeys::?relay`,0203H
        FUNCTION `??zclSampleThermostat_IdentifyCB::?relay`,0203H
        FUNCTION `??zclSampleThermostat_IdentifyQueryRspCB::?rela`,0203H
        PUBLIC `??zclSampleThermostat_Init::?relay`
        FUNCTION `??zclSampleThermostat_Init::?relay`,0203H
        PUBLIC `??zclSampleThermostat_LcdDisplayCoolMode::?rela`
        FUNCTION `??zclSampleThermostat_LcdDisplayCoolMode::?rela`,0203H
        PUBLIC `??zclSampleThermostat_LcdDisplayHeatMode::?rela`
        FUNCTION `??zclSampleThermostat_LcdDisplayHeatMode::?rela`,0203H
        PUBLIC `??zclSampleThermostat_LcdDisplayHelpMode::?rela`
        FUNCTION `??zclSampleThermostat_LcdDisplayHelpMode::?rela`,0203H
        PUBLIC `??zclSampleThermostat_LcdDisplayMainMode::?rela`
        FUNCTION `??zclSampleThermostat_LcdDisplayMainMode::?rela`,0203H
        PUBLIC `??zclSampleThermostat_LcdDisplayUpdate::?relay`
        FUNCTION `??zclSampleThermostat_LcdDisplayUpdate::?relay`,0203H
        FUNCTION `??zclSampleThermostat_ProcessAppMsg::?relay`,0203H
        FUNCTION `??zclSampleThermostat_ProcessFoundationMsg::?re`,0203H
        FUNCTION ??zclSampleThermostat_ProcessIdentifyTimeChange,0203H
        FUNCTION `??zclSampleThermostat_ProcessInReportCmd::?rela`,0203H
        PUBLIC `??zclSampleThermostat_SendC::?relay`
        FUNCTION `??zclSampleThermostat_SendC::?relay`,0203H
        PUBLIC `??zclSampleThermostat_SendFreeData::?relay`
        FUNCTION `??zclSampleThermostat_SendFreeData::?relay`,0203H
        PUBLIC `??zclSampleThermostat_event_loop::?relay`
        FUNCTION `??zclSampleThermostat_event_loop::?relay`,0203H
        PUBWEAK __Constant_1388
        PUBWEAK __Constant_2710
        PUBWEAK __Constant_3e8
        PUBWEAK __Constant_a
        PUBWEAK __Constant_bb8
        PUBLIC giThermostatScreenMode
        PUBLIC sClearLine
        PUBLIC sDeviceName
        PUBLIC sStoreCoolTemp
        PUBLIC sStoreHeatTemp
        PUBLIC sSwCoolSet
        PUBLIC sSwEZMode
        PUBLIC sSwHeatSet
        PUBLIC sSwHelp
        PUBLIC sTempLine2
        PUBLIC sTempLine3
        PUBLIC zclSampleThermostatSeqNum
        FUNCTION zclSampleThermostat_BasicResetCB,021603H
        ARGFRAME XSTACK, 29, STACK
        ARGFRAME IOVERLAY, 0, STATIC
        ARGFRAME DOVERLAY, 0, STATIC
        LOCFRAME ISTACK, 2, STACK
        PUBLIC zclSampleThermostat_BindingProcess
        FUNCTION zclSampleThermostat_BindingProcess,021203H
        ARGFRAME XSTACK, 16, STACK
        ARGFRAME IOVERLAY, 0, STATIC
        ARGFRAME DOVERLAY, 0, STATIC
        LOCFRAME ISTACK, 2, STACK
        LOCFRAME XSTACK, 9, STACK
        PUBLIC zclSampleThermostat_DstAddr
        FUNCTION zclSampleThermostat_EZModeCB,0a1603H
        ARGFRAME XSTACK, 0, STACK
        LOCFRAME XSTACK, 39, STACK
        FUNCTION zclSampleThermostat_HandleKeys,0a1203H
        ARGFRAME XSTACK, 16, STACK
        ARGFRAME IOVERLAY, 0, STATIC
        ARGFRAME DOVERLAY, 0, STATIC
        LOCFRAME XSTACK, 29, STACK
        FUNCTION zclSampleThermostat_IdentifyCB,021603H
        ARGFRAME XSTACK, 0, STACK
        LOCFRAME ISTACK, 2, STACK
        FUNCTION zclSampleThermostat_IdentifyQueryRspCB,021603H
        ARGFRAME XSTACK, 0, STACK
        LOCFRAME ISTACK, 2, STACK
        LOCFRAME XSTACK, 2, STACK
        PUBLIC zclSampleThermostat_Init
        FUNCTION zclSampleThermostat_Init,0a1203H
        ARGFRAME XSTACK, 0, STACK
        LOCFRAME XSTACK, 14, STACK
        PUBLIC zclSampleThermostat_LcdDisplayCoolMode
        FUNCTION zclSampleThermostat_LcdDisplayCoolMode,0a1203H
        ARGFRAME XSTACK, 0, STACK
        ARGFRAME IOVERLAY, 0, STATIC
        ARGFRAME DOVERLAY, 0, STATIC
        LOCFRAME XSTACK, 30, STACK
        PUBLIC zclSampleThermostat_LcdDisplayHeatMode
        FUNCTION zclSampleThermostat_LcdDisplayHeatMode,0a1203H
        ARGFRAME XSTACK, 0, STACK
        ARGFRAME IOVERLAY, 0, STATIC
        ARGFRAME DOVERLAY, 0, STATIC
        LOCFRAME XSTACK, 30, STACK
        PUBLIC zclSampleThermostat_LcdDisplayHelpMode
        FUNCTION zclSampleThermostat_LcdDisplayHelpMode,021203H
        ARGFRAME XSTACK, 0, STACK
        ARGFRAME IOVERLAY, 0, STATIC
        ARGFRAME DOVERLAY, 0, STATIC
        LOCFRAME ISTACK, 2, STACK
        PUBLIC zclSampleThermostat_LcdDisplayMainMode
        FUNCTION zclSampleThermostat_LcdDisplayMainMode,0a1203H
        ARGFRAME XSTACK, 0, STACK
        ARGFRAME IOVERLAY, 0, STATIC
        ARGFRAME DOVERLAY, 0, STATIC
        LOCFRAME XSTACK, 30, STACK
        PUBLIC zclSampleThermostat_LcdDisplayUpdate
        FUNCTION zclSampleThermostat_LcdDisplayUpdate,021203H
        ARGFRAME XSTACK, 29, STACK
        ARGFRAME IOVERLAY, 0, STATIC
        ARGFRAME DOVERLAY, 0, STATIC
        LOCFRAME ISTACK, 4, STACK
        PUBLIC zclSampleThermostat_NwkState
        FUNCTION zclSampleThermostat_ProcessAppMsg,0a1203H
        ARGFRAME XSTACK, 16, STACK
        ARGFRAME IOVERLAY, 0, STATIC
        ARGFRAME DOVERLAY, 0, STATIC
        LOCFRAME ISTACK, 1, STACK
        LOCFRAME XSTACK, 52, STACK
        FUNCTION zclSampleThermostat_ProcessFoundationMsg,0a1203H
        ARGFRAME XSTACK, 45, STACK
        ARGFRAME IOVERLAY, 0, STATIC
        ARGFRAME DOVERLAY, 0, STATIC
        LOCFRAME XSTACK, 29, STACK
        FUNCTION zclSampleThermostat_ProcessIdentifyTimeChange,021203H
        ARGFRAME XSTACK, 35, STACK
        ARGFRAME IOVERLAY, 0, STATIC
        ARGFRAME DOVERLAY, 0, STATIC
        LOCFRAME ISTACK, 2, STACK
        LOCFRAME XSTACK, 4, STACK
        FUNCTION zclSampleThermostat_ProcessInReportCmd,0a1203H
        ARGFRAME XSTACK, 16, STACK
        ARGFRAME IOVERLAY, 0, STATIC
        ARGFRAME DOVERLAY, 0, STATIC
        LOCFRAME ISTACK, 1, STACK
        LOCFRAME XSTACK, 62, STACK
        PUBLIC zclSampleThermostat_SendC
        FUNCTION zclSampleThermostat_SendC,0a1203H
        ARGFRAME XSTACK, 0, STACK
        LOCFRAME ISTACK, 1, STACK
        LOCFRAME XSTACK, 46, STACK
        PUBLIC zclSampleThermostat_SendFreeData
        FUNCTION zclSampleThermostat_SendFreeData,0a1203H
        ARGFRAME XSTACK, 0, STACK
        LOCFRAME XSTACK, 29, STACK
        PUBLIC zclSampleThermostat_TaskID
        PUBLIC zclSampleThermostat_event_loop
        FUNCTION zclSampleThermostat_event_loop,0a1203H
        ARGFRAME XSTACK, 0, STACK
        LOCFRAME XSTACK, 20, STACK
        
          CFI Names cfiNames0
          CFI StackFrame CFA_SP SP IDATA
          CFI StackFrame CFA_PSP16 PSP16 XDATA
          CFI StackFrame CFA_XSP16 XSP16 XDATA
          CFI StaticOverlayFrame CFA_IOVERLAY IOVERLAY
          CFI StaticOverlayFrame CFA_DOVERLAY DOVERLAY
          CFI Resource `PSW.CY`:1, `B.BR0`:1, `B.BR1`:1, `B.BR2`:1, `B.BR3`:1
          CFI Resource `B.BR4`:1, `B.BR5`:1, `B.BR6`:1, `B.BR7`:1, `VB.BR8`:1
          CFI Resource `VB.BR9`:1, `VB.BR10`:1, `VB.BR11`:1, `VB.BR12`:1
          CFI Resource `VB.BR13`:1, `VB.BR14`:1, `VB.BR15`:1, VB:8, B:8, A:8
          CFI Resource PSW:8, DPL0:8, DPH0:8, R0:8, R1:8, R2:8, R3:8, R4:8, R5:8
          CFI Resource R6:8, R7:8, V0:8, V1:8, V2:8, V3:8, V4:8, V5:8, V6:8, V7:8
          CFI Resource V8:8, V9:8, V10:8, V11:8, V12:8, V13:8, V14:8, V15:8, SP:8
          CFI Resource PSPH:8, PSPL:8, PSP16:16, XSPH:8, XSPL:8, XSP16:16
          CFI VirtualResource ?RET:24
          CFI Resource ?BRET_EXT:8
          CFI VirtualResource ?RET_HIGH:8, ?RET_LOW:8
          CFI ResourceParts PSP16 PSPH, PSPL
          CFI ResourceParts XSP16 XSPH, XSPL
          CFI ResourceParts ?RET ?BRET_EXT, ?RET_HIGH, ?RET_LOW
          CFI EndNames cfiNames0
        
          CFI Common cfiCommon0 Using cfiNames0
          CFI CodeAlign 1
          CFI DataAlign -1
          CFI ReturnAddress ?RET CODE
          CFI CFA_DOVERLAY Used
          CFI CFA_IOVERLAY Used
          CFI CFA_SP SP+-3
          CFI CFA_PSP16 PSP16+0
          CFI CFA_XSP16 XSP16+0
          CFI `PSW.CY` SameValue
          CFI `B.BR0` SameValue
          CFI `B.BR1` SameValue
          CFI `B.BR2` SameValue
          CFI `B.BR3` SameValue
          CFI `B.BR4` SameValue
          CFI `B.BR5` SameValue
          CFI `B.BR6` SameValue
          CFI `B.BR7` SameValue
          CFI `VB.BR8` SameValue
          CFI `VB.BR9` SameValue
          CFI `VB.BR10` SameValue
          CFI `VB.BR11` SameValue
          CFI `VB.BR12` SameValue
          CFI `VB.BR13` SameValue
          CFI `VB.BR14` SameValue
          CFI `VB.BR15` SameValue
          CFI VB SameValue
          CFI B Undefined
          CFI A Undefined
          CFI PSW SameValue
          CFI DPL0 SameValue
          CFI DPH0 SameValue
          CFI R0 Undefined
          CFI R1 Undefined
          CFI R2 Undefined
          CFI R3 Undefined
          CFI R4 Undefined
          CFI R5 Undefined
          CFI R6 SameValue
          CFI R7 SameValue
          CFI V0 SameValue
          CFI V1 SameValue
          CFI V2 SameValue
          CFI V3 SameValue
          CFI V4 SameValue
          CFI V5 SameValue
          CFI V6 SameValue
          CFI V7 SameValue
          CFI V8 SameValue
          CFI V9 SameValue
          CFI V10 SameValue
          CFI V11 SameValue
          CFI V12 SameValue
          CFI V13 SameValue
          CFI V14 SameValue
          CFI V15 SameValue
          CFI PSPH Undefined
          CFI PSPL Undefined
          CFI XSPH Undefined
          CFI XSPL Undefined
          CFI ?RET Concat
          CFI ?BRET_EXT Frame(CFA_SP, 3)
          CFI ?RET_HIGH Frame(CFA_SP, 2)
          CFI ?RET_LOW Frame(CFA_SP, 1)
          CFI EndCommon cfiCommon0
        
        
          CFI Common cfiCommon1 Using cfiNames0
          CFI CodeAlign 1
          CFI DataAlign -1
          CFI ReturnAddress ?RET CODE
          CFI CFA_DOVERLAY Used
          CFI CFA_IOVERLAY Used
          CFI CFA_SP SP+-2
          CFI CFA_PSP16 PSP16+0
          CFI CFA_XSP16 XSP16+0
          CFI `PSW.CY` SameValue
          CFI `B.BR0` SameValue
          CFI `B.BR1` SameValue
          CFI `B.BR2` SameValue
          CFI `B.BR3` SameValue
          CFI `B.BR4` SameValue
          CFI `B.BR5` SameValue
          CFI `B.BR6` SameValue
          CFI `B.BR7` SameValue
          CFI `VB.BR8` SameValue
          CFI `VB.BR9` SameValue
          CFI `VB.BR10` SameValue
          CFI `VB.BR11` SameValue
          CFI `VB.BR12` SameValue
          CFI `VB.BR13` SameValue
          CFI `VB.BR14` SameValue
          CFI `VB.BR15` SameValue
          CFI VB SameValue
          CFI B SameValue
          CFI A SameValue
          CFI PSW SameValue
          CFI DPL0 SameValue
          CFI DPH0 SameValue
          CFI R0 SameValue
          CFI R1 SameValue
          CFI R2 SameValue
          CFI R3 SameValue
          CFI R4 SameValue
          CFI R5 SameValue
          CFI R6 SameValue
          CFI R7 SameValue
          CFI V0 SameValue
          CFI V1 SameValue
          CFI V2 SameValue
          CFI V3 SameValue
          CFI V4 SameValue
          CFI V5 SameValue
          CFI V6 SameValue
          CFI V7 SameValue
          CFI V8 SameValue
          CFI V9 SameValue
          CFI V10 SameValue
          CFI V11 SameValue
          CFI V12 SameValue
          CFI V13 SameValue
          CFI V14 SameValue
          CFI V15 SameValue
          CFI PSPH Undefined
          CFI PSPL Undefined
          CFI XSPH Undefined
          CFI XSPL Undefined
          CFI ?RET Concat
          CFI ?BRET_EXT SameValue
          CFI ?RET_HIGH Frame(CFA_SP, 2)
          CFI ?RET_LOW Frame(CFA_SP, 1)
          CFI EndCommon cfiCommon1
        
GPIO_init           SYMBOL "GPIO_init"
`??GPIO_init::?relay` SYMBOL "?relay", GPIO_init
GetBindingTableEntry SYMBOL "GetBindingTableEntry"
`??GetBindingTableEntry::?relay` SYMBOL "?relay", GetBindingTableEntry
HalLcdWriteString   SYMBOL "HalLcdWriteString"
`??HalLcdWriteString::?relay` SYMBOL "?relay", HalLcdWriteString
HalLedBlink         SYMBOL "HalLedBlink"
`??HalLedBlink::?relay` SYMBOL "?relay", HalLedBlink
HalLedSet           SYMBOL "HalLedSet"
`??HalLedSet::?relay` SYMBOL "?relay", HalLedSet
HalUARTWrite        SYMBOL "HalUARTWrite"
`??HalUARTWrite::?relay` SYMBOL "?relay", HalUARTWrite
MT_SysCommandProcessing SYMBOL "MT_SysCommandProcessing"
`??MT_SysCommandProcessing::?relay` SYMBOL "?relay", MT_SysCommandProcessing
NLME_GetCoordShortAddr SYMBOL "NLME_GetCoordShortAddr"
`??NLME_GetCoordShortAddr::?relay` SYMBOL "?relay", NLME_GetCoordShortAddr
NLME_GetShortAddr   SYMBOL "NLME_GetShortAddr"
`??NLME_GetShortAddr::?relay` SYMBOL "?relay", NLME_GetShortAddr
RegisterForKeys     SYMBOL "RegisterForKeys"
`??RegisterForKeys::?relay` SYMBOL "?relay", RegisterForKeys
UART_DebugPrint     SYMBOL "UART_DebugPrint"
`??UART_DebugPrint::?relay` SYMBOL "?relay", UART_DebugPrint
UART_Init           SYMBOL "UART_Init"
`??UART_Init::?relay` SYMBOL "?relay", UART_Init
UART_ParseRxPackage SYMBOL "UART_ParseRxPackage"
`??UART_ParseRxPackage::?relay` SYMBOL "?relay", UART_ParseRxPackage
UART_ZCmdPrint      SYMBOL "UART_ZCmdPrint"
`??UART_ZCmdPrint::?relay` SYMBOL "?relay", UART_ZCmdPrint
UART_ZCmdPrintBuffer SYMBOL "UART_ZCmdPrintBuffer"
`??UART_ZCmdPrintBuffer::?relay` SYMBOL "?relay", UART_ZCmdPrintBuffer
UART_ZCmdPrintNum   SYMBOL "UART_ZCmdPrintNum"
`??UART_ZCmdPrintNum::?relay` SYMBOL "?relay", UART_ZCmdPrintNum
UART_ZCmdPrintString SYMBOL "UART_ZCmdPrintString"
`??UART_ZCmdPrintString::?relay` SYMBOL "?relay", UART_ZCmdPrintString
ZCMD_ReplyCMD       SYMBOL "ZCMD_ReplyCMD"
`??ZCMD_ReplyCMD::?relay` SYMBOL "?relay", ZCMD_ReplyCMD
ZDO_ParseEPListRsp  SYMBOL "ZDO_ParseEPListRsp"
`??ZDO_ParseEPListRsp::?relay` SYMBOL "?relay", ZDO_ParseEPListRsp
ZDO_RegisterForZDOMsg SYMBOL "ZDO_RegisterForZDOMsg"
`??ZDO_RegisterForZDOMsg::?relay` SYMBOL "?relay", ZDO_RegisterForZDOMsg
ZDP_MgmtPermitJoinReq SYMBOL "ZDP_MgmtPermitJoinReq"
`??ZDP_MgmtPermitJoinReq::?relay` SYMBOL "?relay", ZDP_MgmtPermitJoinReq
_ltoa               SYMBOL "_ltoa"
`??_ltoa::?relay`   SYMBOL "?relay", _ltoa
afRegister          SYMBOL "afRegister"
`??afRegister::?relay` SYMBOL "?relay", afRegister
bindCapacity        SYMBOL "bindCapacity"
`??bindCapacity::?relay` SYMBOL "?relay", bindCapacity
osal_mem_alloc      SYMBOL "osal_mem_alloc"
`??osal_mem_alloc::?relay` SYMBOL "?relay", osal_mem_alloc
osal_mem_free       SYMBOL "osal_mem_free"
`??osal_mem_free::?relay` SYMBOL "?relay", osal_mem_free
osal_memcpy         SYMBOL "osal_memcpy"
`??osal_memcpy::?relay` SYMBOL "?relay", osal_memcpy
osal_msg_deallocate SYMBOL "osal_msg_deallocate"
`??osal_msg_deallocate::?relay` SYMBOL "?relay", osal_msg_deallocate
osal_msg_receive    SYMBOL "osal_msg_receive"
`??osal_msg_receive::?relay` SYMBOL "?relay", osal_msg_receive
osal_set_event      SYMBOL "osal_set_event"
`??osal_set_event::?relay` SYMBOL "?relay", osal_set_event
osal_start_timerEx  SYMBOL "osal_start_timerEx"
`??osal_start_timerEx::?relay` SYMBOL "?relay", osal_start_timerEx
osal_stop_timerEx   SYMBOL "osal_stop_timerEx"
`??osal_stop_timerEx::?relay` SYMBOL "?relay", osal_stop_timerEx
zclGeneral_RegisterCmdCallbacks SYMBOL "zclGeneral_RegisterCmdCallbacks"
`??zclGeneral_RegisterCmdCallbacks::?relay` SYMBOL "?relay", zclGeneral_RegisterCmdCallbacks
zclHA_Init          SYMBOL "zclHA_Init"
`??zclHA_Init::?relay` SYMBOL "?relay", zclHA_Init
zclHA_LcdStatusLine1 SYMBOL "zclHA_LcdStatusLine1"
`??zclHA_LcdStatusLine1::?relay` SYMBOL "?relay", zclHA_LcdStatusLine1
zclHA_uint16toa     SYMBOL "zclHA_uint16toa"
`??zclHA_uint16toa::?relay` SYMBOL "?relay", zclHA_uint16toa
zclParseHdr         SYMBOL "zclParseHdr"
`??zclParseHdr::?relay` SYMBOL "?relay", zclParseHdr
zclParseInConfigReportCmd SYMBOL "zclParseInConfigReportCmd"
`??zclParseInConfigReportCmd::?relay` SYMBOL "?relay", zclParseInConfigReportCmd
zclParseInReadCmd   SYMBOL "zclParseInReadCmd"
`??zclParseInReadCmd::?relay` SYMBOL "?relay", zclParseInReadCmd
zclParseInReadReportCfgCmd SYMBOL "zclParseInReadReportCfgCmd"
`??zclParseInReadReportCfgCmd::?relay` SYMBOL "?relay", zclParseInReadReportCfgCmd
zclParseInReportCmd SYMBOL "zclParseInReportCmd"
`??zclParseInReportCmd::?relay` SYMBOL "?relay", zclParseInReportCmd
zclParseInWriteCmd  SYMBOL "zclParseInWriteCmd"
`??zclParseInWriteCmd::?relay` SYMBOL "?relay", zclParseInWriteCmd
zcl_EZModeAction    SYMBOL "zcl_EZModeAction"
`??zcl_EZModeAction::?relay` SYMBOL "?relay", zcl_EZModeAction
zcl_InvokeEZMode    SYMBOL "zcl_InvokeEZMode"
`??zcl_InvokeEZMode::?relay` SYMBOL "?relay", zcl_InvokeEZMode
zcl_RegisterEZMode  SYMBOL "zcl_RegisterEZMode"
`??zcl_RegisterEZMode::?relay` SYMBOL "?relay", zcl_RegisterEZMode
zcl_SendCommand     SYMBOL "zcl_SendCommand"
`??zcl_SendCommand::?relay` SYMBOL "?relay", zcl_SendCommand
zcl_SendConfigReportCmd SYMBOL "zcl_SendConfigReportCmd"
`??zcl_SendConfigReportCmd::?relay` SYMBOL "?relay", zcl_SendConfigReportCmd
zcl_SendRead        SYMBOL "zcl_SendRead"
`??zcl_SendRead::?relay` SYMBOL "?relay", zcl_SendRead
zcl_SendReadReportCfgCmd SYMBOL "zcl_SendReadReportCfgCmd"
`??zcl_SendReadReportCfgCmd::?relay` SYMBOL "?relay", zcl_SendReadReportCfgCmd
zcl_SendReportCmd   SYMBOL "zcl_SendReportCmd"
`??zcl_SendReportCmd::?relay` SYMBOL "?relay", zcl_SendReportCmd
zcl_SendWriteRequest SYMBOL "zcl_SendWriteRequest"
`??zcl_SendWriteRequest::?relay` SYMBOL "?relay", zcl_SendWriteRequest
zcl_registerAttrList SYMBOL "zcl_registerAttrList"
`??zcl_registerAttrList::?relay` SYMBOL "?relay", zcl_registerAttrList
zcl_registerForMsg  SYMBOL "zcl_registerForMsg"
`??zcl_registerForMsg::?relay` SYMBOL "?relay", zcl_registerForMsg
zgWriteStartupOptions SYMBOL "zgWriteStartupOptions"
`??zgWriteStartupOptions::?relay` SYMBOL "?relay", zgWriteStartupOptions
zclSampleThermostat_BindingProcess SYMBOL "zclSampleThermostat_BindingProcess"
`??zclSampleThermostat_BindingProcess::?relay` SYMBOL "?relay", zclSampleThermostat_BindingProcess
zclSampleThermostat_Init SYMBOL "zclSampleThermostat_Init"
`??zclSampleThermostat_Init::?relay` SYMBOL "?relay", zclSampleThermostat_Init
zclSampleThermostat_LcdDisplayCoolMode SYMBOL "zclSampleThermostat_LcdDisplayCoolMode"
`??zclSampleThermostat_LcdDisplayCoolMode::?rela` SYMBOL "?relay", zclSampleThermostat_LcdDisplayCoolMode
zclSampleThermostat_LcdDisplayHeatMode SYMBOL "zclSampleThermostat_LcdDisplayHeatMode"
`??zclSampleThermostat_LcdDisplayHeatMode::?rela` SYMBOL "?relay", zclSampleThermostat_LcdDisplayHeatMode
zclSampleThermostat_LcdDisplayHelpMode SYMBOL "zclSampleThermostat_LcdDisplayHelpMode"
`??zclSampleThermostat_LcdDisplayHelpMode::?rela` SYMBOL "?relay", zclSampleThermostat_LcdDisplayHelpMode
zclSampleThermostat_LcdDisplayMainMode SYMBOL "zclSampleThermostat_LcdDisplayMainMode"
`??zclSampleThermostat_LcdDisplayMainMode::?rela` SYMBOL "?relay", zclSampleThermostat_LcdDisplayMainMode
zclSampleThermostat_LcdDisplayUpdate SYMBOL "zclSampleThermostat_LcdDisplayUpdate"
`??zclSampleThermostat_LcdDisplayUpdate::?relay` SYMBOL "?relay", zclSampleThermostat_LcdDisplayUpdate
zclSampleThermostat_SendC SYMBOL "zclSampleThermostat_SendC"
`??zclSampleThermostat_SendC::?relay` SYMBOL "?relay", zclSampleThermostat_SendC
zclSampleThermostat_SendFreeData SYMBOL "zclSampleThermostat_SendFreeData"
`??zclSampleThermostat_SendFreeData::?relay` SYMBOL "?relay", zclSampleThermostat_SendFreeData
zclSampleThermostat_event_loop SYMBOL "zclSampleThermostat_event_loop"
`??zclSampleThermostat_event_loop::?relay` SYMBOL "?relay", zclSampleThermostat_event_loop

        EXTERN `??GPIO_init::?relay`
        FUNCTION `??GPIO_init::?relay`,00H
        EXTERN `??GetBindingTableEntry::?relay`
        FUNCTION `??GetBindingTableEntry::?relay`,00H
        EXTERN `??HalLcdWriteString::?relay`
        FUNCTION `??HalLcdWriteString::?relay`,00H
        EXTERN `??HalLedBlink::?relay`
        FUNCTION `??HalLedBlink::?relay`,00H
        EXTERN `??HalLedSet::?relay`
        FUNCTION `??HalLedSet::?relay`,00H
        EXTERN `??HalUARTWrite::?relay`
        FUNCTION `??HalUARTWrite::?relay`,00H
        EXTERN `??MT_SysCommandProcessing::?relay`
        FUNCTION `??MT_SysCommandProcessing::?relay`,00H
        EXTERN `??NLME_GetCoordShortAddr::?relay`
        FUNCTION `??NLME_GetCoordShortAddr::?relay`,00H
        EXTERN `??NLME_GetShortAddr::?relay`
        FUNCTION `??NLME_GetShortAddr::?relay`,00H
        EXTERN `??RegisterForKeys::?relay`
        FUNCTION `??RegisterForKeys::?relay`,00H
        EXTERN `??UART_DebugPrint::?relay`
        FUNCTION `??UART_DebugPrint::?relay`,00H
        EXTERN `??UART_Init::?relay`
        FUNCTION `??UART_Init::?relay`,00H
        EXTERN `??UART_ParseRxPackage::?relay`
        FUNCTION `??UART_ParseRxPackage::?relay`,00H
        EXTERN `??UART_ZCmdPrint::?relay`
        FUNCTION `??UART_ZCmdPrint::?relay`,00H
        EXTERN `??UART_ZCmdPrintBuffer::?relay`
        FUNCTION `??UART_ZCmdPrintBuffer::?relay`,00H
        EXTERN `??UART_ZCmdPrintNum::?relay`
        FUNCTION `??UART_ZCmdPrintNum::?relay`,00H
        EXTERN `??UART_ZCmdPrintString::?relay`
        FUNCTION `??UART_ZCmdPrintString::?relay`,00H
        EXTERN `??ZCMD_ReplyCMD::?relay`
        FUNCTION `??ZCMD_ReplyCMD::?relay`,00H
        EXTERN `??ZDO_ParseEPListRsp::?relay`
        FUNCTION `??ZDO_ParseEPListRsp::?relay`,00H
        EXTERN `??ZDO_RegisterForZDOMsg::?relay`
        FUNCTION `??ZDO_RegisterForZDOMsg::?relay`,00H
        EXTERN `??ZDP_MgmtPermitJoinReq::?relay`
        FUNCTION `??ZDP_MgmtPermitJoinReq::?relay`,00H
        EXTERN `??_ltoa::?relay`
        FUNCTION `??_ltoa::?relay`,00H
        EXTERN `??afRegister::?relay`
        FUNCTION `??afRegister::?relay`,00H
        EXTERN `??bindCapacity::?relay`
        FUNCTION `??bindCapacity::?relay`,00H
        EXTERN `??osal_mem_alloc::?relay`
        FUNCTION `??osal_mem_alloc::?relay`,00H
        EXTERN `??osal_mem_free::?relay`
        FUNCTION `??osal_mem_free::?relay`,00H
        EXTERN `??osal_memcpy::?relay`
        FUNCTION `??osal_memcpy::?relay`,00H
        EXTERN `??osal_msg_deallocate::?relay`
        FUNCTION `??osal_msg_deallocate::?relay`,00H
        EXTERN `??osal_msg_receive::?relay`
        FUNCTION `??osal_msg_receive::?relay`,00H
        EXTERN `??osal_set_event::?relay`
        FUNCTION `??osal_set_event::?relay`,00H
        EXTERN `??osal_start_timerEx::?relay`
        FUNCTION `??osal_start_timerEx::?relay`,00H
        EXTERN `??osal_stop_timerEx::?relay`
        FUNCTION `??osal_stop_timerEx::?relay`,00H
        EXTERN `??zclGeneral_RegisterCmdCallbacks::?relay`
        FUNCTION `??zclGeneral_RegisterCmdCallbacks::?relay`,00H
        EXTERN `??zclHA_Init::?relay`
        FUNCTION `??zclHA_Init::?relay`,00H
        EXTERN `??zclHA_LcdStatusLine1::?relay`
        FUNCTION `??zclHA_LcdStatusLine1::?relay`,00H
        EXTERN `??zclHA_uint16toa::?relay`
        FUNCTION `??zclHA_uint16toa::?relay`,00H
        EXTERN `??zclParseHdr::?relay`
        FUNCTION `??zclParseHdr::?relay`,00H
        EXTERN `??zclParseInConfigReportCmd::?relay`
        FUNCTION `??zclParseInConfigReportCmd::?relay`,00H
        EXTERN `??zclParseInReadCmd::?relay`
        FUNCTION `??zclParseInReadCmd::?relay`,00H
        EXTERN `??zclParseInReadReportCfgCmd::?relay`
        FUNCTION `??zclParseInReadReportCfgCmd::?relay`,00H
        EXTERN `??zclParseInReportCmd::?relay`
        FUNCTION `??zclParseInReportCmd::?relay`,00H
        EXTERN `??zclParseInWriteCmd::?relay`
        FUNCTION `??zclParseInWriteCmd::?relay`,00H
        EXTERN `??zcl_EZModeAction::?relay`
        FUNCTION `??zcl_EZModeAction::?relay`,00H
        EXTERN `??zcl_InvokeEZMode::?relay`
        FUNCTION `??zcl_InvokeEZMode::?relay`,00H
        EXTERN `??zcl_RegisterEZMode::?relay`
        FUNCTION `??zcl_RegisterEZMode::?relay`,00H
        EXTERN `??zcl_SendCommand::?relay`
        FUNCTION `??zcl_SendCommand::?relay`,00H
        EXTERN `??zcl_SendConfigReportCmd::?relay`
        FUNCTION `??zcl_SendConfigReportCmd::?relay`,00H
        EXTERN `??zcl_SendRead::?relay`
        FUNCTION `??zcl_SendRead::?relay`,00H
        EXTERN `??zcl_SendReadReportCfgCmd::?relay`
        FUNCTION `??zcl_SendReadReportCfgCmd::?relay`,00H
        EXTERN `??zcl_SendReportCmd::?relay`
        FUNCTION `??zcl_SendReportCmd::?relay`,00H
        EXTERN `??zcl_SendWriteRequest::?relay`
        FUNCTION `??zcl_SendWriteRequest::?relay`,00H
        EXTERN `??zcl_registerAttrList::?relay`
        FUNCTION `??zcl_registerAttrList::?relay`,00H
        EXTERN `??zcl_registerForMsg::?relay`
        FUNCTION `??zcl_registerForMsg::?relay`,00H
        EXTERN `??zgWriteStartupOptions::?relay`
        FUNCTION `??zgWriteStartupOptions::?relay`,00H
        EXTERN FLAG_BINDING
        EXTERN FLAG_ECHO_RDATA
        EXTERN FLAG_HARD_BINDING
        EXTERN FLAG_JOIN_CONFIRM
        EXTERN Free_Data
        EXTERN Free_Data_Size
        EXTERN GPIO_init
        FUNCTION GPIO_init,0202H
        ARGFRAME ISTACK, 0, STACK
        ARGFRAME PSTACK, 0, STACK
        ARGFRAME XSTACK, 10, STACK
        ARGFRAME IOVERLAY, 0, STATIC
        ARGFRAME DOVERLAY, 0, STATIC
        EXTERN GetBindingTableEntry
        FUNCTION GetBindingTableEntry,0202H
        ARGFRAME ISTACK, 0, STACK
        ARGFRAME PSTACK, 0, STACK
        ARGFRAME XSTACK, 29, STACK
        ARGFRAME IOVERLAY, 0, STATIC
        ARGFRAME DOVERLAY, 0, STATIC
        EXTERN HalLcdWriteString
        FUNCTION HalLcdWriteString,0202H
        ARGFRAME ISTACK, 2, STACK
        ARGFRAME PSTACK, 0, STACK
        ARGFRAME XSTACK, 35, STACK
        ARGFRAME IOVERLAY, 0, STATIC
        ARGFRAME DOVERLAY, 0, STATIC
        EXTERN HalLedBlink
        FUNCTION HalLedBlink,0202H
        ARGFRAME ISTACK, 2, STACK
        ARGFRAME PSTACK, 0, STACK
        ARGFRAME XSTACK, 62, STACK
        ARGFRAME IOVERLAY, 0, STATIC
        ARGFRAME DOVERLAY, 0, STATIC
        EXTERN HalLedSet
        FUNCTION HalLedSet,0202H
        ARGFRAME ISTACK, 2, STACK
        ARGFRAME PSTACK, 0, STACK
        ARGFRAME XSTACK, 0, STACK
        ARGFRAME IOVERLAY, 0, STATIC
        ARGFRAME DOVERLAY, 0, STATIC
        EXTERN HalUARTWrite
        FUNCTION HalUARTWrite,0202H
        ARGFRAME ISTACK, 0, STACK
        ARGFRAME PSTACK, 0, STACK
        ARGFRAME XSTACK, 62, STACK
        ARGFRAME IOVERLAY, 0, STATIC
        ARGFRAME DOVERLAY, 0, STATIC
        EXTERN MT_SysCommandProcessing
        FUNCTION MT_SysCommandProcessing,0202H
        ARGFRAME ISTACK, 2, STACK
        ARGFRAME PSTACK, 0, STACK
        ARGFRAME XSTACK, 0, STACK
        ARGFRAME IOVERLAY, 0, STATIC
        ARGFRAME DOVERLAY, 0, STATIC
        EXTERN NLME_GetCoordShortAddr
        FUNCTION NLME_GetCoordShortAddr,0202H
        ARGFRAME ISTACK, 0, STACK
        ARGFRAME PSTACK, 0, STACK
        ARGFRAME XSTACK, 41, STACK
        ARGFRAME IOVERLAY, 0, STATIC
        ARGFRAME DOVERLAY, 0, STATIC
        EXTERN NLME_GetShortAddr
        FUNCTION NLME_GetShortAddr,0202H
        ARGFRAME ISTACK, 0, STACK
        ARGFRAME PSTACK, 0, STACK
        ARGFRAME XSTACK, 29, STACK
        ARGFRAME IOVERLAY, 0, STATIC
        ARGFRAME DOVERLAY, 0, STATIC
        EXTERN RegisterForKeys
        FUNCTION RegisterForKeys,0202H
        ARGFRAME ISTACK, 0, STACK
        ARGFRAME PSTACK, 0, STACK
        ARGFRAME XSTACK, 10, STACK
        ARGFRAME IOVERLAY, 0, STATIC
        ARGFRAME DOVERLAY, 0, STATIC
        EXTERN UART_DebugPrint
        FUNCTION UART_DebugPrint,0202H
        ARGFRAME ISTACK, 0, STACK
        ARGFRAME PSTACK, 0, STACK
        ARGFRAME XSTACK, 29, STACK
        ARGFRAME IOVERLAY, 0, STATIC
        ARGFRAME DOVERLAY, 0, STATIC
        EXTERN UART_Init
        FUNCTION UART_Init,0202H
        ARGFRAME ISTACK, 0, STACK
        ARGFRAME PSTACK, 0, STACK
        ARGFRAME XSTACK, 10, STACK
        ARGFRAME IOVERLAY, 0, STATIC
        ARGFRAME DOVERLAY, 0, STATIC
        EXTERN UART_ParseRxPackage
        FUNCTION UART_ParseRxPackage,0202H
        ARGFRAME ISTACK, 0, STACK
        ARGFRAME PSTACK, 0, STACK
        ARGFRAME XSTACK, 16, STACK
        ARGFRAME IOVERLAY, 0, STATIC
        ARGFRAME DOVERLAY, 0, STATIC
        EXTERN UART_ZCmdPrint
        FUNCTION UART_ZCmdPrint,0202H
        ARGFRAME ISTACK, 0, STACK
        ARGFRAME PSTACK, 0, STACK
        ARGFRAME XSTACK, 62, STACK
        ARGFRAME IOVERLAY, 0, STATIC
        ARGFRAME DOVERLAY, 0, STATIC
        EXTERN UART_ZCmdPrintBuffer
        FUNCTION UART_ZCmdPrintBuffer,0202H
        ARGFRAME ISTACK, 0, STACK
        ARGFRAME PSTACK, 0, STACK
        ARGFRAME XSTACK, 62, STACK
        ARGFRAME IOVERLAY, 0, STATIC
        ARGFRAME DOVERLAY, 0, STATIC
        EXTERN UART_ZCmdPrintNum
        FUNCTION UART_ZCmdPrintNum,0202H
        ARGFRAME ISTACK, 0, STACK
        ARGFRAME PSTACK, 0, STACK
        ARGFRAME XSTACK, 62, STACK
        ARGFRAME IOVERLAY, 0, STATIC
        ARGFRAME DOVERLAY, 0, STATIC
        EXTERN UART_ZCmdPrintString
        FUNCTION UART_ZCmdPrintString,0202H
        ARGFRAME ISTACK, 0, STACK
        ARGFRAME PSTACK, 0, STACK
        ARGFRAME XSTACK, 62, STACK
        ARGFRAME IOVERLAY, 0, STATIC
        ARGFRAME DOVERLAY, 0, STATIC
        EXTERN ZCMD_ReplyCMD
        FUNCTION ZCMD_ReplyCMD,0202H
        ARGFRAME ISTACK, 0, STACK
        ARGFRAME PSTACK, 0, STACK
        ARGFRAME XSTACK, 16, STACK
        ARGFRAME IOVERLAY, 0, STATIC
        ARGFRAME DOVERLAY, 0, STATIC
        EXTERN ZDO_ParseEPListRsp
        FUNCTION ZDO_ParseEPListRsp,0202H
        ARGFRAME ISTACK, 0, STACK
        ARGFRAME PSTACK, 0, STACK
        ARGFRAME XSTACK, 16, STACK
        ARGFRAME IOVERLAY, 0, STATIC
        ARGFRAME DOVERLAY, 0, STATIC
        EXTERN ZDO_RegisterForZDOMsg
        FUNCTION ZDO_RegisterForZDOMsg,0202H
        ARGFRAME ISTACK, 0, STACK
        ARGFRAME PSTACK, 0, STACK
        ARGFRAME XSTACK, 10, STACK
        ARGFRAME IOVERLAY, 0, STATIC
        ARGFRAME DOVERLAY, 0, STATIC
        EXTERN ZDP_MgmtPermitJoinReq
        FUNCTION ZDP_MgmtPermitJoinReq,0202H
        ARGFRAME ISTACK, 0, STACK
        ARGFRAME PSTACK, 0, STACK
        ARGFRAME XSTACK, 29, STACK
        ARGFRAME IOVERLAY, 0, STATIC
        ARGFRAME DOVERLAY, 0, STATIC
        EXTERN _ltoa
        FUNCTION _ltoa,0202H
        ARGFRAME ISTACK, 0, STACK
        ARGFRAME PSTACK, 0, STACK
        ARGFRAME XSTACK, 37, STACK
        ARGFRAME IOVERLAY, 0, STATIC
        ARGFRAME DOVERLAY, 0, STATIC
        EXTERN afRegister
        FUNCTION afRegister,0202H
        ARGFRAME ISTACK, 0, STACK
        ARGFRAME PSTACK, 0, STACK
        ARGFRAME XSTACK, 10, STACK
        ARGFRAME IOVERLAY, 0, STATIC
        ARGFRAME DOVERLAY, 0, STATIC
        EXTERN bindCapacity
        FUNCTION bindCapacity,0202H
        ARGFRAME ISTACK, 0, STACK
        ARGFRAME PSTACK, 0, STACK
        ARGFRAME XSTACK, 29, STACK
        ARGFRAME IOVERLAY, 0, STATIC
        ARGFRAME DOVERLAY, 0, STATIC
        EXTERN msg_RSSI
        EXTERN osal_mem_alloc
        FUNCTION osal_mem_alloc,0202H
        ARGFRAME ISTACK, 0, STACK
        ARGFRAME PSTACK, 0, STACK
        ARGFRAME XSTACK, 41, STACK
        ARGFRAME IOVERLAY, 0, STATIC
        ARGFRAME DOVERLAY, 0, STATIC
        EXTERN osal_mem_free
        FUNCTION osal_mem_free,0202H
        ARGFRAME ISTACK, 0, STACK
        ARGFRAME PSTACK, 0, STACK
        ARGFRAME XSTACK, 41, STACK
        ARGFRAME IOVERLAY, 0, STATIC
        ARGFRAME DOVERLAY, 0, STATIC
        EXTERN osal_memcpy
        FUNCTION osal_memcpy,0202H
        ARGFRAME ISTACK, 0, STACK
        ARGFRAME PSTACK, 0, STACK
        ARGFRAME XSTACK, 38, STACK
        ARGFRAME IOVERLAY, 0, STATIC
        ARGFRAME DOVERLAY, 0, STATIC
        EXTERN osal_msg_deallocate
        FUNCTION osal_msg_deallocate,0202H
        ARGFRAME ISTACK, 0, STACK
        ARGFRAME PSTACK, 0, STACK
        ARGFRAME XSTACK, 16, STACK
        ARGFRAME IOVERLAY, 0, STATIC
        ARGFRAME DOVERLAY, 0, STATIC
        EXTERN osal_msg_receive
        FUNCTION osal_msg_receive,0202H
        ARGFRAME ISTACK, 0, STACK
        ARGFRAME PSTACK, 0, STACK
        ARGFRAME XSTACK, 16, STACK
        ARGFRAME IOVERLAY, 0, STATIC
        ARGFRAME DOVERLAY, 0, STATIC
        EXTERN osal_set_event
        FUNCTION osal_set_event,0202H
        ARGFRAME ISTACK, 0, STACK
        ARGFRAME PSTACK, 0, STACK
        ARGFRAME XSTACK, 16, STACK
        ARGFRAME IOVERLAY, 0, STATIC
        ARGFRAME DOVERLAY, 0, STATIC
        EXTERN osal_start_timerEx
        FUNCTION osal_start_timerEx,0202H
        ARGFRAME ISTACK, 2, STACK
        ARGFRAME PSTACK, 0, STACK
        ARGFRAME XSTACK, 39, STACK
        ARGFRAME IOVERLAY, 0, STATIC
        ARGFRAME DOVERLAY, 0, STATIC
        EXTERN osal_stop_timerEx
        FUNCTION osal_stop_timerEx,0202H
        ARGFRAME ISTACK, 2, STACK
        ARGFRAME PSTACK, 0, STACK
        ARGFRAME XSTACK, 0, STACK
        ARGFRAME IOVERLAY, 0, STATIC
        ARGFRAME DOVERLAY, 0, STATIC
        EXTERN zclGeneral_RegisterCmdCallbacks
        FUNCTION zclGeneral_RegisterCmdCallbacks,0202H
        ARGFRAME ISTACK, 0, STACK
        ARGFRAME PSTACK, 0, STACK
        ARGFRAME XSTACK, 10, STACK
        ARGFRAME IOVERLAY, 0, STATIC
        ARGFRAME DOVERLAY, 0, STATIC
        EXTERN zclHA_Init
        FUNCTION zclHA_Init,0202H
        ARGFRAME ISTACK, 0, STACK
        ARGFRAME PSTACK, 0, STACK
        ARGFRAME XSTACK, 10, STACK
        ARGFRAME IOVERLAY, 0, STATIC
        ARGFRAME DOVERLAY, 0, STATIC
        EXTERN zclHA_LcdStatusLine1
        FUNCTION zclHA_LcdStatusLine1,0202H
        ARGFRAME ISTACK, 0, STACK
        ARGFRAME PSTACK, 0, STACK
        ARGFRAME XSTACK, 27, STACK
        ARGFRAME IOVERLAY, 0, STATIC
        ARGFRAME DOVERLAY, 0, STATIC
        EXTERN zclHA_uint16toa
        FUNCTION zclHA_uint16toa,0202H
        ARGFRAME ISTACK, 0, STACK
        ARGFRAME PSTACK, 0, STACK
        ARGFRAME XSTACK, 35, STACK
        ARGFRAME IOVERLAY, 0, STATIC
        ARGFRAME DOVERLAY, 0, STATIC
        EXTERN zclParseHdr
        FUNCTION zclParseHdr,0202H
        ARGFRAME ISTACK, 0, STACK
        ARGFRAME PSTACK, 0, STACK
        ARGFRAME XSTACK, 41, STACK
        ARGFRAME IOVERLAY, 0, STATIC
        ARGFRAME DOVERLAY, 0, STATIC
        EXTERN zclParseInConfigReportCmd
        FUNCTION zclParseInConfigReportCmd,0202H
        ARGFRAME ISTACK, 0, STACK
        ARGFRAME PSTACK, 0, STACK
        ARGFRAME XSTACK, 18, STACK
        ARGFRAME IOVERLAY, 0, STATIC
        ARGFRAME DOVERLAY, 0, STATIC
        EXTERN zclParseInReadCmd
        FUNCTION zclParseInReadCmd,0202H
        ARGFRAME ISTACK, 0, STACK
        ARGFRAME PSTACK, 0, STACK
        ARGFRAME XSTACK, 18, STACK
        ARGFRAME IOVERLAY, 0, STATIC
        ARGFRAME DOVERLAY, 0, STATIC
        EXTERN zclParseInReadReportCfgCmd
        FUNCTION zclParseInReadReportCfgCmd,0202H
        ARGFRAME ISTACK, 0, STACK
        ARGFRAME PSTACK, 0, STACK
        ARGFRAME XSTACK, 18, STACK
        ARGFRAME IOVERLAY, 0, STATIC
        ARGFRAME DOVERLAY, 0, STATIC
        EXTERN zclParseInReportCmd
        FUNCTION zclParseInReportCmd,0202H
        ARGFRAME ISTACK, 0, STACK
        ARGFRAME PSTACK, 0, STACK
        ARGFRAME XSTACK, 18, STACK
        ARGFRAME IOVERLAY, 0, STATIC
        ARGFRAME DOVERLAY, 0, STATIC
        EXTERN zclParseInWriteCmd
        FUNCTION zclParseInWriteCmd,0202H
        ARGFRAME ISTACK, 0, STACK
        ARGFRAME PSTACK, 0, STACK
        ARGFRAME XSTACK, 18, STACK
        ARGFRAME IOVERLAY, 0, STATIC
        ARGFRAME DOVERLAY, 0, STATIC
        EXTERN zclSampleThermostat_Attrs
        EXTERN zclSampleThermostat_IdentifyTime
        EXTERN zclSampleThermostat_LocalTemperature
        EXTERN zclSampleThermostat_OccupiedCoolingSetpoint
        EXTERN zclSampleThermostat_OccupiedHeatingSetpoint
        EXTERN zclSampleThermostat_OnOff
        EXTERN zclSampleThermostat_SimpleDesc
        EXTERN zclSampleThermostat_SystemMode
        EXTERN zcl_EZModeAction
        FUNCTION zcl_EZModeAction,0202H
        ARGFRAME ISTACK, 2, STACK
        ARGFRAME PSTACK, 0, STACK
        ARGFRAME XSTACK, 16, STACK
        ARGFRAME IOVERLAY, 0, STATIC
        ARGFRAME DOVERLAY, 0, STATIC
        EXTERN zcl_InvokeEZMode
        FUNCTION zcl_InvokeEZMode,0202H
        ARGFRAME ISTACK, 2, STACK
        ARGFRAME PSTACK, 0, STACK
        ARGFRAME XSTACK, 29, STACK
        ARGFRAME IOVERLAY, 0, STATIC
        ARGFRAME DOVERLAY, 0, STATIC
        EXTERN zcl_RegisterEZMode
        FUNCTION zcl_RegisterEZMode,0202H
        ARGFRAME ISTACK, 0, STACK
        ARGFRAME PSTACK, 0, STACK
        ARGFRAME XSTACK, 10, STACK
        ARGFRAME IOVERLAY, 0, STATIC
        ARGFRAME DOVERLAY, 0, STATIC
        EXTERN zcl_SendCommand
        FUNCTION zcl_SendCommand,0202H
        ARGFRAME ISTACK, 0, STACK
        ARGFRAME PSTACK, 0, STACK
        ARGFRAME XSTACK, 52, STACK
        ARGFRAME IOVERLAY, 0, STATIC
        ARGFRAME DOVERLAY, 0, STATIC
        EXTERN zcl_SendConfigReportCmd
        FUNCTION zcl_SendConfigReportCmd,0202H
        ARGFRAME ISTACK, 0, STACK
        ARGFRAME PSTACK, 0, STACK
        ARGFRAME XSTACK, 23, STACK
        ARGFRAME IOVERLAY, 0, STATIC
        ARGFRAME DOVERLAY, 0, STATIC
        EXTERN zcl_SendRead
        FUNCTION zcl_SendRead,0202H
        ARGFRAME ISTACK, 0, STACK
        ARGFRAME PSTACK, 0, STACK
        ARGFRAME XSTACK, 23, STACK
        ARGFRAME IOVERLAY, 0, STATIC
        ARGFRAME DOVERLAY, 0, STATIC
        EXTERN zcl_SendReadReportCfgCmd
        FUNCTION zcl_SendReadReportCfgCmd,0202H
        ARGFRAME ISTACK, 0, STACK
        ARGFRAME PSTACK, 0, STACK
        ARGFRAME XSTACK, 23, STACK
        ARGFRAME IOVERLAY, 0, STATIC
        ARGFRAME DOVERLAY, 0, STATIC
        EXTERN zcl_SendReportCmd
        FUNCTION zcl_SendReportCmd,0202H
        ARGFRAME ISTACK, 0, STACK
        ARGFRAME PSTACK, 0, STACK
        ARGFRAME XSTACK, 46, STACK
        ARGFRAME IOVERLAY, 0, STATIC
        ARGFRAME DOVERLAY, 0, STATIC
        EXTERN zcl_SendWriteRequest
        FUNCTION zcl_SendWriteRequest,0202H
        ARGFRAME ISTACK, 0, STACK
        ARGFRAME PSTACK, 0, STACK
        ARGFRAME XSTACK, 24, STACK
        ARGFRAME IOVERLAY, 0, STATIC
        ARGFRAME DOVERLAY, 0, STATIC
        EXTERN zcl_registerAttrList
        FUNCTION zcl_registerAttrList,0202H
        ARGFRAME ISTACK, 0, STACK
        ARGFRAME PSTACK, 0, STACK
        ARGFRAME XSTACK, 10, STACK
        ARGFRAME IOVERLAY, 0, STATIC
        ARGFRAME DOVERLAY, 0, STATIC
        EXTERN zcl_registerForMsg
        FUNCTION zcl_registerForMsg,0202H
        ARGFRAME ISTACK, 0, STACK
        ARGFRAME PSTACK, 0, STACK
        ARGFRAME XSTACK, 10, STACK
        ARGFRAME IOVERLAY, 0, STATIC
        ARGFRAME DOVERLAY, 0, STATIC
        EXTERN zgWriteStartupOptions
        FUNCTION zgWriteStartupOptions,0202H
        ARGFRAME ISTACK, 2, STACK
        ARGFRAME PSTACK, 0, STACK
        ARGFRAME XSTACK, 0, STACK
        ARGFRAME IOVERLAY, 0, STATIC
        ARGFRAME DOVERLAY, 0, STATIC

// D:\GitHub\TripleS_Zigbee\Projects\zstack\HomeAutomation\SampleThermostat\Source\zcl_samplethermostat.c
//    1 /**************************************************************************************************
//    2   Filename:       zcl_samplethermostat.c
//    3   Revised:        $Date: 2014-10-24 16:04:46 -0700 (Fri, 24 Oct 2014) $
//    4   Revision:       $Revision: 40796 $
//    5 
//    6   Description:    Zigbee Cluster Library - sample device application.
//    7 
//    8 
//    9   Copyright 2013 - 2014 Texas Instruments Incorporated. All rights reserved.
//   10 
//   11   IMPORTANT: Your use of this Software is limited to those specific rights
//   12   granted under the terms of a software license agreement between the user
//   13   who downloaded the software, his/her employer (which must be your employer)
//   14   and Texas Instruments Incorporated (the "License").  You may not use this
//   15   Software unless you agree to abide by the terms of the License. The License
//   16   limits your use, and you acknowledge, that the Software may not be modified,
//   17   copied or distributed unless embedded on a Texas Instruments microcontroller
//   18   or used solely and exclusively in conjunction with a Texas Instruments radio
//   19   frequency transceiver, which is integrated into your product.  Other than for
//   20   the foregoing purpose, you may not use, reproduce, copy, prepare derivative
//   21   works of, modify, distribute, perform, display or sell this Software and/or
//   22   its documentation for any purpose.
//   23 
//   24   YOU FURTHER ACKNOWLEDGE AND AGREE THAT THE SOFTWARE AND DOCUMENTATION ARE
//   25   PROVIDED “AS IS” WITHOUT WARRANTY OF ANY KIND, EITHER EXPRESS OR IMPLIED,
//   26   INCLUDING WITHOUT LIMITATION, ANY WARRANTY OF MERCHANTABILITY, TITLE,
//   27   NON-INFRINGEMENT AND FITNESS FOR A PARTICULAR PURPOSE. IN NO EVENT SHALL
//   28   TEXAS INSTRUMENTS OR ITS LICENSORS BE LIABLE OR OBLIGATED UNDER CONTRACT,
//   29   NEGLIGENCE, STRICT LIABILITY, CONTRIBUTION, BREACH OF WARRANTY, OR OTHER
//   30   LEGAL EQUITABLE THEORY ANY DIRECT OR INDIRECT DAMAGES OR EXPENSES
//   31   INCLUDING BUT NOT LIMITED TO ANY INCIDENTAL, SPECIAL, INDIRECT, PUNITIVE
//   32   OR CONSEQUENTIAL DAMAGES, LOST PROFITS OR LOST DATA, COST OF PROCUREMENT
//   33   OF SUBSTITUTE GOODS, TECHNOLOGY, SERVICES, OR ANY CLAIMS BY THIRD PARTIES
//   34   (INCLUDING BUT NOT LIMITED TO ANY DEFENSE THEREOF), OR OTHER SIMILAR COSTS.
//   35 
//   36   Should you have any questions regarding your right to use this Software,
//   37   contact Texas Instruments Incorporated at www.TI.com.
//   38 **************************************************************************************************/
//   39 
//   40 /*********************************************************************
//   41   This device will act as a thermostat.
//   42 
//   43   SCREEN MODES
//   44   ----------------------------------------
//   45   Main:
//   46     - SW1: Set heating setpoint
//   47     - SW2: Invoke EZMode
//   48     - SW3: Set cooling setpoint
//   49     - SW4: Enable/Disable Permit Join
//   50     - SW5: Go to Help screen
//   51 
//   52   Heating Setpoint or Cooling Setpoint:
//   53     - SW1: Increase temperature
//   54     - SW3: Decrease temperature
//   55     - SW5: Save temperature
//   56   ----------------------------------------
//   57 *********************************************************************/
//   58 
//   59 /*********************************************************************
//   60  * INCLUDES
//   61  */
//   62 #include "ZComDef.h"
//   63 #include "OSAL.h"
//   64 #include "AF.h"
//   65 #include "ZDApp.h"
//   66 #include "ZDObject.h"
//   67 #include "MT_APP.h"
//   68 #include "MT_SYS.h"
//   69 
//   70 #include "zcl.h"
//   71 #include "zcl_general.h"
//   72 #include "zcl_ha.h"
//   73 #include "zcl_ezmode.h"
//   74 #include "zcl_hvac.h"
//   75 #include "zcl_ms.h"
//   76 
//   77 #include "zcl_samplethermostat.h"
//   78 
//   79 #include "onboard.h"
//   80 
//   81 /* HAL */
//   82 #include "hal_lcd.h"
//   83 #include "hal_led.h"
//   84 #include "hal_key.h"
//   85 
//   86 /* MY INCLUDES */
//   87 #include "MS_UART.h"
//   88 #include "MS_UART_CMD.h"
//   89 #include "MS_GPIO.h"
//   90 #include "uti.h"
//   91 
//   92 #if ( defined (ZGP_DEVICE_TARGET) || defined (ZGP_DEVICE_TARGETPLUS) \ 
//   93       || defined (ZGP_DEVICE_COMBO) || defined (ZGP_DEVICE_COMBO_MIN) )
//   94 #include "zgp_translationtable.h"
//   95   #if (SUPPORTED_S_FEATURE(SUPP_ZGP_FEATURE_TRANSLATION_TABLE))
//   96     #define ZGP_AUTO_TT
//   97   #endif
//   98 #endif
//   99 
//  100 
//  101 /*********************************************************************
//  102  * MACROS
//  103  */
//  104 
//  105 /*********************************************************************
//  106  * CONSTANTS
//  107  */
//  108 
//  109 /*********************************************************************
//  110  * TYPEDEFS
//  111  */
//  112 
//  113 /*********************************************************************
//  114  * GLOBAL VARIABLES
//  115  */

        RSEG XDATA_Z:XDATA:NOROOT(0)
        DATA8
//  116 byte zclSampleThermostat_TaskID;
zclSampleThermostat_TaskID:
        DS 1
        REQUIRE __INIT_XDATA_Z

        RSEG XDATA_Z:XDATA:NOROOT(0)
        DATA8
//  117 uint8 zclSampleThermostatSeqNum;
zclSampleThermostatSeqNum:
        DS 1
        REQUIRE __INIT_XDATA_Z
//  118 

        RSEG XDATA_Z:XDATA:NOROOT(0)
        DATA8
//  119 static byte gPermitDuration = 0x00;
gPermitDuration:
        DS 1
        REQUIRE __INIT_XDATA_Z
//  120 
//  121 /*********************************************************************
//  122  * GLOBAL FUNCTIONS
//  123  */
//  124 
//  125 /*********************************************************************
//  126  * LOCAL VARIABLES
//  127  */

        RSEG XDATA_Z:XDATA:NOROOT(0)
        DATA8
//  128 afAddrType_t zclSampleThermostat_DstAddr;
zclSampleThermostat_DstAddr:
        DS 12
        REQUIRE __INIT_XDATA_Z
//  129 
//  130 #ifdef ZCL_EZMODE
//  131 static void zclSampleThermostat_ProcessZDOMsgs( zdoIncomingMsg_t *pMsg );
//  132 static void zclSampleThermostat_EZModeCB( zlcEZMode_State_t state, zclEZMode_CBData_t *pData );
//  133 

        RSEG XDATA_ROM_C:CONST:REORDER:NOROOT(0)
        DATA8
//  134 static const zclEZMode_RegisterData_t zclSampleThermostat_RegisterEZModeData =
zclSampleThermostat_RegisterEZModeData:
        DATA16
        DW zclSampleThermostat_TaskID
        DW 8
        DW 4
        DW zclSampleThermostatSeqNum
        DW `??zclSampleThermostat_EZModeCB::?relay`
//  135 {
//  136   &zclSampleThermostat_TaskID,
//  137   SAMPLETHERMOSTAT_EZMODE_NEXTSTATE_EVT,
//  138   SAMPLETHERMOSTAT_EZMODE_TIMEOUT_EVT,
//  139   &zclSampleThermostatSeqNum,
//  140   zclSampleThermostat_EZModeCB
//  141 };
//  142 
//  143 // NOT ZCL_EZMODE, Use EndDeviceBind
//  144 #else
//  145 
//  146 static cId_t bindingOutClusters[] =
//  147 {
//  148   ZCL_CLUSTER_ID_HVAC_THERMOSTAT
//  149 };
//  150 #define ZCLSAMPLETHERMOSTAT_BINDINGLIST_OUT     1
//  151 
//  152 static cId_t bindingInClusters[] =
//  153 {
//  154   ZCL_CLUSTER_ID_HVAC_THERMOSTAT,
//  155   ZCL_CLUSTER_ID_MS_TEMPERATURE_MEASUREMENT
//  156 };
//  157 #define ZCLSAMPLETHERMOSTAT_BINDINGLIST_IN      2
//  158 #endif
//  159 

        RSEG XDATA_Z:XDATA:NOROOT(0)
        DATA8
//  160 uint8 giThermostatScreenMode = THERMOSTAT_MAINMODE;   // display the main screen mode first
giThermostatScreenMode:
        DS 1
        REQUIRE __INIT_XDATA_Z
//  161 

        RSEG XDATA_I:XDATA:NOROOT(0)
//  162 devStates_t zclSampleThermostat_NwkState = DEV_INIT;
zclSampleThermostat_NwkState:
        DATA8
        DS 1
        REQUIRE `?<Initializer for zclSampleThermostat_NwkState`
        REQUIRE __INIT_XDATA_I
//  163 

        RSEG XDATA_I:XDATA:NOROOT(0)
//  164 static uint8 aProcessCmd[] = { 1, 0, 0, 0 }; // used for reset command, { length + cmd0 + cmd1 + data }
aProcessCmd:
        DATA32
        DS 4
        REQUIRE `?<Initializer for aProcessCmd>`
        REQUIRE __INIT_XDATA_I
//  165 
//  166 // Test Endpoint to allow SYS_APP_MSGs

        RSEG XDATA_I:XDATA:NOROOT(0)
//  167 static endPointDesc_t sampleThermostat_TestEp =
sampleThermostat_TestEp:
        DATA8
        DS 6
        REQUIRE `?<Initializer for sampleThermostat_TestEp>`
        REQUIRE __INIT_XDATA_I
//  168 {
//  169   20,                                 // Test endpoint
//  170   &zclSampleThermostat_TaskID,
//  171   (SimpleDescriptionFormat_t *)NULL,  // No Simple description for this test endpoint
//  172   (afNetworkLatencyReq_t)0            // No Network Latency req
//  173 };
//  174 
//  175 /*********************************************************************
//  176  * LOCAL FUNCTIONS
//  177  */
//  178 #ifndef COORDINATOR
//  179 static void zclSampleThermostat_RollCall(void);
//  180 #endif
//  181 
//  182 static void zclSampleThermostat_HandleKeys( byte shift, byte keys );
//  183 static void zclSampleThermostat_BasicResetCB( void );
//  184 static void zclSampleThermostat_IdentifyCB( zclIdentify_t *pCmd );
//  185 static void zclSampleThermostat_IdentifyQueryRspCB( zclIdentifyQueryRsp_t *pRsp );
//  186 static void zclSampleThermostat_ProcessIdentifyTimeChange( void );
//  187 static void zclSampleThermostat_ProcessAppMsg( uint8 srcEP, uint8 len, uint8 *msg );
//  188 static void zclSampleThermostat_ProcessFoundationMsg( afAddrType_t *dstAddr, uint16 clusterID,
//  189                                                       zclFrameHdr_t *hdr, zclParseCmd_t *pParseCmd );
//  190 
//  191 // app display functions
//  192 void zclSampleThermostat_LcdDisplayUpdate(void);
//  193 void zclSampleThermostat_LcdDisplayMainMode(void);
//  194 void zclSampleThermostat_LcdDisplayHeatMode(void);
//  195 void zclSampleThermostat_LcdDisplayCoolMode(void);
//  196 void zclSampleThermostat_LcdDisplayHelpMode(void);
//  197 
//  198 // Functions to process ZCL Foundation incoming Command/Response messages
//  199 static void zclSampleThermostat_ProcessIncomingMsg( zclIncomingMsg_t *msg );
//  200 #ifdef ZCL_READ
//  201 static uint8 zclSampleThermostat_ProcessInReadRspCmd( zclIncomingMsg_t *pInMsg );
//  202 #endif
//  203 #ifdef ZCL_WRITE
//  204 static uint8 zclSampleThermostat_ProcessInWriteRspCmd( zclIncomingMsg_t *pInMsg );
//  205 #endif
//  206 #ifdef ZCL_REPORT
//  207 static void zclSampleThermostat_ProcessInReportCmd( zclIncomingMsg_t *pInMsg );
//  208 #endif
//  209 static uint8 zclSampleThermostat_ProcessInDefaultRspCmd( zclIncomingMsg_t *pInMsg );
//  210 
//  211 /*********************************************************************
//  212  * STATUS STRINGS
//  213  */
//  214 #ifdef LCD_SUPPORTED

        RSEG XDATA_ROM_C:CONST:REORDER:NOROOT(0)
        DATA16
//  215 const char sClearLine[]     = " ";
sClearLine:
        DB " "

        RSEG XDATA_ROM_C:CONST:REORDER:NOROOT(0)
        DATA8
//  216 const char sDeviceName[]    = "   Thermostat";
sDeviceName:
        DB "   Thermostat"

        RSEG XDATA_ROM_C:CONST:REORDER:NOROOT(0)
        DATA8
//  217 const char sSwHeatSet[]     = "SW1: Set Heating";
sSwHeatSet:
        DB "SW1: Set Heating"

        RSEG XDATA_ROM_C:CONST:REORDER:NOROOT(0)
        DATA8
//  218 const char sSwEZMode[]      = "SW2: EZ-Mode";
sSwEZMode:
        DB "SW2: EZ-Mode"

        RSEG XDATA_ROM_C:CONST:REORDER:NOROOT(0)
        DATA8
//  219 const char sSwCoolSet[]     = "SW3: Set Cooling";
sSwCoolSet:
        DB "SW3: Set Cooling"

        RSEG XDATA_ROM_C:CONST:REORDER:NOROOT(0)
        DATA8
//  220 const char sTempLine2[]     = "SW1:+";
sTempLine2:
        DB "SW1:+"

        RSEG XDATA_ROM_C:CONST:REORDER:NOROOT(0)
        DATA8
//  221 const char sTempLine3[]     = "SW3:-  SW5:Enter";
sTempLine3:
        DB "SW3:-  SW5:Enter"

        RSEG XDATA_ROM_C:CONST:REORDER:NOROOT(0)
        DATA8
//  222 const char sSwHelp[]        = "SW5: Help";
sSwHelp:
        DB "SW5: Help"

        RSEG XDATA_ROM_C:CONST:REORDER:NOROOT(0)
        DATA8
//  223 const char sStoreHeatTemp[] = "HEAT TEMP SAVED";
sStoreHeatTemp:
        DB "HEAT TEMP SAVED"

        RSEG XDATA_ROM_C:CONST:REORDER:NOROOT(0)
        DATA8
//  224 const char sStoreCoolTemp[] = "COOL TEMP SAVED";
sStoreCoolTemp:
        DB "COOL TEMP SAVED"
//  225 #endif
//  226 
//  227 /*********************************************************************
//  228  * ZCL General Profile Callback table
//  229  */

        RSEG XDATA_I:XDATA:NOROOT(0)
//  230 static zclGeneral_AppCallbacks_t zclSampleThermostat_CmdCallbacks =
zclSampleThermostat_CmdCallbacks:
        DATA8
        DS 24
        REQUIRE `?<Initializer for zclSampleThermostat_CmdCallb`
        REQUIRE __INIT_XDATA_I
//  231 {
//  232   zclSampleThermostat_BasicResetCB,            // Basic Cluster Reset command
//  233   zclSampleThermostat_IdentifyCB,              // Identify command
//  234 #ifdef ZCL_EZMODE
//  235   NULL,                                        // Identify EZ-Mode Invoke command
//  236   NULL,                                        // Identify Update Commission State command
//  237 #endif
//  238   NULL,                                        // Identify Trigger Effect command
//  239   zclSampleThermostat_IdentifyQueryRspCB,      // Identify Query Response command
//  240   NULL,             				                   // On/Off cluster command
//  241   NULL,                                        // On/Off cluster enhanced command Off with Effect
//  242   NULL,                                        // On/Off cluster enhanced command On with Recall Global Scene
//  243   NULL,                                        // On/Off cluster enhanced command On with Timed Off
//  244 #ifdef ZCL_LEVEL_CTRL
//  245   NULL,                                        // Level Control Move to Level command
//  246   NULL,                                        // Level Control Move command
//  247   NULL,                                        // Level Control Step command
//  248   NULL,                                        // Level Control Stop command
//  249 #endif
//  250 #ifdef ZCL_GROUPS
//  251   NULL,                                        // Group Response commands
//  252 #endif
//  253 #ifdef ZCL_SCENES
//  254   NULL,                                        // Scene Store Request command
//  255   NULL,                                        // Scene Recall Request command
//  256   NULL,                                        // Scene Response command
//  257 #endif
//  258 #ifdef ZCL_ALARMS
//  259   NULL,                                        // Alarm (Response) commands
//  260 #endif
//  261 #ifdef SE_UK_EXT
//  262   NULL,                                        // Get Event Log command
//  263   NULL,                                        // Publish Event Log command
//  264 #endif
//  265   NULL,                                        // RSSI Location command
//  266   NULL                                         // RSSI Location Response command
//  267 };
//  268 
//  269 /*********************************************************************
//  270  * @fn          zclSampleThermostat_Init
//  271  *
//  272  * @brief       Initialization function for the zclGeneral layer.
//  273  *
//  274  * @param       none
//  275  *
//  276  * @return      none
//  277  */

        RSEG BANKED_CODE:HUGECODE:NOROOT(0)
//  278 void zclSampleThermostat_Init( byte task_id )
zclSampleThermostat_Init:
          CFI Block cfiBlock0 Using cfiCommon0
          CFI Function zclSampleThermostat_Init
        CODE
//  279 {
        FUNCALL zclSampleThermostat_Init, zclHA_Init
        LOCFRAME ISTACK, 0, STACK
        LOCFRAME PSTACK, 0, STACK
        LOCFRAME XSTACK, 10, STACK
        LOCFRAME IOVERLAY, 0, STATIC
        LOCFRAME DOVERLAY, 0, STATIC
        ARGFRAME ISTACK, 0, STACK
        ARGFRAME PSTACK, 0, STACK
        ARGFRAME XSTACK, 10, STACK
        ARGFRAME IOVERLAY, 0, STATIC
        ARGFRAME DOVERLAY, 0, STATIC
        FUNCALL zclSampleThermostat_Init, zclGeneral_RegisterCmdCallbacks
        LOCFRAME ISTACK, 0, STACK
        LOCFRAME PSTACK, 0, STACK
        LOCFRAME XSTACK, 10, STACK
        LOCFRAME IOVERLAY, 0, STATIC
        LOCFRAME DOVERLAY, 0, STATIC
        ARGFRAME ISTACK, 0, STACK
        ARGFRAME PSTACK, 0, STACK
        ARGFRAME XSTACK, 10, STACK
        ARGFRAME IOVERLAY, 0, STATIC
        ARGFRAME DOVERLAY, 0, STATIC
        FUNCALL zclSampleThermostat_Init, zcl_registerAttrList
        LOCFRAME ISTACK, 0, STACK
        LOCFRAME PSTACK, 0, STACK
        LOCFRAME XSTACK, 10, STACK
        LOCFRAME IOVERLAY, 0, STATIC
        LOCFRAME DOVERLAY, 0, STATIC
        ARGFRAME ISTACK, 0, STACK
        ARGFRAME PSTACK, 0, STACK
        ARGFRAME XSTACK, 10, STACK
        ARGFRAME IOVERLAY, 0, STATIC
        ARGFRAME DOVERLAY, 0, STATIC
        FUNCALL zclSampleThermostat_Init, zcl_registerForMsg
        LOCFRAME ISTACK, 0, STACK
        LOCFRAME PSTACK, 0, STACK
        LOCFRAME XSTACK, 10, STACK
        LOCFRAME IOVERLAY, 0, STATIC
        LOCFRAME DOVERLAY, 0, STATIC
        ARGFRAME ISTACK, 0, STACK
        ARGFRAME PSTACK, 0, STACK
        ARGFRAME XSTACK, 10, STACK
        ARGFRAME IOVERLAY, 0, STATIC
        ARGFRAME DOVERLAY, 0, STATIC
        FUNCALL zclSampleThermostat_Init, zcl_RegisterEZMode
        LOCFRAME ISTACK, 0, STACK
        LOCFRAME PSTACK, 0, STACK
        LOCFRAME XSTACK, 10, STACK
        LOCFRAME IOVERLAY, 0, STATIC
        LOCFRAME DOVERLAY, 0, STATIC
        ARGFRAME ISTACK, 0, STACK
        ARGFRAME PSTACK, 0, STACK
        ARGFRAME XSTACK, 10, STACK
        ARGFRAME IOVERLAY, 0, STATIC
        ARGFRAME DOVERLAY, 0, STATIC
        FUNCALL zclSampleThermostat_Init, ZDO_RegisterForZDOMsg
        LOCFRAME ISTACK, 0, STACK
        LOCFRAME PSTACK, 0, STACK
        LOCFRAME XSTACK, 10, STACK
        LOCFRAME IOVERLAY, 0, STATIC
        LOCFRAME DOVERLAY, 0, STATIC
        ARGFRAME ISTACK, 0, STACK
        ARGFRAME PSTACK, 0, STACK
        ARGFRAME XSTACK, 10, STACK
        ARGFRAME IOVERLAY, 0, STATIC
        ARGFRAME DOVERLAY, 0, STATIC
        FUNCALL zclSampleThermostat_Init, RegisterForKeys
        LOCFRAME ISTACK, 0, STACK
        LOCFRAME PSTACK, 0, STACK
        LOCFRAME XSTACK, 10, STACK
        LOCFRAME IOVERLAY, 0, STATIC
        LOCFRAME DOVERLAY, 0, STATIC
        ARGFRAME ISTACK, 0, STACK
        ARGFRAME PSTACK, 0, STACK
        ARGFRAME XSTACK, 10, STACK
        ARGFRAME IOVERLAY, 0, STATIC
        ARGFRAME DOVERLAY, 0, STATIC
        FUNCALL zclSampleThermostat_Init, afRegister
        LOCFRAME ISTACK, 0, STACK
        LOCFRAME PSTACK, 0, STACK
        LOCFRAME XSTACK, 10, STACK
        LOCFRAME IOVERLAY, 0, STATIC
        LOCFRAME DOVERLAY, 0, STATIC
        ARGFRAME ISTACK, 0, STACK
        ARGFRAME PSTACK, 0, STACK
        ARGFRAME XSTACK, 10, STACK
        ARGFRAME IOVERLAY, 0, STATIC
        ARGFRAME DOVERLAY, 0, STATIC
        FUNCALL zclSampleThermostat_Init, ZDO_RegisterForZDOMsg
        LOCFRAME ISTACK, 0, STACK
        LOCFRAME PSTACK, 0, STACK
        LOCFRAME XSTACK, 10, STACK
        LOCFRAME IOVERLAY, 0, STATIC
        LOCFRAME DOVERLAY, 0, STATIC
        ARGFRAME ISTACK, 0, STACK
        ARGFRAME PSTACK, 0, STACK
        ARGFRAME XSTACK, 10, STACK
        ARGFRAME IOVERLAY, 0, STATIC
        ARGFRAME DOVERLAY, 0, STATIC
        FUNCALL zclSampleThermostat_Init, ZDO_RegisterForZDOMsg
        LOCFRAME ISTACK, 0, STACK
        LOCFRAME PSTACK, 0, STACK
        LOCFRAME XSTACK, 10, STACK
        LOCFRAME IOVERLAY, 0, STATIC
        LOCFRAME DOVERLAY, 0, STATIC
        ARGFRAME ISTACK, 0, STACK
        ARGFRAME PSTACK, 0, STACK
        ARGFRAME XSTACK, 10, STACK
        ARGFRAME IOVERLAY, 0, STATIC
        ARGFRAME DOVERLAY, 0, STATIC
        FUNCALL zclSampleThermostat_Init, HalLcdWriteString
        LOCFRAME ISTACK, 0, STACK
        LOCFRAME PSTACK, 0, STACK
        LOCFRAME XSTACK, 10, STACK
        LOCFRAME IOVERLAY, 0, STATIC
        LOCFRAME DOVERLAY, 0, STATIC
        ARGFRAME ISTACK, 0, STACK
        ARGFRAME PSTACK, 0, STACK
        ARGFRAME XSTACK, 10, STACK
        ARGFRAME IOVERLAY, 0, STATIC
        ARGFRAME DOVERLAY, 0, STATIC
        FUNCALL zclSampleThermostat_Init, UART_Init
        LOCFRAME ISTACK, 0, STACK
        LOCFRAME PSTACK, 0, STACK
        LOCFRAME XSTACK, 10, STACK
        LOCFRAME IOVERLAY, 0, STATIC
        LOCFRAME DOVERLAY, 0, STATIC
        ARGFRAME ISTACK, 0, STACK
        ARGFRAME PSTACK, 0, STACK
        ARGFRAME XSTACK, 10, STACK
        ARGFRAME IOVERLAY, 0, STATIC
        ARGFRAME DOVERLAY, 0, STATIC
        FUNCALL zclSampleThermostat_Init, GPIO_init
        LOCFRAME ISTACK, 0, STACK
        LOCFRAME PSTACK, 0, STACK
        LOCFRAME XSTACK, 10, STACK
        LOCFRAME IOVERLAY, 0, STATIC
        LOCFRAME DOVERLAY, 0, STATIC
        ARGFRAME ISTACK, 0, STACK
        ARGFRAME PSTACK, 0, STACK
        ARGFRAME XSTACK, 10, STACK
        ARGFRAME IOVERLAY, 0, STATIC
        ARGFRAME DOVERLAY, 0, STATIC
        FUNCALL zclSampleThermostat_Init, osal_start_timerEx
        LOCFRAME ISTACK, 0, STACK
        LOCFRAME PSTACK, 0, STACK
        LOCFRAME XSTACK, 14, STACK
        LOCFRAME IOVERLAY, 0, STATIC
        LOCFRAME DOVERLAY, 0, STATIC
        ARGFRAME ISTACK, 0, STACK
        ARGFRAME PSTACK, 0, STACK
        ARGFRAME XSTACK, 14, STACK
        ARGFRAME IOVERLAY, 0, STATIC
        ARGFRAME DOVERLAY, 0, STATIC
        FUNCALL zclSampleThermostat_Init, osal_start_timerEx
        LOCFRAME ISTACK, 0, STACK
        LOCFRAME PSTACK, 0, STACK
        LOCFRAME XSTACK, 14, STACK
        LOCFRAME IOVERLAY, 0, STATIC
        LOCFRAME DOVERLAY, 0, STATIC
        ARGFRAME ISTACK, 0, STACK
        ARGFRAME PSTACK, 0, STACK
        ARGFRAME XSTACK, 14, STACK
        ARGFRAME IOVERLAY, 0, STATIC
        ARGFRAME DOVERLAY, 0, STATIC
        FUNCALL zclSampleThermostat_Init, NLME_GetShortAddr
        LOCFRAME ISTACK, 0, STACK
        LOCFRAME PSTACK, 0, STACK
        LOCFRAME XSTACK, 10, STACK
        LOCFRAME IOVERLAY, 0, STATIC
        LOCFRAME DOVERLAY, 0, STATIC
        ARGFRAME ISTACK, 0, STACK
        ARGFRAME PSTACK, 0, STACK
        ARGFRAME XSTACK, 10, STACK
        ARGFRAME IOVERLAY, 0, STATIC
        ARGFRAME DOVERLAY, 0, STATIC
        FUNCALL zclSampleThermostat_Init, osal_set_event
        LOCFRAME ISTACK, 0, STACK
        LOCFRAME PSTACK, 0, STACK
        LOCFRAME XSTACK, 10, STACK
        LOCFRAME IOVERLAY, 0, STATIC
        LOCFRAME DOVERLAY, 0, STATIC
        ARGFRAME ISTACK, 0, STACK
        ARGFRAME PSTACK, 0, STACK
        ARGFRAME XSTACK, 10, STACK
        ARGFRAME IOVERLAY, 0, STATIC
        ARGFRAME DOVERLAY, 0, STATIC
        REQUIRE ?V0
        REQUIRE ?V1
        MOV     A,#-0xa
        LCALL   ?BANKED_ENTER_XDATA
          CFI DPH0 load(1, XDATA, add(CFA_XSP16, literal(-1)))
          CFI DPL0 load(1, XDATA, add(CFA_XSP16, literal(-2)))
          CFI ?BRET_EXT load(1, XDATA, add(CFA_XSP16, literal(-3)))
          CFI ?RET_HIGH load(1, XDATA, add(CFA_XSP16, literal(-4)))
          CFI ?RET_LOW load(1, XDATA, add(CFA_XSP16, literal(-5)))
          CFI R7 load(1, XDATA, add(CFA_XSP16, literal(-6)))
          CFI V1 load(1, XDATA, add(CFA_XSP16, literal(-7)))
          CFI V0 load(1, XDATA, add(CFA_XSP16, literal(-8)))
          CFI VB load(1, XDATA, add(CFA_XSP16, literal(-9)))
          CFI R6 load(1, XDATA, add(CFA_XSP16, literal(-10)))
          CFI CFA_SP SP+0
          CFI CFA_XSP16 add(XSP16, 10)
        ; Saved register size: 10
        ; Auto size: 0
        MOV     A,R1
        MOV     R6,A
//  280   zclSampleThermostat_TaskID = task_id;
        MOV     DPTR,#zclSampleThermostat_TaskID
        MOVX    @DPTR,A
//  281 
//  282   // Set destination address to indirect
//  283   zclSampleThermostat_DstAddr.addrMode = (afAddrMode_t)AddrNotPresent;
        MOV     DPTR,#zclSampleThermostat_DstAddr + 8
        CLR     A
        MOVX    @DPTR,A
//  284   zclSampleThermostat_DstAddr.endPoint = 0;
        INC     DPTR
        MOVX    @DPTR,A
//  285   zclSampleThermostat_DstAddr.addr.shortAddr = 0;
        MOV     DPTR,#zclSampleThermostat_DstAddr
        MOVX    @DPTR,A
        INC     DPTR
        MOVX    @DPTR,A
//  286 
//  287   // This app is part of the Home Automation Profile
//  288   zclHA_Init( &zclSampleThermostat_SimpleDesc );
        ; Setup parameters for call to function zclHA_Init
        MOV     R2,#zclSampleThermostat_SimpleDesc & 0xff
        MOV     R3,#(zclSampleThermostat_SimpleDesc >> 8) & 0xff
        LCALL   `??zclHA_Init::?relay`; Banked call to: zclHA_Init
//  289 
//  290   // Register the ZCL General Cluster Library callback functions
//  291   zclGeneral_RegisterCmdCallbacks( SAMPLETHERMOSTAT_ENDPOINT, &zclSampleThermostat_CmdCallbacks );
        ; Setup parameters for call to function zclGeneral_RegisterCmdCallbacks
        MOV     R2,#zclSampleThermostat_CmdCallbacks & 0xff
        MOV     R3,#(zclSampleThermostat_CmdCallbacks >> 8) & 0xff
        MOV     R1,#0x8
        LCALL   `??zclGeneral_RegisterCmdCallbacks::?relay`; Banked call to: zclGeneral_RegisterCmdCallbacks
//  292 
//  293   // Register the application's attribute list
//  294   zcl_registerAttrList( SAMPLETHERMOSTAT_ENDPOINT, SAMPLETHERMOSTAT_MAX_ATTRIBUTES, zclSampleThermostat_Attrs );
        ; Setup parameters for call to function zcl_registerAttrList
        MOV     R4,#zclSampleThermostat_Attrs & 0xff
        MOV     R5,#(zclSampleThermostat_Attrs >> 8) & 0xff
        MOV     R2,#0x16
        MOV     R1,#0x8
        LCALL   `??zcl_registerAttrList::?relay`; Banked call to: zcl_registerAttrList
//  295 
//  296   // Register the Application to receive the unprocessed Foundation command/response messages
//  297   zcl_registerForMsg( zclSampleThermostat_TaskID );
        ; Setup parameters for call to function zcl_registerForMsg
        MOV     DPTR,#zclSampleThermostat_TaskID
        MOVX    A,@DPTR
        MOV     R1,A
        LCALL   `??zcl_registerForMsg::?relay`; Banked call to: zcl_registerForMsg
//  298 
//  299 	#ifdef ZCL_EZMODE
//  300   // Register EZ-Mode
//  301   zcl_RegisterEZMode( &zclSampleThermostat_RegisterEZModeData );
        ; Setup parameters for call to function zcl_RegisterEZMode
        MOV     R2,#zclSampleThermostat_RegisterEZModeData & 0xff
        MOV     R3,#(zclSampleThermostat_RegisterEZModeData >> 8) & 0xff
        LCALL   `??zcl_RegisterEZMode::?relay`; Banked call to: zcl_RegisterEZMode
//  302 
//  303   // Register with the ZDO to receive Match Descriptor Responses
//  304   ZDO_RegisterForZDOMsg(task_id, Match_Desc_rsp);
        ; Setup parameters for call to function ZDO_RegisterForZDOMsg
        MOV     R2,#0x6
        MOV     R3,#-0x80
        MOV     A,R6
        MOV     R1,A
        LCALL   `??ZDO_RegisterForZDOMsg::?relay`; Banked call to: ZDO_RegisterForZDOMsg
//  305 	#endif
//  306 
//  307   // Register for all key events - This app will handle all key events
//  308   RegisterForKeys( zclSampleThermostat_TaskID );
        ; Setup parameters for call to function RegisterForKeys
        MOV     DPTR,#zclSampleThermostat_TaskID
        MOVX    A,@DPTR
        MOV     R1,A
        LCALL   `??RegisterForKeys::?relay`; Banked call to: RegisterForKeys
//  309 
//  310   // Register for a test endpoint
//  311   afRegister( &sampleThermostat_TestEp );
        ; Setup parameters for call to function afRegister
        MOV     R2,#sampleThermostat_TestEp & 0xff
        MOV     R3,#(sampleThermostat_TestEp >> 8) & 0xff
        LCALL   `??afRegister::?relay`; Banked call to: afRegister
//  312 
//  313   ZDO_RegisterForZDOMsg( zclSampleThermostat_TaskID, End_Device_Bind_rsp );
        ; Setup parameters for call to function ZDO_RegisterForZDOMsg
        MOV     R2,#0x20
        MOV     R3,#-0x80
        MOV     DPTR,#zclSampleThermostat_TaskID
        MOVX    A,@DPTR
        MOV     R1,A
        LCALL   `??ZDO_RegisterForZDOMsg::?relay`; Banked call to: ZDO_RegisterForZDOMsg
//  314   ZDO_RegisterForZDOMsg( zclSampleThermostat_TaskID, Match_Desc_rsp );
        ; Setup parameters for call to function ZDO_RegisterForZDOMsg
        MOV     R2,#0x6
        MOV     R3,#-0x80
        MOV     DPTR,#zclSampleThermostat_TaskID
        MOVX    A,@DPTR
        MOV     R1,A
        LCALL   `??ZDO_RegisterForZDOMsg::?relay`; Banked call to: ZDO_RegisterForZDOMsg
//  315 
//  316 	#ifdef LCD_SUPPORTED
//  317   // display the device name
//  318   HalLcdWriteString( (char *)sDeviceName, HAL_LCD_LINE_3 );
        ; Setup parameters for call to function HalLcdWriteString
        MOV     R1,#0x3
        MOV     R2,#sDeviceName & 0xff
        MOV     R3,#(sDeviceName >> 8) & 0xff
        LCALL   `??HalLcdWriteString::?relay`; Banked call to: HalLcdWriteString
//  319 	#endif
//  320 
//  321 	#ifdef ZGP_AUTO_TT
//  322   zgpTranslationTable_RegisterEP( &zclSampleThermostat_SimpleDesc );
//  323 	#endif
//  324 
//  325 	UART_Init(HAL_UART_PORT_0);
        ; Setup parameters for call to function UART_Init
        MOV     R1,#0x0
        LCALL   `??UART_Init::?relay`; Banked call to: UART_Init
//  326 	// cho nay khai bao gpio
//  327 	GPIO_init();
        ; Setup parameters for call to function GPIO_init
        LCALL   `??GPIO_init::?relay`; Banked call to: GPIO_init
//  328 	
//  329 	// Set timer for first UART Reply CMD event
//  330 	osal_start_timerEx( zclSampleThermostat_TaskID, SAMPLETHERMOSTAT_UART_REPLY_CMD_EVT, UART_PARSE_RX_PACKAGE_EVT_PERIOD );
        ; Setup parameters for call to function osal_start_timerEx
        MOV     DPTR,#__Constant_a
        LCALL   ?PUSH_XSTACK8_X_FOUR
          CFI CFA_XSP16 add(XSP16, 14)
        MOV     R2,#0x40
        MOV     R3,#0x0
        MOV     DPTR,#zclSampleThermostat_TaskID
        MOVX    A,@DPTR
        MOV     R1,A
        LCALL   `??osal_start_timerEx::?relay`; Banked call to: osal_start_timerEx
        MOV     A,#0x4
        LCALL   ?DEALLOC_XSTACK8
          CFI CFA_XSP16 add(XSP16, 10)
//  331 
//  332 	// Set timer for first Check System event
//  333 	osal_start_timerEx( zclSampleThermostat_TaskID, SAMPLETHERMOSTAT_CHECK_SYSTEM_EVT, CHECK_SYSTEM_EVT_PERIOD );
        ; Setup parameters for call to function osal_start_timerEx
        MOV     DPTR,#__Constant_2710
        LCALL   ?PUSH_XSTACK8_X_FOUR
          CFI CFA_XSP16 add(XSP16, 14)
        MOV     R2,#-0x80
        MOV     R3,#0x0
        MOV     DPTR,#zclSampleThermostat_TaskID
        MOVX    A,@DPTR
        MOV     R1,A
        LCALL   `??osal_start_timerEx::?relay`; Banked call to: osal_start_timerEx
        MOV     A,#0x4
        LCALL   ?DEALLOC_XSTACK8
          CFI CFA_XSP16 add(XSP16, 10)
//  334 
//  335 	// Set timer for first Join Setup event
//  336 	if (NLME_GetShortAddr() != 0xFFFE)
        ; Setup parameters for call to function NLME_GetShortAddr
        LCALL   `??NLME_GetShortAddr::?relay`; Banked call to: NLME_GetShortAddr
        MOV     ?V0,R2
        MOV     ?V1,R3
        MOV     A,#-0x2
        XRL     A,?V0
        JNZ     ??zclSampleThermostat_Init_0
        MOV     A,#-0x1
        XRL     A,?V1
??zclSampleThermostat_Init_0:
        JZ      ??zclSampleThermostat_Init_1
//  337 	{
//  338 		osal_set_event( zclSampleThermostat_TaskID, SAMPLETHERMOSTAT_JOIN_SETUP_EVT );
        ; Setup parameters for call to function osal_set_event
        MOV     R2,#0x20
        MOV     R3,#0x0
        MOV     DPTR,#zclSampleThermostat_TaskID
        MOVX    A,@DPTR
        MOV     R1,A
        LCALL   `??osal_set_event::?relay`; Banked call to: osal_set_event
//  339 	}
//  340 	
//  341 }
??zclSampleThermostat_Init_1:
        MOV     R7,#0x2
        LJMP    ?BANKED_LEAVE_XDATA
          CFI EndBlock cfiBlock0
//  342 
//  343 /*********************************************************************
//  344  * @fn          zclSample_event_loop
//  345  *
//  346  * @brief       Event Loop Processor for zclGeneral.
//  347  *
//  348  * @param       none
//  349  *
//  350  * @return      none
//  351  */

        RSEG BANKED_CODE:HUGECODE:NOROOT(0)
//  352 uint16 zclSampleThermostat_event_loop( uint8 task_id, uint16 events )
zclSampleThermostat_event_loop:
          CFI Block cfiBlock1 Using cfiCommon0
          CFI Function zclSampleThermostat_event_loop
        CODE
//  353 {
        FUNCALL zclSampleThermostat_event_loop, zclSampleThermostat_ProcessIdentifyTimeChange
        LOCFRAME ISTACK, 0, STACK
        LOCFRAME PSTACK, 0, STACK
        LOCFRAME XSTACK, 16, STACK
        LOCFRAME IOVERLAY, 0, STATIC
        LOCFRAME DOVERLAY, 0, STATIC
        ARGFRAME ISTACK, 0, STACK
        ARGFRAME PSTACK, 0, STACK
        ARGFRAME XSTACK, 16, STACK
        ARGFRAME IOVERLAY, 0, STATIC
        ARGFRAME DOVERLAY, 0, STATIC
        FUNCALL zclSampleThermostat_event_loop, UART_DebugPrint
        LOCFRAME ISTACK, 0, STACK
        LOCFRAME PSTACK, 0, STACK
        LOCFRAME XSTACK, 16, STACK
        LOCFRAME IOVERLAY, 0, STATIC
        LOCFRAME DOVERLAY, 0, STATIC
        ARGFRAME ISTACK, 0, STACK
        ARGFRAME PSTACK, 0, STACK
        ARGFRAME XSTACK, 16, STACK
        ARGFRAME IOVERLAY, 0, STATIC
        ARGFRAME DOVERLAY, 0, STATIC
        FUNCALL zclSampleThermostat_event_loop, zclSampleThermostat_LcdDisplayUpdate
        LOCFRAME ISTACK, 0, STACK
        LOCFRAME PSTACK, 0, STACK
        LOCFRAME XSTACK, 16, STACK
        LOCFRAME IOVERLAY, 0, STATIC
        LOCFRAME DOVERLAY, 0, STATIC
        ARGFRAME ISTACK, 0, STACK
        ARGFRAME PSTACK, 0, STACK
        ARGFRAME XSTACK, 16, STACK
        ARGFRAME IOVERLAY, 0, STATIC
        ARGFRAME DOVERLAY, 0, STATIC
        FUNCALL zclSampleThermostat_event_loop, zcl_EZModeAction
        LOCFRAME ISTACK, 0, STACK
        LOCFRAME PSTACK, 0, STACK
        LOCFRAME XSTACK, 16, STACK
        LOCFRAME IOVERLAY, 0, STATIC
        LOCFRAME DOVERLAY, 0, STATIC
        ARGFRAME ISTACK, 0, STACK
        ARGFRAME PSTACK, 0, STACK
        ARGFRAME XSTACK, 16, STACK
        ARGFRAME IOVERLAY, 0, STATIC
        ARGFRAME DOVERLAY, 0, STATIC
        FUNCALL zclSampleThermostat_event_loop, UART_DebugPrint
        LOCFRAME ISTACK, 0, STACK
        LOCFRAME PSTACK, 0, STACK
        LOCFRAME XSTACK, 16, STACK
        LOCFRAME IOVERLAY, 0, STATIC
        LOCFRAME DOVERLAY, 0, STATIC
        ARGFRAME ISTACK, 0, STACK
        ARGFRAME PSTACK, 0, STACK
        ARGFRAME XSTACK, 16, STACK
        ARGFRAME IOVERLAY, 0, STATIC
        ARGFRAME DOVERLAY, 0, STATIC
        FUNCALL zclSampleThermostat_event_loop, osal_msg_deallocate
        LOCFRAME ISTACK, 0, STACK
        LOCFRAME PSTACK, 0, STACK
        LOCFRAME XSTACK, 16, STACK
        LOCFRAME IOVERLAY, 0, STATIC
        LOCFRAME DOVERLAY, 0, STATIC
        ARGFRAME ISTACK, 0, STACK
        ARGFRAME PSTACK, 0, STACK
        ARGFRAME XSTACK, 16, STACK
        ARGFRAME IOVERLAY, 0, STATIC
        ARGFRAME DOVERLAY, 0, STATIC
        FUNCALL zclSampleThermostat_event_loop, osal_msg_receive
        LOCFRAME ISTACK, 0, STACK
        LOCFRAME PSTACK, 0, STACK
        LOCFRAME XSTACK, 16, STACK
        LOCFRAME IOVERLAY, 0, STATIC
        LOCFRAME DOVERLAY, 0, STATIC
        ARGFRAME ISTACK, 0, STACK
        ARGFRAME PSTACK, 0, STACK
        ARGFRAME XSTACK, 16, STACK
        ARGFRAME IOVERLAY, 0, STATIC
        ARGFRAME DOVERLAY, 0, STATIC
        FUNCALL zclSampleThermostat_event_loop, ZDO_ParseEPListRsp
        LOCFRAME ISTACK, 0, STACK
        LOCFRAME PSTACK, 0, STACK
        LOCFRAME XSTACK, 16, STACK
        LOCFRAME IOVERLAY, 0, STATIC
        LOCFRAME DOVERLAY, 0, STATIC
        ARGFRAME ISTACK, 0, STACK
        ARGFRAME PSTACK, 0, STACK
        ARGFRAME XSTACK, 16, STACK
        ARGFRAME IOVERLAY, 0, STATIC
        ARGFRAME DOVERLAY, 0, STATIC
        FUNCALL zclSampleThermostat_event_loop, zcl_EZModeAction
        LOCFRAME ISTACK, 0, STACK
        LOCFRAME PSTACK, 0, STACK
        LOCFRAME XSTACK, 16, STACK
        LOCFRAME IOVERLAY, 0, STATIC
        LOCFRAME DOVERLAY, 0, STATIC
        ARGFRAME ISTACK, 0, STACK
        ARGFRAME PSTACK, 0, STACK
        ARGFRAME XSTACK, 16, STACK
        ARGFRAME IOVERLAY, 0, STATIC
        ARGFRAME DOVERLAY, 0, STATIC
        FUNCALL zclSampleThermostat_event_loop, osal_mem_free
        LOCFRAME ISTACK, 0, STACK
        LOCFRAME PSTACK, 0, STACK
        LOCFRAME XSTACK, 16, STACK
        LOCFRAME IOVERLAY, 0, STATIC
        LOCFRAME DOVERLAY, 0, STATIC
        ARGFRAME ISTACK, 0, STACK
        ARGFRAME PSTACK, 0, STACK
        ARGFRAME XSTACK, 16, STACK
        ARGFRAME IOVERLAY, 0, STATIC
        ARGFRAME DOVERLAY, 0, STATIC
        FUNCALL zclSampleThermostat_event_loop, UART_DebugPrint
        LOCFRAME ISTACK, 0, STACK
        LOCFRAME PSTACK, 0, STACK
        LOCFRAME XSTACK, 16, STACK
        LOCFRAME IOVERLAY, 0, STATIC
        LOCFRAME DOVERLAY, 0, STATIC
        ARGFRAME ISTACK, 0, STACK
        ARGFRAME PSTACK, 0, STACK
        ARGFRAME XSTACK, 16, STACK
        ARGFRAME IOVERLAY, 0, STATIC
        ARGFRAME DOVERLAY, 0, STATIC
        FUNCALL zclSampleThermostat_event_loop, zclSampleThermostat_ProcessAppMsg
        LOCFRAME ISTACK, 0, STACK
        LOCFRAME PSTACK, 0, STACK
        LOCFRAME XSTACK, 16, STACK
        LOCFRAME IOVERLAY, 0, STATIC
        LOCFRAME DOVERLAY, 0, STATIC
        ARGFRAME ISTACK, 0, STACK
        ARGFRAME PSTACK, 0, STACK
        ARGFRAME XSTACK, 16, STACK
        ARGFRAME IOVERLAY, 0, STATIC
        ARGFRAME DOVERLAY, 0, STATIC
        FUNCALL zclSampleThermostat_event_loop, UART_DebugPrint
        LOCFRAME ISTACK, 0, STACK
        LOCFRAME PSTACK, 0, STACK
        LOCFRAME XSTACK, 16, STACK
        LOCFRAME IOVERLAY, 0, STATIC
        LOCFRAME DOVERLAY, 0, STATIC
        ARGFRAME ISTACK, 0, STACK
        ARGFRAME PSTACK, 0, STACK
        ARGFRAME XSTACK, 16, STACK
        ARGFRAME IOVERLAY, 0, STATIC
        ARGFRAME DOVERLAY, 0, STATIC
        FUNCALL zclSampleThermostat_event_loop, zclSampleThermostat_ProcessInReportCmd
        LOCFRAME ISTACK, 0, STACK
        LOCFRAME PSTACK, 0, STACK
        LOCFRAME XSTACK, 16, STACK
        LOCFRAME IOVERLAY, 0, STATIC
        LOCFRAME DOVERLAY, 0, STATIC
        ARGFRAME ISTACK, 0, STACK
        ARGFRAME PSTACK, 0, STACK
        ARGFRAME XSTACK, 16, STACK
        ARGFRAME IOVERLAY, 0, STATIC
        ARGFRAME DOVERLAY, 0, STATIC
        FUNCALL zclSampleThermostat_event_loop, osal_mem_free
        LOCFRAME ISTACK, 0, STACK
        LOCFRAME PSTACK, 0, STACK
        LOCFRAME XSTACK, 16, STACK
        LOCFRAME IOVERLAY, 0, STATIC
        LOCFRAME DOVERLAY, 0, STATIC
        ARGFRAME ISTACK, 0, STACK
        ARGFRAME PSTACK, 0, STACK
        ARGFRAME XSTACK, 16, STACK
        ARGFRAME IOVERLAY, 0, STATIC
        ARGFRAME DOVERLAY, 0, STATIC
        FUNCALL zclSampleThermostat_event_loop, UART_DebugPrint
        LOCFRAME ISTACK, 0, STACK
        LOCFRAME PSTACK, 0, STACK
        LOCFRAME XSTACK, 16, STACK
        LOCFRAME IOVERLAY, 0, STATIC
        LOCFRAME DOVERLAY, 0, STATIC
        ARGFRAME ISTACK, 0, STACK
        ARGFRAME PSTACK, 0, STACK
        ARGFRAME XSTACK, 16, STACK
        ARGFRAME IOVERLAY, 0, STATIC
        ARGFRAME DOVERLAY, 0, STATIC
        FUNCALL zclSampleThermostat_event_loop, zclSampleThermostat_HandleKeys
        LOCFRAME ISTACK, 0, STACK
        LOCFRAME PSTACK, 0, STACK
        LOCFRAME XSTACK, 16, STACK
        LOCFRAME IOVERLAY, 0, STATIC
        LOCFRAME DOVERLAY, 0, STATIC
        ARGFRAME ISTACK, 0, STACK
        ARGFRAME PSTACK, 0, STACK
        ARGFRAME XSTACK, 16, STACK
        ARGFRAME IOVERLAY, 0, STATIC
        ARGFRAME DOVERLAY, 0, STATIC
        FUNCALL zclSampleThermostat_event_loop, UART_DebugPrint
        LOCFRAME ISTACK, 0, STACK
        LOCFRAME PSTACK, 0, STACK
        LOCFRAME XSTACK, 16, STACK
        LOCFRAME IOVERLAY, 0, STATIC
        LOCFRAME DOVERLAY, 0, STATIC
        ARGFRAME ISTACK, 0, STACK
        ARGFRAME PSTACK, 0, STACK
        ARGFRAME XSTACK, 16, STACK
        ARGFRAME IOVERLAY, 0, STATIC
        ARGFRAME DOVERLAY, 0, STATIC
        FUNCALL zclSampleThermostat_event_loop, zclSampleThermostat_LcdDisplayUpdate
        LOCFRAME ISTACK, 0, STACK
        LOCFRAME PSTACK, 0, STACK
        LOCFRAME XSTACK, 16, STACK
        LOCFRAME IOVERLAY, 0, STATIC
        LOCFRAME DOVERLAY, 0, STATIC
        ARGFRAME ISTACK, 0, STACK
        ARGFRAME PSTACK, 0, STACK
        ARGFRAME XSTACK, 16, STACK
        ARGFRAME IOVERLAY, 0, STATIC
        ARGFRAME DOVERLAY, 0, STATIC
        FUNCALL zclSampleThermostat_event_loop, UART_DebugPrint
        LOCFRAME ISTACK, 0, STACK
        LOCFRAME PSTACK, 0, STACK
        LOCFRAME XSTACK, 16, STACK
        LOCFRAME IOVERLAY, 0, STATIC
        LOCFRAME DOVERLAY, 0, STATIC
        ARGFRAME ISTACK, 0, STACK
        ARGFRAME PSTACK, 0, STACK
        ARGFRAME XSTACK, 16, STACK
        ARGFRAME IOVERLAY, 0, STATIC
        ARGFRAME DOVERLAY, 0, STATIC
        FUNCALL zclSampleThermostat_event_loop, zcl_EZModeAction
        LOCFRAME ISTACK, 0, STACK
        LOCFRAME PSTACK, 0, STACK
        LOCFRAME XSTACK, 16, STACK
        LOCFRAME IOVERLAY, 0, STATIC
        LOCFRAME DOVERLAY, 0, STATIC
        ARGFRAME ISTACK, 0, STACK
        ARGFRAME PSTACK, 0, STACK
        ARGFRAME XSTACK, 16, STACK
        ARGFRAME IOVERLAY, 0, STATIC
        ARGFRAME DOVERLAY, 0, STATIC
        FUNCALL zclSampleThermostat_event_loop, UART_DebugPrint
        LOCFRAME ISTACK, 0, STACK
        LOCFRAME PSTACK, 0, STACK
        LOCFRAME XSTACK, 16, STACK
        LOCFRAME IOVERLAY, 0, STATIC
        LOCFRAME DOVERLAY, 0, STATIC
        ARGFRAME ISTACK, 0, STACK
        ARGFRAME PSTACK, 0, STACK
        ARGFRAME XSTACK, 16, STACK
        ARGFRAME IOVERLAY, 0, STATIC
        ARGFRAME DOVERLAY, 0, STATIC
        FUNCALL zclSampleThermostat_event_loop, zcl_EZModeAction
        LOCFRAME ISTACK, 0, STACK
        LOCFRAME PSTACK, 0, STACK
        LOCFRAME XSTACK, 16, STACK
        LOCFRAME IOVERLAY, 0, STATIC
        LOCFRAME DOVERLAY, 0, STATIC
        ARGFRAME ISTACK, 0, STACK
        ARGFRAME PSTACK, 0, STACK
        ARGFRAME XSTACK, 16, STACK
        ARGFRAME IOVERLAY, 0, STATIC
        ARGFRAME DOVERLAY, 0, STATIC
        FUNCALL zclSampleThermostat_event_loop, UART_DebugPrint
        LOCFRAME ISTACK, 0, STACK
        LOCFRAME PSTACK, 0, STACK
        LOCFRAME XSTACK, 16, STACK
        LOCFRAME IOVERLAY, 0, STATIC
        LOCFRAME DOVERLAY, 0, STATIC
        ARGFRAME ISTACK, 0, STACK
        ARGFRAME PSTACK, 0, STACK
        ARGFRAME XSTACK, 16, STACK
        ARGFRAME IOVERLAY, 0, STATIC
        ARGFRAME DOVERLAY, 0, STATIC
        FUNCALL zclSampleThermostat_event_loop, zclSampleThermostat_BindingProcess
        LOCFRAME ISTACK, 0, STACK
        LOCFRAME PSTACK, 0, STACK
        LOCFRAME XSTACK, 16, STACK
        LOCFRAME IOVERLAY, 0, STATIC
        LOCFRAME DOVERLAY, 0, STATIC
        ARGFRAME ISTACK, 0, STACK
        ARGFRAME PSTACK, 0, STACK
        ARGFRAME XSTACK, 16, STACK
        ARGFRAME IOVERLAY, 0, STATIC
        ARGFRAME DOVERLAY, 0, STATIC
        FUNCALL zclSampleThermostat_event_loop, osal_start_timerEx
        LOCFRAME ISTACK, 0, STACK
        LOCFRAME PSTACK, 0, STACK
        LOCFRAME XSTACK, 20, STACK
        LOCFRAME IOVERLAY, 0, STATIC
        LOCFRAME DOVERLAY, 0, STATIC
        ARGFRAME ISTACK, 0, STACK
        ARGFRAME PSTACK, 0, STACK
        ARGFRAME XSTACK, 20, STACK
        ARGFRAME IOVERLAY, 0, STATIC
        ARGFRAME DOVERLAY, 0, STATIC
        FUNCALL zclSampleThermostat_event_loop, zclSampleThermostat_BindingProcess
        LOCFRAME ISTACK, 0, STACK
        LOCFRAME PSTACK, 0, STACK
        LOCFRAME XSTACK, 16, STACK
        LOCFRAME IOVERLAY, 0, STATIC
        LOCFRAME DOVERLAY, 0, STATIC
        ARGFRAME ISTACK, 0, STACK
        ARGFRAME PSTACK, 0, STACK
        ARGFRAME XSTACK, 16, STACK
        ARGFRAME IOVERLAY, 0, STATIC
        ARGFRAME DOVERLAY, 0, STATIC
        FUNCALL zclSampleThermostat_event_loop, UART_DebugPrint
        LOCFRAME ISTACK, 0, STACK
        LOCFRAME PSTACK, 0, STACK
        LOCFRAME XSTACK, 16, STACK
        LOCFRAME IOVERLAY, 0, STATIC
        LOCFRAME DOVERLAY, 0, STATIC
        ARGFRAME ISTACK, 0, STACK
        ARGFRAME PSTACK, 0, STACK
        ARGFRAME XSTACK, 16, STACK
        ARGFRAME IOVERLAY, 0, STATIC
        ARGFRAME DOVERLAY, 0, STATIC
        FUNCALL zclSampleThermostat_event_loop, UART_ParseRxPackage
        LOCFRAME ISTACK, 0, STACK
        LOCFRAME PSTACK, 0, STACK
        LOCFRAME XSTACK, 16, STACK
        LOCFRAME IOVERLAY, 0, STATIC
        LOCFRAME DOVERLAY, 0, STATIC
        ARGFRAME ISTACK, 0, STACK
        ARGFRAME PSTACK, 0, STACK
        ARGFRAME XSTACK, 16, STACK
        ARGFRAME IOVERLAY, 0, STATIC
        ARGFRAME DOVERLAY, 0, STATIC
        FUNCALL zclSampleThermostat_event_loop, ZCMD_ReplyCMD
        LOCFRAME ISTACK, 0, STACK
        LOCFRAME PSTACK, 0, STACK
        LOCFRAME XSTACK, 16, STACK
        LOCFRAME IOVERLAY, 0, STATIC
        LOCFRAME DOVERLAY, 0, STATIC
        ARGFRAME ISTACK, 0, STACK
        ARGFRAME PSTACK, 0, STACK
        ARGFRAME XSTACK, 16, STACK
        ARGFRAME IOVERLAY, 0, STATIC
        ARGFRAME DOVERLAY, 0, STATIC
        FUNCALL zclSampleThermostat_event_loop, osal_start_timerEx
        LOCFRAME ISTACK, 0, STACK
        LOCFRAME PSTACK, 0, STACK
        LOCFRAME XSTACK, 20, STACK
        LOCFRAME IOVERLAY, 0, STATIC
        LOCFRAME DOVERLAY, 0, STATIC
        ARGFRAME ISTACK, 0, STACK
        ARGFRAME PSTACK, 0, STACK
        ARGFRAME XSTACK, 20, STACK
        ARGFRAME IOVERLAY, 0, STATIC
        ARGFRAME DOVERLAY, 0, STATIC
        FUNCALL zclSampleThermostat_event_loop, osal_set_event
        LOCFRAME ISTACK, 0, STACK
        LOCFRAME PSTACK, 0, STACK
        LOCFRAME XSTACK, 16, STACK
        LOCFRAME IOVERLAY, 0, STATIC
        LOCFRAME DOVERLAY, 0, STATIC
        ARGFRAME ISTACK, 0, STACK
        ARGFRAME PSTACK, 0, STACK
        ARGFRAME XSTACK, 16, STACK
        ARGFRAME IOVERLAY, 0, STATIC
        ARGFRAME DOVERLAY, 0, STATIC
        FUNCALL zclSampleThermostat_event_loop, osal_start_timerEx
        LOCFRAME ISTACK, 0, STACK
        LOCFRAME PSTACK, 0, STACK
        LOCFRAME XSTACK, 20, STACK
        LOCFRAME IOVERLAY, 0, STATIC
        LOCFRAME DOVERLAY, 0, STATIC
        ARGFRAME ISTACK, 0, STACK
        ARGFRAME PSTACK, 0, STACK
        ARGFRAME XSTACK, 20, STACK
        ARGFRAME IOVERLAY, 0, STATIC
        ARGFRAME DOVERLAY, 0, STATIC
        REQUIRE ?V0
        REQUIRE ?V1
        REQUIRE ?V2
        REQUIRE ?V3
        REQUIRE ?V4
        REQUIRE ?V5
        MOV     A,#-0xe
        LCALL   ?BANKED_ENTER_XDATA
          CFI DPH0 load(1, XDATA, add(CFA_XSP16, literal(-1)))
          CFI DPL0 load(1, XDATA, add(CFA_XSP16, literal(-2)))
          CFI ?BRET_EXT load(1, XDATA, add(CFA_XSP16, literal(-3)))
          CFI ?RET_HIGH load(1, XDATA, add(CFA_XSP16, literal(-4)))
          CFI ?RET_LOW load(1, XDATA, add(CFA_XSP16, literal(-5)))
          CFI R7 load(1, XDATA, add(CFA_XSP16, literal(-6)))
          CFI V5 load(1, XDATA, add(CFA_XSP16, literal(-7)))
          CFI V4 load(1, XDATA, add(CFA_XSP16, literal(-8)))
          CFI V3 load(1, XDATA, add(CFA_XSP16, literal(-9)))
          CFI V2 load(1, XDATA, add(CFA_XSP16, literal(-10)))
          CFI V1 load(1, XDATA, add(CFA_XSP16, literal(-11)))
          CFI V0 load(1, XDATA, add(CFA_XSP16, literal(-12)))
          CFI VB load(1, XDATA, add(CFA_XSP16, literal(-13)))
          CFI R6 load(1, XDATA, add(CFA_XSP16, literal(-14)))
          CFI CFA_SP SP+0
          CFI CFA_XSP16 add(XSP16, 14)
        ; Saved register size: 14
        ; Auto size: 2
        MOV     A,#-0x2
        LCALL   ?ALLOC_XSTACK8
          CFI CFA_XSP16 add(XSP16, 16)
        MOV     A,R2
        MOV     R6,A
        MOV     A,R3
        MOV     R7,A
//  354   afIncomingMSGPacket_t *MSGpkt;
//  355 
//  356   (void)task_id;  // Intentionally unreferenced parameter
//  357 
//  358 	/*--------------------------------------------------------------------------*/
//  359   if ( events & SYS_EVENT_MSG )
        ANL     A,#0x80
        JNZ     ??zclSampleThermostat_event_loop_0
//  360   {
//  361     while ( (MSGpkt = (afIncomingMSGPacket_t *)osal_msg_receive( zclSampleThermostat_TaskID )) )
//  362     {
//  363     	msg_RSSI = MSGpkt->rssi;
//  364 				
//  365       switch ( MSGpkt->hdr.event )
//  366       {
//  367 				#ifdef ZCL_EZMODE
//  368         case ZDO_CB_MSG:
//  369           zclSampleThermostat_ProcessZDOMsgs( (zdoIncomingMsg_t *)MSGpkt );
//  370 					UART_DebugPrint(HAL_UART_PORT_0, "[EVENT] ZDO_CB_MSG");
//  371           break;
//  372 				#endif
//  373 
//  374         case MT_SYS_APP_MSG:
//  375           // Message received from MT
//  376           zclSampleThermostat_ProcessAppMsg( ((mtSysAppMsg_t *)MSGpkt)->endpoint,
//  377                                           ((mtSysAppMsg_t *)MSGpkt)->appDataLen,
//  378                                           ((mtSysAppMsg_t *)MSGpkt)->appData );
//  379 					UART_DebugPrint(HAL_UART_PORT_0, "[EVENT] MT_SYS_APP_MSG");
//  380           break;
//  381 
//  382         case ZCL_INCOMING_MSG:
//  383           // Incoming ZCL Foundation command/response messages
//  384           zclSampleThermostat_ProcessIncomingMsg( (zclIncomingMsg_t *)MSGpkt );
//  385 					UART_DebugPrint(HAL_UART_PORT_0, "[EVENT] ZCL_INCOMING_MSG");
//  386           break;
//  387 
//  388         case KEY_CHANGE:
//  389           zclSampleThermostat_HandleKeys( ((keyChange_t *)MSGpkt)->state, ((keyChange_t *)MSGpkt)->keys );
//  390 					UART_DebugPrint(HAL_UART_PORT_0, "[EVENT] KEY_CHANGE");
//  391           break;
//  392 
//  393         case ZDO_STATE_CHANGE:
//  394           zclSampleThermostat_NwkState = (devStates_t)(MSGpkt->hdr.status);
//  395 
//  396 
//  397           // now on the network
//  398           if ( ( zclSampleThermostat_NwkState == DEV_ZB_COORD ) ||
//  399                ( zclSampleThermostat_NwkState == DEV_ROUTER )   ||
//  400                ( zclSampleThermostat_NwkState == DEV_END_DEVICE ) )
//  401           {
//  402 						#ifndef HOLD_AUTO_START
//  403             // display main mode
//  404             giThermostatScreenMode = THERMOSTAT_MAINMODE;
//  405             zclSampleThermostat_LcdDisplayUpdate();
//  406 						#endif
//  407 						#ifdef ZCL_EZMODE
//  408             zcl_EZModeAction( EZMODE_ACTION_NETWORK_STARTED, NULL );
//  409 						#endif  // ZCL_EZMODE
//  410 						
//  411 						UART_DebugPrint(HAL_UART_PORT_0, "[EVENT] ZDO_STATE_CHANGE");
//  412           }
//  413           break;
//  414 
//  415         default:
//  416           break;
//  417       }
//  418 
//  419       // Release the memory
//  420       osal_msg_deallocate( (uint8 *)MSGpkt );
//  421     }
//  422 
//  423     // return unprocessed events
//  424     return (events ^ SYS_EVENT_MSG);
//  425   }
//  426 
//  427 	/*--------------------------------------------------------------------------*/
//  428   if ( events & SAMPLETHERMOSTAT_IDENTIFY_TIMEOUT_EVT )
        MOV     A,R6
        MOV     C,0xE0 /* A   */.0
        JC      $+5
        LJMP    ??zclSampleThermostat_event_loop_1 & 0xFFFF
//  429   {
//  430     if ( zclSampleThermostat_IdentifyTime > 0 )
        LCALL   ?Subroutine15 & 0xFFFF
??CrossCallReturnLabel_56:
        JZ      ??zclSampleThermostat_event_loop_2
//  431     {
//  432       zclSampleThermostat_IdentifyTime--;
        MOV     DPTR,#zclSampleThermostat_IdentifyTime
        MOVX    A,@DPTR
        ADD     A,#-0x1
        MOVX    @DPTR,A
        INC     DPTR
        MOVX    A,@DPTR
        ADDC    A,#-0x1
        MOVX    @DPTR,A
//  433     }
//  434     zclSampleThermostat_ProcessIdentifyTimeChange();
??zclSampleThermostat_event_loop_2:
        ; Setup parameters for call to function zclSampleThermostat_ProcessIdentifyTimeChange
        LCALL   ??zclSampleThermostat_ProcessIdentifyTimeChange; Banked call to: zclSampleThermostat_ProcessIdentifyTimeChange
//  435 		
//  436 		UART_DebugPrint(HAL_UART_PORT_0, "[EVENT] SAMPLETHERMOSTAT_IDENTIFY_TIMEOUT_EVT");
        ; Setup parameters for call to function UART_DebugPrint
        MOV     R2,#`?<Constant "[EVENT] SAMPLETHERMOS...">` & 0xff
        MOV     R3,#(`?<Constant "[EVENT] SAMPLETHERMOS...">` >> 8) & 0xff
        MOV     R1,#0x0
        LCALL   `??UART_DebugPrint::?relay`; Banked call to: UART_DebugPrint
//  437 
//  438     return ( events ^ SAMPLETHERMOSTAT_IDENTIFY_TIMEOUT_EVT );
        MOV     A,R6
        XRL     A,#0x1
        LJMP    ??zclSampleThermostat_event_loop_3 & 0xFFFF
//  439   }
??zclSampleThermostat_event_loop_4:
        INC     DPTR
        MOVX    A,@DPTR
        MOV     DPTR,#zclSampleThermostat_NwkState
        MOVX    @DPTR,A
        XRL     A,#0x9
        JZ      ??zclSampleThermostat_event_loop_5
        MOVX    A,@DPTR
        XRL     A,#0x7
        JZ      ??zclSampleThermostat_event_loop_5
        MOVX    A,@DPTR
        XRL     A,#0x6
        JNZ     ??zclSampleThermostat_event_loop_6
??zclSampleThermostat_event_loop_5:
        MOV     DPTR,#giThermostatScreenMode
        CLR     A
        MOVX    @DPTR,A
        ; Setup parameters for call to function zclSampleThermostat_LcdDisplayUpdate
        LCALL   `??zclSampleThermostat_LcdDisplayUpdate::?relay`; Banked call to: zclSampleThermostat_LcdDisplayUpdate
        ; Setup parameters for call to function zcl_EZModeAction
        MOV     R2,#0x0
        MOV     R3,#0x0
        MOV     R1,#0x2
        LCALL   `??zcl_EZModeAction::?relay`; Banked call to: zcl_EZModeAction
        ; Setup parameters for call to function UART_DebugPrint
        MOV     R2,#`?<Constant "[EVENT] ZDO_STATE_CHANGE">` & 0xff
        MOV     R3,#(`?<Constant "[EVENT] ZDO_STATE_CHANGE">` >> 8) & 0xff
??zclSampleThermostat_event_loop_7:
        MOV     R1,#0x0
        LCALL   `??UART_DebugPrint::?relay`; Banked call to: UART_DebugPrint
??zclSampleThermostat_event_loop_6:
        ; Setup parameters for call to function osal_msg_deallocate
        MOV     R2,?V0
        MOV     R3,?V1
        LCALL   `??osal_msg_deallocate::?relay`; Banked call to: osal_msg_deallocate
??zclSampleThermostat_event_loop_0:
        ; Setup parameters for call to function osal_msg_receive
        MOV     DPTR,#zclSampleThermostat_TaskID
        MOVX    A,@DPTR
        MOV     R1,A
        LCALL   `??osal_msg_receive::?relay`; Banked call to: osal_msg_receive
        MOV     ?V0,R2
        MOV     ?V1,R3
        MOV     A,R2
        ORL     A,?V1
        JNZ     $+5
        LJMP    ??zclSampleThermostat_event_loop_8 & 0xFFFF
        MOV     A,R2
        ADD     A,#0x18
        MOV     DPL,A
        CLR     A
        ADDC    A,?V1
        MOV     DPH,A
        MOVX    A,@DPTR
        MOV     DPTR,#msg_RSSI
        MOVX    @DPTR,A
        MOV     DPL,R2
        MOV     DPH,R3
        MOVX    A,@DPTR
        ADD     A,#-0x23
        JZ      ??zclSampleThermostat_event_loop_9
        ADD     A,#-0x11
        JZ      ??zclSampleThermostat_event_loop_10
        ADD     A,#0x74
        JNZ     $+5
        LJMP    ??zclSampleThermostat_event_loop_11 & 0xFFFF
        ADD     A,#-0x11
        JZ      ??zclSampleThermostat_event_loop_4
        ADD     A,#-0x2
        JNZ     ??zclSampleThermostat_event_loop_6
        MOV     A,R2
        ADD     A,#0xc
        MOV     DPL,A
        CLR     A
        ADDC    A,?V1
        MOV     DPH,A
        MOVX    A,@DPTR
        XRL     A,#0x6
        JNZ     ??zclSampleThermostat_event_loop_12
        INC     DPTR
        MOVX    A,@DPTR
        XRL     A,#0x80
??zclSampleThermostat_event_loop_12:
        JNZ     ??zclSampleThermostat_event_loop_13
        ; Setup parameters for call to function ZDO_ParseEPListRsp
        LCALL   `??ZDO_ParseEPListRsp::?relay`; Banked call to: ZDO_ParseEPListRsp
        MOV     ?V2,R2
        MOV     ?V3,R3
        LCALL   ?Subroutine8 & 0xFFFF
??CrossCallReturnLabel_62:
        MOV     R1,#0x5
        LCALL   `??zcl_EZModeAction::?relay`; Banked call to: zcl_EZModeAction
        ; Setup parameters for call to function osal_mem_free
        MOV     R2,?V2
        MOV     R3,?V3
        LCALL   `??osal_mem_free::?relay`; Banked call to: osal_mem_free
??zclSampleThermostat_event_loop_13:
        ; Setup parameters for call to function UART_DebugPrint
        MOV     R2,#`?<Constant "[EVENT] ZDO_CB_MSG">` & 0xff
        MOV     R3,#(`?<Constant "[EVENT] ZDO_CB_MSG">` >> 8) & 0xff
        SJMP    ??zclSampleThermostat_event_loop_7
??zclSampleThermostat_event_loop_9:
        ; Setup parameters for call to function zclSampleThermostat_ProcessAppMsg
        INC     DPTR
        INC     DPTR
        INC     DPTR
        INC     DPTR
        MOVX    A,@DPTR
        MOV     R4,A
        INC     DPTR
        MOVX    A,@DPTR
        MOV     R5,A
        MOV     DPL,R2
        MOV     DPH,R3
        LCALL   ?Subroutine17 & 0xFFFF
??CrossCallReturnLabel_34:
        LCALL   `??zclSampleThermostat_ProcessAppMsg::?relay`; Banked call to: zclSampleThermostat_ProcessAppMsg
        ; Setup parameters for call to function UART_DebugPrint
        MOV     R2,#`?<Constant "[EVENT] MT_SYS_APP_MSG">` & 0xff
        MOV     R3,#(`?<Constant "[EVENT] MT_SYS_APP_MSG">` >> 8) & 0xff
        LJMP    ??zclSampleThermostat_event_loop_7 & 0xFFFF
??zclSampleThermostat_event_loop_10:
        MOV     A,R2
        ADD     A,#0x17
        MOV     ?V2,A
        CLR     A
        ADDC    A,?V1
        MOV     ?V3,A
        INC     DPTR
        INC     DPTR
        INC     DPTR
        INC     DPTR
        INC     DPTR
        INC     DPTR
        INC     DPTR
        MOVX    A,@DPTR
        DEC     A
        JZ      ??zclSampleThermostat_event_loop_14
        ADD     A,#-0x3
        JZ      ??zclSampleThermostat_event_loop_15
        ADD     A,#-0x6
        JNZ     ??zclSampleThermostat_event_loop_16
        ; Setup parameters for call to function zclSampleThermostat_ProcessInReportCmd
        LCALL   `??zclSampleThermostat_ProcessInReportCmd::?rela`; Banked call to: zclSampleThermostat_ProcessInReportCmd
        SJMP    ??zclSampleThermostat_event_loop_16
??zclSampleThermostat_event_loop_15:
        LCALL   ?Subroutine18 & 0xFFFF
??CrossCallReturnLabel_36:
        MOVX    A,@DPTR
        MOV     R1,A
        MOV     A,R0
        CLR     C
        SUBB    A,R1
        JNC     ??zclSampleThermostat_event_loop_16
        INC     R0
        SJMP    ??CrossCallReturnLabel_36
??zclSampleThermostat_event_loop_14:
        LCALL   ?Subroutine18 & 0xFFFF
??CrossCallReturnLabel_37:
        SJMP    ??zclSampleThermostat_event_loop_17
??zclSampleThermostat_event_loop_18:
        INC     R0
??zclSampleThermostat_event_loop_17:
        MOVX    A,@DPTR
        MOV     R1,A
        MOV     A,R0
        CLR     C
        SUBB    A,R1
        JC      ??zclSampleThermostat_event_loop_18
??zclSampleThermostat_event_loop_16:
        MOV     DPL,?V2
        MOV     DPH,?V3
        LCALL   ??Subroutine38_0 & 0xFFFF
??CrossCallReturnLabel_94:
        MOV     A,R2
        ORL     A,R3
        JZ      ??zclSampleThermostat_event_loop_19
        ; Setup parameters for call to function osal_mem_free
        LCALL   `??osal_mem_free::?relay`; Banked call to: osal_mem_free
??zclSampleThermostat_event_loop_19:
        ; Setup parameters for call to function UART_DebugPrint
        MOV     R2,#`?<Constant "[EVENT] ZCL_INCOMING_MSG">` & 0xff
        MOV     R3,#(`?<Constant "[EVENT] ZCL_INCOMING_MSG">` >> 8) & 0xff
        LJMP    ??zclSampleThermostat_event_loop_7 & 0xFFFF
??zclSampleThermostat_event_loop_11:
        ; Setup parameters for call to function zclSampleThermostat_HandleKeys
        LCALL   ?Subroutine17 & 0xFFFF
??CrossCallReturnLabel_35:
        LCALL   `??zclSampleThermostat_HandleKeys::?relay`; Banked call to: zclSampleThermostat_HandleKeys
        ; Setup parameters for call to function UART_DebugPrint
        MOV     R2,#`?<Constant "[EVENT] KEY_CHANGE">` & 0xff
        MOV     R3,#(`?<Constant "[EVENT] KEY_CHANGE">` >> 8) & 0xff
        LJMP    ??zclSampleThermostat_event_loop_7 & 0xFFFF
??zclSampleThermostat_event_loop_8:
        MOV     A,R6
        MOV     R2,A
        MOV     A,R7
        XRL     A,#0x80
        LJMP    ??zclSampleThermostat_event_loop_20 & 0xFFFF
//  440 
//  441 	/*--------------------------------------------------------------------------*/
//  442   if ( events & SAMPLETHERMOSTAT_MAIN_SCREEN_EVT )
??zclSampleThermostat_event_loop_1:
        ANL     A,#0x10
        JZ      ??zclSampleThermostat_event_loop_21
//  443   {
//  444     giThermostatScreenMode = THERMOSTAT_MAINMODE;
        MOV     DPTR,#giThermostatScreenMode
        CLR     A
        MOVX    @DPTR,A
//  445     zclSampleThermostat_LcdDisplayUpdate();
        ; Setup parameters for call to function zclSampleThermostat_LcdDisplayUpdate
        LCALL   `??zclSampleThermostat_LcdDisplayUpdate::?relay`; Banked call to: zclSampleThermostat_LcdDisplayUpdate
//  446 
//  447 		if (FLAG_BINDING)
        MOV     DPTR,#FLAG_BINDING
        MOVX    A,@DPTR
        JZ      ??zclSampleThermostat_event_loop_22
//  448 		{
//  449 			FLAG_BINDING = FALSE;		
        CLR     A
        MOVX    @DPTR,A
//  450 			if (FLAG_HARD_BINDING)
        MOV     DPTR,#FLAG_HARD_BINDING
        MOVX    A,@DPTR
        JZ      ??zclSampleThermostat_event_loop_22
//  451 			{
//  452 				FLAG_HARD_BINDING = FALSE;
        CLR     A
        MOVX    @DPTR,A
//  453 			}
//  454 		}
//  455 		UART_DebugPrint(HAL_UART_PORT_0, "[EVENT] SAMPLETHERMOSTAT_MAIN_SCREEN_EVT");
??zclSampleThermostat_event_loop_22:
        ; Setup parameters for call to function UART_DebugPrint
        MOV     R2,#`?<Constant "[EVENT] SAMPLETHERMOS...">_1` & 0xff
        MOV     R3,#(`?<Constant "[EVENT] SAMPLETHERMOS...">_1` >> 8) & 0xff
        MOV     R1,#0x0
        LCALL   `??UART_DebugPrint::?relay`; Banked call to: UART_DebugPrint
//  456 
//  457     return ( events ^ SAMPLETHERMOSTAT_MAIN_SCREEN_EVT );
        MOV     A,R6
        XRL     A,#0x10
        LJMP    ??zclSampleThermostat_event_loop_3 & 0xFFFF
//  458   }
//  459 
//  460 	/*--------------------------------------------------------------------------*/
//  461 	#ifdef ZCL_EZMODE
//  462   // going on to next state
//  463   if ( events & SAMPLETHERMOSTAT_EZMODE_NEXTSTATE_EVT )
??zclSampleThermostat_event_loop_21:
        MOV     A,R6
        ANL     A,#0x8
        JZ      ??zclSampleThermostat_event_loop_23
//  464   {
//  465     zcl_EZModeAction ( EZMODE_ACTION_PROCESS, NULL );   // going on to next state
        ; Setup parameters for call to function zcl_EZModeAction
        MOV     R2,#0x0
        MOV     R3,#0x0
        MOV     R1,#0x1
        LCALL   `??zcl_EZModeAction::?relay`; Banked call to: zcl_EZModeAction
//  466 
//  467 		UART_DebugPrint(HAL_UART_PORT_0, "[EVENT] SAMPLETHERMOSTAT_EZMODE_NEXTSTATE_EVT");
        ; Setup parameters for call to function UART_DebugPrint
        MOV     R2,#`?<Constant "[EVENT] SAMPLETHERMOS...">_2` & 0xff
        MOV     R3,#(`?<Constant "[EVENT] SAMPLETHERMOS...">_2` >> 8) & 0xff
        MOV     R1,#0x0
        LCALL   `??UART_DebugPrint::?relay`; Banked call to: UART_DebugPrint
//  468 		
//  469     return ( events ^ SAMPLETHERMOSTAT_EZMODE_NEXTSTATE_EVT );
        MOV     A,R6
        XRL     A,#0x8
        LJMP    ??zclSampleThermostat_event_loop_3 & 0xFFFF
//  470   }
//  471 
//  472 	/*--------------------------------------------------------------------------*/
//  473   // the overall EZMode timer expired, so we timed out
//  474   if ( events & SAMPLETHERMOSTAT_EZMODE_TIMEOUT_EVT )
??zclSampleThermostat_event_loop_23:
        MOV     A,R6
        ANL     A,#0x4
        JZ      ??zclSampleThermostat_event_loop_24
//  475   {
//  476     zcl_EZModeAction ( EZMODE_ACTION_TIMED_OUT, NULL ); // EZ-Mode timed out
        ; Setup parameters for call to function zcl_EZModeAction
        MOV     R2,#0x0
        MOV     R3,#0x0
        MOV     R1,#0x63
        LCALL   `??zcl_EZModeAction::?relay`; Banked call to: zcl_EZModeAction
//  477 
//  478 		UART_DebugPrint(HAL_UART_PORT_0, "[EVENT] SAMPLETHERMOSTAT_EZMODE_TIMEOUT_EVT");
        ; Setup parameters for call to function UART_DebugPrint
        MOV     R2,#`?<Constant "[EVENT] SAMPLETHERMOS...">_3` & 0xff
        MOV     R3,#(`?<Constant "[EVENT] SAMPLETHERMOS...">_3` >> 8) & 0xff
        MOV     R1,#0x0
        LCALL   `??UART_DebugPrint::?relay`; Banked call to: UART_DebugPrint
//  479 		
//  480     return ( events ^ SAMPLETHERMOSTAT_EZMODE_TIMEOUT_EVT );
        MOV     A,R6
        XRL     A,#0x4
        LJMP    ??zclSampleThermostat_event_loop_3 & 0xFFFF
//  481   }
//  482 	#endif // ZLC_EZMODE
//  483 
//  484 	/*--------------------------------------------------------------------------*/
//  485 	if ( events & SAMPLETHERMOSTAT_JOIN_SETUP_EVT )
??zclSampleThermostat_event_loop_24:
        MOV     A,R6
        ANL     A,#0x20
        JZ      ??zclSampleThermostat_event_loop_25
//  486   {
//  487 		if (FLAG_JOIN_CONFIRM == FALSE && FLAG_BINDING == FALSE)
        MOV     DPTR,#FLAG_JOIN_CONFIRM
        MOVX    A,@DPTR
        JNZ     ??zclSampleThermostat_event_loop_26
        MOV     DPTR,#FLAG_BINDING
        MOVX    A,@DPTR
        JNZ     ??zclSampleThermostat_event_loop_27
//  488 		{
//  489 			zclSampleThermostat_BindingProcess();
        ; Setup parameters for call to function zclSampleThermostat_BindingProcess
        LCALL   `??zclSampleThermostat_BindingProcess::?relay`; Banked call to: zclSampleThermostat_BindingProcess
//  490 			// Stop binding after 100ms (time for process...)
//  491 			osal_start_timerEx( zclSampleThermostat_TaskID, SAMPLETHERMOSTAT_JOIN_SETUP_EVT, 5000 );
        ; Setup parameters for call to function osal_start_timerEx
        MOV     DPTR,#__Constant_1388
        LCALL   ?PUSH_XSTACK8_X_FOUR
          CFI CFA_XSP16 add(XSP16, 20)
        MOV     R2,#0x20
        MOV     R3,#0x0
        MOV     DPTR,#zclSampleThermostat_TaskID
        MOVX    A,@DPTR
        MOV     R1,A
        LCALL   `??osal_start_timerEx::?relay`; Banked call to: osal_start_timerEx
        MOV     A,#0x4
        LCALL   ?DEALLOC_XSTACK8
          CFI CFA_XSP16 add(XSP16, 16)
        SJMP    ??zclSampleThermostat_event_loop_27
//  492 		}
//  493 		else if (FLAG_JOIN_CONFIRM == TRUE && FLAG_BINDING == TRUE)
??zclSampleThermostat_event_loop_26:
        XRL     A,#0x1
        JNZ     ??zclSampleThermostat_event_loop_27
        MOV     DPTR,#FLAG_BINDING
        MOVX    A,@DPTR
        XRL     A,#0x1
        JNZ     ??zclSampleThermostat_event_loop_27
//  494 		{
//  495 			zclSampleThermostat_BindingProcess();
        ; Setup parameters for call to function zclSampleThermostat_BindingProcess
        LCALL   `??zclSampleThermostat_BindingProcess::?relay`; Banked call to: zclSampleThermostat_BindingProcess
//  496 		}
//  497 		
//  498 		UART_DebugPrint(HAL_UART_PORT_0, "SAMPLETHERMOSTAT_JOIN_SETUP_EVT");
??zclSampleThermostat_event_loop_27:
        ; Setup parameters for call to function UART_DebugPrint
        MOV     R2,#`?<Constant "SAMPLETHERMOSTAT_JOIN...">` & 0xff
        MOV     R3,#(`?<Constant "SAMPLETHERMOSTAT_JOIN...">` >> 8) & 0xff
        MOV     R1,#0x0
        LCALL   `??UART_DebugPrint::?relay`; Banked call to: UART_DebugPrint
//  499 
//  500     return ( events ^ SAMPLETHERMOSTAT_JOIN_SETUP_EVT );
        MOV     A,R6
        XRL     A,#0x20
        SJMP    ??zclSampleThermostat_event_loop_3
//  501   }
//  502 
//  503 	/*--------------------------------------------------------------------------*/
//  504 	if ( events & SAMPLETHERMOSTAT_UART_REPLY_CMD_EVT )
??zclSampleThermostat_event_loop_25:
        MOV     A,R6
        ANL     A,#0x40
        JZ      ??zclSampleThermostat_event_loop_28
//  505   {
//  506 		// My apps
//  507 		if (UART_ParseRxPackage(HAL_UART_PORT_0))
        ; Setup parameters for call to function UART_ParseRxPackage
        MOV     R1,#0x0
        LCALL   `??UART_ParseRxPackage::?relay`; Banked call to: UART_ParseRxPackage
        MOV     A,R1
        JZ      ??zclSampleThermostat_event_loop_29
//  508 		{
//  509 			ZCMD_ReplyCMD();
        ; Setup parameters for call to function ZCMD_ReplyCMD
        LCALL   `??ZCMD_ReplyCMD::?relay`; Banked call to: ZCMD_ReplyCMD
//  510 		}
//  511 		
//  512 		// Restart timer
//  513     if ( UART_PARSE_RX_PACKAGE_EVT_PERIOD )
//  514     {
//  515       osal_start_timerEx( zclSampleThermostat_TaskID, SAMPLETHERMOSTAT_UART_REPLY_CMD_EVT, UART_PARSE_RX_PACKAGE_EVT_PERIOD );
??zclSampleThermostat_event_loop_29:
        ; Setup parameters for call to function osal_start_timerEx
        MOV     DPTR,#__Constant_a
        LCALL   ?PUSH_XSTACK8_X_FOUR
          CFI CFA_XSP16 add(XSP16, 20)
        MOV     R2,#0x40
        MOV     R3,#0x0
        MOV     DPTR,#zclSampleThermostat_TaskID
        MOVX    A,@DPTR
        MOV     R1,A
        LCALL   `??osal_start_timerEx::?relay`; Banked call to: osal_start_timerEx
        MOV     A,#0x4
        LCALL   ?DEALLOC_XSTACK8
          CFI CFA_XSP16 add(XSP16, 16)
//  516     }
//  517 		
//  518     return (events ^ SAMPLETHERMOSTAT_UART_REPLY_CMD_EVT);
        MOV     A,R6
        XRL     A,#0x40
        SJMP    ??zclSampleThermostat_event_loop_3
//  519   }
//  520 
//  521 	/*--------------------------------------------------------------------------*/
//  522 	if ( events & SAMPLETHERMOSTAT_CHECK_SYSTEM_EVT )
??zclSampleThermostat_event_loop_28:
        MOV     A,R6
        ANL     A,#0x80
        JZ      ??zclSampleThermostat_event_loop_30
//  523   {
//  524 		// My apps
//  525 		#ifndef COORDINATOR
//  526 		zclSampleThermostat_RollCall();
//  527 		#endif
//  528 		
//  529 		if ( (FLAG_JOIN_CONFIRM == FALSE) || (FLAG_JOIN_CONFIRM == TRUE && FLAG_BINDING == TRUE && FLAG_HARD_BINDING == FALSE) )
        MOV     DPTR,#FLAG_JOIN_CONFIRM
        MOVX    A,@DPTR
        JZ      ??zclSampleThermostat_event_loop_31
        XRL     A,#0x1
        JNZ     ??zclSampleThermostat_event_loop_32
        MOV     DPTR,#FLAG_BINDING
        MOVX    A,@DPTR
        XRL     A,#0x1
        JNZ     ??zclSampleThermostat_event_loop_32
        MOV     DPTR,#FLAG_HARD_BINDING
        MOVX    A,@DPTR
        JNZ     ??zclSampleThermostat_event_loop_32
//  530 		{
//  531 			osal_set_event( zclSampleThermostat_TaskID, SAMPLETHERMOSTAT_JOIN_SETUP_EVT );
??zclSampleThermostat_event_loop_31:
        ; Setup parameters for call to function osal_set_event
        MOV     R2,#0x20
        MOV     R3,#0x0
        MOV     DPTR,#zclSampleThermostat_TaskID
        MOVX    A,@DPTR
        MOV     R1,A
        LCALL   `??osal_set_event::?relay`; Banked call to: osal_set_event
//  532 		}
//  533 
//  534     // Restart timer
//  535     if ( CHECK_SYSTEM_EVT_PERIOD )
//  536     {
//  537       osal_start_timerEx( zclSampleThermostat_TaskID, SAMPLETHERMOSTAT_CHECK_SYSTEM_EVT, CHECK_SYSTEM_EVT_PERIOD );
??zclSampleThermostat_event_loop_32:
        ; Setup parameters for call to function osal_start_timerEx
        MOV     DPTR,#__Constant_2710
        LCALL   ?PUSH_XSTACK8_X_FOUR
          CFI CFA_XSP16 add(XSP16, 20)
        MOV     R2,#-0x80
        MOV     R3,#0x0
        MOV     DPTR,#zclSampleThermostat_TaskID
        MOVX    A,@DPTR
        MOV     R1,A
        LCALL   `??osal_start_timerEx::?relay`; Banked call to: osal_start_timerEx
        MOV     A,#0x4
        LCALL   ?DEALLOC_XSTACK8
          CFI CFA_XSP16 add(XSP16, 16)
//  538     }
//  539 			 
//  540     return (events ^ SAMPLETHERMOSTAT_CHECK_SYSTEM_EVT);
        MOV     A,R6
        XRL     A,#0x80
??zclSampleThermostat_event_loop_3:
        MOV     R2,A
        MOV     A,R7
??zclSampleThermostat_event_loop_20:
        MOV     R3,A
        SJMP    ??zclSampleThermostat_event_loop_33
//  541   }
//  542 	
//  543 	/*--------------------------------------------------------------------------*/
//  544 
//  545   // Discard unknown events
//  546   return 0;
??zclSampleThermostat_event_loop_30:
        MOV     R2,#0x0
        MOV     R3,#0x0
??zclSampleThermostat_event_loop_33:
        MOV     A,#0x2
        LCALL   ?DEALLOC_XSTACK8
          CFI CFA_XSP16 add(XSP16, 14)
        MOV     R7,#0x6
        LJMP    ?BANKED_LEAVE_XDATA
//  547 }
          CFI EndBlock cfiBlock1

        RSEG BANKED_CODE:HUGECODE:NOROOT(0)
?Subroutine18:
          CFI Block cfiCond2 Using cfiCommon0
          CFI Function zclSampleThermostat_event_loop
          CFI Conditional ??CrossCallReturnLabel_36
          CFI R6 load(1, XDATA, add(CFA_XSP16, literal(-14)))
          CFI VB load(1, XDATA, add(CFA_XSP16, literal(-13)))
          CFI V0 load(1, XDATA, add(CFA_XSP16, literal(-12)))
          CFI V1 load(1, XDATA, add(CFA_XSP16, literal(-11)))
          CFI V2 load(1, XDATA, add(CFA_XSP16, literal(-10)))
          CFI V3 load(1, XDATA, add(CFA_XSP16, literal(-9)))
          CFI V4 load(1, XDATA, add(CFA_XSP16, literal(-8)))
          CFI V5 load(1, XDATA, add(CFA_XSP16, literal(-7)))
          CFI R7 load(1, XDATA, add(CFA_XSP16, literal(-6)))
          CFI ?RET_LOW load(1, XDATA, add(CFA_XSP16, literal(-5)))
          CFI ?RET_HIGH load(1, XDATA, add(CFA_XSP16, literal(-4)))
          CFI ?BRET_EXT load(1, XDATA, add(CFA_XSP16, literal(-3)))
          CFI DPL0 load(1, XDATA, add(CFA_XSP16, literal(-2)))
          CFI DPH0 load(1, XDATA, add(CFA_XSP16, literal(-1)))
          CFI CFA_SP SP+-2
          CFI CFA_XSP16 add(XSP16, 16)
          CFI Block cfiCond3 Using cfiCommon0
          CFI (cfiCond3) Function zclSampleThermostat_event_loop
          CFI (cfiCond3) Conditional ??CrossCallReturnLabel_37
          CFI (cfiCond3) R6 load(1, XDATA, add(CFA_XSP16, literal(-14)))
          CFI (cfiCond3) VB load(1, XDATA, add(CFA_XSP16, literal(-13)))
          CFI (cfiCond3) V0 load(1, XDATA, add(CFA_XSP16, literal(-12)))
          CFI (cfiCond3) V1 load(1, XDATA, add(CFA_XSP16, literal(-11)))
          CFI (cfiCond3) V2 load(1, XDATA, add(CFA_XSP16, literal(-10)))
          CFI (cfiCond3) V3 load(1, XDATA, add(CFA_XSP16, literal(-9)))
          CFI (cfiCond3) V4 load(1, XDATA, add(CFA_XSP16, literal(-8)))
          CFI (cfiCond3) V5 load(1, XDATA, add(CFA_XSP16, literal(-7)))
          CFI (cfiCond3) R7 load(1, XDATA, add(CFA_XSP16, literal(-6)))
          CFI (cfiCond3) ?RET_LOW load(1, XDATA, add(CFA_XSP16, literal(-5)))
          CFI (cfiCond3) ?RET_HIGH load(1, XDATA, add(CFA_XSP16, literal(-4)))
          CFI (cfiCond3) ?BRET_EXT load(1, XDATA, add(CFA_XSP16, literal(-3)))
          CFI (cfiCond3) DPL0 load(1, XDATA, add(CFA_XSP16, literal(-2)))
          CFI (cfiCond3) DPH0 load(1, XDATA, add(CFA_XSP16, literal(-1)))
          CFI (cfiCond3) CFA_SP SP+-2
          CFI (cfiCond3) CFA_XSP16 add(XSP16, 16)
          CFI Block cfiPicker4 Using cfiCommon1
          CFI (cfiPicker4) NoFunction
          CFI (cfiPicker4) Picker
        MOV     DPL,?V2
        MOV     DPH,?V3
        LCALL   ?Subroutine27 & 0xFFFF
??CrossCallReturnLabel_58:
        MOV     DPL,R0
        MOV     DPH,R1
        MOV     R0,#0x0
        RET
          CFI EndBlock cfiCond2
          CFI EndBlock cfiCond3
          CFI EndBlock cfiPicker4

        RSEG BANKED_CODE:HUGECODE:NOROOT(0)
?Subroutine17:
          CFI Block cfiCond5 Using cfiCommon0
          CFI Function zclSampleThermostat_event_loop
          CFI Conditional ??CrossCallReturnLabel_34
          CFI R6 load(1, XDATA, add(CFA_XSP16, literal(-14)))
          CFI VB load(1, XDATA, add(CFA_XSP16, literal(-13)))
          CFI V0 load(1, XDATA, add(CFA_XSP16, literal(-12)))
          CFI V1 load(1, XDATA, add(CFA_XSP16, literal(-11)))
          CFI V2 load(1, XDATA, add(CFA_XSP16, literal(-10)))
          CFI V3 load(1, XDATA, add(CFA_XSP16, literal(-9)))
          CFI V4 load(1, XDATA, add(CFA_XSP16, literal(-8)))
          CFI V5 load(1, XDATA, add(CFA_XSP16, literal(-7)))
          CFI R7 load(1, XDATA, add(CFA_XSP16, literal(-6)))
          CFI ?RET_LOW load(1, XDATA, add(CFA_XSP16, literal(-5)))
          CFI ?RET_HIGH load(1, XDATA, add(CFA_XSP16, literal(-4)))
          CFI ?BRET_EXT load(1, XDATA, add(CFA_XSP16, literal(-3)))
          CFI DPL0 load(1, XDATA, add(CFA_XSP16, literal(-2)))
          CFI DPH0 load(1, XDATA, add(CFA_XSP16, literal(-1)))
          CFI CFA_SP SP+-2
          CFI CFA_XSP16 add(XSP16, 16)
          CFI Block cfiCond6 Using cfiCommon0
          CFI (cfiCond6) Function zclSampleThermostat_event_loop
          CFI (cfiCond6) Conditional ??CrossCallReturnLabel_35
          CFI (cfiCond6) R6 load(1, XDATA, add(CFA_XSP16, literal(-14)))
          CFI (cfiCond6) VB load(1, XDATA, add(CFA_XSP16, literal(-13)))
          CFI (cfiCond6) V0 load(1, XDATA, add(CFA_XSP16, literal(-12)))
          CFI (cfiCond6) V1 load(1, XDATA, add(CFA_XSP16, literal(-11)))
          CFI (cfiCond6) V2 load(1, XDATA, add(CFA_XSP16, literal(-10)))
          CFI (cfiCond6) V3 load(1, XDATA, add(CFA_XSP16, literal(-9)))
          CFI (cfiCond6) V4 load(1, XDATA, add(CFA_XSP16, literal(-8)))
          CFI (cfiCond6) V5 load(1, XDATA, add(CFA_XSP16, literal(-7)))
          CFI (cfiCond6) R7 load(1, XDATA, add(CFA_XSP16, literal(-6)))
          CFI (cfiCond6) ?RET_LOW load(1, XDATA, add(CFA_XSP16, literal(-5)))
          CFI (cfiCond6) ?RET_HIGH load(1, XDATA, add(CFA_XSP16, literal(-4)))
          CFI (cfiCond6) ?BRET_EXT load(1, XDATA, add(CFA_XSP16, literal(-3)))
          CFI (cfiCond6) DPL0 load(1, XDATA, add(CFA_XSP16, literal(-2)))
          CFI (cfiCond6) DPH0 load(1, XDATA, add(CFA_XSP16, literal(-1)))
          CFI (cfiCond6) CFA_SP SP+-2
          CFI (cfiCond6) CFA_XSP16 add(XSP16, 16)
          CFI Block cfiPicker7 Using cfiCommon1
          CFI (cfiPicker7) NoFunction
          CFI (cfiPicker7) Picker
        INC     DPTR
        INC     DPTR
        INC     DPTR
        MOVX    A,@DPTR
        MOV     R2,A
        MOV     DPL,?V0
        MOV     DPH,R3
        INC     DPTR
        INC     DPTR
        MOVX    A,@DPTR
        MOV     R1,A
        RET
          CFI EndBlock cfiCond5
          CFI EndBlock cfiCond6
          CFI EndBlock cfiPicker7

        RSEG BANKED_CODE:HUGECODE:NOROOT(0)
?Subroutine15:
          CFI Block cfiCond8 Using cfiCommon0
          CFI Function zclSampleThermostat_event_loop
          CFI Conditional ??CrossCallReturnLabel_56
          CFI R6 load(1, XDATA, add(CFA_XSP16, literal(-14)))
          CFI VB load(1, XDATA, add(CFA_XSP16, literal(-13)))
          CFI V0 load(1, XDATA, add(CFA_XSP16, literal(-12)))
          CFI V1 load(1, XDATA, add(CFA_XSP16, literal(-11)))
          CFI V2 load(1, XDATA, add(CFA_XSP16, literal(-10)))
          CFI V3 load(1, XDATA, add(CFA_XSP16, literal(-9)))
          CFI V4 load(1, XDATA, add(CFA_XSP16, literal(-8)))
          CFI V5 load(1, XDATA, add(CFA_XSP16, literal(-7)))
          CFI R7 load(1, XDATA, add(CFA_XSP16, literal(-6)))
          CFI ?RET_LOW load(1, XDATA, add(CFA_XSP16, literal(-5)))
          CFI ?RET_HIGH load(1, XDATA, add(CFA_XSP16, literal(-4)))
          CFI ?BRET_EXT load(1, XDATA, add(CFA_XSP16, literal(-3)))
          CFI DPL0 load(1, XDATA, add(CFA_XSP16, literal(-2)))
          CFI DPH0 load(1, XDATA, add(CFA_XSP16, literal(-1)))
          CFI CFA_SP SP+-2
          CFI CFA_XSP16 add(XSP16, 16)
          CFI Block cfiCond9 Using cfiCommon0
          CFI (cfiCond9) Function zclSampleThermostat_ProcessIdentifyTimeChange
          CFI (cfiCond9) Conditional ??CrossCallReturnLabel_57
          CFI (cfiCond9) DPL0 Frame(CFA_SP, 4)
          CFI (cfiCond9) DPH0 Frame(CFA_SP, 5)
          CFI (cfiCond9) CFA_SP SP+-7
          CFI Block cfiPicker10 Using cfiCommon1
          CFI (cfiPicker10) NoFunction
          CFI (cfiPicker10) Picker
        MOV     DPTR,#zclSampleThermostat_IdentifyTime
          CFI EndBlock cfiCond8
          CFI EndBlock cfiCond9
          CFI EndBlock cfiPicker10
        REQUIRE ??Subroutine30_0
        ; // Fall through to label ??Subroutine30_0

        RSEG BANKED_CODE:HUGECODE:NOROOT(0)
??Subroutine30_0:
          CFI Block cfiCond11 Using cfiCommon0
          CFI Function zclSampleThermostat_LcdDisplayUpdate
          CFI Conditional ??CrossCallReturnLabel_54
          CFI DPL0 Frame(CFA_SP, 4)
          CFI DPH0 Frame(CFA_SP, 5)
          CFI CFA_SP SP+-7
          CFI Block cfiCond12 Using cfiCommon0
          CFI (cfiCond12) Function zclSampleThermostat_LcdDisplayMainMode
          CFI (cfiCond12) Conditional ??CrossCallReturnLabel_55
          CFI (cfiCond12) R6 load(1, XDATA, add(CFA_XSP16, literal(-11)))
          CFI (cfiCond12) VB load(1, XDATA, add(CFA_XSP16, literal(-10)))
          CFI (cfiCond12) V0 load(1, XDATA, add(CFA_XSP16, literal(-9)))
          CFI (cfiCond12) V1 load(1, XDATA, add(CFA_XSP16, literal(-8)))
          CFI (cfiCond12) V2 load(1, XDATA, add(CFA_XSP16, literal(-7)))
          CFI (cfiCond12) R7 load(1, XDATA, add(CFA_XSP16, literal(-6)))
          CFI (cfiCond12) ?RET_LOW load(1, XDATA, add(CFA_XSP16, literal(-5)))
          CFI (cfiCond12) ?RET_HIGH load(1, XDATA, add(CFA_XSP16, literal(-4)))
          CFI (cfiCond12) ?BRET_EXT load(1, XDATA, add(CFA_XSP16, literal(-3)))
          CFI (cfiCond12) DPL0 load(1, XDATA, add(CFA_XSP16, literal(-2)))
          CFI (cfiCond12) DPH0 load(1, XDATA, add(CFA_XSP16, literal(-1)))
          CFI (cfiCond12) CFA_SP SP+-2
          CFI (cfiCond12) CFA_XSP16 add(XSP16, 27)
          CFI Block cfiCond13 Using cfiCommon0
          CFI (cfiCond13) Function zclSampleThermostat_event_loop
          CFI (cfiCond13) Conditional ??CrossCallReturnLabel_56
          CFI (cfiCond13) R6 load(1, XDATA, add(CFA_XSP16, literal(-14)))
          CFI (cfiCond13) VB load(1, XDATA, add(CFA_XSP16, literal(-13)))
          CFI (cfiCond13) V0 load(1, XDATA, add(CFA_XSP16, literal(-12)))
          CFI (cfiCond13) V1 load(1, XDATA, add(CFA_XSP16, literal(-11)))
          CFI (cfiCond13) V2 load(1, XDATA, add(CFA_XSP16, literal(-10)))
          CFI (cfiCond13) V3 load(1, XDATA, add(CFA_XSP16, literal(-9)))
          CFI (cfiCond13) V4 load(1, XDATA, add(CFA_XSP16, literal(-8)))
          CFI (cfiCond13) V5 load(1, XDATA, add(CFA_XSP16, literal(-7)))
          CFI (cfiCond13) R7 load(1, XDATA, add(CFA_XSP16, literal(-6)))
          CFI (cfiCond13) ?RET_LOW load(1, XDATA, add(CFA_XSP16, literal(-5)))
          CFI (cfiCond13) ?RET_HIGH load(1, XDATA, add(CFA_XSP16, literal(-4)))
          CFI (cfiCond13) ?BRET_EXT load(1, XDATA, add(CFA_XSP16, literal(-3)))
          CFI (cfiCond13) DPL0 load(1, XDATA, add(CFA_XSP16, literal(-2)))
          CFI (cfiCond13) DPH0 load(1, XDATA, add(CFA_XSP16, literal(-1)))
          CFI (cfiCond13) CFA_SP SP+-2
          CFI (cfiCond13) CFA_XSP16 add(XSP16, 16)
          CFI Block cfiCond14 Using cfiCommon0
          CFI (cfiCond14) Function zclSampleThermostat_ProcessIdentifyTimeChange
          CFI (cfiCond14) Conditional ??CrossCallReturnLabel_57
          CFI (cfiCond14) DPL0 Frame(CFA_SP, 4)
          CFI (cfiCond14) DPH0 Frame(CFA_SP, 5)
          CFI (cfiCond14) CFA_SP SP+-7
          CFI Block cfiPicker15 Using cfiCommon1
          CFI (cfiPicker15) NoFunction
          CFI (cfiPicker15) Picker
        LCALL   ?Subroutine27 & 0xFFFF
??CrossCallReturnLabel_61:
        MOV     A,R0
        ORL     A,R1
        RET
          CFI EndBlock cfiCond11
          CFI EndBlock cfiCond12
          CFI EndBlock cfiCond13
          CFI EndBlock cfiCond14
          CFI EndBlock cfiPicker15

        RSEG XDATA_I:XDATA:NOROOT(0)
??clusterIDs:
        DATA16
        DS 2
        REQUIRE `?<Initializer for clusterIDs>`
        REQUIRE __INIT_XDATA_I

        RSEG BANKED_CODE:HUGECODE:NOROOT(0)
?Subroutine8:
          CFI Block cfiCond16 Using cfiCommon0
          CFI Function zclSampleThermostat_event_loop
          CFI Conditional ??CrossCallReturnLabel_62
          CFI R6 load(1, XDATA, add(CFA_XSP16, literal(-14)))
          CFI VB load(1, XDATA, add(CFA_XSP16, literal(-13)))
          CFI V0 load(1, XDATA, add(CFA_XSP16, literal(-12)))
          CFI V1 load(1, XDATA, add(CFA_XSP16, literal(-11)))
          CFI V2 load(1, XDATA, add(CFA_XSP16, literal(-10)))
          CFI V3 load(1, XDATA, add(CFA_XSP16, literal(-9)))
          CFI V4 load(1, XDATA, add(CFA_XSP16, literal(-8)))
          CFI V5 load(1, XDATA, add(CFA_XSP16, literal(-7)))
          CFI R7 load(1, XDATA, add(CFA_XSP16, literal(-6)))
          CFI ?RET_LOW load(1, XDATA, add(CFA_XSP16, literal(-5)))
          CFI ?RET_HIGH load(1, XDATA, add(CFA_XSP16, literal(-4)))
          CFI ?BRET_EXT load(1, XDATA, add(CFA_XSP16, literal(-3)))
          CFI DPL0 load(1, XDATA, add(CFA_XSP16, literal(-2)))
          CFI DPH0 load(1, XDATA, add(CFA_XSP16, literal(-1)))
          CFI CFA_SP SP+-2
          CFI CFA_XSP16 add(XSP16, 16)
          CFI Block cfiCond17 Using cfiCommon0
          CFI (cfiCond17) Function zclSampleThermostat_IdentifyQueryRspCB
          CFI (cfiCond17) Conditional ??CrossCallReturnLabel_63
          CFI (cfiCond17) DPL0 Frame(CFA_SP, 4)
          CFI (cfiCond17) DPH0 Frame(CFA_SP, 5)
          CFI (cfiCond17) CFA_SP SP+-7
          CFI (cfiCond17) CFA_XSP16 add(XSP16, 2)
          CFI Block cfiPicker18 Using cfiCommon1
          CFI (cfiPicker18) NoFunction
          CFI (cfiPicker18) Picker
        MOV     DPL,?XSP + 0
        MOV     DPH,?XSP + 1
        MOV     A,R2
        MOVX    @DPTR,A
        INC     DPTR
        MOV     A,R3
          CFI EndBlock cfiCond16
          CFI EndBlock cfiCond17
          CFI EndBlock cfiPicker18
        REQUIRE ??Subroutine31_0
        ; // Fall through to label ??Subroutine31_0
//  548 
//  549 /*********************************************************************
//  550  * @fn      zclSampleThermostat_HandleKeys
//  551  *
//  552  * @brief   Handles all key events for this device.
//  553  *
//  554  * @param   shift - true if in shift/alt.
//  555  * @param   keys - bit field for key events. Valid entries:
//  556  *                 HAL_KEY_SW_5
//  557  *                 HAL_KEY_SW_4
//  558  *                 HAL_KEY_SW_3
//  559  *                 HAL_KEY_SW_2
//  560  *                 HAL_KEY_SW_1
//  561  *
//  562  * @return  none
//  563  */

        RSEG BANKED_CODE:HUGECODE:NOROOT(0)
??Subroutine31_0:
          CFI Block cfiCond19 Using cfiCommon0
          CFI Function zclSampleThermostat_HandleKeys
          CFI Conditional ??CrossCallReturnLabel_64
          CFI R6 load(1, XDATA, add(CFA_XSP16, literal(-16)))
          CFI VB load(1, XDATA, add(CFA_XSP16, literal(-15)))
          CFI V0 load(1, XDATA, add(CFA_XSP16, literal(-14)))
          CFI V1 load(1, XDATA, add(CFA_XSP16, literal(-13)))
          CFI V2 load(1, XDATA, add(CFA_XSP16, literal(-12)))
          CFI V3 load(1, XDATA, add(CFA_XSP16, literal(-11)))
          CFI V4 load(1, XDATA, add(CFA_XSP16, literal(-10)))
          CFI V5 load(1, XDATA, add(CFA_XSP16, literal(-9)))
          CFI V6 load(1, XDATA, add(CFA_XSP16, literal(-8)))
          CFI V7 load(1, XDATA, add(CFA_XSP16, literal(-7)))
          CFI R7 load(1, XDATA, add(CFA_XSP16, literal(-6)))
          CFI ?RET_LOW load(1, XDATA, add(CFA_XSP16, literal(-5)))
          CFI ?RET_HIGH load(1, XDATA, add(CFA_XSP16, literal(-4)))
          CFI ?BRET_EXT load(1, XDATA, add(CFA_XSP16, literal(-3)))
          CFI DPL0 load(1, XDATA, add(CFA_XSP16, literal(-2)))
          CFI DPH0 load(1, XDATA, add(CFA_XSP16, literal(-1)))
          CFI CFA_SP SP+-2
          CFI CFA_XSP16 add(XSP16, 29)
          CFI Block cfiCond20 Using cfiCommon0
          CFI (cfiCond20) Function zclSampleThermostat_BindingProcess
          CFI (cfiCond20) Conditional ??CrossCallReturnLabel_65
          CFI (cfiCond20) DPL0 Frame(CFA_SP, 4)
          CFI (cfiCond20) DPH0 Frame(CFA_SP, 5)
          CFI (cfiCond20) CFA_SP SP+-7
          CFI (cfiCond20) CFA_XSP16 add(XSP16, 9)
          CFI Block cfiCond21 Using cfiCommon0
          CFI (cfiCond21) Function zclSampleThermostat_event_loop
          CFI (cfiCond21) Conditional ??CrossCallReturnLabel_62
          CFI (cfiCond21) R6 load(1, XDATA, add(CFA_XSP16, literal(-14)))
          CFI (cfiCond21) VB load(1, XDATA, add(CFA_XSP16, literal(-13)))
          CFI (cfiCond21) V0 load(1, XDATA, add(CFA_XSP16, literal(-12)))
          CFI (cfiCond21) V1 load(1, XDATA, add(CFA_XSP16, literal(-11)))
          CFI (cfiCond21) V2 load(1, XDATA, add(CFA_XSP16, literal(-10)))
          CFI (cfiCond21) V3 load(1, XDATA, add(CFA_XSP16, literal(-9)))
          CFI (cfiCond21) V4 load(1, XDATA, add(CFA_XSP16, literal(-8)))
          CFI (cfiCond21) V5 load(1, XDATA, add(CFA_XSP16, literal(-7)))
          CFI (cfiCond21) R7 load(1, XDATA, add(CFA_XSP16, literal(-6)))
          CFI (cfiCond21) ?RET_LOW load(1, XDATA, add(CFA_XSP16, literal(-5)))
          CFI (cfiCond21) ?RET_HIGH load(1, XDATA, add(CFA_XSP16, literal(-4)))
          CFI (cfiCond21) ?BRET_EXT load(1, XDATA, add(CFA_XSP16, literal(-3)))
          CFI (cfiCond21) DPL0 load(1, XDATA, add(CFA_XSP16, literal(-2)))
          CFI (cfiCond21) DPH0 load(1, XDATA, add(CFA_XSP16, literal(-1)))
          CFI (cfiCond21) CFA_SP SP+-2
          CFI (cfiCond21) CFA_XSP16 add(XSP16, 16)
          CFI Block cfiCond22 Using cfiCommon0
          CFI (cfiCond22) Function zclSampleThermostat_IdentifyQueryRspCB
          CFI (cfiCond22) Conditional ??CrossCallReturnLabel_63
          CFI (cfiCond22) DPL0 Frame(CFA_SP, 4)
          CFI (cfiCond22) DPH0 Frame(CFA_SP, 5)
          CFI (cfiCond22) CFA_SP SP+-7
          CFI (cfiCond22) CFA_XSP16 add(XSP16, 2)
          CFI Block cfiPicker23 Using cfiCommon1
          CFI (cfiPicker23) NoFunction
          CFI (cfiPicker23) Picker
        MOVX    @DPTR,A
        ; Setup parameters for call to function zcl_EZModeAction
        ; Setup parameters for call to function zcl_EZModeAction
        ; Setup parameters for call to function zcl_InvokeEZMode
        ; Setup parameters for call to function zcl_InvokeEZMode
        MOV     R2,?XSP + 0
        MOV     R3,?XSP + 1
        RET
          CFI EndBlock cfiCond19
          CFI EndBlock cfiCond20
          CFI EndBlock cfiCond21
          CFI EndBlock cfiCond22
          CFI EndBlock cfiPicker23

        RSEG BANKED_CODE:HUGECODE:NOROOT(0)
//  564 static void zclSampleThermostat_HandleKeys( byte shift, byte keys )
zclSampleThermostat_HandleKeys:
          CFI Block cfiBlock24 Using cfiCommon0
          CFI Function zclSampleThermostat_HandleKeys
        CODE
//  565 {
        FUNCALL zclSampleThermostat_HandleKeys, UART_DebugPrint
        LOCFRAME ISTACK, 0, STACK
        LOCFRAME PSTACK, 0, STACK
        LOCFRAME XSTACK, 29, STACK
        LOCFRAME IOVERLAY, 0, STATIC
        LOCFRAME DOVERLAY, 0, STATIC
        ARGFRAME ISTACK, 0, STACK
        ARGFRAME PSTACK, 0, STACK
        ARGFRAME XSTACK, 29, STACK
        ARGFRAME IOVERLAY, 0, STATIC
        ARGFRAME DOVERLAY, 0, STATIC
        FUNCALL zclSampleThermostat_HandleKeys, bindCapacity
        LOCFRAME ISTACK, 0, STACK
        LOCFRAME PSTACK, 0, STACK
        LOCFRAME XSTACK, 29, STACK
        LOCFRAME IOVERLAY, 0, STATIC
        LOCFRAME DOVERLAY, 0, STATIC
        ARGFRAME ISTACK, 0, STACK
        ARGFRAME PSTACK, 0, STACK
        ARGFRAME XSTACK, 29, STACK
        ARGFRAME IOVERLAY, 0, STATIC
        ARGFRAME DOVERLAY, 0, STATIC
        FUNCALL zclSampleThermostat_HandleKeys, UART_ZCmdPrintString
        LOCFRAME ISTACK, 0, STACK
        LOCFRAME PSTACK, 0, STACK
        LOCFRAME XSTACK, 29, STACK
        LOCFRAME IOVERLAY, 0, STATIC
        LOCFRAME DOVERLAY, 0, STATIC
        ARGFRAME ISTACK, 0, STACK
        ARGFRAME PSTACK, 0, STACK
        ARGFRAME XSTACK, 29, STACK
        ARGFRAME IOVERLAY, 0, STATIC
        ARGFRAME DOVERLAY, 0, STATIC
        FUNCALL zclSampleThermostat_HandleKeys, UART_ZCmdPrintNum
        LOCFRAME ISTACK, 0, STACK
        LOCFRAME PSTACK, 0, STACK
        LOCFRAME XSTACK, 29, STACK
        LOCFRAME IOVERLAY, 0, STATIC
        LOCFRAME DOVERLAY, 0, STATIC
        ARGFRAME ISTACK, 0, STACK
        ARGFRAME PSTACK, 0, STACK
        ARGFRAME XSTACK, 29, STACK
        ARGFRAME IOVERLAY, 0, STATIC
        ARGFRAME DOVERLAY, 0, STATIC
        FUNCALL zclSampleThermostat_HandleKeys, UART_ZCmdPrint
        LOCFRAME ISTACK, 0, STACK
        LOCFRAME PSTACK, 0, STACK
        LOCFRAME XSTACK, 29, STACK
        LOCFRAME IOVERLAY, 0, STATIC
        LOCFRAME DOVERLAY, 0, STATIC
        ARGFRAME ISTACK, 0, STACK
        ARGFRAME PSTACK, 0, STACK
        ARGFRAME XSTACK, 29, STACK
        ARGFRAME IOVERLAY, 0, STATIC
        ARGFRAME DOVERLAY, 0, STATIC
        FUNCALL zclSampleThermostat_HandleKeys, GetBindingTableEntry
        LOCFRAME ISTACK, 0, STACK
        LOCFRAME PSTACK, 0, STACK
        LOCFRAME XSTACK, 29, STACK
        LOCFRAME IOVERLAY, 0, STATIC
        LOCFRAME DOVERLAY, 0, STATIC
        ARGFRAME ISTACK, 0, STACK
        ARGFRAME PSTACK, 0, STACK
        ARGFRAME XSTACK, 29, STACK
        ARGFRAME IOVERLAY, 0, STATIC
        ARGFRAME DOVERLAY, 0, STATIC
        FUNCALL zclSampleThermostat_HandleKeys, UART_ZCmdPrintString
        LOCFRAME ISTACK, 0, STACK
        LOCFRAME PSTACK, 0, STACK
        LOCFRAME XSTACK, 29, STACK
        LOCFRAME IOVERLAY, 0, STATIC
        LOCFRAME DOVERLAY, 0, STATIC
        ARGFRAME ISTACK, 0, STACK
        ARGFRAME PSTACK, 0, STACK
        ARGFRAME XSTACK, 29, STACK
        ARGFRAME IOVERLAY, 0, STATIC
        ARGFRAME DOVERLAY, 0, STATIC
        FUNCALL zclSampleThermostat_HandleKeys, UART_ZCmdPrintNum
        LOCFRAME ISTACK, 0, STACK
        LOCFRAME PSTACK, 0, STACK
        LOCFRAME XSTACK, 29, STACK
        LOCFRAME IOVERLAY, 0, STATIC
        LOCFRAME DOVERLAY, 0, STATIC
        ARGFRAME ISTACK, 0, STACK
        ARGFRAME PSTACK, 0, STACK
        ARGFRAME XSTACK, 29, STACK
        ARGFRAME IOVERLAY, 0, STATIC
        ARGFRAME DOVERLAY, 0, STATIC
        FUNCALL zclSampleThermostat_HandleKeys, UART_ZCmdPrintString
        LOCFRAME ISTACK, 0, STACK
        LOCFRAME PSTACK, 0, STACK
        LOCFRAME XSTACK, 29, STACK
        LOCFRAME IOVERLAY, 0, STATIC
        LOCFRAME DOVERLAY, 0, STATIC
        ARGFRAME ISTACK, 0, STACK
        ARGFRAME PSTACK, 0, STACK
        ARGFRAME XSTACK, 29, STACK
        ARGFRAME IOVERLAY, 0, STATIC
        ARGFRAME DOVERLAY, 0, STATIC
        FUNCALL zclSampleThermostat_HandleKeys, UART_ZCmdPrintNum
        LOCFRAME ISTACK, 0, STACK
        LOCFRAME PSTACK, 0, STACK
        LOCFRAME XSTACK, 29, STACK
        LOCFRAME IOVERLAY, 0, STATIC
        LOCFRAME DOVERLAY, 0, STATIC
        ARGFRAME ISTACK, 0, STACK
        ARGFRAME PSTACK, 0, STACK
        ARGFRAME XSTACK, 29, STACK
        ARGFRAME IOVERLAY, 0, STATIC
        ARGFRAME DOVERLAY, 0, STATIC
        FUNCALL zclSampleThermostat_HandleKeys, UART_ZCmdPrint
        LOCFRAME ISTACK, 0, STACK
        LOCFRAME PSTACK, 0, STACK
        LOCFRAME XSTACK, 29, STACK
        LOCFRAME IOVERLAY, 0, STATIC
        LOCFRAME DOVERLAY, 0, STATIC
        ARGFRAME ISTACK, 0, STACK
        ARGFRAME PSTACK, 0, STACK
        ARGFRAME XSTACK, 29, STACK
        ARGFRAME IOVERLAY, 0, STATIC
        ARGFRAME DOVERLAY, 0, STATIC
        FUNCALL zclSampleThermostat_HandleKeys, GetBindingTableEntry
        LOCFRAME ISTACK, 0, STACK
        LOCFRAME PSTACK, 0, STACK
        LOCFRAME XSTACK, 29, STACK
        LOCFRAME IOVERLAY, 0, STATIC
        LOCFRAME DOVERLAY, 0, STATIC
        ARGFRAME ISTACK, 0, STACK
        ARGFRAME PSTACK, 0, STACK
        ARGFRAME XSTACK, 29, STACK
        ARGFRAME IOVERLAY, 0, STATIC
        ARGFRAME DOVERLAY, 0, STATIC
        FUNCALL zclSampleThermostat_HandleKeys, UART_ZCmdPrintString
        LOCFRAME ISTACK, 0, STACK
        LOCFRAME PSTACK, 0, STACK
        LOCFRAME XSTACK, 29, STACK
        LOCFRAME IOVERLAY, 0, STATIC
        LOCFRAME DOVERLAY, 0, STATIC
        ARGFRAME ISTACK, 0, STACK
        ARGFRAME PSTACK, 0, STACK
        ARGFRAME XSTACK, 29, STACK
        ARGFRAME IOVERLAY, 0, STATIC
        ARGFRAME DOVERLAY, 0, STATIC
        FUNCALL zclSampleThermostat_HandleKeys, UART_ZCmdPrintNum
        LOCFRAME ISTACK, 0, STACK
        LOCFRAME PSTACK, 0, STACK
        LOCFRAME XSTACK, 29, STACK
        LOCFRAME IOVERLAY, 0, STATIC
        LOCFRAME DOVERLAY, 0, STATIC
        ARGFRAME ISTACK, 0, STACK
        ARGFRAME PSTACK, 0, STACK
        ARGFRAME XSTACK, 29, STACK
        ARGFRAME IOVERLAY, 0, STATIC
        ARGFRAME DOVERLAY, 0, STATIC
        FUNCALL zclSampleThermostat_HandleKeys, UART_ZCmdPrintString
        LOCFRAME ISTACK, 0, STACK
        LOCFRAME PSTACK, 0, STACK
        LOCFRAME XSTACK, 29, STACK
        LOCFRAME IOVERLAY, 0, STATIC
        LOCFRAME DOVERLAY, 0, STATIC
        ARGFRAME ISTACK, 0, STACK
        ARGFRAME PSTACK, 0, STACK
        ARGFRAME XSTACK, 29, STACK
        ARGFRAME IOVERLAY, 0, STATIC
        ARGFRAME DOVERLAY, 0, STATIC
        FUNCALL zclSampleThermostat_HandleKeys, UART_ZCmdPrintNum
        LOCFRAME ISTACK, 0, STACK
        LOCFRAME PSTACK, 0, STACK
        LOCFRAME XSTACK, 29, STACK
        LOCFRAME IOVERLAY, 0, STATIC
        LOCFRAME DOVERLAY, 0, STATIC
        ARGFRAME ISTACK, 0, STACK
        ARGFRAME PSTACK, 0, STACK
        ARGFRAME XSTACK, 29, STACK
        ARGFRAME IOVERLAY, 0, STATIC
        ARGFRAME DOVERLAY, 0, STATIC
        FUNCALL zclSampleThermostat_HandleKeys, UART_ZCmdPrint
        LOCFRAME ISTACK, 0, STACK
        LOCFRAME PSTACK, 0, STACK
        LOCFRAME XSTACK, 29, STACK
        LOCFRAME IOVERLAY, 0, STATIC
        LOCFRAME DOVERLAY, 0, STATIC
        ARGFRAME ISTACK, 0, STACK
        ARGFRAME PSTACK, 0, STACK
        ARGFRAME XSTACK, 29, STACK
        ARGFRAME IOVERLAY, 0, STATIC
        ARGFRAME DOVERLAY, 0, STATIC
        FUNCALL zclSampleThermostat_HandleKeys, GetBindingTableEntry
        LOCFRAME ISTACK, 0, STACK
        LOCFRAME PSTACK, 0, STACK
        LOCFRAME XSTACK, 29, STACK
        LOCFRAME IOVERLAY, 0, STATIC
        LOCFRAME DOVERLAY, 0, STATIC
        ARGFRAME ISTACK, 0, STACK
        ARGFRAME PSTACK, 0, STACK
        ARGFRAME XSTACK, 29, STACK
        ARGFRAME IOVERLAY, 0, STATIC
        ARGFRAME DOVERLAY, 0, STATIC
        FUNCALL zclSampleThermostat_HandleKeys, UART_ZCmdPrintString
        LOCFRAME ISTACK, 0, STACK
        LOCFRAME PSTACK, 0, STACK
        LOCFRAME XSTACK, 29, STACK
        LOCFRAME IOVERLAY, 0, STATIC
        LOCFRAME DOVERLAY, 0, STATIC
        ARGFRAME ISTACK, 0, STACK
        ARGFRAME PSTACK, 0, STACK
        ARGFRAME XSTACK, 29, STACK
        ARGFRAME IOVERLAY, 0, STATIC
        ARGFRAME DOVERLAY, 0, STATIC
        FUNCALL zclSampleThermostat_HandleKeys, UART_ZCmdPrintNum
        LOCFRAME ISTACK, 0, STACK
        LOCFRAME PSTACK, 0, STACK
        LOCFRAME XSTACK, 29, STACK
        LOCFRAME IOVERLAY, 0, STATIC
        LOCFRAME DOVERLAY, 0, STATIC
        ARGFRAME ISTACK, 0, STACK
        ARGFRAME PSTACK, 0, STACK
        ARGFRAME XSTACK, 29, STACK
        ARGFRAME IOVERLAY, 0, STATIC
        ARGFRAME DOVERLAY, 0, STATIC
        FUNCALL zclSampleThermostat_HandleKeys, UART_ZCmdPrintString
        LOCFRAME ISTACK, 0, STACK
        LOCFRAME PSTACK, 0, STACK
        LOCFRAME XSTACK, 29, STACK
        LOCFRAME IOVERLAY, 0, STATIC
        LOCFRAME DOVERLAY, 0, STATIC
        ARGFRAME ISTACK, 0, STACK
        ARGFRAME PSTACK, 0, STACK
        ARGFRAME XSTACK, 29, STACK
        ARGFRAME IOVERLAY, 0, STATIC
        ARGFRAME DOVERLAY, 0, STATIC
        FUNCALL zclSampleThermostat_HandleKeys, UART_ZCmdPrintNum
        LOCFRAME ISTACK, 0, STACK
        LOCFRAME PSTACK, 0, STACK
        LOCFRAME XSTACK, 29, STACK
        LOCFRAME IOVERLAY, 0, STATIC
        LOCFRAME DOVERLAY, 0, STATIC
        ARGFRAME ISTACK, 0, STACK
        ARGFRAME PSTACK, 0, STACK
        ARGFRAME XSTACK, 29, STACK
        ARGFRAME IOVERLAY, 0, STATIC
        ARGFRAME DOVERLAY, 0, STATIC
        FUNCALL zclSampleThermostat_HandleKeys, UART_ZCmdPrint
        LOCFRAME ISTACK, 0, STACK
        LOCFRAME PSTACK, 0, STACK
        LOCFRAME XSTACK, 29, STACK
        LOCFRAME IOVERLAY, 0, STATIC
        LOCFRAME DOVERLAY, 0, STATIC
        ARGFRAME ISTACK, 0, STACK
        ARGFRAME PSTACK, 0, STACK
        ARGFRAME XSTACK, 29, STACK
        ARGFRAME IOVERLAY, 0, STATIC
        ARGFRAME DOVERLAY, 0, STATIC
        FUNCALL zclSampleThermostat_HandleKeys, GetBindingTableEntry
        LOCFRAME ISTACK, 0, STACK
        LOCFRAME PSTACK, 0, STACK
        LOCFRAME XSTACK, 29, STACK
        LOCFRAME IOVERLAY, 0, STATIC
        LOCFRAME DOVERLAY, 0, STATIC
        ARGFRAME ISTACK, 0, STACK
        ARGFRAME PSTACK, 0, STACK
        ARGFRAME XSTACK, 29, STACK
        ARGFRAME IOVERLAY, 0, STATIC
        ARGFRAME DOVERLAY, 0, STATIC
        FUNCALL zclSampleThermostat_HandleKeys, UART_ZCmdPrintString
        LOCFRAME ISTACK, 0, STACK
        LOCFRAME PSTACK, 0, STACK
        LOCFRAME XSTACK, 29, STACK
        LOCFRAME IOVERLAY, 0, STATIC
        LOCFRAME DOVERLAY, 0, STATIC
        ARGFRAME ISTACK, 0, STACK
        ARGFRAME PSTACK, 0, STACK
        ARGFRAME XSTACK, 29, STACK
        ARGFRAME IOVERLAY, 0, STATIC
        ARGFRAME DOVERLAY, 0, STATIC
        FUNCALL zclSampleThermostat_HandleKeys, UART_ZCmdPrintNum
        LOCFRAME ISTACK, 0, STACK
        LOCFRAME PSTACK, 0, STACK
        LOCFRAME XSTACK, 29, STACK
        LOCFRAME IOVERLAY, 0, STATIC
        LOCFRAME DOVERLAY, 0, STATIC
        ARGFRAME ISTACK, 0, STACK
        ARGFRAME PSTACK, 0, STACK
        ARGFRAME XSTACK, 29, STACK
        ARGFRAME IOVERLAY, 0, STATIC
        ARGFRAME DOVERLAY, 0, STATIC
        FUNCALL zclSampleThermostat_HandleKeys, UART_ZCmdPrintString
        LOCFRAME ISTACK, 0, STACK
        LOCFRAME PSTACK, 0, STACK
        LOCFRAME XSTACK, 29, STACK
        LOCFRAME IOVERLAY, 0, STATIC
        LOCFRAME DOVERLAY, 0, STATIC
        ARGFRAME ISTACK, 0, STACK
        ARGFRAME PSTACK, 0, STACK
        ARGFRAME XSTACK, 29, STACK
        ARGFRAME IOVERLAY, 0, STATIC
        ARGFRAME DOVERLAY, 0, STATIC
        FUNCALL zclSampleThermostat_HandleKeys, UART_ZCmdPrintNum
        LOCFRAME ISTACK, 0, STACK
        LOCFRAME PSTACK, 0, STACK
        LOCFRAME XSTACK, 29, STACK
        LOCFRAME IOVERLAY, 0, STATIC
        LOCFRAME DOVERLAY, 0, STATIC
        ARGFRAME ISTACK, 0, STACK
        ARGFRAME PSTACK, 0, STACK
        ARGFRAME XSTACK, 29, STACK
        ARGFRAME IOVERLAY, 0, STATIC
        ARGFRAME DOVERLAY, 0, STATIC
        FUNCALL zclSampleThermostat_HandleKeys, UART_ZCmdPrint
        LOCFRAME ISTACK, 0, STACK
        LOCFRAME PSTACK, 0, STACK
        LOCFRAME XSTACK, 29, STACK
        LOCFRAME IOVERLAY, 0, STATIC
        LOCFRAME DOVERLAY, 0, STATIC
        ARGFRAME ISTACK, 0, STACK
        ARGFRAME PSTACK, 0, STACK
        ARGFRAME XSTACK, 29, STACK
        ARGFRAME IOVERLAY, 0, STATIC
        ARGFRAME DOVERLAY, 0, STATIC
        FUNCALL zclSampleThermostat_HandleKeys, UART_DebugPrint
        LOCFRAME ISTACK, 0, STACK
        LOCFRAME PSTACK, 0, STACK
        LOCFRAME XSTACK, 29, STACK
        LOCFRAME IOVERLAY, 0, STATIC
        LOCFRAME DOVERLAY, 0, STATIC
        ARGFRAME ISTACK, 0, STACK
        ARGFRAME PSTACK, 0, STACK
        ARGFRAME XSTACK, 29, STACK
        ARGFRAME IOVERLAY, 0, STATIC
        ARGFRAME DOVERLAY, 0, STATIC
        FUNCALL zclSampleThermostat_HandleKeys, zcl_InvokeEZMode
        LOCFRAME ISTACK, 0, STACK
        LOCFRAME PSTACK, 0, STACK
        LOCFRAME XSTACK, 29, STACK
        LOCFRAME IOVERLAY, 0, STATIC
        LOCFRAME DOVERLAY, 0, STATIC
        ARGFRAME ISTACK, 0, STACK
        ARGFRAME PSTACK, 0, STACK
        ARGFRAME XSTACK, 29, STACK
        ARGFRAME IOVERLAY, 0, STATIC
        ARGFRAME DOVERLAY, 0, STATIC
        FUNCALL zclSampleThermostat_HandleKeys, HalLcdWriteString
        LOCFRAME ISTACK, 0, STACK
        LOCFRAME PSTACK, 0, STACK
        LOCFRAME XSTACK, 29, STACK
        LOCFRAME IOVERLAY, 0, STATIC
        LOCFRAME DOVERLAY, 0, STATIC
        ARGFRAME ISTACK, 0, STACK
        ARGFRAME PSTACK, 0, STACK
        ARGFRAME XSTACK, 29, STACK
        ARGFRAME IOVERLAY, 0, STATIC
        ARGFRAME DOVERLAY, 0, STATIC
        FUNCALL zclSampleThermostat_HandleKeys, NLME_GetShortAddr
        LOCFRAME ISTACK, 0, STACK
        LOCFRAME PSTACK, 0, STACK
        LOCFRAME XSTACK, 29, STACK
        LOCFRAME IOVERLAY, 0, STATIC
        LOCFRAME DOVERLAY, 0, STATIC
        ARGFRAME ISTACK, 0, STACK
        ARGFRAME PSTACK, 0, STACK
        ARGFRAME XSTACK, 29, STACK
        ARGFRAME IOVERLAY, 0, STATIC
        ARGFRAME DOVERLAY, 0, STATIC
        FUNCALL zclSampleThermostat_HandleKeys, ZDP_MgmtPermitJoinReq
        LOCFRAME ISTACK, 0, STACK
        LOCFRAME PSTACK, 0, STACK
        LOCFRAME XSTACK, 29, STACK
        LOCFRAME IOVERLAY, 0, STATIC
        LOCFRAME DOVERLAY, 0, STATIC
        ARGFRAME ISTACK, 0, STACK
        ARGFRAME PSTACK, 0, STACK
        ARGFRAME XSTACK, 29, STACK
        ARGFRAME IOVERLAY, 0, STATIC
        ARGFRAME DOVERLAY, 0, STATIC
        FUNCALL zclSampleThermostat_HandleKeys, zclSampleThermostat_BasicResetCB
        LOCFRAME ISTACK, 0, STACK
        LOCFRAME PSTACK, 0, STACK
        LOCFRAME XSTACK, 29, STACK
        LOCFRAME IOVERLAY, 0, STATIC
        LOCFRAME DOVERLAY, 0, STATIC
        ARGFRAME ISTACK, 0, STACK
        ARGFRAME PSTACK, 0, STACK
        ARGFRAME XSTACK, 29, STACK
        ARGFRAME IOVERLAY, 0, STATIC
        ARGFRAME DOVERLAY, 0, STATIC
        FUNCALL zclSampleThermostat_HandleKeys, HalLcdWriteString
        LOCFRAME ISTACK, 0, STACK
        LOCFRAME PSTACK, 0, STACK
        LOCFRAME XSTACK, 29, STACK
        LOCFRAME IOVERLAY, 0, STATIC
        LOCFRAME DOVERLAY, 0, STATIC
        ARGFRAME ISTACK, 0, STACK
        ARGFRAME PSTACK, 0, STACK
        ARGFRAME XSTACK, 29, STACK
        ARGFRAME IOVERLAY, 0, STATIC
        ARGFRAME DOVERLAY, 0, STATIC
        FUNCALL zclSampleThermostat_HandleKeys, HalLcdWriteString
        LOCFRAME ISTACK, 0, STACK
        LOCFRAME PSTACK, 0, STACK
        LOCFRAME XSTACK, 29, STACK
        LOCFRAME IOVERLAY, 0, STATIC
        LOCFRAME DOVERLAY, 0, STATIC
        ARGFRAME ISTACK, 0, STACK
        ARGFRAME PSTACK, 0, STACK
        ARGFRAME XSTACK, 29, STACK
        ARGFRAME IOVERLAY, 0, STATIC
        ARGFRAME DOVERLAY, 0, STATIC
        FUNCALL zclSampleThermostat_HandleKeys, HalLcdWriteString
        LOCFRAME ISTACK, 0, STACK
        LOCFRAME PSTACK, 0, STACK
        LOCFRAME XSTACK, 29, STACK
        LOCFRAME IOVERLAY, 0, STATIC
        LOCFRAME DOVERLAY, 0, STATIC
        ARGFRAME ISTACK, 0, STACK
        ARGFRAME PSTACK, 0, STACK
        ARGFRAME XSTACK, 29, STACK
        ARGFRAME IOVERLAY, 0, STATIC
        ARGFRAME DOVERLAY, 0, STATIC
        FUNCALL zclSampleThermostat_HandleKeys, zclSampleThermostat_LcdDisplayUpdate
        LOCFRAME ISTACK, 0, STACK
        LOCFRAME PSTACK, 0, STACK
        LOCFRAME XSTACK, 29, STACK
        LOCFRAME IOVERLAY, 0, STATIC
        LOCFRAME DOVERLAY, 0, STATIC
        ARGFRAME ISTACK, 0, STACK
        ARGFRAME PSTACK, 0, STACK
        ARGFRAME XSTACK, 29, STACK
        ARGFRAME IOVERLAY, 0, STATIC
        ARGFRAME DOVERLAY, 0, STATIC
        REQUIRE ?V0
        REQUIRE ?V1
        REQUIRE ?V2
        REQUIRE ?V3
        REQUIRE ?V4
        REQUIRE ?V5
        REQUIRE ?V6
        REQUIRE ?V7
        MOV     A,#-0x10
        LCALL   ?BANKED_ENTER_XDATA
          CFI DPH0 load(1, XDATA, add(CFA_XSP16, literal(-1)))
          CFI DPL0 load(1, XDATA, add(CFA_XSP16, literal(-2)))
          CFI ?BRET_EXT load(1, XDATA, add(CFA_XSP16, literal(-3)))
          CFI ?RET_HIGH load(1, XDATA, add(CFA_XSP16, literal(-4)))
          CFI ?RET_LOW load(1, XDATA, add(CFA_XSP16, literal(-5)))
          CFI R7 load(1, XDATA, add(CFA_XSP16, literal(-6)))
          CFI V7 load(1, XDATA, add(CFA_XSP16, literal(-7)))
          CFI V6 load(1, XDATA, add(CFA_XSP16, literal(-8)))
          CFI V5 load(1, XDATA, add(CFA_XSP16, literal(-9)))
          CFI V4 load(1, XDATA, add(CFA_XSP16, literal(-10)))
          CFI V3 load(1, XDATA, add(CFA_XSP16, literal(-11)))
          CFI V2 load(1, XDATA, add(CFA_XSP16, literal(-12)))
          CFI V1 load(1, XDATA, add(CFA_XSP16, literal(-13)))
          CFI V0 load(1, XDATA, add(CFA_XSP16, literal(-14)))
          CFI VB load(1, XDATA, add(CFA_XSP16, literal(-15)))
          CFI R6 load(1, XDATA, add(CFA_XSP16, literal(-16)))
          CFI CFA_SP SP+0
          CFI CFA_XSP16 add(XSP16, 16)
        ; Saved register size: 16
        ; Auto size: 13
        MOV     A,#-0xd
        LCALL   ?ALLOC_XSTACK8
          CFI CFA_XSP16 add(XSP16, 29)
        MOV     ?V3,R1
        MOV     ?V2,R2
//  566 	if ( keys & HAL_KEY_SW_6 ) //~ SW1 on board
        MOV     A,R2
        MOV     C,0xE0 /* A   */.5
        JC      $+5
        LJMP    ??zclSampleThermostat_HandleKeys_0 & 0xFFFF
//  567 	{
//  568 		UART_DebugPrint(HAL_UART_PORT_0, "SW6");
        ; Setup parameters for call to function UART_DebugPrint
        MOV     R2,#`?<Constant "SW6">` & 0xff
        MOV     R3,#(`?<Constant "SW6">` >> 8) & 0xff
        MOV     R1,#0x0
        LCALL   `??UART_DebugPrint::?relay`; Banked call to: UART_DebugPrint
//  569 
//  570 		uint16 maxEntries;
//  571 		uint16 usedEntries;
//  572 		BindingEntry_t* current_BindingTableEntry;
//  573 
//  574 		bindCapacity(&maxEntries, &usedEntries);
        ; Setup parameters for call to function bindCapacity
        MOV     A,#0x9
        LCALL   ?XSTACK_DISP102_8
        MOV     A,#0xb
        LCALL   ?XSTACK_DISP101_8
        LCALL   `??bindCapacity::?relay`; Banked call to: bindCapacity
//  575 		UART_ZCmdPrintString(HAL_UART_PORT_0, "usedEntries: ");
        ; Setup parameters for call to function UART_ZCmdPrintString
        MOV     R2,#`?<Constant "usedEntries: ">` & 0xff
        MOV     R3,#(`?<Constant "usedEntries: ">` >> 8) & 0xff
        MOV     R1,#0x0
        LCALL   `??UART_ZCmdPrintString::?relay`; Banked call to: UART_ZCmdPrintString
//  576 		UART_ZCmdPrintNum		(HAL_UART_PORT_0, usedEntries);
        ; Setup parameters for call to function UART_ZCmdPrintNum
        MOV     A,#0x9
        LCALL   ?XSTACK_DISP0_8
        LCALL   ?Subroutine13 & 0xFFFF
??CrossCallReturnLabel_21:
        LCALL   `??UART_ZCmdPrintNum::?relay`; Banked call to: UART_ZCmdPrintNum
//  577 		UART_ZCmdPrint			(HAL_UART_PORT_0, "");
        MOV     ?V0,#`?<Constant "">` & 0xff
        MOV     ?V1,#(`?<Constant "">` >> 8) & 0xff
        ; Setup parameters for call to function UART_ZCmdPrint
        MOV     R2,?V0
        MOV     R3,?V1
        MOV     R1,#0x0
        LCALL   `??UART_ZCmdPrint::?relay`; Banked call to: UART_ZCmdPrint
//  578 
//  579 		current_BindingTableEntry = GetBindingTableEntry( 0 );
        ; Setup parameters for call to function GetBindingTableEntry
        MOV     R2,#0x0
        MOV     R3,#0x0
        LCALL   `??GetBindingTableEntry::?relay`; Banked call to: GetBindingTableEntry
        MOV     ?V4,R2
        MOV     ?V5,R3
        MOV     R6,?V4
        MOV     R7,?V5
//  580 		UART_ZCmdPrintString(HAL_UART_PORT_0, "Entry 0: ");
        ; Setup parameters for call to function UART_ZCmdPrintString
        MOV     R2,#`?<Constant "Entry 0: ">` & 0xff
        MOV     R3,#(`?<Constant "Entry 0: ">` >> 8) & 0xff
        MOV     R1,#0x0
        LCALL   `??UART_ZCmdPrintString::?relay`; Banked call to: UART_ZCmdPrintString
//  581 		UART_ZCmdPrintNum		(HAL_UART_PORT_0, current_BindingTableEntry[0].srcEP);
        ; Setup parameters for call to function UART_ZCmdPrintNum
        MOV     DPL,R6
        MOV     DPH,R7
        LCALL   ??Subroutine36_0 & 0xFFFF
??CrossCallReturnLabel_66:
        LCALL   `??UART_ZCmdPrintNum::?relay`; Banked call to: UART_ZCmdPrintNum
//  582 		UART_ZCmdPrintString(HAL_UART_PORT_0, " | ");
        MOV     ?V4,#`?<Constant " | ">` & 0xff
        MOV     ?V5,#(`?<Constant " | ">` >> 8) & 0xff
        ; Setup parameters for call to function UART_ZCmdPrintString
        MOV     R2,?V4
        MOV     R3,?V5
        MOV     R1,#0x0
        LCALL   `??UART_ZCmdPrintString::?relay`; Banked call to: UART_ZCmdPrintString
//  583 		UART_ZCmdPrintNum		(HAL_UART_PORT_0, current_BindingTableEntry[0].dstEP);
        ; Setup parameters for call to function UART_ZCmdPrintNum
        MOV     DPL,R6
        MOV     DPH,R7
        INC     DPTR
        INC     DPTR
        INC     DPTR
        LCALL   ??Subroutine35_0 & 0xFFFF
??CrossCallReturnLabel_75:
        LCALL   `??UART_ZCmdPrintNum::?relay`; Banked call to: UART_ZCmdPrintNum
//  584 		UART_ZCmdPrint			(HAL_UART_PORT_0, "");
        ; Setup parameters for call to function UART_ZCmdPrint
        MOV     R2,?V0
        MOV     R3,?V1
        MOV     R1,#0x0
        LCALL   `??UART_ZCmdPrint::?relay`; Banked call to: UART_ZCmdPrint
//  585 
//  586 		current_BindingTableEntry = GetBindingTableEntry( 1 );
        ; Setup parameters for call to function GetBindingTableEntry
        MOV     R2,#0x1
        MOV     R3,#0x0
        LCALL   `??GetBindingTableEntry::?relay`; Banked call to: GetBindingTableEntry
        MOV     ?V6,R2
        MOV     ?V7,R3
        MOV     R6,?V6
        MOV     R7,?V7
//  587 		UART_ZCmdPrintString(HAL_UART_PORT_0, "Entry 1: ");
        ; Setup parameters for call to function UART_ZCmdPrintString
        MOV     R2,#`?<Constant "Entry 1: ">` & 0xff
        MOV     R3,#(`?<Constant "Entry 1: ">` >> 8) & 0xff
        MOV     R1,#0x0
        LCALL   `??UART_ZCmdPrintString::?relay`; Banked call to: UART_ZCmdPrintString
//  588 		UART_ZCmdPrintNum		(HAL_UART_PORT_0, current_BindingTableEntry[1].srcEP);
        ; Setup parameters for call to function UART_ZCmdPrintNum
        MOV     A,R6
        ADD     A,#0xe
        MOV     DPL,A
        CLR     A
        ADDC    A,R7
        MOV     DPH,A
        LCALL   ??Subroutine36_0 & 0xFFFF
??CrossCallReturnLabel_67:
        LCALL   `??UART_ZCmdPrintNum::?relay`; Banked call to: UART_ZCmdPrintNum
//  589 		UART_ZCmdPrintString(HAL_UART_PORT_0, " | ");
        ; Setup parameters for call to function UART_ZCmdPrintString
        MOV     R2,?V4
        MOV     R3,?V5
        MOV     R1,#0x0
        LCALL   `??UART_ZCmdPrintString::?relay`; Banked call to: UART_ZCmdPrintString
//  590 		UART_ZCmdPrintNum		(HAL_UART_PORT_0, current_BindingTableEntry[1].dstEP);
        ; Setup parameters for call to function UART_ZCmdPrintNum
        MOV     A,R6
        ADD     A,#0x12
        MOV     DPL,A
        CLR     A
        ADDC    A,R7
        MOV     DPH,A
        LCALL   ??Subroutine36_0 & 0xFFFF
??CrossCallReturnLabel_68:
        LCALL   `??UART_ZCmdPrintNum::?relay`; Banked call to: UART_ZCmdPrintNum
//  591 		UART_ZCmdPrint			(HAL_UART_PORT_0, "");
        ; Setup parameters for call to function UART_ZCmdPrint
        MOV     R2,?V0
        MOV     R3,?V1
        MOV     R1,#0x0
        LCALL   `??UART_ZCmdPrint::?relay`; Banked call to: UART_ZCmdPrint
//  592 
//  593 		current_BindingTableEntry = GetBindingTableEntry( 2 );
        ; Setup parameters for call to function GetBindingTableEntry
        MOV     R2,#0x2
        MOV     R3,#0x0
        LCALL   `??GetBindingTableEntry::?relay`; Banked call to: GetBindingTableEntry
        MOV     ?V6,R2
        MOV     ?V7,R3
        MOV     R6,?V6
        MOV     R7,?V7
//  594 		UART_ZCmdPrintString(HAL_UART_PORT_0, "Entry 2: ");
        ; Setup parameters for call to function UART_ZCmdPrintString
        MOV     R2,#`?<Constant "Entry 2: ">` & 0xff
        MOV     R3,#(`?<Constant "Entry 2: ">` >> 8) & 0xff
        MOV     R1,#0x0
        LCALL   `??UART_ZCmdPrintString::?relay`; Banked call to: UART_ZCmdPrintString
//  595 		UART_ZCmdPrintNum		(HAL_UART_PORT_0, current_BindingTableEntry[2].srcEP);
        ; Setup parameters for call to function UART_ZCmdPrintNum
        MOV     A,R6
        ADD     A,#0x1c
        MOV     DPL,A
        CLR     A
        ADDC    A,R7
        MOV     DPH,A
        LCALL   ??Subroutine36_0 & 0xFFFF
??CrossCallReturnLabel_69:
        LCALL   `??UART_ZCmdPrintNum::?relay`; Banked call to: UART_ZCmdPrintNum
//  596 		UART_ZCmdPrintString(HAL_UART_PORT_0, " | ");
        ; Setup parameters for call to function UART_ZCmdPrintString
        MOV     R2,?V4
        MOV     R3,?V5
        MOV     R1,#0x0
        LCALL   `??UART_ZCmdPrintString::?relay`; Banked call to: UART_ZCmdPrintString
//  597 		UART_ZCmdPrintNum		(HAL_UART_PORT_0, current_BindingTableEntry[2].dstEP);
        ; Setup parameters for call to function UART_ZCmdPrintNum
        MOV     A,R6
        ADD     A,#0x20
        MOV     DPL,A
        CLR     A
        ADDC    A,R7
        MOV     DPH,A
        LCALL   ??Subroutine36_0 & 0xFFFF
??CrossCallReturnLabel_70:
        LCALL   `??UART_ZCmdPrintNum::?relay`; Banked call to: UART_ZCmdPrintNum
//  598 		UART_ZCmdPrint			(HAL_UART_PORT_0, "");
        ; Setup parameters for call to function UART_ZCmdPrint
        MOV     R2,?V0
        MOV     R3,?V1
        MOV     R1,#0x0
        LCALL   `??UART_ZCmdPrint::?relay`; Banked call to: UART_ZCmdPrint
//  599 
//  600 		current_BindingTableEntry = GetBindingTableEntry( 3 );
        ; Setup parameters for call to function GetBindingTableEntry
        MOV     R2,#0x3
        MOV     R3,#0x0
        LCALL   `??GetBindingTableEntry::?relay`; Banked call to: GetBindingTableEntry
        MOV     ?V6,R2
        MOV     ?V7,R3
        MOV     R6,?V6
        MOV     R7,?V7
//  601 		UART_ZCmdPrintString(HAL_UART_PORT_0, "Entry 3: ");
        ; Setup parameters for call to function UART_ZCmdPrintString
        MOV     R2,#`?<Constant "Entry 3: ">` & 0xff
        MOV     R3,#(`?<Constant "Entry 3: ">` >> 8) & 0xff
        MOV     R1,#0x0
        LCALL   `??UART_ZCmdPrintString::?relay`; Banked call to: UART_ZCmdPrintString
//  602 		UART_ZCmdPrintNum		(HAL_UART_PORT_0, current_BindingTableEntry[3].srcEP);
        ; Setup parameters for call to function UART_ZCmdPrintNum
        MOV     A,R6
        ADD     A,#0x2a
        MOV     DPL,A
        CLR     A
        ADDC    A,R7
        MOV     DPH,A
        LCALL   ??Subroutine36_0 & 0xFFFF
??CrossCallReturnLabel_71:
        LCALL   `??UART_ZCmdPrintNum::?relay`; Banked call to: UART_ZCmdPrintNum
//  603 		UART_ZCmdPrintString(HAL_UART_PORT_0, " | ");
        ; Setup parameters for call to function UART_ZCmdPrintString
        MOV     R2,?V4
        MOV     R3,?V5
        MOV     R1,#0x0
        LCALL   `??UART_ZCmdPrintString::?relay`; Banked call to: UART_ZCmdPrintString
//  604 		UART_ZCmdPrintNum		(HAL_UART_PORT_0, current_BindingTableEntry[3].dstEP);
        ; Setup parameters for call to function UART_ZCmdPrintNum
        MOV     A,R6
        ADD     A,#0x2e
        MOV     DPL,A
        CLR     A
        ADDC    A,R7
        MOV     DPH,A
        LCALL   ??Subroutine36_0 & 0xFFFF
??CrossCallReturnLabel_72:
        LCALL   `??UART_ZCmdPrintNum::?relay`; Banked call to: UART_ZCmdPrintNum
//  605 		UART_ZCmdPrint			(HAL_UART_PORT_0, "");
        ; Setup parameters for call to function UART_ZCmdPrint
        MOV     R2,?V0
        MOV     R3,?V1
        MOV     R1,#0x0
        LCALL   `??UART_ZCmdPrint::?relay`; Banked call to: UART_ZCmdPrint
//  606 		
//  607 	}
//  608 	
//  609   if ( keys & HAL_KEY_SW_8 ) //~ SW3 on board
??zclSampleThermostat_HandleKeys_0:
        MOV     A,?V2
        MOV     C,0xE0 /* A   */.7
        JC      $+5
        LJMP    ??zclSampleThermostat_HandleKeys_1 & 0xFFFF
//  610   {
//  611   	UART_DebugPrint(HAL_UART_PORT_0, "SW8");
        ; Setup parameters for call to function UART_DebugPrint
        MOV     R2,#`?<Constant "SW8">` & 0xff
        MOV     R3,#(`?<Constant "SW8">` >> 8) & 0xff
        MOV     R1,#0x0
        LCALL   `??UART_DebugPrint::?relay`; Banked call to: UART_DebugPrint
//  612     if ( ( giThermostatScreenMode == THERMOSTAT_MAINMODE ) ||
//  613          ( giThermostatScreenMode == THERMOSTAT_HELPMODE ) )
        MOV     DPTR,#giThermostatScreenMode
        MOVX    A,@DPTR
        JZ      ??zclSampleThermostat_HandleKeys_2
        XRL     A,#0x1
        JNZ     ??zclSampleThermostat_HandleKeys_1
//  614     {
//  615       giThermostatScreenMode = THERMOSTAT_MAINMODE;
??zclSampleThermostat_HandleKeys_2:
        CLR     A
        MOVX    @DPTR,A
//  616 
//  617 			FLAG_BINDING = !FLAG_BINDING;
        MOV     DPTR,#FLAG_BINDING
        MOVX    A,@DPTR
        JNZ     ??zclSampleThermostat_HandleKeys_3
        MOV     A,#0x1
        SJMP    ??zclSampleThermostat_HandleKeys_4
??zclSampleThermostat_HandleKeys_3:
        CLR     A
??zclSampleThermostat_HandleKeys_4:
        MOVX    @DPTR,A
//  618 			FLAG_HARD_BINDING = !FLAG_HARD_BINDING;
        MOV     DPTR,#FLAG_HARD_BINDING
        MOVX    A,@DPTR
        JNZ     ??zclSampleThermostat_HandleKeys_5
        MOV     A,#0x1
        SJMP    ??zclSampleThermostat_HandleKeys_6
??zclSampleThermostat_HandleKeys_5:
        CLR     A
??zclSampleThermostat_HandleKeys_6:
        LCALL   ?Subroutine6 & 0xFFFF
//  619 
//  620 			#ifdef ZCL_EZMODE
//  621       zclEZMode_InvokeData_t ezModeData;
//  622       static uint16 clusterIDs[] = { ZCL_CLUSTER_ID_HVAC_THERMOSTAT };   // only bind on the Thermostat cluster
//  623 
//  624       // Invoke EZ-Mode
//  625       ezModeData.endpoint = SAMPLETHERMOSTAT_ENDPOINT; // endpoint on which to invoke EZ-Mode
//  626       if ( ( zclSampleThermostat_NwkState == DEV_ZB_COORD ) ||
//  627            ( zclSampleThermostat_NwkState == DEV_ROUTER )   ||
//  628            ( zclSampleThermostat_NwkState == DEV_END_DEVICE ) )
??CrossCallReturnLabel_4:
        JZ      ??zclSampleThermostat_HandleKeys_7
        MOVX    A,@DPTR
        XRL     A,#0x7
        JZ      ??zclSampleThermostat_HandleKeys_7
        MOVX    A,@DPTR
        XRL     A,#0x6
        JNZ     ??zclSampleThermostat_HandleKeys_8
//  629       {
//  630         ezModeData.onNetwork = TRUE;      // node is already on the network
??zclSampleThermostat_HandleKeys_7:
        MOV     A,#0x1
        LCALL   ?XSTACK_DISP0_8
        MOV     A,#0x1
        SJMP    ??zclSampleThermostat_HandleKeys_9
//  631       }
//  632       else
//  633       {
//  634         ezModeData.onNetwork = FALSE;     // node is not yet on the network
??zclSampleThermostat_HandleKeys_8:
        MOV     A,#0x1
        LCALL   ?XSTACK_DISP0_8
        CLR     A
??zclSampleThermostat_HandleKeys_9:
        MOVX    @DPTR,A
//  635       }
//  636       ezModeData.initiator = TRUE;        // Thermostat is an initiator
        MOV     A,#0x2
        LCALL   ?XSTACK_DISP0_8
        MOV     A,#0x1
        MOVX    @DPTR,A
//  637       ezModeData.numActiveInClusters = 0;
        MOV     A,#0x3
        LCALL   ?XSTACK_DISP0_8
        CLR     A
        MOVX    @DPTR,A
//  638       ezModeData.pActiveInClusterIDs = NULL;
        MOV     A,#0x4
        LCALL   ?XSTACK_DISP0_8
        CLR     A
        MOVX    @DPTR,A
        INC     DPTR
        MOVX    @DPTR,A
//  639       ezModeData.numActiveOutClusters = 1;   // active output cluster
        MOV     A,#0x6
        LCALL   ?XSTACK_DISP0_8
        MOV     A,#0x1
        MOVX    @DPTR,A
//  640       ezModeData.pActiveOutClusterIDs = clusterIDs;
        MOV     A,#0x7
        LCALL   ?XSTACK_DISP0_8
        MOV     A,#??clusterIDs & 0xff
        MOVX    @DPTR,A
        INC     DPTR
        MOV     A,#(??clusterIDs >> 8) & 0xff
        LCALL   ??Subroutine31_0 & 0xFFFF
//  641       zcl_InvokeEZMode( &ezModeData );
??CrossCallReturnLabel_64:
        LCALL   `??zcl_InvokeEZMode::?relay`; Banked call to: zcl_InvokeEZMode
//  642 
//  643 			#ifdef LCD_SUPPORTED
//  644       HalLcdWriteString( "EZMode", HAL_LCD_LINE_2 );
        ; Setup parameters for call to function HalLcdWriteString
        MOV     R1,#0x2
        MOV     R2,#`?<Constant "EZMode">` & 0xff
        MOV     R3,#(`?<Constant "EZMode">` >> 8) & 0xff
        LCALL   `??HalLcdWriteString::?relay`; Banked call to: HalLcdWriteString
//  645 			#endif
//  646 
//  647       // NOT ZCL_EZMODE, use EndDeviceBind
//  648 			#else
//  649       zAddrType_t dstAddr;
//  650       HalLedSet ( HAL_LED_4, HAL_LED_MODE_OFF );
//  651 
//  652       // Initiate an End Device Bind Request, this bind request will
//  653       // only use a cluster list that is important to binding.
//  654       dstAddr.addrMode = afAddr16Bit;
//  655       dstAddr.addr.shortAddr = 0;   // Coordinator makes the match
//  656       ZDP_EndDeviceBindReq( &dstAddr, NLME_GetShortAddr(),
//  657                             SAMPLETHERMOSTAT_ENDPOINT,
//  658                             ZCL_HA_PROFILE_ID,
//  659                             ZCLSAMPLETHERMOSTAT_BINDINGLIST_IN, bindingInClusters,
//  660                             ZCLSAMPLETHERMOSTAT_BINDINGLIST_OUT, bindingOutClusters,
//  661                             TRUE );
//  662 			#endif // ZCL_EZMODE
//  663     }
//  664   }
//  665 
//  666   if ( keys & HAL_KEY_SW_4 )
??zclSampleThermostat_HandleKeys_1:
        MOV     A,?V2
        MOV     C,0xE0 /* A   */.3
        JNC     ??zclSampleThermostat_HandleKeys_10
//  667   {
//  668     giThermostatScreenMode = THERMOSTAT_MAINMODE;
        MOV     DPTR,#giThermostatScreenMode
        CLR     A
        MOVX    @DPTR,A
//  669 
//  670     if ( ( zclSampleThermostat_NwkState == DEV_ZB_COORD ) ||
//  671          ( zclSampleThermostat_NwkState == DEV_ROUTER ) )
        MOV     DPTR,#zclSampleThermostat_NwkState
        MOVX    A,@DPTR
        XRL     A,#0x9
        JZ      ??zclSampleThermostat_HandleKeys_11
        MOVX    A,@DPTR
        XRL     A,#0x7
        JNZ     ??zclSampleThermostat_HandleKeys_10
//  672     {
//  673       zAddrType_t tmpAddr;
//  674 
//  675       tmpAddr.addrMode = Addr16Bit;
??zclSampleThermostat_HandleKeys_11:
        MOV     A,#0x8
        LCALL   ?XSTACK_DISP0_8
        MOV     A,#0x2
        MOVX    @DPTR,A
//  676       tmpAddr.addr.shortAddr = NLME_GetShortAddr();
        ; Setup parameters for call to function NLME_GetShortAddr
        LCALL   `??NLME_GetShortAddr::?relay`; Banked call to: NLME_GetShortAddr
        MOV     DPL,?XSP + 0
        MOV     DPH,?XSP + 1
        MOV     A,R2
        MOVX    @DPTR,A
        INC     DPTR
        MOV     A,R3
        MOVX    @DPTR,A
//  677 
//  678       // toggle permit join
//  679       gPermitDuration = gPermitDuration ? 0 : 0xff;
        MOV     DPTR,#gPermitDuration
        MOVX    A,@DPTR
        JZ      ??zclSampleThermostat_HandleKeys_12
        CLR     A
        SJMP    ??zclSampleThermostat_HandleKeys_13
??zclSampleThermostat_HandleKeys_12:
        MOV     A,#-0x1
??zclSampleThermostat_HandleKeys_13:
        MOVX    @DPTR,A
//  680 
//  681       // Trust Center significance is always true
//  682       ZDP_MgmtPermitJoinReq( &tmpAddr, gPermitDuration, TRUE, FALSE );
        ; Setup parameters for call to function ZDP_MgmtPermitJoinReq
        MOV     R5,#0x0
        MOV     R4,#0x1
        MOVX    A,@DPTR
        MOV     R1,A
        MOV     R2,?XSP + 0
        MOV     R3,?XSP + 1
        LCALL   `??ZDP_MgmtPermitJoinReq::?relay`; Banked call to: ZDP_MgmtPermitJoinReq
//  683     }
//  684   }
//  685 
//  686   if ( shift && ( keys & HAL_KEY_SW_5 ) )
??zclSampleThermostat_HandleKeys_10:
        MOV     A,?V3
        JZ      ??zclSampleThermostat_HandleKeys_14
        MOV     A,?V2
        MOV     C,0xE0 /* A   */.2
        JNC     ??zclSampleThermostat_HandleKeys_14
//  687   {
//  688     zclSampleThermostat_BasicResetCB();
        ; Setup parameters for call to function zclSampleThermostat_BasicResetCB
        LCALL   `??zclSampleThermostat_BasicResetCB::?relay`; Banked call to: zclSampleThermostat_BasicResetCB
        SJMP    ??zclSampleThermostat_HandleKeys_15
//  689   }
//  690   else if ( keys & HAL_KEY_SW_5 )
//  691   {
//  692     if ( keys & HAL_KEY_SW_5 )
??zclSampleThermostat_HandleKeys_14:
        MOV     A,?V2
        MOV     C,0xE0 /* A   */.2
        JNC     ??zclSampleThermostat_HandleKeys_15
//  693     {
//  694       // in heating or cooling setpoint mode
//  695       if ( giThermostatScreenMode == THERMOSTAT_HEATMODE )
        MOV     DPTR,#giThermostatScreenMode
        MOVX    A,@DPTR
        XRL     A,#0x2
        JNZ     ??zclSampleThermostat_HandleKeys_16
//  696       {
//  697 				#ifdef LCD_SUPPORTED
//  698         // save current heat setpoint temperature
//  699         HalLcdWriteString( (char *)sStoreHeatTemp, HAL_LCD_LINE_2 );
        ; Setup parameters for call to function HalLcdWriteString
        MOV     R1,#0x2
        MOV     R2,#sStoreHeatTemp & 0xff
        MOV     R3,#(sStoreHeatTemp >> 8) & 0xff
        SJMP    ??zclSampleThermostat_HandleKeys_17
//  700 				#endif
//  701         giThermostatScreenMode = THERMOSTAT_MAINMODE;
//  702       }
//  703       else if ( giThermostatScreenMode == THERMOSTAT_COOLMODE )
??zclSampleThermostat_HandleKeys_16:
        MOVX    A,@DPTR
        XRL     A,#0x3
        JNZ     ??zclSampleThermostat_HandleKeys_18
//  704       {
//  705 				#ifdef LCD_SUPPORTED
//  706         // save current cool setpoint temperature
//  707         HalLcdWriteString( (char *)sStoreCoolTemp, HAL_LCD_LINE_2 );
        ; Setup parameters for call to function HalLcdWriteString
        MOV     R1,#0x2
        MOV     R2,#sStoreCoolTemp & 0xff
        MOV     R3,#(sStoreCoolTemp >> 8) & 0xff
        SJMP    ??zclSampleThermostat_HandleKeys_17
//  708 				#endif
//  709         giThermostatScreenMode = THERMOSTAT_MAINMODE;
//  710       }
//  711       else if ( giThermostatScreenMode == THERMOSTAT_MAINMODE )
??zclSampleThermostat_HandleKeys_18:
        MOVX    A,@DPTR
        JNZ     ??zclSampleThermostat_HandleKeys_19
//  712       {
//  713         giThermostatScreenMode = THERMOSTAT_HELPMODE;
        MOV     A,#0x1
        SJMP    ??zclSampleThermostat_HandleKeys_20
//  714       }
//  715       else if ( giThermostatScreenMode == THERMOSTAT_HELPMODE )
??zclSampleThermostat_HandleKeys_19:
        XRL     A,#0x1
        JNZ     ??zclSampleThermostat_HandleKeys_15
//  716       {
//  717 				#ifdef LCD_SUPPORTED
//  718         HalLcdWriteString( (char *)sClearLine, HAL_LCD_LINE_2 );
        ; Setup parameters for call to function HalLcdWriteString
        MOV     R1,#0x2
        MOV     R2,#sClearLine & 0xff
        MOV     R3,#(sClearLine >> 8) & 0xff
??zclSampleThermostat_HandleKeys_17:
        LCALL   `??HalLcdWriteString::?relay`; Banked call to: HalLcdWriteString
//  719 				#endif
//  720         giThermostatScreenMode = THERMOSTAT_MAINMODE;
        MOV     DPTR,#giThermostatScreenMode
        CLR     A
??zclSampleThermostat_HandleKeys_20:
        MOVX    @DPTR,A
//  721       }
//  722     }
//  723   }
//  724 
//  725   // update display
//  726   zclSampleThermostat_LcdDisplayUpdate();
??zclSampleThermostat_HandleKeys_15:
        ; Setup parameters for call to function zclSampleThermostat_LcdDisplayUpdate
        LCALL   `??zclSampleThermostat_LcdDisplayUpdate::?relay`; Banked call to: zclSampleThermostat_LcdDisplayUpdate
//  727 }
        MOV     A,#0xd
        LCALL   ?DEALLOC_XSTACK8
          CFI CFA_XSP16 add(XSP16, 16)
        MOV     R7,#0x8
        LJMP    ?BANKED_LEAVE_XDATA
          CFI EndBlock cfiBlock24
//  728 
//  729 /*********************************************************************
//  730  * @fn      zclSampleThermostat_LcdDisplayUpdate
//  731  *
//  732  * @brief   Called to update the LCD display.
//  733  *
//  734  * @param   none
//  735  *
//  736  * @return  none
//  737  */

        RSEG BANKED_CODE:HUGECODE:NOROOT(0)
//  738 void zclSampleThermostat_LcdDisplayUpdate( void )
zclSampleThermostat_LcdDisplayUpdate:
          CFI Block cfiBlock25 Using cfiCommon0
          CFI Function zclSampleThermostat_LcdDisplayUpdate
        CODE
//  739 {
        FUNCALL zclSampleThermostat_LcdDisplayUpdate, zclSampleThermostat_LcdDisplayHeatMode
        LOCFRAME ISTACK, 2, STACK
        LOCFRAME PSTACK, 0, STACK
        LOCFRAME XSTACK, 0, STACK
        LOCFRAME IOVERLAY, 0, STATIC
        LOCFRAME DOVERLAY, 0, STATIC
        ARGFRAME ISTACK, 2, STACK
        ARGFRAME PSTACK, 0, STACK
        ARGFRAME XSTACK, 0, STACK
        ARGFRAME IOVERLAY, 0, STATIC
        ARGFRAME DOVERLAY, 0, STATIC
        FUNCALL zclSampleThermostat_LcdDisplayUpdate, zclSampleThermostat_LcdDisplayCoolMode
        LOCFRAME ISTACK, 2, STACK
        LOCFRAME PSTACK, 0, STACK
        LOCFRAME XSTACK, 0, STACK
        LOCFRAME IOVERLAY, 0, STATIC
        LOCFRAME DOVERLAY, 0, STATIC
        ARGFRAME ISTACK, 2, STACK
        ARGFRAME PSTACK, 0, STACK
        ARGFRAME XSTACK, 0, STACK
        ARGFRAME IOVERLAY, 0, STATIC
        ARGFRAME DOVERLAY, 0, STATIC
        FUNCALL zclSampleThermostat_LcdDisplayUpdate, zclSampleThermostat_LcdDisplayHelpMode
        LOCFRAME ISTACK, 2, STACK
        LOCFRAME PSTACK, 0, STACK
        LOCFRAME XSTACK, 0, STACK
        LOCFRAME IOVERLAY, 0, STATIC
        LOCFRAME DOVERLAY, 0, STATIC
        ARGFRAME ISTACK, 2, STACK
        ARGFRAME PSTACK, 0, STACK
        ARGFRAME XSTACK, 0, STACK
        ARGFRAME IOVERLAY, 0, STATIC
        ARGFRAME DOVERLAY, 0, STATIC
        FUNCALL zclSampleThermostat_LcdDisplayUpdate, zclSampleThermostat_LcdDisplayMainMode
        LOCFRAME ISTACK, 2, STACK
        LOCFRAME PSTACK, 0, STACK
        LOCFRAME XSTACK, 0, STACK
        LOCFRAME IOVERLAY, 0, STATIC
        LOCFRAME DOVERLAY, 0, STATIC
        ARGFRAME ISTACK, 2, STACK
        ARGFRAME PSTACK, 0, STACK
        ARGFRAME XSTACK, 0, STACK
        ARGFRAME IOVERLAY, 0, STATIC
        ARGFRAME DOVERLAY, 0, STATIC
        PUSH    DPL
          CFI DPL0 Frame(CFA_SP, 4)
          CFI CFA_SP SP+-4
        PUSH    DPH
          CFI DPH0 Frame(CFA_SP, 5)
          CFI CFA_SP SP+-5
        ; Saved register size: 2
        ; Auto size: 0
//  740   // use LEDs to show heating or cooling cycles based off local temperature
//  741   if ( zclSampleThermostat_LocalTemperature != NULL )
        MOV     DPTR,#zclSampleThermostat_LocalTemperature
        LCALL   ??Subroutine30_0 & 0xFFFF
??CrossCallReturnLabel_54:
        JZ      ??zclSampleThermostat_LcdDisplayUpdate_0
//  742   {
//  743     if ( zclSampleThermostat_LocalTemperature <= zclSampleThermostat_OccupiedHeatingSetpoint )
        MOV     DPH,#(zclSampleThermostat_OccupiedHeatingSetpoint >> 8) & 0xff
        MOV     DPL,#zclSampleThermostat_OccupiedHeatingSetpoint & 0xff
        LCALL   ?Subroutine19 & 0xFFFF
??CrossCallReturnLabel_38:
        JC      ??zclSampleThermostat_LcdDisplayUpdate_1
//  744     {
//  745       // turn on heating
//  746       zclSampleThermostat_SystemMode = HVAC_THERMOSTAT_SYSTEM_MODE_HEAT;
        MOV     DPTR,#zclSampleThermostat_SystemMode
        MOV     A,#0x4
        SJMP    ??zclSampleThermostat_LcdDisplayUpdate_2
//  747 //      HalLedSet ( HAL_LED_1, HAL_LED_MODE_OFF );
//  748 //      HalLedSet ( HAL_LED_2, HAL_LED_MODE_ON );
//  749     }
//  750     else if ( zclSampleThermostat_LocalTemperature >= zclSampleThermostat_OccupiedCoolingSetpoint )
??zclSampleThermostat_LcdDisplayUpdate_1:
        MOV     DPTR,#zclSampleThermostat_OccupiedCoolingSetpoint
        LCALL   ?Subroutine22 & 0xFFFF
??CrossCallReturnLabel_42:
        MOV     DPH,#(zclSampleThermostat_LocalTemperature >> 8) & 0xff
        MOV     DPL,#zclSampleThermostat_LocalTemperature & 0xff
        LCALL   ?Subroutine19 & 0xFFFF
??CrossCallReturnLabel_39:
        MOV     DPTR,#zclSampleThermostat_SystemMode
        JC      ??zclSampleThermostat_LcdDisplayUpdate_3
//  751     {
//  752       // turn on cooling
//  753       zclSampleThermostat_SystemMode = HVAC_THERMOSTAT_SYSTEM_MODE_COOL;
        MOV     A,#0x3
        SJMP    ??zclSampleThermostat_LcdDisplayUpdate_2
//  754 //      HalLedSet ( HAL_LED_1, HAL_LED_MODE_ON );
//  755 //      HalLedSet ( HAL_LED_2, HAL_LED_MODE_OFF );
//  756     }
//  757     else
//  758     {
//  759       // turn off heating/cooling
//  760       zclSampleThermostat_SystemMode = HVAC_THERMOSTAT_SYSTEM_MODE_OFF;
??zclSampleThermostat_LcdDisplayUpdate_3:
        CLR     A
??zclSampleThermostat_LcdDisplayUpdate_2:
        MOVX    @DPTR,A
//  761 //      HalLedSet ( HAL_LED_1, HAL_LED_MODE_OFF );
//  762 //      HalLedSet ( HAL_LED_2, HAL_LED_MODE_OFF );
//  763     }
//  764   }
//  765 
//  766   if ( giThermostatScreenMode == THERMOSTAT_HEATMODE )
??zclSampleThermostat_LcdDisplayUpdate_0:
        MOV     DPTR,#giThermostatScreenMode
        MOVX    A,@DPTR
        XRL     A,#0x2
        JNZ     ??zclSampleThermostat_LcdDisplayUpdate_4
//  767   {
//  768     zclSampleThermostat_LcdDisplayHeatMode();
        ; Setup parameters for call to function zclSampleThermostat_LcdDisplayHeatMode
        LCALL   `??zclSampleThermostat_LcdDisplayHeatMode::?rela`; Banked call to: zclSampleThermostat_LcdDisplayHeatMode
        SJMP    ??zclSampleThermostat_LcdDisplayUpdate_5
//  769   }
//  770   else if ( giThermostatScreenMode == THERMOSTAT_COOLMODE )
??zclSampleThermostat_LcdDisplayUpdate_4:
        MOVX    A,@DPTR
        XRL     A,#0x3
        JNZ     ??zclSampleThermostat_LcdDisplayUpdate_6
//  771   {
//  772     zclSampleThermostat_LcdDisplayCoolMode();
        ; Setup parameters for call to function zclSampleThermostat_LcdDisplayCoolMode
        LCALL   `??zclSampleThermostat_LcdDisplayCoolMode::?rela`; Banked call to: zclSampleThermostat_LcdDisplayCoolMode
        SJMP    ??zclSampleThermostat_LcdDisplayUpdate_5
//  773   }
//  774   else if ( giThermostatScreenMode == THERMOSTAT_HELPMODE )
??zclSampleThermostat_LcdDisplayUpdate_6:
        MOVX    A,@DPTR
        XRL     A,#0x1
        JNZ     ??zclSampleThermostat_LcdDisplayUpdate_7
//  775   {
//  776     zclSampleThermostat_LcdDisplayHelpMode();
        ; Setup parameters for call to function zclSampleThermostat_LcdDisplayHelpMode
        LCALL   `??zclSampleThermostat_LcdDisplayHelpMode::?rela`; Banked call to: zclSampleThermostat_LcdDisplayHelpMode
        SJMP    ??zclSampleThermostat_LcdDisplayUpdate_5
//  777   }
//  778   else
//  779   {
//  780     zclSampleThermostat_LcdDisplayMainMode();
??zclSampleThermostat_LcdDisplayUpdate_7:
        ; Setup parameters for call to function zclSampleThermostat_LcdDisplayMainMode
        LCALL   `??zclSampleThermostat_LcdDisplayMainMode::?rela`; Banked call to: zclSampleThermostat_LcdDisplayMainMode
//  781   }
//  782 }
??zclSampleThermostat_LcdDisplayUpdate_5:
        LJMP    ??Subroutine32_0 & 0xFFFF
          CFI EndBlock cfiBlock25

        RSEG BANKED_CODE:HUGECODE:NOROOT(0)
?Subroutine19:
          CFI Block cfiCond26 Using cfiCommon0
          CFI Function zclSampleThermostat_LcdDisplayUpdate
          CFI Conditional ??CrossCallReturnLabel_38
          CFI DPL0 Frame(CFA_SP, 4)
          CFI DPH0 Frame(CFA_SP, 5)
          CFI CFA_SP SP+-7
          CFI Block cfiCond27 Using cfiCommon0
          CFI (cfiCond27) Function zclSampleThermostat_LcdDisplayUpdate
          CFI (cfiCond27) Conditional ??CrossCallReturnLabel_39
          CFI (cfiCond27) DPL0 Frame(CFA_SP, 4)
          CFI (cfiCond27) DPH0 Frame(CFA_SP, 5)
          CFI (cfiCond27) CFA_SP SP+-7
          CFI Block cfiPicker28 Using cfiCommon1
          CFI (cfiPicker28) NoFunction
          CFI (cfiPicker28) Picker
        CLR     C
        MOVX    A,@DPTR
        SUBB    A,R0
        INC     DPTR
        MOVX    A,@DPTR
        SUBB    A,R1
        MOV     C,0xD0 /* PSW */.2
        XRL     A,PSW
        RLC     A
        RET
          CFI EndBlock cfiCond26
          CFI EndBlock cfiCond27
          CFI EndBlock cfiPicker28
//  783 
//  784 /*********************************************************************
//  785  * @fn      zclSampleThermostat_LcdDisplayMainMode
//  786  *
//  787  * @brief   Called to display the main screen on the LCD.
//  788  *
//  789  * @param   none
//  790  *
//  791  * @return  none
//  792  */

        RSEG BANKED_CODE:HUGECODE:NOROOT(0)
//  793 void zclSampleThermostat_LcdDisplayMainMode( void )
zclSampleThermostat_LcdDisplayMainMode:
          CFI Block cfiBlock29 Using cfiCommon0
          CFI Function zclSampleThermostat_LcdDisplayMainMode
        CODE
//  794 {
        FUNCALL zclSampleThermostat_LcdDisplayMainMode, zclHA_LcdStatusLine1
        LOCFRAME ISTACK, 0, STACK
        LOCFRAME PSTACK, 0, STACK
        LOCFRAME XSTACK, 27, STACK
        LOCFRAME IOVERLAY, 0, STATIC
        LOCFRAME DOVERLAY, 0, STATIC
        ARGFRAME ISTACK, 0, STACK
        ARGFRAME PSTACK, 0, STACK
        ARGFRAME XSTACK, 27, STACK
        ARGFRAME IOVERLAY, 0, STATIC
        ARGFRAME DOVERLAY, 0, STATIC
        FUNCALL zclSampleThermostat_LcdDisplayMainMode, zclHA_LcdStatusLine1
        LOCFRAME ISTACK, 0, STACK
        LOCFRAME PSTACK, 0, STACK
        LOCFRAME XSTACK, 27, STACK
        LOCFRAME IOVERLAY, 0, STATIC
        LOCFRAME DOVERLAY, 0, STATIC
        ARGFRAME ISTACK, 0, STACK
        ARGFRAME PSTACK, 0, STACK
        ARGFRAME XSTACK, 27, STACK
        ARGFRAME IOVERLAY, 0, STATIC
        ARGFRAME DOVERLAY, 0, STATIC
        FUNCALL zclSampleThermostat_LcdDisplayMainMode, zclHA_LcdStatusLine1
        LOCFRAME ISTACK, 0, STACK
        LOCFRAME PSTACK, 0, STACK
        LOCFRAME XSTACK, 27, STACK
        LOCFRAME IOVERLAY, 0, STATIC
        LOCFRAME DOVERLAY, 0, STATIC
        ARGFRAME ISTACK, 0, STACK
        ARGFRAME PSTACK, 0, STACK
        ARGFRAME XSTACK, 27, STACK
        ARGFRAME IOVERLAY, 0, STATIC
        ARGFRAME DOVERLAY, 0, STATIC
        FUNCALL zclSampleThermostat_LcdDisplayMainMode, osal_memcpy
        LOCFRAME ISTACK, 0, STACK
        LOCFRAME PSTACK, 0, STACK
        LOCFRAME XSTACK, 30, STACK
        LOCFRAME IOVERLAY, 0, STATIC
        LOCFRAME DOVERLAY, 0, STATIC
        ARGFRAME ISTACK, 0, STACK
        ARGFRAME PSTACK, 0, STACK
        ARGFRAME XSTACK, 30, STACK
        ARGFRAME IOVERLAY, 0, STATIC
        ARGFRAME DOVERLAY, 0, STATIC
        FUNCALL zclSampleThermostat_LcdDisplayMainMode, osal_memcpy
        LOCFRAME ISTACK, 0, STACK
        LOCFRAME PSTACK, 0, STACK
        LOCFRAME XSTACK, 30, STACK
        LOCFRAME IOVERLAY, 0, STATIC
        LOCFRAME DOVERLAY, 0, STATIC
        ARGFRAME ISTACK, 0, STACK
        ARGFRAME PSTACK, 0, STACK
        ARGFRAME XSTACK, 30, STACK
        ARGFRAME IOVERLAY, 0, STATIC
        ARGFRAME DOVERLAY, 0, STATIC
        FUNCALL zclSampleThermostat_LcdDisplayMainMode, _ltoa
        LOCFRAME ISTACK, 0, STACK
        LOCFRAME PSTACK, 0, STACK
        LOCFRAME XSTACK, 29, STACK
        LOCFRAME IOVERLAY, 0, STATIC
        LOCFRAME DOVERLAY, 0, STATIC
        ARGFRAME ISTACK, 0, STACK
        ARGFRAME PSTACK, 0, STACK
        ARGFRAME XSTACK, 29, STACK
        ARGFRAME IOVERLAY, 0, STATIC
        ARGFRAME DOVERLAY, 0, STATIC
        FUNCALL zclSampleThermostat_LcdDisplayMainMode, osal_memcpy
        LOCFRAME ISTACK, 0, STACK
        LOCFRAME PSTACK, 0, STACK
        LOCFRAME XSTACK, 30, STACK
        LOCFRAME IOVERLAY, 0, STATIC
        LOCFRAME DOVERLAY, 0, STATIC
        ARGFRAME ISTACK, 0, STACK
        ARGFRAME PSTACK, 0, STACK
        ARGFRAME XSTACK, 30, STACK
        ARGFRAME IOVERLAY, 0, STATIC
        ARGFRAME DOVERLAY, 0, STATIC
        FUNCALL zclSampleThermostat_LcdDisplayMainMode, HalLcdWriteString
        LOCFRAME ISTACK, 0, STACK
        LOCFRAME PSTACK, 0, STACK
        LOCFRAME XSTACK, 27, STACK
        LOCFRAME IOVERLAY, 0, STATIC
        LOCFRAME DOVERLAY, 0, STATIC
        ARGFRAME ISTACK, 0, STACK
        ARGFRAME PSTACK, 0, STACK
        ARGFRAME XSTACK, 27, STACK
        ARGFRAME IOVERLAY, 0, STATIC
        ARGFRAME DOVERLAY, 0, STATIC
        FUNCALL zclSampleThermostat_LcdDisplayMainMode, HalLcdWriteString
        LOCFRAME ISTACK, 0, STACK
        LOCFRAME PSTACK, 0, STACK
        LOCFRAME XSTACK, 27, STACK
        LOCFRAME IOVERLAY, 0, STATIC
        LOCFRAME DOVERLAY, 0, STATIC
        ARGFRAME ISTACK, 0, STACK
        ARGFRAME PSTACK, 0, STACK
        ARGFRAME XSTACK, 27, STACK
        ARGFRAME IOVERLAY, 0, STATIC
        ARGFRAME DOVERLAY, 0, STATIC
        FUNCALL zclSampleThermostat_LcdDisplayMainMode, HalLcdWriteString
        LOCFRAME ISTACK, 0, STACK
        LOCFRAME PSTACK, 0, STACK
        LOCFRAME XSTACK, 27, STACK
        LOCFRAME IOVERLAY, 0, STATIC
        LOCFRAME DOVERLAY, 0, STATIC
        ARGFRAME ISTACK, 0, STACK
        ARGFRAME PSTACK, 0, STACK
        ARGFRAME XSTACK, 27, STACK
        ARGFRAME IOVERLAY, 0, STATIC
        ARGFRAME DOVERLAY, 0, STATIC
        FUNCALL zclSampleThermostat_LcdDisplayMainMode, HalLcdWriteString
        LOCFRAME ISTACK, 0, STACK
        LOCFRAME PSTACK, 0, STACK
        LOCFRAME XSTACK, 27, STACK
        LOCFRAME IOVERLAY, 0, STATIC
        LOCFRAME DOVERLAY, 0, STATIC
        ARGFRAME ISTACK, 0, STACK
        ARGFRAME PSTACK, 0, STACK
        ARGFRAME XSTACK, 27, STACK
        ARGFRAME IOVERLAY, 0, STATIC
        ARGFRAME DOVERLAY, 0, STATIC
        REQUIRE ?V0
        REQUIRE ?V1
        REQUIRE ?V2
        MOV     A,#-0xb
        LCALL   ?BANKED_ENTER_XDATA
          CFI DPH0 load(1, XDATA, add(CFA_XSP16, literal(-1)))
          CFI DPL0 load(1, XDATA, add(CFA_XSP16, literal(-2)))
          CFI ?BRET_EXT load(1, XDATA, add(CFA_XSP16, literal(-3)))
          CFI ?RET_HIGH load(1, XDATA, add(CFA_XSP16, literal(-4)))
          CFI ?RET_LOW load(1, XDATA, add(CFA_XSP16, literal(-5)))
          CFI R7 load(1, XDATA, add(CFA_XSP16, literal(-6)))
          CFI V2 load(1, XDATA, add(CFA_XSP16, literal(-7)))
          CFI V1 load(1, XDATA, add(CFA_XSP16, literal(-8)))
          CFI V0 load(1, XDATA, add(CFA_XSP16, literal(-9)))
          CFI VB load(1, XDATA, add(CFA_XSP16, literal(-10)))
          CFI R6 load(1, XDATA, add(CFA_XSP16, literal(-11)))
          CFI CFA_SP SP+0
          CFI CFA_XSP16 add(XSP16, 11)
        ; Saved register size: 11
        ; Auto size: 16
        MOV     A,#-0x10
        LCALL   ?ALLOC_XSTACK8
          CFI CFA_XSP16 add(XSP16, 27)
//  795   char sDisplayTemp[16];
//  796 
//  797   if ( zclSampleThermostat_NwkState == DEV_ZB_COORD )
        MOV     DPTR,#zclSampleThermostat_NwkState
        MOVX    A,@DPTR
        XRL     A,#0x9
        JNZ     ??zclSampleThermostat_LcdDisplayMainMode_0
//  798   {
//  799     zclHA_LcdStatusLine1( 0 );
        ; Setup parameters for call to function zclHA_LcdStatusLine1
        MOV     R1,#0x0
        SJMP    ??zclSampleThermostat_LcdDisplayMainMode_1
//  800   }
//  801   else if ( zclSampleThermostat_NwkState == DEV_ROUTER )
??zclSampleThermostat_LcdDisplayMainMode_0:
        MOVX    A,@DPTR
        XRL     A,#0x7
        JNZ     ??zclSampleThermostat_LcdDisplayMainMode_2
//  802   {
//  803     zclHA_LcdStatusLine1( 1 );
        ; Setup parameters for call to function zclHA_LcdStatusLine1
        MOV     R1,#0x1
        SJMP    ??zclSampleThermostat_LcdDisplayMainMode_1
//  804   }
//  805   else if ( zclSampleThermostat_NwkState == DEV_END_DEVICE )
??zclSampleThermostat_LcdDisplayMainMode_2:
        MOVX    A,@DPTR
        XRL     A,#0x6
        JNZ     ??zclSampleThermostat_LcdDisplayMainMode_3
//  806   {
//  807     zclHA_LcdStatusLine1( 2 );
        ; Setup parameters for call to function zclHA_LcdStatusLine1
        MOV     R1,#0x2
??zclSampleThermostat_LcdDisplayMainMode_1:
        LCALL   `??zclHA_LcdStatusLine1::?relay`; Banked call to: zclHA_LcdStatusLine1
//  808   }
//  809 
//  810   osal_memcpy( sDisplayTemp, "TEMP: ", 6 );
??zclSampleThermostat_LcdDisplayMainMode_3:
        ; Setup parameters for call to function osal_memcpy
        MOV     ?V0,#`?<Constant "TEMP: ">` & 0xff
        MOV     ?V1,#(`?<Constant "TEMP: ">` >> 8) & 0xff
        MOV     ?V2,#0x0
        MOV     R0,#?V0
        LCALL   ?PUSH_XSTACK_I_THREE
          CFI CFA_XSP16 add(XSP16, 30)
        MOV     R4,#0x6
        MOV     R5,#0x0
        MOV     A,#0x3
        LCALL   ?XSTACK_DISP101_8
        LCALL   `??osal_memcpy::?relay`; Banked call to: osal_memcpy
        MOV     A,#0x3
        LCALL   ?DEALLOC_XSTACK8
          CFI CFA_XSP16 add(XSP16, 27)
//  811 
//  812   // if local temperature has not been set, make note on display
//  813   if ( zclSampleThermostat_LocalTemperature == NULL )
        MOV     DPTR,#zclSampleThermostat_LocalTemperature
        LCALL   ??Subroutine30_0 & 0xFFFF
??CrossCallReturnLabel_55:
        JNZ     ??zclSampleThermostat_LcdDisplayMainMode_4
//  814   {
//  815     osal_memcpy( &sDisplayTemp[6], "N/A", 4 );
        ; Setup parameters for call to function osal_memcpy
        MOV     ?V0,#`?<Constant "N/A">` & 0xff
        MOV     ?V1,#(`?<Constant "N/A">` >> 8) & 0xff
        MOV     R0,#?V0
        LCALL   ?PUSH_XSTACK_I_THREE
          CFI CFA_XSP16 add(XSP16, 30)
        MOV     R4,#0x4
        MOV     R5,#0x0
        MOV     A,#0x9
        SJMP    ??zclSampleThermostat_LcdDisplayMainMode_5
          CFI CFA_XSP16 add(XSP16, 27)
//  816   }
//  817   else
//  818   {
//  819     _ltoa( ( zclSampleThermostat_LocalTemperature / 100 ), (void *)(&sDisplayTemp[6]), 10 ); // only use whole number
??zclSampleThermostat_LcdDisplayMainMode_4:
        ; Setup parameters for call to function _ltoa
        MOV     A,#0x6
        LCALL   ?XSTACK_DISP0_8
        MOV     ?V0,DPL
        MOV     ?V1,DPH
        MOV     R0,#?V0
        LCALL   ?PUSH_XSTACK_I_TWO
          CFI CFA_XSP16 add(XSP16, 29)
        MOV     DPTR,#zclSampleThermostat_LocalTemperature
        LCALL   ?Subroutine21 & 0xFFFF
??CrossCallReturnLabel_40:
        LCALL   ?S_DIV_MOD
        MOV     A,R0
        MOV     R2,A
        MOV     A,R1
        MOV     R3,A
        RLC     A
        SUBB    A,0xE0 /* A   */
        MOV     R4,A
        MOV     R5,A
        MOV     R1,#0xa
        LCALL   `??_ltoa::?relay`    ; Banked call to: _ltoa
        MOV     A,#0x2
        LCALL   ?DEALLOC_XSTACK8
          CFI CFA_XSP16 add(XSP16, 27)
//  820     osal_memcpy( &sDisplayTemp[8], "C", 2 );
        ; Setup parameters for call to function osal_memcpy
        MOV     ?V0,#`?<Constant "C">` & 0xff
        MOV     ?V1,#(`?<Constant "C">` >> 8) & 0xff
        MOV     R0,#?V0
        LCALL   ?PUSH_XSTACK_I_THREE
          CFI CFA_XSP16 add(XSP16, 30)
        MOV     R4,#0x2
        MOV     R5,#0x0
        MOV     A,#0xb
??zclSampleThermostat_LcdDisplayMainMode_5:
        LCALL   ?XSTACK_DISP0_8
        MOV     R2,DPL
        MOV     R3,DPH
        LCALL   `??osal_memcpy::?relay`; Banked call to: osal_memcpy
        MOV     A,#0x3
        LCALL   ?DEALLOC_XSTACK8
          CFI CFA_XSP16 add(XSP16, 27)
//  821   }
//  822 #ifdef LCD_SUPPORTED
//  823   // display current temperature
//  824   HalLcdWriteString( (char *)sDisplayTemp, HAL_LCD_LINE_2 );
        ; Setup parameters for call to function HalLcdWriteString
        MOV     R1,#0x2
        MOV     R2,?XSP + 0
        MOV     R3,?XSP + 1
        LCALL   `??HalLcdWriteString::?relay`; Banked call to: HalLcdWriteString
//  825 #endif
//  826 
//  827 #ifdef LCD_SUPPORTED
//  828   if ( ( zclSampleThermostat_NwkState == DEV_ZB_COORD ) ||
//  829        ( zclSampleThermostat_NwkState == DEV_ROUTER ) )
        MOV     DPTR,#zclSampleThermostat_NwkState
        MOVX    A,@DPTR
        XRL     A,#0x9
        JZ      ??zclSampleThermostat_LcdDisplayMainMode_6
        MOVX    A,@DPTR
        XRL     A,#0x7
        JNZ     ??zclSampleThermostat_LcdDisplayMainMode_7
//  830   {
//  831     // display help key with permit join status
//  832     if ( gPermitDuration )
??zclSampleThermostat_LcdDisplayMainMode_6:
        MOV     DPTR,#gPermitDuration
        MOVX    A,@DPTR
        MOV     R1,#0x3
        JZ      ??zclSampleThermostat_LcdDisplayMainMode_8
//  833     {
//  834       HalLcdWriteString( "SW5: Help      *", HAL_LCD_LINE_3 );
        ; Setup parameters for call to function HalLcdWriteString
        MOV     R2,#`?<Constant "SW5: Help      *">` & 0xff
        MOV     R3,#(`?<Constant "SW5: Help      *">` >> 8) & 0xff
        SJMP    ??zclSampleThermostat_LcdDisplayMainMode_9
//  835     }
//  836     else
//  837     {
//  838       HalLcdWriteString( "SW5: Help       ", HAL_LCD_LINE_3 );
??zclSampleThermostat_LcdDisplayMainMode_8:
        ; Setup parameters for call to function HalLcdWriteString
        MOV     R2,#`?<Constant "SW5: Help       ">` & 0xff
        MOV     R3,#(`?<Constant "SW5: Help       ">` >> 8) & 0xff
        SJMP    ??zclSampleThermostat_LcdDisplayMainMode_9
//  839     }
//  840   }
//  841   else
//  842   {
//  843     // display help key
//  844     HalLcdWriteString( (char *)sSwHelp, HAL_LCD_LINE_3);
??zclSampleThermostat_LcdDisplayMainMode_7:
        ; Setup parameters for call to function HalLcdWriteString
        MOV     R1,#0x3
        MOV     R2,#sSwHelp & 0xff
        MOV     R3,#(sSwHelp >> 8) & 0xff
//  845   }
??zclSampleThermostat_LcdDisplayMainMode_9:
        LJMP    ??Subroutine33_0 & 0xFFFF
//  846 #endif
//  847 }
          CFI EndBlock cfiBlock29
//  848 
//  849 /*********************************************************************
//  850  * @fn      zclSampleThermostat_LcdDisplayHelpMode
//  851  *
//  852  * @brief   Called to display the SW options on the LCD.
//  853  *
//  854  * @param   none
//  855  *
//  856  * @return  none
//  857  */

        RSEG BANKED_CODE:HUGECODE:NOROOT(0)
//  858 void zclSampleThermostat_LcdDisplayHelpMode( void )
zclSampleThermostat_LcdDisplayHelpMode:
          CFI Block cfiBlock30 Using cfiCommon0
          CFI Function zclSampleThermostat_LcdDisplayHelpMode
        CODE
//  859 {
        FUNCALL zclSampleThermostat_LcdDisplayHelpMode, HalLcdWriteString
        LOCFRAME ISTACK, 2, STACK
        LOCFRAME PSTACK, 0, STACK
        LOCFRAME XSTACK, 0, STACK
        LOCFRAME IOVERLAY, 0, STATIC
        LOCFRAME DOVERLAY, 0, STATIC
        ARGFRAME ISTACK, 2, STACK
        ARGFRAME PSTACK, 0, STACK
        ARGFRAME XSTACK, 0, STACK
        ARGFRAME IOVERLAY, 0, STATIC
        ARGFRAME DOVERLAY, 0, STATIC
        FUNCALL zclSampleThermostat_LcdDisplayHelpMode, HalLcdWriteString
        LOCFRAME ISTACK, 2, STACK
        LOCFRAME PSTACK, 0, STACK
        LOCFRAME XSTACK, 0, STACK
        LOCFRAME IOVERLAY, 0, STATIC
        LOCFRAME DOVERLAY, 0, STATIC
        ARGFRAME ISTACK, 2, STACK
        ARGFRAME PSTACK, 0, STACK
        ARGFRAME XSTACK, 0, STACK
        ARGFRAME IOVERLAY, 0, STATIC
        ARGFRAME DOVERLAY, 0, STATIC
        FUNCALL zclSampleThermostat_LcdDisplayHelpMode, HalLcdWriteString
        LOCFRAME ISTACK, 2, STACK
        LOCFRAME PSTACK, 0, STACK
        LOCFRAME XSTACK, 0, STACK
        LOCFRAME IOVERLAY, 0, STATIC
        LOCFRAME DOVERLAY, 0, STATIC
        ARGFRAME ISTACK, 2, STACK
        ARGFRAME PSTACK, 0, STACK
        ARGFRAME XSTACK, 0, STACK
        ARGFRAME IOVERLAY, 0, STATIC
        ARGFRAME DOVERLAY, 0, STATIC
        PUSH    DPL
          CFI DPL0 Frame(CFA_SP, 4)
          CFI CFA_SP SP+-4
        PUSH    DPH
          CFI DPH0 Frame(CFA_SP, 5)
          CFI CFA_SP SP+-5
        ; Saved register size: 2
        ; Auto size: 0
//  860 #ifdef LCD_SUPPORTED
//  861   HalLcdWriteString( (char *)sSwHeatSet, HAL_LCD_LINE_1 );
        ; Setup parameters for call to function HalLcdWriteString
        MOV     R1,#0x1
        MOV     R2,#sSwHeatSet & 0xff
        MOV     R3,#(sSwHeatSet >> 8) & 0xff
        LCALL   `??HalLcdWriteString::?relay`; Banked call to: HalLcdWriteString
//  862   HalLcdWriteString( (char *)sSwEZMode, HAL_LCD_LINE_2 );
        ; Setup parameters for call to function HalLcdWriteString
        MOV     R1,#0x2
        MOV     R2,#sSwEZMode & 0xff
        MOV     R3,#(sSwEZMode >> 8) & 0xff
        LCALL   `??HalLcdWriteString::?relay`; Banked call to: HalLcdWriteString
//  863   HalLcdWriteString( (char *)sSwCoolSet, HAL_LCD_LINE_3 );
        ; Setup parameters for call to function HalLcdWriteString
        MOV     R1,#0x3
        MOV     R2,#sSwCoolSet & 0xff
        MOV     R3,#(sSwCoolSet >> 8) & 0xff
        LCALL   `??HalLcdWriteString::?relay`; Banked call to: HalLcdWriteString
//  864 #endif
//  865 }
        SJMP    ??Subroutine32_0
          CFI EndBlock cfiBlock30

        RSEG BANKED_CODE:HUGECODE:NOROOT(0)
?Subroutine0:
          CFI Block cfiBlock31 Using cfiCommon0
          CFI NoFunction
          CFI CFA_SP SP+-5
          CFI CFA_XSP16 add(XSP16, 2)
          CFI DPL0 Frame(CFA_SP, 4)
          CFI DPH0 Frame(CFA_SP, 5)
          CFI Invalid
        LCALL   ?DEALLOC_XSTACK8
          CFI EndBlock cfiBlock31
        REQUIRE ??Subroutine32_0
        ; // Fall through to label ??Subroutine32_0

        RSEG BANKED_CODE:HUGECODE:NOROOT(0)
??Subroutine32_0:
          CFI Block cfiBlock32 Using cfiCommon0
          CFI NoFunction
          CFI CFA_SP SP+-5
          CFI DPL0 Frame(CFA_SP, 4)
          CFI DPH0 Frame(CFA_SP, 5)
        POP     DPH
          CFI CFA_SP SP+-4
          CFI DPH0 SameValue
        POP     DPL
          CFI CFA_SP SP+-3
          CFI DPL0 SameValue
        LJMP    ?BRET
          CFI EndBlock cfiBlock32
//  866 
//  867 /*********************************************************************
//  868  * @fn      zclSampleThermostat_LcdDisplayHeatMode
//  869  *
//  870  * @brief   Called to display the heating setpoint temperature on the LCD.
//  871  *
//  872  * @param   none
//  873  *
//  874  * @return  none
//  875  */

        RSEG BANKED_CODE:HUGECODE:NOROOT(0)
//  876 void zclSampleThermostat_LcdDisplayHeatMode( void )
zclSampleThermostat_LcdDisplayHeatMode:
          CFI Block cfiBlock33 Using cfiCommon0
          CFI Function zclSampleThermostat_LcdDisplayHeatMode
        CODE
//  877 {
        FUNCALL zclSampleThermostat_LcdDisplayHeatMode, osal_memcpy
        LOCFRAME ISTACK, 0, STACK
        LOCFRAME PSTACK, 0, STACK
        LOCFRAME XSTACK, 30, STACK
        LOCFRAME IOVERLAY, 0, STATIC
        LOCFRAME DOVERLAY, 0, STATIC
        ARGFRAME ISTACK, 0, STACK
        ARGFRAME PSTACK, 0, STACK
        ARGFRAME XSTACK, 30, STACK
        ARGFRAME IOVERLAY, 0, STATIC
        ARGFRAME DOVERLAY, 0, STATIC
        FUNCALL zclSampleThermostat_LcdDisplayHeatMode, _ltoa
        LOCFRAME ISTACK, 0, STACK
        LOCFRAME PSTACK, 0, STACK
        LOCFRAME XSTACK, 29, STACK
        LOCFRAME IOVERLAY, 0, STATIC
        LOCFRAME DOVERLAY, 0, STATIC
        ARGFRAME ISTACK, 0, STACK
        ARGFRAME PSTACK, 0, STACK
        ARGFRAME XSTACK, 29, STACK
        ARGFRAME IOVERLAY, 0, STATIC
        ARGFRAME DOVERLAY, 0, STATIC
        FUNCALL zclSampleThermostat_LcdDisplayHeatMode, osal_memcpy
        LOCFRAME ISTACK, 0, STACK
        LOCFRAME PSTACK, 0, STACK
        LOCFRAME XSTACK, 30, STACK
        LOCFRAME IOVERLAY, 0, STATIC
        LOCFRAME DOVERLAY, 0, STATIC
        ARGFRAME ISTACK, 0, STACK
        ARGFRAME PSTACK, 0, STACK
        ARGFRAME XSTACK, 30, STACK
        ARGFRAME IOVERLAY, 0, STATIC
        ARGFRAME DOVERLAY, 0, STATIC
        FUNCALL zclSampleThermostat_LcdDisplayHeatMode, HalLcdWriteString
        LOCFRAME ISTACK, 0, STACK
        LOCFRAME PSTACK, 0, STACK
        LOCFRAME XSTACK, 27, STACK
        LOCFRAME IOVERLAY, 0, STATIC
        LOCFRAME DOVERLAY, 0, STATIC
        ARGFRAME ISTACK, 0, STACK
        ARGFRAME PSTACK, 0, STACK
        ARGFRAME XSTACK, 27, STACK
        ARGFRAME IOVERLAY, 0, STATIC
        ARGFRAME DOVERLAY, 0, STATIC
        FUNCALL zclSampleThermostat_LcdDisplayHeatMode, HalLcdWriteString
        LOCFRAME ISTACK, 0, STACK
        LOCFRAME PSTACK, 0, STACK
        LOCFRAME XSTACK, 27, STACK
        LOCFRAME IOVERLAY, 0, STATIC
        LOCFRAME DOVERLAY, 0, STATIC
        ARGFRAME ISTACK, 0, STACK
        ARGFRAME PSTACK, 0, STACK
        ARGFRAME XSTACK, 27, STACK
        ARGFRAME IOVERLAY, 0, STATIC
        ARGFRAME DOVERLAY, 0, STATIC
        FUNCALL zclSampleThermostat_LcdDisplayHeatMode, HalLcdWriteString
        LOCFRAME ISTACK, 0, STACK
        LOCFRAME PSTACK, 0, STACK
        LOCFRAME XSTACK, 27, STACK
        LOCFRAME IOVERLAY, 0, STATIC
        LOCFRAME DOVERLAY, 0, STATIC
        ARGFRAME ISTACK, 0, STACK
        ARGFRAME PSTACK, 0, STACK
        ARGFRAME XSTACK, 27, STACK
        ARGFRAME IOVERLAY, 0, STATIC
        ARGFRAME DOVERLAY, 0, STATIC
        REQUIRE ?V0
        REQUIRE ?V1
        REQUIRE ?V2
        MOV     A,#-0xb
        LCALL   ?BANKED_ENTER_XDATA
          CFI DPH0 load(1, XDATA, add(CFA_XSP16, literal(-1)))
          CFI DPL0 load(1, XDATA, add(CFA_XSP16, literal(-2)))
          CFI ?BRET_EXT load(1, XDATA, add(CFA_XSP16, literal(-3)))
          CFI ?RET_HIGH load(1, XDATA, add(CFA_XSP16, literal(-4)))
          CFI ?RET_LOW load(1, XDATA, add(CFA_XSP16, literal(-5)))
          CFI R7 load(1, XDATA, add(CFA_XSP16, literal(-6)))
          CFI V2 load(1, XDATA, add(CFA_XSP16, literal(-7)))
          CFI V1 load(1, XDATA, add(CFA_XSP16, literal(-8)))
          CFI V0 load(1, XDATA, add(CFA_XSP16, literal(-9)))
          CFI VB load(1, XDATA, add(CFA_XSP16, literal(-10)))
          CFI R6 load(1, XDATA, add(CFA_XSP16, literal(-11)))
          CFI CFA_SP SP+0
          CFI CFA_XSP16 add(XSP16, 11)
        ; Saved register size: 11
        ; Auto size: 16
        MOV     A,#-0x10
        LCALL   ?ALLOC_XSTACK8
          CFI CFA_XSP16 add(XSP16, 27)
//  878 #ifdef LCD_SUPPORTED
//  879   char sDisplayTemp[16];
//  880 
//  881   osal_memcpy( sDisplayTemp, "HEAT TEMP: ", 11 );
        ; Setup parameters for call to function osal_memcpy
        MOV     ?V0,#`?<Constant "HEAT TEMP: ">` & 0xff
        MOV     ?V1,#(`?<Constant "HEAT TEMP: ">` >> 8) & 0xff
        MOV     ?V2,#0x0
        MOV     R0,#?V0
        LCALL   ?PUSH_XSTACK_I_THREE
          CFI CFA_XSP16 add(XSP16, 30)
        MOV     R4,#0xb
        MOV     R5,#0x0
        MOV     A,#0x3
        LCALL   ?XSTACK_DISP101_8
        LCALL   `??osal_memcpy::?relay`; Banked call to: osal_memcpy
        MOV     A,#0x3
        LCALL   ?DEALLOC_XSTACK8
          CFI CFA_XSP16 add(XSP16, 27)
//  882   _ltoa( ( zclSampleThermostat_OccupiedHeatingSetpoint / 100 ), (void *)(&sDisplayTemp[11]), 10 ); // only use whole number
        ; Setup parameters for call to function _ltoa
        MOV     A,#0xb
        LCALL   ?XSTACK_DISP0_8
        MOV     ?V0,DPL
        MOV     ?V1,DPH
        MOV     R0,#?V0
        LCALL   ?PUSH_XSTACK_I_TWO
          CFI CFA_XSP16 add(XSP16, 29)
        MOV     DPTR,#zclSampleThermostat_OccupiedHeatingSetpoint
          CFI EndBlock cfiBlock33
        REQUIRE ?Subroutine1
        ; // Fall through to label ?Subroutine1
//  883   osal_memcpy( &sDisplayTemp[13], "C", 2 );
//  884 
//  885   HalLcdWriteString( (char *)sDisplayTemp, HAL_LCD_LINE_1 );
//  886   HalLcdWriteString( (char *)sTempLine2, HAL_LCD_LINE_2 );
//  887   HalLcdWriteString( (char *)sTempLine3, HAL_LCD_LINE_3 );
//  888 #endif
//  889 }

        RSEG BANKED_CODE:HUGECODE:NOROOT(0)
?Subroutine1:
          CFI Block cfiBlock34 Using cfiCommon0
          CFI NoFunction
          CFI CFA_SP SP+0
          CFI CFA_XSP16 add(XSP16, 29)
          CFI VB load(1, XDATA, add(CFA_XSP16, literal(-10)))
          CFI DPL0 load(1, XDATA, add(CFA_XSP16, literal(-2)))
          CFI DPH0 load(1, XDATA, add(CFA_XSP16, literal(-1)))
          CFI R6 load(1, XDATA, add(CFA_XSP16, literal(-11)))
          CFI R7 load(1, XDATA, add(CFA_XSP16, literal(-6)))
          CFI V0 load(1, XDATA, add(CFA_XSP16, literal(-9)))
          CFI V1 load(1, XDATA, add(CFA_XSP16, literal(-8)))
          CFI V2 load(1, XDATA, add(CFA_XSP16, literal(-7)))
          CFI ?BRET_EXT load(1, XDATA, add(CFA_XSP16, literal(-3)))
          CFI ?RET_HIGH load(1, XDATA, add(CFA_XSP16, literal(-4)))
          CFI ?RET_LOW load(1, XDATA, add(CFA_XSP16, literal(-5)))
        LCALL   ?Subroutine21 & 0xFFFF
??CrossCallReturnLabel_41:
        LCALL   ?S_DIV_MOD
        MOV     A,R0
        MOV     R2,A
        MOV     A,R1
        MOV     R3,A
        RLC     A
        SUBB    A,0xE0 /* A   */
        MOV     R4,A
        MOV     R5,A
        MOV     R1,#0xa
        LCALL   `??_ltoa::?relay`    ; Banked call to: _ltoa
        MOV     A,#0x2
        LCALL   ?DEALLOC_XSTACK8
          CFI CFA_XSP16 add(XSP16, 27)
        ; Setup parameters for call to function osal_memcpy
        ; Setup parameters for call to function osal_memcpy
        MOV     ?V0,#`?<Constant "C">` & 0xff
        MOV     ?V1,#(`?<Constant "C">` >> 8) & 0xff
        MOV     R0,#?V0
        LCALL   ?PUSH_XSTACK_I_THREE
          CFI CFA_XSP16 add(XSP16, 30)
        MOV     R4,#0x2
        MOV     R5,#0x0
        MOV     A,#0x10
        LCALL   ?XSTACK_DISP0_8
        MOV     R2,DPL
        MOV     R3,DPH
        LCALL   `??osal_memcpy::?relay`; Banked call to: osal_memcpy
        MOV     A,#0x3
        LCALL   ?DEALLOC_XSTACK8
          CFI CFA_XSP16 add(XSP16, 27)
        ; Setup parameters for call to function HalLcdWriteString
        ; Setup parameters for call to function HalLcdWriteString
        MOV     R1,#0x1
        MOV     R2,?XSP + 0
        MOV     R3,?XSP + 1
        LCALL   `??HalLcdWriteString::?relay`; Banked call to: HalLcdWriteString
        ; Setup parameters for call to function HalLcdWriteString
        ; Setup parameters for call to function HalLcdWriteString
        MOV     R1,#0x2
        MOV     R2,#sTempLine2 & 0xff
        MOV     R3,#(sTempLine2 >> 8) & 0xff
        LCALL   `??HalLcdWriteString::?relay`; Banked call to: HalLcdWriteString
        ; Setup parameters for call to function HalLcdWriteString
        ; Setup parameters for call to function HalLcdWriteString
        MOV     R1,#0x3
        MOV     R2,#sTempLine3 & 0xff
        MOV     R3,#(sTempLine3 >> 8) & 0xff
          CFI EndBlock cfiBlock34
        REQUIRE ??Subroutine33_0
        ; // Fall through to label ??Subroutine33_0

        RSEG BANKED_CODE:HUGECODE:NOROOT(0)
??Subroutine33_0:
          CFI Block cfiBlock35 Using cfiCommon0
          CFI NoFunction
          CFI CFA_SP SP+0
          CFI CFA_XSP16 add(XSP16, 27)
          CFI VB load(1, XDATA, add(CFA_XSP16, literal(-10)))
          CFI DPL0 load(1, XDATA, add(CFA_XSP16, literal(-2)))
          CFI DPH0 load(1, XDATA, add(CFA_XSP16, literal(-1)))
          CFI R6 load(1, XDATA, add(CFA_XSP16, literal(-11)))
          CFI R7 load(1, XDATA, add(CFA_XSP16, literal(-6)))
          CFI V0 load(1, XDATA, add(CFA_XSP16, literal(-9)))
          CFI V1 load(1, XDATA, add(CFA_XSP16, literal(-8)))
          CFI V2 load(1, XDATA, add(CFA_XSP16, literal(-7)))
          CFI ?BRET_EXT load(1, XDATA, add(CFA_XSP16, literal(-3)))
          CFI ?RET_HIGH load(1, XDATA, add(CFA_XSP16, literal(-4)))
          CFI ?RET_LOW load(1, XDATA, add(CFA_XSP16, literal(-5)))
        LCALL   `??HalLcdWriteString::?relay`; Banked call to: HalLcdWriteString
        MOV     A,#0x10
        LCALL   ?DEALLOC_XSTACK8
          CFI CFA_XSP16 add(XSP16, 11)
        MOV     R7,#0x3
        LJMP    ?BANKED_LEAVE_XDATA
          CFI EndBlock cfiBlock35

        RSEG BANKED_CODE:HUGECODE:NOROOT(0)
?Subroutine21:
          CFI Block cfiCond36 Using cfiCommon0
          CFI Function zclSampleThermostat_LcdDisplayMainMode
          CFI Conditional ??CrossCallReturnLabel_40
          CFI R6 load(1, XDATA, add(CFA_XSP16, literal(-11)))
          CFI VB load(1, XDATA, add(CFA_XSP16, literal(-10)))
          CFI V0 load(1, XDATA, add(CFA_XSP16, literal(-9)))
          CFI V1 load(1, XDATA, add(CFA_XSP16, literal(-8)))
          CFI V2 load(1, XDATA, add(CFA_XSP16, literal(-7)))
          CFI R7 load(1, XDATA, add(CFA_XSP16, literal(-6)))
          CFI ?RET_LOW load(1, XDATA, add(CFA_XSP16, literal(-5)))
          CFI ?RET_HIGH load(1, XDATA, add(CFA_XSP16, literal(-4)))
          CFI ?BRET_EXT load(1, XDATA, add(CFA_XSP16, literal(-3)))
          CFI DPL0 load(1, XDATA, add(CFA_XSP16, literal(-2)))
          CFI DPH0 load(1, XDATA, add(CFA_XSP16, literal(-1)))
          CFI CFA_SP SP+-2
          CFI CFA_XSP16 add(XSP16, 29)
          CFI Block cfiCond37 Using cfiCommon0
          CFI (cfiCond37) Function zclSampleThermostat_LcdDisplayHeatMode
          CFI (cfiCond37) Conditional ??CrossCallReturnLabel_41
          CFI (cfiCond37) R6 load(1, XDATA, add(CFA_XSP16, literal(-11)))
          CFI (cfiCond37) VB load(1, XDATA, add(CFA_XSP16, literal(-10)))
          CFI (cfiCond37) V0 load(1, XDATA, add(CFA_XSP16, literal(-9)))
          CFI (cfiCond37) V1 load(1, XDATA, add(CFA_XSP16, literal(-8)))
          CFI (cfiCond37) V2 load(1, XDATA, add(CFA_XSP16, literal(-7)))
          CFI (cfiCond37) R7 load(1, XDATA, add(CFA_XSP16, literal(-6)))
          CFI (cfiCond37) ?RET_LOW load(1, XDATA, add(CFA_XSP16, literal(-5)))
          CFI (cfiCond37) ?RET_HIGH load(1, XDATA, add(CFA_XSP16, literal(-4)))
          CFI (cfiCond37) ?BRET_EXT load(1, XDATA, add(CFA_XSP16, literal(-3)))
          CFI (cfiCond37) DPL0 load(1, XDATA, add(CFA_XSP16, literal(-2)))
          CFI (cfiCond37) DPH0 load(1, XDATA, add(CFA_XSP16, literal(-1)))
          CFI (cfiCond37) CFA_SP SP+-2
          CFI (cfiCond37) CFA_XSP16 add(XSP16, 29)
          CFI Block cfiCond38 Using cfiCommon0
          CFI (cfiCond38) Function zclSampleThermostat_LcdDisplayCoolMode
          CFI (cfiCond38) Conditional ??CrossCallReturnLabel_41
          CFI (cfiCond38) R6 load(1, XDATA, add(CFA_XSP16, literal(-11)))
          CFI (cfiCond38) VB load(1, XDATA, add(CFA_XSP16, literal(-10)))
          CFI (cfiCond38) V0 load(1, XDATA, add(CFA_XSP16, literal(-9)))
          CFI (cfiCond38) V1 load(1, XDATA, add(CFA_XSP16, literal(-8)))
          CFI (cfiCond38) V2 load(1, XDATA, add(CFA_XSP16, literal(-7)))
          CFI (cfiCond38) R7 load(1, XDATA, add(CFA_XSP16, literal(-6)))
          CFI (cfiCond38) ?RET_LOW load(1, XDATA, add(CFA_XSP16, literal(-5)))
          CFI (cfiCond38) ?RET_HIGH load(1, XDATA, add(CFA_XSP16, literal(-4)))
          CFI (cfiCond38) ?BRET_EXT load(1, XDATA, add(CFA_XSP16, literal(-3)))
          CFI (cfiCond38) DPL0 load(1, XDATA, add(CFA_XSP16, literal(-2)))
          CFI (cfiCond38) DPH0 load(1, XDATA, add(CFA_XSP16, literal(-1)))
          CFI (cfiCond38) CFA_SP SP+-2
          CFI (cfiCond38) CFA_XSP16 add(XSP16, 29)
          CFI Block cfiPicker39 Using cfiCommon1
          CFI (cfiPicker39) NoFunction
          CFI (cfiPicker39) Picker
        LCALL   ?Subroutine27 & 0xFFFF
??CrossCallReturnLabel_59:
        MOV     R2,#0x64
        MOV     R3,#0x0
        RET
          CFI EndBlock cfiCond36
          CFI EndBlock cfiCond37
          CFI EndBlock cfiCond38
          CFI EndBlock cfiPicker39
//  890 
//  891 /*********************************************************************
//  892  * @fn      zclSampleThermostat_LcdDisplayCoolMode
//  893  *
//  894  * @brief   Called to display the cooling setpoint temperature on the LCD.
//  895  *
//  896  * @param   none
//  897  *
//  898  * @return  none
//  899  */

        RSEG BANKED_CODE:HUGECODE:NOROOT(0)
//  900 void zclSampleThermostat_LcdDisplayCoolMode( void )
zclSampleThermostat_LcdDisplayCoolMode:
          CFI Block cfiBlock40 Using cfiCommon0
          CFI Function zclSampleThermostat_LcdDisplayCoolMode
        CODE
//  901 {
        FUNCALL zclSampleThermostat_LcdDisplayCoolMode, osal_memcpy
        LOCFRAME ISTACK, 0, STACK
        LOCFRAME PSTACK, 0, STACK
        LOCFRAME XSTACK, 30, STACK
        LOCFRAME IOVERLAY, 0, STATIC
        LOCFRAME DOVERLAY, 0, STATIC
        ARGFRAME ISTACK, 0, STACK
        ARGFRAME PSTACK, 0, STACK
        ARGFRAME XSTACK, 30, STACK
        ARGFRAME IOVERLAY, 0, STATIC
        ARGFRAME DOVERLAY, 0, STATIC
        FUNCALL zclSampleThermostat_LcdDisplayCoolMode, _ltoa
        LOCFRAME ISTACK, 0, STACK
        LOCFRAME PSTACK, 0, STACK
        LOCFRAME XSTACK, 29, STACK
        LOCFRAME IOVERLAY, 0, STATIC
        LOCFRAME DOVERLAY, 0, STATIC
        ARGFRAME ISTACK, 0, STACK
        ARGFRAME PSTACK, 0, STACK
        ARGFRAME XSTACK, 29, STACK
        ARGFRAME IOVERLAY, 0, STATIC
        ARGFRAME DOVERLAY, 0, STATIC
        FUNCALL zclSampleThermostat_LcdDisplayCoolMode, osal_memcpy
        LOCFRAME ISTACK, 0, STACK
        LOCFRAME PSTACK, 0, STACK
        LOCFRAME XSTACK, 30, STACK
        LOCFRAME IOVERLAY, 0, STATIC
        LOCFRAME DOVERLAY, 0, STATIC
        ARGFRAME ISTACK, 0, STACK
        ARGFRAME PSTACK, 0, STACK
        ARGFRAME XSTACK, 30, STACK
        ARGFRAME IOVERLAY, 0, STATIC
        ARGFRAME DOVERLAY, 0, STATIC
        FUNCALL zclSampleThermostat_LcdDisplayCoolMode, HalLcdWriteString
        LOCFRAME ISTACK, 0, STACK
        LOCFRAME PSTACK, 0, STACK
        LOCFRAME XSTACK, 27, STACK
        LOCFRAME IOVERLAY, 0, STATIC
        LOCFRAME DOVERLAY, 0, STATIC
        ARGFRAME ISTACK, 0, STACK
        ARGFRAME PSTACK, 0, STACK
        ARGFRAME XSTACK, 27, STACK
        ARGFRAME IOVERLAY, 0, STATIC
        ARGFRAME DOVERLAY, 0, STATIC
        FUNCALL zclSampleThermostat_LcdDisplayCoolMode, HalLcdWriteString
        LOCFRAME ISTACK, 0, STACK
        LOCFRAME PSTACK, 0, STACK
        LOCFRAME XSTACK, 27, STACK
        LOCFRAME IOVERLAY, 0, STATIC
        LOCFRAME DOVERLAY, 0, STATIC
        ARGFRAME ISTACK, 0, STACK
        ARGFRAME PSTACK, 0, STACK
        ARGFRAME XSTACK, 27, STACK
        ARGFRAME IOVERLAY, 0, STATIC
        ARGFRAME DOVERLAY, 0, STATIC
        FUNCALL zclSampleThermostat_LcdDisplayCoolMode, HalLcdWriteString
        LOCFRAME ISTACK, 0, STACK
        LOCFRAME PSTACK, 0, STACK
        LOCFRAME XSTACK, 27, STACK
        LOCFRAME IOVERLAY, 0, STATIC
        LOCFRAME DOVERLAY, 0, STATIC
        ARGFRAME ISTACK, 0, STACK
        ARGFRAME PSTACK, 0, STACK
        ARGFRAME XSTACK, 27, STACK
        ARGFRAME IOVERLAY, 0, STATIC
        ARGFRAME DOVERLAY, 0, STATIC
        REQUIRE ?V0
        REQUIRE ?V1
        REQUIRE ?V2
        MOV     A,#-0xb
        LCALL   ?BANKED_ENTER_XDATA
          CFI DPH0 load(1, XDATA, add(CFA_XSP16, literal(-1)))
          CFI DPL0 load(1, XDATA, add(CFA_XSP16, literal(-2)))
          CFI ?BRET_EXT load(1, XDATA, add(CFA_XSP16, literal(-3)))
          CFI ?RET_HIGH load(1, XDATA, add(CFA_XSP16, literal(-4)))
          CFI ?RET_LOW load(1, XDATA, add(CFA_XSP16, literal(-5)))
          CFI R7 load(1, XDATA, add(CFA_XSP16, literal(-6)))
          CFI V2 load(1, XDATA, add(CFA_XSP16, literal(-7)))
          CFI V1 load(1, XDATA, add(CFA_XSP16, literal(-8)))
          CFI V0 load(1, XDATA, add(CFA_XSP16, literal(-9)))
          CFI VB load(1, XDATA, add(CFA_XSP16, literal(-10)))
          CFI R6 load(1, XDATA, add(CFA_XSP16, literal(-11)))
          CFI CFA_SP SP+0
          CFI CFA_XSP16 add(XSP16, 11)
        ; Saved register size: 11
        ; Auto size: 16
        MOV     A,#-0x10
        LCALL   ?ALLOC_XSTACK8
          CFI CFA_XSP16 add(XSP16, 27)
//  902 #ifdef LCD_SUPPORTED
//  903   char sDisplayTemp[16];
//  904 
//  905   osal_memcpy(sDisplayTemp, "COOL TEMP: ", 11);
        ; Setup parameters for call to function osal_memcpy
        MOV     ?V0,#`?<Constant "COOL TEMP: ">` & 0xff
        MOV     ?V1,#(`?<Constant "COOL TEMP: ">` >> 8) & 0xff
        MOV     ?V2,#0x0
        MOV     R0,#?V0
        LCALL   ?PUSH_XSTACK_I_THREE
          CFI CFA_XSP16 add(XSP16, 30)
        MOV     R4,#0xb
        MOV     R5,#0x0
        MOV     A,#0x3
        LCALL   ?XSTACK_DISP101_8
        LCALL   `??osal_memcpy::?relay`; Banked call to: osal_memcpy
        MOV     A,#0x3
        LCALL   ?DEALLOC_XSTACK8
          CFI CFA_XSP16 add(XSP16, 27)
//  906   _ltoa( ( zclSampleThermostat_OccupiedCoolingSetpoint / 100 ), (void *)(&sDisplayTemp[11]), 10 ); // only use whole number
        ; Setup parameters for call to function _ltoa
        MOV     A,#0xb
        LCALL   ?XSTACK_DISP0_8
        MOV     ?V0,DPL
        MOV     ?V1,DPH
        MOV     R0,#?V0
        LCALL   ?PUSH_XSTACK_I_TWO
          CFI CFA_XSP16 add(XSP16, 29)
        MOV     DPTR,#zclSampleThermostat_OccupiedCoolingSetpoint
        LJMP    ?Subroutine1 & 0xFFFF
//  907   osal_memcpy( &sDisplayTemp[13], "C", 2 );
//  908 
//  909   HalLcdWriteString( (char *)sDisplayTemp, HAL_LCD_LINE_1 );
//  910   HalLcdWriteString( (char *)sTempLine2, HAL_LCD_LINE_2 );
//  911   HalLcdWriteString( (char *)sTempLine3, HAL_LCD_LINE_3 );
//  912 #endif
//  913 }
          CFI EndBlock cfiBlock40
//  914 
//  915 /*********************************************************************
//  916  * @fn      zclSampleThermostat_ProcessIdentifyTimeChange
//  917  *
//  918  * @brief   Called to process any change to the IdentifyTime attribute.
//  919  *
//  920  * @param   none
//  921  *
//  922  * @return  none
//  923  */

        RSEG BANKED_CODE:HUGECODE:NOROOT(0)
//  924 static void zclSampleThermostat_ProcessIdentifyTimeChange( void )
zclSampleThermostat_ProcessIdentifyTimeChange:
          CFI Block cfiBlock41 Using cfiCommon0
          CFI Function zclSampleThermostat_ProcessIdentifyTimeChange
        CODE
//  925 {
        FUNCALL zclSampleThermostat_ProcessIdentifyTimeChange, osal_start_timerEx
        LOCFRAME ISTACK, 2, STACK
        LOCFRAME PSTACK, 0, STACK
        LOCFRAME XSTACK, 4, STACK
        LOCFRAME IOVERLAY, 0, STATIC
        LOCFRAME DOVERLAY, 0, STATIC
        ARGFRAME ISTACK, 2, STACK
        ARGFRAME PSTACK, 0, STACK
        ARGFRAME XSTACK, 4, STACK
        ARGFRAME IOVERLAY, 0, STATIC
        ARGFRAME DOVERLAY, 0, STATIC
        FUNCALL zclSampleThermostat_ProcessIdentifyTimeChange, HalLedBlink
        LOCFRAME ISTACK, 2, STACK
        LOCFRAME PSTACK, 0, STACK
        LOCFRAME XSTACK, 0, STACK
        LOCFRAME IOVERLAY, 0, STATIC
        LOCFRAME DOVERLAY, 0, STATIC
        ARGFRAME ISTACK, 2, STACK
        ARGFRAME PSTACK, 0, STACK
        ARGFRAME XSTACK, 0, STACK
        ARGFRAME IOVERLAY, 0, STATIC
        ARGFRAME DOVERLAY, 0, STATIC
        FUNCALL zclSampleThermostat_ProcessIdentifyTimeChange, HalLedSet
        LOCFRAME ISTACK, 2, STACK
        LOCFRAME PSTACK, 0, STACK
        LOCFRAME XSTACK, 0, STACK
        LOCFRAME IOVERLAY, 0, STATIC
        LOCFRAME DOVERLAY, 0, STATIC
        ARGFRAME ISTACK, 2, STACK
        ARGFRAME PSTACK, 0, STACK
        ARGFRAME XSTACK, 0, STACK
        ARGFRAME IOVERLAY, 0, STATIC
        ARGFRAME DOVERLAY, 0, STATIC
        FUNCALL zclSampleThermostat_ProcessIdentifyTimeChange, HalLedSet
        LOCFRAME ISTACK, 2, STACK
        LOCFRAME PSTACK, 0, STACK
        LOCFRAME XSTACK, 0, STACK
        LOCFRAME IOVERLAY, 0, STATIC
        LOCFRAME DOVERLAY, 0, STATIC
        ARGFRAME ISTACK, 2, STACK
        ARGFRAME PSTACK, 0, STACK
        ARGFRAME XSTACK, 0, STACK
        ARGFRAME IOVERLAY, 0, STATIC
        ARGFRAME DOVERLAY, 0, STATIC
        FUNCALL zclSampleThermostat_ProcessIdentifyTimeChange, osal_stop_timerEx
        LOCFRAME ISTACK, 2, STACK
        LOCFRAME PSTACK, 0, STACK
        LOCFRAME XSTACK, 0, STACK
        LOCFRAME IOVERLAY, 0, STATIC
        LOCFRAME DOVERLAY, 0, STATIC
        ARGFRAME ISTACK, 2, STACK
        ARGFRAME PSTACK, 0, STACK
        ARGFRAME XSTACK, 0, STACK
        ARGFRAME IOVERLAY, 0, STATIC
        ARGFRAME DOVERLAY, 0, STATIC
        PUSH    DPL
          CFI DPL0 Frame(CFA_SP, 4)
          CFI CFA_SP SP+-4
        PUSH    DPH
          CFI DPH0 Frame(CFA_SP, 5)
          CFI CFA_SP SP+-5
        ; Saved register size: 2
        ; Auto size: 0
//  926   if ( zclSampleThermostat_IdentifyTime > 0 )
        LCALL   ?Subroutine15 & 0xFFFF
??CrossCallReturnLabel_57:
        JZ      ??zclSampleThermostat_ProcessIdentifyTimeChange_1
//  927   {
//  928     osal_start_timerEx( zclSampleThermostat_TaskID, SAMPLETHERMOSTAT_IDENTIFY_TIMEOUT_EVT, 1000 );
        ; Setup parameters for call to function osal_start_timerEx
        MOV     DPTR,#__Constant_3e8
        LCALL   ?PUSH_XSTACK8_X_FOUR
          CFI CFA_XSP16 add(XSP16, 4)
        MOV     R2,#0x1
        MOV     R3,#0x0
        MOV     DPTR,#zclSampleThermostat_TaskID
        MOVX    A,@DPTR
        MOV     R1,A
        LCALL   `??osal_start_timerEx::?relay`; Banked call to: osal_start_timerEx
        MOV     A,#0x4
        LCALL   ?DEALLOC_XSTACK8
          CFI CFA_XSP16 XSP16+0
//  929     HalLedBlink ( HAL_LED_4, 0xFF, HAL_LED_DEFAULT_DUTY_CYCLE, HAL_LED_DEFAULT_FLASH_TIME );
        ; Setup parameters for call to function HalLedBlink
        MOV     R4,#-0x18
        MOV     R5,#0x3
        MOV     R3,#0x5
        MOV     R2,#-0x1
        MOV     R1,#0x8
        LCALL   `??HalLedBlink::?relay`; Banked call to: HalLedBlink
        SJMP    ??zclSampleThermostat_ProcessIdentifyTimeChange_2
//  930   }
//  931   else
//  932   {
//  933     if ( zclSampleThermostat_OnOff )
??zclSampleThermostat_ProcessIdentifyTimeChange_1:
        MOV     DPTR,#zclSampleThermostat_OnOff
        MOVX    A,@DPTR
        JZ      ??zclSampleThermostat_ProcessIdentifyTimeChange_3
//  934     {
//  935       HalLedSet ( HAL_LED_4, HAL_LED_MODE_ON );
        ; Setup parameters for call to function HalLedSet
        MOV     R2,#0x1
        SJMP    ??zclSampleThermostat_ProcessIdentifyTimeChange_4
//  936     }
//  937     else
//  938     {
//  939       HalLedSet ( HAL_LED_4, HAL_LED_MODE_OFF );
??zclSampleThermostat_ProcessIdentifyTimeChange_3:
        ; Setup parameters for call to function HalLedSet
        MOV     R2,#0x0
??zclSampleThermostat_ProcessIdentifyTimeChange_4:
        MOV     R1,#0x8
        LCALL   `??HalLedSet::?relay`; Banked call to: HalLedSet
//  940     }
//  941 
//  942     osal_stop_timerEx( zclSampleThermostat_TaskID, SAMPLETHERMOSTAT_IDENTIFY_TIMEOUT_EVT );
        ; Setup parameters for call to function osal_stop_timerEx
        MOV     R2,#0x1
        MOV     R3,#0x0
        MOV     DPTR,#zclSampleThermostat_TaskID
        MOVX    A,@DPTR
        MOV     R1,A
        LCALL   `??osal_stop_timerEx::?relay`; Banked call to: osal_stop_timerEx
//  943   }
//  944 }
??zclSampleThermostat_ProcessIdentifyTimeChange_2:
        LJMP    ??Subroutine32_0 & 0xFFFF
          CFI EndBlock cfiBlock41
//  945 
//  946 /*********************************************************************
//  947  * @fn      zclSampleThermostat_ProcessAppMsg
//  948  *
//  949  * @brief   Process DoorLock messages
//  950  *
//  951  * @param   srcEP - Sending Apps endpoint
//  952  * @param   len - number of bytes
//  953  * @param   msg - pointer to message
//  954  *          0 - lo byte destination address
//  955  *          1 - hi byte destination address
//  956  *          2 - destination endpoint
//  957  *          3 - lo byte cluster ID
//  958  *          4 - hi byte cluster ID
//  959  *          5 - message length
//  960  *          6 - destination address mode (first byte of data)
//  961  *          7 - zcl command frame
//  962  *
//  963  * @return  none
//  964  */

        RSEG BANKED_CODE:HUGECODE:NOROOT(0)
//  965 static void zclSampleThermostat_ProcessAppMsg( uint8 srcEP, uint8 len, uint8 *msg )
zclSampleThermostat_ProcessAppMsg:
          CFI Block cfiBlock42 Using cfiCommon0
          CFI Function zclSampleThermostat_ProcessAppMsg
        CODE
//  966 {
        FUNCALL zclSampleThermostat_ProcessAppMsg, zclParseHdr
        LOCFRAME ISTACK, 0, STACK
        LOCFRAME PSTACK, 0, STACK
        LOCFRAME XSTACK, 41, STACK
        LOCFRAME IOVERLAY, 0, STATIC
        LOCFRAME DOVERLAY, 0, STATIC
        ARGFRAME ISTACK, 0, STACK
        ARGFRAME PSTACK, 0, STACK
        ARGFRAME XSTACK, 41, STACK
        ARGFRAME IOVERLAY, 0, STATIC
        ARGFRAME DOVERLAY, 0, STATIC
        FUNCALL zclSampleThermostat_ProcessAppMsg, zcl_SendCommand
        LOCFRAME ISTACK, 0, STACK
        LOCFRAME PSTACK, 0, STACK
        LOCFRAME XSTACK, 52, STACK
        LOCFRAME IOVERLAY, 0, STATIC
        LOCFRAME DOVERLAY, 0, STATIC
        ARGFRAME ISTACK, 0, STACK
        ARGFRAME PSTACK, 0, STACK
        ARGFRAME XSTACK, 52, STACK
        ARGFRAME IOVERLAY, 0, STATIC
        ARGFRAME DOVERLAY, 0, STATIC
        FUNCALL zclSampleThermostat_ProcessAppMsg, zclSampleThermostat_ProcessFoundationMsg
        LOCFRAME ISTACK, 0, STACK
        LOCFRAME PSTACK, 0, STACK
        LOCFRAME XSTACK, 45, STACK
        LOCFRAME IOVERLAY, 0, STATIC
        LOCFRAME DOVERLAY, 0, STATIC
        ARGFRAME ISTACK, 0, STACK
        ARGFRAME PSTACK, 0, STACK
        ARGFRAME XSTACK, 45, STACK
        ARGFRAME IOVERLAY, 0, STATIC
        ARGFRAME DOVERLAY, 0, STATIC
        FUNCALL zclSampleThermostat_ProcessAppMsg, zcl_SendCommand
        LOCFRAME ISTACK, 0, STACK
        LOCFRAME PSTACK, 0, STACK
        LOCFRAME XSTACK, 52, STACK
        LOCFRAME IOVERLAY, 0, STATIC
        LOCFRAME DOVERLAY, 0, STATIC
        ARGFRAME ISTACK, 0, STACK
        ARGFRAME PSTACK, 0, STACK
        ARGFRAME XSTACK, 52, STACK
        ARGFRAME IOVERLAY, 0, STATIC
        ARGFRAME DOVERLAY, 0, STATIC
        REQUIRE ?V0
        REQUIRE ?V1
        REQUIRE ?V2
        REQUIRE ?V3
        REQUIRE ?V4
        REQUIRE ?V5
        REQUIRE ?V6
        REQUIRE ?V7
        REQUIRE ?V8
        REQUIRE ?V9
        MOV     A,#-0x12
        LCALL   ?BANKED_ENTER_XDATA
          CFI DPH0 load(1, XDATA, add(CFA_XSP16, literal(-1)))
          CFI DPL0 load(1, XDATA, add(CFA_XSP16, literal(-2)))
          CFI ?BRET_EXT load(1, XDATA, add(CFA_XSP16, literal(-3)))
          CFI ?RET_HIGH load(1, XDATA, add(CFA_XSP16, literal(-4)))
          CFI ?RET_LOW load(1, XDATA, add(CFA_XSP16, literal(-5)))
          CFI R7 load(1, XDATA, add(CFA_XSP16, literal(-6)))
          CFI V9 load(1, XDATA, add(CFA_XSP16, literal(-7)))
          CFI V8 load(1, XDATA, add(CFA_XSP16, literal(-8)))
          CFI V7 load(1, XDATA, add(CFA_XSP16, literal(-9)))
          CFI V6 load(1, XDATA, add(CFA_XSP16, literal(-10)))
          CFI V5 load(1, XDATA, add(CFA_XSP16, literal(-11)))
          CFI V4 load(1, XDATA, add(CFA_XSP16, literal(-12)))
          CFI V3 load(1, XDATA, add(CFA_XSP16, literal(-13)))
          CFI V2 load(1, XDATA, add(CFA_XSP16, literal(-14)))
          CFI V1 load(1, XDATA, add(CFA_XSP16, literal(-15)))
          CFI V0 load(1, XDATA, add(CFA_XSP16, literal(-16)))
          CFI VB load(1, XDATA, add(CFA_XSP16, literal(-17)))
          CFI R6 load(1, XDATA, add(CFA_XSP16, literal(-18)))
          CFI CFA_SP SP+0
          CFI CFA_XSP16 add(XSP16, 18)
        ; Saved register size: 18
        ; Auto size: 23
        MOV     A,#-0x17
        LCALL   ?ALLOC_XSTACK8
          CFI CFA_XSP16 add(XSP16, 41)
        MOV     ?V2,R1
        MOV     A,R4
        MOV     R6,A
        MOV     A,R5
        MOV     R7,A
//  967   afAddrType_t dstAddr;
//  968   uint16 clusterID;
//  969   zclFrameHdr_t hdr;
//  970   uint8 *pData;
//  971   uint8 dataLen;
//  972 
//  973   dstAddr.addr.shortAddr = BUILD_UINT16( msg[0], msg[1] );
        MOV     DPL,R6
        MOV     DPH,R7
        MOVX    A,@DPTR
        MOV     R2,A
        INC     DPTR
        MOVX    A,@DPTR
        MOV     R1,A
        MOV     A,R2
        MOV     R0,A
        MOV     A,#0xb
        LCALL   ?XSTACK_DISP0_8
        MOV     A,R0
        MOVX    @DPTR,A
        INC     DPTR
        MOV     A,R1
        MOVX    @DPTR,A
//  974   msg += 2;
//  975   dstAddr.endPoint = *msg++;
        MOV     DPL,R6
        MOV     DPH,R7
        INC     DPTR
        INC     DPTR
        MOVX    A,@DPTR
        PUSH    A
          CFI CFA_SP SP+-1
        MOV     A,#0x14
        LCALL   ?XSTACK_DISP0_8
        POP     A
          CFI CFA_SP SP+0
        MOVX    @DPTR,A
        MOV     A,R6
        ADD     A,#0x3
        MOV     R6,A
        JNC     ??zclSampleThermostat_ProcessAppMsg_0
        INC     R7
//  976   clusterID = BUILD_UINT16( msg[0], msg[1] );
??zclSampleThermostat_ProcessAppMsg_0:
        MOV     DPL,R6
        MOV     DPH,R7
        MOVX    A,@DPTR
        MOV     R2,A
        INC     DPTR
        MOVX    A,@DPTR
        MOV     R0,A
        CLR     A
        XCH     A,R0
        MOV     R1,A
        MOV     A,R2
        ADD     A,R0
        MOV     ?V0,A
        CLR     A
        ADDC    A,R1
        MOV     ?V1,A
//  977   msg += 2;
//  978   dataLen = *msg++; // Length of message (Z-Tool can support up to 255 octets)
        MOV     DPL,R6
        MOV     DPH,R7
        INC     DPTR
        INC     DPTR
        MOVX    A,@DPTR
        MOV     ?V4,A
//  979   dstAddr.addrMode = (afAddrMode_t)(*msg++);
        MOV     DPL,R6
        MOV     DPH,R7
        INC     DPTR
        INC     DPTR
        INC     DPTR
        MOVX    A,@DPTR
        PUSH    A
          CFI CFA_SP SP+-1
        MOV     A,#0x13
        LCALL   ?XSTACK_DISP0_8
        POP     A
          CFI CFA_SP SP+0
        MOVX    @DPTR,A
        MOV     A,R6
        ADD     A,#0x4
        MOV     R6,A
        JNC     ??zclSampleThermostat_ProcessAppMsg_1
        INC     R7
//  980   dataLen--; // Length of ZCL frame
//  981 
//  982   // Begining of ZCL frame
//  983   pData = zclParseHdr( &hdr, msg );
??zclSampleThermostat_ProcessAppMsg_1:
        ; Setup parameters for call to function zclParseHdr
        MOV     R4,A
        MOV     A,R7
        MOV     R5,A
        MOV     R2,?XSP + 0
        MOV     R3,?XSP + 1
        LCALL   `??zclParseHdr::?relay`; Banked call to: zclParseHdr
        MOV     ?V6,R2
        MOV     ?V7,R3
//  984   dataLen -= (uint8)( pData - msg );
        MOV     R0,?V6
        MOV     A,#-0x1
        ADD     A,?V4
        CLR     C
        SUBB    A,R0
        ADD     A,R6
        MOV     ?V4,A
//  985 
//  986   // Is this a foundation type message?
//  987   if ( zcl_ProfileCmd( hdr.fc.type ) )
        MOV     DPL,?XSP + 0
        MOV     DPH,?XSP + 1
        MOVX    A,@DPTR
        SWAP    A
        ANL     A,#0xf
        ANL     A,#0x1
        MOV     R1,A
        MOV     ?V5,#0x0
        MOVX    A,@DPTR
        ANL     A,#0x3
        JZ      $+5
        LJMP    ??zclSampleThermostat_ProcessAppMsg_2 & 0xFFFF
//  988   {
//  989     if ( hdr.fc.manuSpecific )
        MOVX    A,@DPTR
        ANL     A,#0x4
        JZ      ??zclSampleThermostat_ProcessAppMsg_3
//  990     {
//  991       // We don't support any manufacturer specific command -- just forward it.
//  992       zcl_SendCommand( srcEP, &dstAddr, clusterID, hdr.commandID, FALSE, ZCL_FRAME_CLIENT_SERVER_DIR,
//  993                        hdr.fc.disableDefaultRsp, hdr.manuCode, hdr.transSeqNum, dataLen, pData );
        ; Setup parameters for call to function zcl_SendCommand
        MOV     R0,#?V6
        LCALL   ?PUSH_XSTACK_I_TWO
          CFI CFA_XSP16 add(XSP16, 43)
        MOV     R0,#?V4
        LCALL   ?PUSH_XSTACK_I_TWO
          CFI CFA_XSP16 add(XSP16, 45)
        MOV     A,#0x8
        LCALL   ?XSTACK_DISP0_8
        MOVX    A,@DPTR
        MOV     ?V3,A
        MOV     R0,#?V3
        LCALL   ?PUSH_XSTACK_I_ONE
          CFI CFA_XSP16 add(XSP16, 46)
        MOV     A,#0x7
        LCALL   ?XSTACK_DISP0_8
        LCALL   ?PUSH_XSTACK8_X_TWO
          CFI CFA_XSP16 add(XSP16, 48)
        MOV     A,R1
        MOV     ?V3,A
        MOV     R0,#?V3
        LCALL   ?PUSH_XSTACK_I_ONE
          CFI CFA_XSP16 add(XSP16, 49)
        MOV     ?V3,#0x0
        MOV     R0,#?V3
        LCALL   ?PUSH_XSTACK_I_ONE
          CFI CFA_XSP16 add(XSP16, 50)
        LJMP    ??zclSampleThermostat_ProcessAppMsg_4 & 0xFFFF
          CFI CFA_XSP16 add(XSP16, 41)
//  994     }
//  995     else
//  996     {
//  997       zclParseCmd_t cmd;
//  998 
//  999       cmd.endpoint = srcEP;
??zclSampleThermostat_ProcessAppMsg_3:
        MOV     A,#0x6
        LCALL   ?XSTACK_DISP0_8
        MOV     A,?V2
        MOVX    @DPTR,A
// 1000       cmd.dataLen = dataLen;
        MOV     A,#0x7
        LCALL   ?XSTACK_DISP0_8
        MOV     A,?V4
        MOVX    @DPTR,A
        INC     DPTR
        CLR     A
        MOVX    @DPTR,A
// 1001       cmd.pData = pData;
        MOV     A,#0x9
        LCALL   ?XSTACK_DISP0_8
        MOV     A,R0
        MOVX    @DPTR,A
        INC     DPTR
        MOV     A,R3
        MOVX    @DPTR,A
// 1002 
// 1003       zclSampleThermostat_ProcessFoundationMsg( &dstAddr, clusterID, &hdr, &cmd );
        ; Setup parameters for call to function zclSampleThermostat_ProcessFoundationMsg
        MOV     A,#0x6
        LCALL   ?XSTACK_DISP100_8
        MOV     ?V4,R0
        MOV     ?V5,R1
        MOV     R0,#?V4
        LCALL   ?PUSH_XSTACK_I_TWO
          CFI CFA_XSP16 add(XSP16, 43)
        MOV     A,#0x2
        LCALL   ?XSTACK_DISP100_8
        MOV     ?V4,R0
        MOV     ?V5,R1
        MOV     R0,#?V4
        LCALL   ?PUSH_XSTACK_I_TWO
          CFI CFA_XSP16 add(XSP16, 45)
        MOV     R4,?V0
        MOV     R5,?V1
        MOV     A,#0xf
        LCALL   ?XSTACK_DISP101_8
        LCALL   `??zclSampleThermostat_ProcessFoundationMsg::?re`; Banked call to: zclSampleThermostat_ProcessFoundationMsg
        MOV     A,#0x4
        LCALL   ?DEALLOC_XSTACK8
          CFI CFA_XSP16 add(XSP16, 41)
        SJMP    ??zclSampleThermostat_ProcessAppMsg_5
// 1004     }
// 1005   }
// 1006   else
// 1007   {
// 1008     // Nope, must be specific to the cluster ID
// 1009     if ( hdr.fc.manuSpecific )
??zclSampleThermostat_ProcessAppMsg_2:
        MOVX    A,@DPTR
        ANL     A,#0x4
        JZ      ??zclSampleThermostat_ProcessAppMsg_5
// 1010     {
// 1011       // We don't support any manufacturer specific command -- just forward it.
// 1012       zcl_SendCommand( srcEP, &dstAddr, clusterID, hdr.commandID, TRUE, ZCL_FRAME_CLIENT_SERVER_DIR,
// 1013                        hdr.fc.disableDefaultRsp, hdr.manuCode, hdr.transSeqNum, dataLen, pData );
        ; Setup parameters for call to function zcl_SendCommand
        MOV     R0,#?V6
        LCALL   ?PUSH_XSTACK_I_TWO
          CFI CFA_XSP16 add(XSP16, 43)
        MOV     R0,#?V4
        LCALL   ?PUSH_XSTACK_I_TWO
          CFI CFA_XSP16 add(XSP16, 45)
        MOV     A,#0x8
        LCALL   ?XSTACK_DISP0_8
        MOVX    A,@DPTR
        MOV     ?V3,A
        MOV     R0,#?V3
        LCALL   ?PUSH_XSTACK_I_ONE
          CFI CFA_XSP16 add(XSP16, 46)
        MOV     A,#0x7
        LCALL   ?XSTACK_DISP0_8
        LCALL   ?PUSH_XSTACK8_X_TWO
          CFI CFA_XSP16 add(XSP16, 48)
        MOV     A,R1
        MOV     ?V3,A
        MOV     R0,#?V3
        LCALL   ?PUSH_XSTACK_I_ONE
          CFI CFA_XSP16 add(XSP16, 49)
        MOV     ?V3,#0x0
        MOV     R0,#?V3
        LCALL   ?PUSH_XSTACK_I_ONE
          CFI CFA_XSP16 add(XSP16, 50)
        MOV     ?V3,#0x1
??zclSampleThermostat_ProcessAppMsg_4:
        MOV     R0,#?V3
        LCALL   ?PUSH_XSTACK_I_ONE
          CFI CFA_XSP16 add(XSP16, 51)
        MOV     A,#0xf
        LCALL   ?XSTACK_DISP0_8
        MOVX    A,@DPTR
        MOV     ?V3,A
        MOV     R0,#?V3
        LCALL   ?PUSH_XSTACK_I_ONE
          CFI CFA_XSP16 add(XSP16, 52)
        MOV     R4,?V0
        MOV     R5,?V1
        MOV     A,#0x16
        LCALL   ?XSTACK_DISP101_8
        MOV     R1,?V2
        LCALL   `??zcl_SendCommand::?relay`; Banked call to: zcl_SendCommand
        MOV     A,#0xb
        LCALL   ?DEALLOC_XSTACK8
          CFI CFA_XSP16 add(XSP16, 41)
// 1014     }
// 1015   }
// 1016 }
??zclSampleThermostat_ProcessAppMsg_5:
        MOV     A,#0x17
        LCALL   ?DEALLOC_XSTACK8
          CFI EndBlock cfiBlock42
        REQUIRE ?Subroutine2
        ; // Fall through to label ?Subroutine2

        RSEG BANKED_CODE:HUGECODE:NOROOT(0)
?Subroutine2:
          CFI Block cfiBlock43 Using cfiCommon0
          CFI NoFunction
          CFI CFA_SP SP+0
          CFI CFA_XSP16 add(XSP16, 18)
          CFI VB load(1, XDATA, add(CFA_XSP16, literal(-17)))
          CFI DPL0 load(1, XDATA, add(CFA_XSP16, literal(-2)))
          CFI DPH0 load(1, XDATA, add(CFA_XSP16, literal(-1)))
          CFI R6 load(1, XDATA, add(CFA_XSP16, literal(-18)))
          CFI R7 load(1, XDATA, add(CFA_XSP16, literal(-6)))
          CFI V0 load(1, XDATA, add(CFA_XSP16, literal(-16)))
          CFI V1 load(1, XDATA, add(CFA_XSP16, literal(-15)))
          CFI V2 load(1, XDATA, add(CFA_XSP16, literal(-14)))
          CFI V3 load(1, XDATA, add(CFA_XSP16, literal(-13)))
          CFI V4 load(1, XDATA, add(CFA_XSP16, literal(-12)))
          CFI V5 load(1, XDATA, add(CFA_XSP16, literal(-11)))
          CFI V6 load(1, XDATA, add(CFA_XSP16, literal(-10)))
          CFI V7 load(1, XDATA, add(CFA_XSP16, literal(-9)))
          CFI V8 load(1, XDATA, add(CFA_XSP16, literal(-8)))
          CFI V9 load(1, XDATA, add(CFA_XSP16, literal(-7)))
          CFI ?BRET_EXT load(1, XDATA, add(CFA_XSP16, literal(-3)))
          CFI ?RET_HIGH load(1, XDATA, add(CFA_XSP16, literal(-4)))
          CFI ?RET_LOW load(1, XDATA, add(CFA_XSP16, literal(-5)))
        MOV     R7,#0xa
        LJMP    ?BANKED_LEAVE_XDATA
          CFI EndBlock cfiBlock43
// 1017 
// 1018 /*********************************************************************
// 1019  * @fn      zclSampleThermostat_ProcessFoundationMsg
// 1020  *
// 1021  * @brief   Process Foundation message
// 1022  *
// 1023  * @param   srcEP - Sending Apps endpoint
// 1024  * @param   dstAddr - where to send the request
// 1025  * @param   clusterID - real cluster ID
// 1026  * @param   hdr - pointer to the message header
// 1027  * @param   len - length of the received message
// 1028  * @param   data - received message
// 1029  *
// 1030  * @return  none
// 1031  */

        RSEG BANKED_CODE:HUGECODE:NOROOT(0)
// 1032 static void zclSampleThermostat_ProcessFoundationMsg( afAddrType_t *dstAddr, uint16 clusterID,
zclSampleThermostat_ProcessFoundationMsg:
          CFI Block cfiBlock44 Using cfiCommon0
          CFI Function zclSampleThermostat_ProcessFoundationMsg
        CODE
// 1033                                                 zclFrameHdr_t *hdr, zclParseCmd_t *pParseCmd )
// 1034 {
        FUNCALL zclSampleThermostat_ProcessFoundationMsg, zclParseInReadCmd
        LOCFRAME ISTACK, 0, STACK
        LOCFRAME PSTACK, 0, STACK
        LOCFRAME XSTACK, 18, STACK
        LOCFRAME IOVERLAY, 0, STATIC
        LOCFRAME DOVERLAY, 0, STATIC
        ARGFRAME ISTACK, 0, STACK
        ARGFRAME PSTACK, 0, STACK
        ARGFRAME XSTACK, 18, STACK
        ARGFRAME IOVERLAY, 0, STATIC
        ARGFRAME DOVERLAY, 0, STATIC
        FUNCALL zclSampleThermostat_ProcessFoundationMsg, zcl_SendRead
        LOCFRAME ISTACK, 0, STACK
        LOCFRAME PSTACK, 0, STACK
        LOCFRAME XSTACK, 23, STACK
        LOCFRAME IOVERLAY, 0, STATIC
        LOCFRAME DOVERLAY, 0, STATIC
        ARGFRAME ISTACK, 0, STACK
        ARGFRAME PSTACK, 0, STACK
        ARGFRAME XSTACK, 23, STACK
        ARGFRAME IOVERLAY, 0, STATIC
        ARGFRAME DOVERLAY, 0, STATIC
        FUNCALL zclSampleThermostat_ProcessFoundationMsg, osal_mem_free
        LOCFRAME ISTACK, 0, STACK
        LOCFRAME PSTACK, 0, STACK
        LOCFRAME XSTACK, 18, STACK
        LOCFRAME IOVERLAY, 0, STATIC
        LOCFRAME DOVERLAY, 0, STATIC
        ARGFRAME ISTACK, 0, STACK
        ARGFRAME PSTACK, 0, STACK
        ARGFRAME XSTACK, 18, STACK
        ARGFRAME IOVERLAY, 0, STATIC
        ARGFRAME DOVERLAY, 0, STATIC
        FUNCALL zclSampleThermostat_ProcessFoundationMsg, zclParseInWriteCmd
        LOCFRAME ISTACK, 0, STACK
        LOCFRAME PSTACK, 0, STACK
        LOCFRAME XSTACK, 18, STACK
        LOCFRAME IOVERLAY, 0, STATIC
        LOCFRAME DOVERLAY, 0, STATIC
        ARGFRAME ISTACK, 0, STACK
        ARGFRAME PSTACK, 0, STACK
        ARGFRAME XSTACK, 18, STACK
        ARGFRAME IOVERLAY, 0, STATIC
        ARGFRAME DOVERLAY, 0, STATIC
        FUNCALL zclSampleThermostat_ProcessFoundationMsg, zcl_SendWriteRequest
        LOCFRAME ISTACK, 0, STACK
        LOCFRAME PSTACK, 0, STACK
        LOCFRAME XSTACK, 24, STACK
        LOCFRAME IOVERLAY, 0, STATIC
        LOCFRAME DOVERLAY, 0, STATIC
        ARGFRAME ISTACK, 0, STACK
        ARGFRAME PSTACK, 0, STACK
        ARGFRAME XSTACK, 24, STACK
        ARGFRAME IOVERLAY, 0, STATIC
        ARGFRAME DOVERLAY, 0, STATIC
        FUNCALL zclSampleThermostat_ProcessFoundationMsg, osal_mem_free
        LOCFRAME ISTACK, 0, STACK
        LOCFRAME PSTACK, 0, STACK
        LOCFRAME XSTACK, 18, STACK
        LOCFRAME IOVERLAY, 0, STATIC
        LOCFRAME DOVERLAY, 0, STATIC
        ARGFRAME ISTACK, 0, STACK
        ARGFRAME PSTACK, 0, STACK
        ARGFRAME XSTACK, 18, STACK
        ARGFRAME IOVERLAY, 0, STATIC
        ARGFRAME DOVERLAY, 0, STATIC
        FUNCALL zclSampleThermostat_ProcessFoundationMsg, zclParseInWriteCmd
        LOCFRAME ISTACK, 0, STACK
        LOCFRAME PSTACK, 0, STACK
        LOCFRAME XSTACK, 18, STACK
        LOCFRAME IOVERLAY, 0, STATIC
        LOCFRAME DOVERLAY, 0, STATIC
        ARGFRAME ISTACK, 0, STACK
        ARGFRAME PSTACK, 0, STACK
        ARGFRAME XSTACK, 18, STACK
        ARGFRAME IOVERLAY, 0, STATIC
        ARGFRAME DOVERLAY, 0, STATIC
        FUNCALL zclSampleThermostat_ProcessFoundationMsg, zcl_SendWriteRequest
        LOCFRAME ISTACK, 0, STACK
        LOCFRAME PSTACK, 0, STACK
        LOCFRAME XSTACK, 24, STACK
        LOCFRAME IOVERLAY, 0, STATIC
        LOCFRAME DOVERLAY, 0, STATIC
        ARGFRAME ISTACK, 0, STACK
        ARGFRAME PSTACK, 0, STACK
        ARGFRAME XSTACK, 24, STACK
        ARGFRAME IOVERLAY, 0, STATIC
        ARGFRAME DOVERLAY, 0, STATIC
        FUNCALL zclSampleThermostat_ProcessFoundationMsg, osal_mem_free
        LOCFRAME ISTACK, 0, STACK
        LOCFRAME PSTACK, 0, STACK
        LOCFRAME XSTACK, 18, STACK
        LOCFRAME IOVERLAY, 0, STATIC
        LOCFRAME DOVERLAY, 0, STATIC
        ARGFRAME ISTACK, 0, STACK
        ARGFRAME PSTACK, 0, STACK
        ARGFRAME XSTACK, 18, STACK
        ARGFRAME IOVERLAY, 0, STATIC
        ARGFRAME DOVERLAY, 0, STATIC
        FUNCALL zclSampleThermostat_ProcessFoundationMsg, zclParseInWriteCmd
        LOCFRAME ISTACK, 0, STACK
        LOCFRAME PSTACK, 0, STACK
        LOCFRAME XSTACK, 18, STACK
        LOCFRAME IOVERLAY, 0, STATIC
        LOCFRAME DOVERLAY, 0, STATIC
        ARGFRAME ISTACK, 0, STACK
        ARGFRAME PSTACK, 0, STACK
        ARGFRAME XSTACK, 18, STACK
        ARGFRAME IOVERLAY, 0, STATIC
        ARGFRAME DOVERLAY, 0, STATIC
        FUNCALL zclSampleThermostat_ProcessFoundationMsg, zcl_SendWriteRequest
        LOCFRAME ISTACK, 0, STACK
        LOCFRAME PSTACK, 0, STACK
        LOCFRAME XSTACK, 24, STACK
        LOCFRAME IOVERLAY, 0, STATIC
        LOCFRAME DOVERLAY, 0, STATIC
        ARGFRAME ISTACK, 0, STACK
        ARGFRAME PSTACK, 0, STACK
        ARGFRAME XSTACK, 24, STACK
        ARGFRAME IOVERLAY, 0, STATIC
        ARGFRAME DOVERLAY, 0, STATIC
        FUNCALL zclSampleThermostat_ProcessFoundationMsg, osal_mem_free
        LOCFRAME ISTACK, 0, STACK
        LOCFRAME PSTACK, 0, STACK
        LOCFRAME XSTACK, 18, STACK
        LOCFRAME IOVERLAY, 0, STATIC
        LOCFRAME DOVERLAY, 0, STATIC
        ARGFRAME ISTACK, 0, STACK
        ARGFRAME PSTACK, 0, STACK
        ARGFRAME XSTACK, 18, STACK
        ARGFRAME IOVERLAY, 0, STATIC
        ARGFRAME DOVERLAY, 0, STATIC
        FUNCALL zclSampleThermostat_ProcessFoundationMsg, zclParseInConfigReportCmd
        LOCFRAME ISTACK, 0, STACK
        LOCFRAME PSTACK, 0, STACK
        LOCFRAME XSTACK, 18, STACK
        LOCFRAME IOVERLAY, 0, STATIC
        LOCFRAME DOVERLAY, 0, STATIC
        ARGFRAME ISTACK, 0, STACK
        ARGFRAME PSTACK, 0, STACK
        ARGFRAME XSTACK, 18, STACK
        ARGFRAME IOVERLAY, 0, STATIC
        ARGFRAME DOVERLAY, 0, STATIC
        FUNCALL zclSampleThermostat_ProcessFoundationMsg, zcl_SendConfigReportCmd
        LOCFRAME ISTACK, 0, STACK
        LOCFRAME PSTACK, 0, STACK
        LOCFRAME XSTACK, 23, STACK
        LOCFRAME IOVERLAY, 0, STATIC
