///////////////////////////////////////////////////////////////////////////////
//
// IAR C/C++ Compiler V9.30.3.3983 for 8051               14/Feb/2017  09:10:56
// Copyright 2004-2016 IAR Systems AB.
// Standalone license - IAR Embedded Workbench for 8051
//
//    Core               =  plain
//    Code model         =  banked
//    Data model         =  large
//    Calling convention =  xdata reentrant
//    Constant location  =  data_rom
//    Dptr setup         =  1,16
//                          
//    Source file        =  
//        C:\Users\Teddy\Desktop\aaa\[COMBROS] Z-Stack Home
//        1.2.2a.44539\Components\stack\zcl\zcl_hvac.c
//    Command line       =  
//        -f "C:\Users\Teddy\Desktop\aaa\[COMBROS] Z-Stack Home
//        1.2.2a.44539\Projects\zstack\HomeAutomation\SampleThermostat\CC2530DB\..\..\..\Tools\CC2530DB\f8wRouter.cfg"
//        (-DCPU32MHZ -DROOT=__near_func -DMAC_CFG_APP_PENDING_QUEUE=TRUE
//        -DMAC_CFG_TX_DATA_MAX=5 -DMAC_CFG_TX_MAX=8 -DMAC_CFG_RX_MAX=5
//        -DRTR_NWK) -f "C:\Users\Teddy\Desktop\aaa\[COMBROS] Z-Stack Home
//        1.2.2a.44539\Projects\zstack\HomeAutomation\SampleThermostat\CC2530DB\..\..\..\Tools\CC2530DB\f8wConfig.cfg"
//        (-DZIGBEEPRO -DSECURE=1 -DZG_SECURE_DYNAMIC=0 -DREFLECTOR
//        -DDEFAULT_CHANLIST=0x00000800 -DZDAPP_CONFIG_PAN_ID=0xFAFA
//        -DNWK_START_DELAY=100 -DEXTENDED_JOINING_RANDOM_MASK=0x007F
//        -DBEACON_REQUEST_DELAY=100 -DBEACON_REQ_DELAY_MASK=0x00FF
//        -DLINK_STATUS_JITTER_MASK=0x007F -DROUTE_EXPIRY_TIME=30
//        -DAPSC_ACK_WAIT_DURATION_POLLED=3000 -DNWK_INDIRECT_MSG_TIMEOUT=7
//        -DMAX_RREQ_ENTRIES=8 -DAPSC_MAX_FRAME_RETRIES=3
//        -DNWK_MAX_DATA_RETRIES=2 -DMAX_POLL_FAILURE_RETRIES=2 -DMAX_BCAST=9
//        -DAPS_MAX_GROUPS=16 -DMAX_RTG_ENTRIES=40 -DNWK_MAX_BINDING_ENTRIES=4
//        -DMAX_BINDING_CLUSTER_IDS=4 "-DDEFAULT_KEY={0x01, 0x03, 0x05, 0x07,
//        0x09, 0x0B, 0x0D, 0x0F, 0x00, 0x02, 0x04, 0x06, 0x08, 0x0A, 0x0C,
//        0x0D}" -DMAC_MAX_FRAME_SIZE=116 -DZDNWKMGR_MIN_TRANSMISSIONS=20
//        "-DCONST=const __code" -DGENERIC=__generic -DRFD_RCVC_ALWAYS_ON=FALSE
//        -DPOLL_RATE=1000 -DQUEUED_POLL_RATE=100 -DRESPONSE_POLL_RATE=100
//        -DREJOIN_POLL_RATE=440 -DREJOIN_BACKOFF=900000 -DREJOIN_SCAN=900000)
//        -f "C:\Users\Teddy\Desktop\aaa\[COMBROS] Z-Stack Home
//        1.2.2a.44539\Projects\zstack\HomeAutomation\SampleThermostat\CC2530DB\..\..\..\Tools\CC2530DB\f8wZCL.cfg"
//        "C:\Users\Teddy\Desktop\aaa\[COMBROS] Z-Stack Home
//        1.2.2a.44539\Components\stack\zcl\zcl_hvac.c" -D ROUTER -D SECURE=1
//        -D TC_LINKKEY_JOIN -D NV_INIT -D NV_RESTORE -D xHOLD_AUTO_START -D
//        ZTOOL_P1 -D MT_TASK -D MT_APP_FUNC -D MT_SYS_FUNC -D MT_ZDO_FUNC -D
//        LCD_SUPPORTED=DEBUG -D MULTICAST_ENABLED=FALSE -D ZCL_READ -D
//        ZCL_WRITE -D ZCL_REPORT -D ZCL_EZMODE -D ZCL_BASIC -D ZCL_IDENTIFY -D
//        ZCL_ON_OFF -D ZCL_HVAC_CLUSTER -lC
//        "C:\Users\Teddy\Desktop\aaa\[COMBROS] Z-Stack Home
//        1.2.2a.44539\Projects\zstack\HomeAutomation\SampleThermostat\CC2530DB\RouterEB\List"
//        -lA "C:\Users\Teddy\Desktop\aaa\[COMBROS] Z-Stack Home
//        1.2.2a.44539\Projects\zstack\HomeAutomation\SampleThermostat\CC2530DB\RouterEB\List"
//        --diag_suppress Pe001,Pa010 -o "C:\Users\Teddy\Desktop\aaa\[COMBROS]
//        Z-Stack Home
//        1.2.2a.44539\Projects\zstack\HomeAutomation\SampleThermostat\CC2530DB\RouterEB\Obj"
//        -e --debug --core=plain --dptr=16,1 --data_model=large
//        --code_model=banked --calling_convention=xdata_reentrant
//        --place_constants=data_rom --nr_virtual_regs 16 -I
//        "C:\Users\Teddy\Desktop\aaa\[COMBROS] Z-Stack Home
//        1.2.2a.44539\Projects\zstack\HomeAutomation\SampleThermostat\CC2530DB\"
//        -I "C:\Users\Teddy\Desktop\aaa\[COMBROS] Z-Stack Home
//        1.2.2a.44539\Projects\zstack\HomeAutomation\SampleThermostat\CC2530DB\..\Source\"
//        -I "C:\Users\Teddy\Desktop\aaa\[COMBROS] Z-Stack Home
//        1.2.2a.44539\Projects\zstack\HomeAutomation\SampleThermostat\CC2530DB\..\..\Source\"
//        -I "C:\Users\Teddy\Desktop\aaa\[COMBROS] Z-Stack Home
//        1.2.2a.44539\Projects\zstack\HomeAutomation\SampleThermostat\CC2530DB\..\..\..\HomeAutomation\MY-SOURCE\"
//        -I "C:\Users\Teddy\Desktop\aaa\[COMBROS] Z-Stack Home
//        1.2.2a.44539\Projects\zstack\HomeAutomation\SampleThermostat\CC2530DB\..\..\..\ZMain\TI2530DB\"
//        -I "C:\Users\Teddy\Desktop\aaa\[COMBROS] Z-Stack Home
//        1.2.2a.44539\Projects\zstack\HomeAutomation\SampleThermostat\CC2530DB\..\..\..\..\..\Components\hal\include\"
//        -I "C:\Users\Teddy\Desktop\aaa\[COMBROS] Z-Stack Home
//        1.2.2a.44539\Projects\zstack\HomeAutomation\SampleThermostat\CC2530DB\..\..\..\..\..\Components\hal\target\CC2530EB\"
//        -I "C:\Users\Teddy\Desktop\aaa\[COMBROS] Z-Stack Home
//        1.2.2a.44539\Projects\zstack\HomeAutomation\SampleThermostat\CC2530DB\..\..\..\..\..\Components\mac\include\"
//        -I "C:\Users\Teddy\Desktop\aaa\[COMBROS] Z-Stack Home
//        1.2.2a.44539\Projects\zstack\HomeAutomation\SampleThermostat\CC2530DB\..\..\..\..\..\Components\mac\high_level\"
//        -I "C:\Users\Teddy\Desktop\aaa\[COMBROS] Z-Stack Home
//        1.2.2a.44539\Projects\zstack\HomeAutomation\SampleThermostat\CC2530DB\..\..\..\..\..\Components\mac\low_level\srf04\"
//        -I "C:\Users\Teddy\Desktop\aaa\[COMBROS] Z-Stack Home
//        1.2.2a.44539\Projects\zstack\HomeAutomation\SampleThermostat\CC2530DB\..\..\..\..\..\Components\mac\low_level\srf04\single_chip\"
//        -I "C:\Users\Teddy\Desktop\aaa\[COMBROS] Z-Stack Home
//        1.2.2a.44539\Projects\zstack\HomeAutomation\SampleThermostat\CC2530DB\..\..\..\..\..\Components\mt\"
//        -I "C:\Users\Teddy\Desktop\aaa\[COMBROS] Z-Stack Home
//        1.2.2a.44539\Projects\zstack\HomeAutomation\SampleThermostat\CC2530DB\..\..\..\..\..\Components\osal\include\"
//        -I "C:\Users\Teddy\Desktop\aaa\[COMBROS] Z-Stack Home
//        1.2.2a.44539\Projects\zstack\HomeAutomation\SampleThermostat\CC2530DB\..\..\..\..\..\Components\services\saddr\"
//        -I "C:\Users\Teddy\Desktop\aaa\[COMBROS] Z-Stack Home
//        1.2.2a.44539\Projects\zstack\HomeAutomation\SampleThermostat\CC2530DB\..\..\..\..\..\Components\services\sdata\"
//        -I "C:\Users\Teddy\Desktop\aaa\[COMBROS] Z-Stack Home
//        1.2.2a.44539\Projects\zstack\HomeAutomation\SampleThermostat\CC2530DB\..\..\..\..\..\Components\stack\af\"
//        -I "C:\Users\Teddy\Desktop\aaa\[COMBROS] Z-Stack Home
//        1.2.2a.44539\Projects\zstack\HomeAutomation\SampleThermostat\CC2530DB\..\..\..\..\..\Components\stack\nwk\"
//        -I "C:\Users\Teddy\Desktop\aaa\[COMBROS] Z-Stack Home
//        1.2.2a.44539\Projects\zstack\HomeAutomation\SampleThermostat\CC2530DB\..\..\..\..\..\Components\stack\sapi\"
//        -I "C:\Users\Teddy\Desktop\aaa\[COMBROS] Z-Stack Home
//        1.2.2a.44539\Projects\zstack\HomeAutomation\SampleThermostat\CC2530DB\..\..\..\..\..\Components\stack\sec\"
//        -I "C:\Users\Teddy\Desktop\aaa\[COMBROS] Z-Stack Home
//        1.2.2a.44539\Projects\zstack\HomeAutomation\SampleThermostat\CC2530DB\..\..\..\..\..\Components\stack\sys\"
//        -I "C:\Users\Teddy\Desktop\aaa\[COMBROS] Z-Stack Home
//        1.2.2a.44539\Projects\zstack\HomeAutomation\SampleThermostat\CC2530DB\..\..\..\..\..\Components\stack\zcl\"
//        -I "C:\Users\Teddy\Desktop\aaa\[COMBROS] Z-Stack Home
//        1.2.2a.44539\Projects\zstack\HomeAutomation\SampleThermostat\CC2530DB\..\..\..\..\..\Components\stack\zdo\"
//        -I "C:\Users\Teddy\Desktop\aaa\[COMBROS] Z-Stack Home
//        1.2.2a.44539\Projects\zstack\HomeAutomation\SampleThermostat\CC2530DB\..\..\..\..\..\Components\zmac\"
//        -I "C:\Users\Teddy\Desktop\aaa\[COMBROS] Z-Stack Home
//        1.2.2a.44539\Projects\zstack\HomeAutomation\SampleThermostat\CC2530DB\..\..\..\..\..\Components\zmac\f8w\"
//        -Ohz --require_prototypes
//    List file          =  
//        C:\Users\Teddy\Desktop\aaa\[COMBROS] Z-Stack Home
//        1.2.2a.44539\Projects\zstack\HomeAutomation\SampleThermostat\CC2530DB\RouterEB\List\zcl_hvac.s51
//
///////////////////////////////////////////////////////////////////////////////

        NAME zcl_hvac

        RTMODEL "__SystemLibrary", "CLib"
        RTMODEL "__calling_convention", "xdata_reentrant"
        RTMODEL "__code_model", "banked"
        RTMODEL "__core", "plain"
        RTMODEL "__data_model", "large"
        RTMODEL "__dptr_size", "16"
        RTMODEL "__extended_stack", "disabled"
        RTMODEL "__location_for_constants", "data"
        RTMODEL "__number_of_dptrs", "1"
        RTMODEL "__rt_version", "1"

        RSEG DOVERLAY:DATA:NOROOT(0)
        RSEG IOVERLAY:IDATA:NOROOT(0)
        RSEG ISTACK:IDATA:NOROOT(0)
        RSEG PSTACK:XDATA:NOROOT(0)
        RSEG XSTACK:XDATA:NOROOT(0)

        EXTERN ?V0
        EXTERN ?V2
        EXTERN ?V3
        EXTERN ?V1
        EXTERN ?V4
        EXTERN ?V5
        EXTERN ?V6
        EXTERN ?V7
        EXTERN ?V8
        EXTERN ?V9
        EXTERN ?V10
        EXTERN ?V11
        EXTERN ?V12
        EXTERN ?V13
        EXTERN ?V14
        EXTERN ?V15
        EXTERN ?ALLOC_XSTACK8
        EXTERN ?BANKED_ENTER_XDATA
        EXTERN ?BANKED_LEAVE_XDATA
        EXTERN ?BDISPATCH
        EXTERN ?BRET
        EXTERN ?CALL_IND
        EXTERN ?DEALLOC_XSTACK8
        EXTERN ?PUSH_XSTACK_I_ONE
        EXTERN ?PUSH_XSTACK_I_TWO
        EXTERN ?S_SHL
        EXTERN ?XSP
        EXTERN ?XSTACK_DISP0_8
        EXTERN __INIT_XDATA_Z

        FUNCTION `??zclHVAC_FindCallbacks::?relay`,0203H
        FUNCTION `??zclHVAC_HdlIncoming::?relay`,0203H
        FUNCTION `??zclHVAC_ProcessInThermostatCmds::?relay`,0203H
        PUBLIC `??zclHVAC_RegisterCmdCallbacks::?relay`
        FUNCTION `??zclHVAC_RegisterCmdCallbacks::?relay`,0203H
        PUBLIC `??zclHVAC_SendClearWeeklySchedule::?relay`
        FUNCTION `??zclHVAC_SendClearWeeklySchedule::?relay`,0203H
        PUBLIC `??zclHVAC_SendGetRelayStatusLog::?relay`
        FUNCTION `??zclHVAC_SendGetRelayStatusLog::?relay`,0203H
        PUBLIC `??zclHVAC_SendGetRelayStatusLogRsp::?relay`
        FUNCTION `??zclHVAC_SendGetRelayStatusLogRsp::?relay`,0203H
        PUBLIC `??zclHVAC_SendGetWeeklySchedule::?relay`
        FUNCTION `??zclHVAC_SendGetWeeklySchedule::?relay`,0203H
        PUBLIC `??zclHVAC_SendGetWeeklyScheduleRsp::?relay`
        FUNCTION `??zclHVAC_SendGetWeeklyScheduleRsp::?relay`,0203H
        PUBLIC `??zclHVAC_SendSetWeeklySchedule::?relay`
        FUNCTION `??zclHVAC_SendSetWeeklySchedule::?relay`,0203H
        PUBLIC `??zclHVAC_SendSetpointRaiseLower::?relay`
        FUNCTION `??zclHVAC_SendSetpointRaiseLower::?relay`,0203H
        FUNCTION ??zclThermostat_ProcessInCmd_GetRelayStatusLogR,0203H
        FUNCTION ??zclThermostat_ProcessInCmd_GetWeeklyScheduleR,0203H
        FUNCTION `??zclThermostat_ProcessInCmd_SetWeeklySchedule:`,0203H
        FUNCTION zclHVAC_FindCallbacks,0203H
        ARGFRAME XSTACK, 10, STACK
        ARGFRAME IOVERLAY, 0, STATIC
        ARGFRAME DOVERLAY, 0, STATIC
        LOCFRAME ISTACK, 2, STACK
        FUNCTION zclHVAC_HdlIncoming,0a1603H
        ARGFRAME XSTACK, 0, STACK
        LOCFRAME XSTACK, 10, STACK
        FUNCTION zclHVAC_ProcessInThermostatCmds,021203H
        ARGFRAME XSTACK, 10, STACK
        ARGFRAME IOVERLAY, 0, STATIC
        ARGFRAME DOVERLAY, 0, STATIC
        LOCFRAME ISTACK, 1, STACK
        LOCFRAME XSTACK, 11, STACK
        PUBLIC zclHVAC_RegisterCmdCallbacks
        FUNCTION zclHVAC_RegisterCmdCallbacks,0a1203H
        ARGFRAME XSTACK, 0, STACK
        LOCFRAME ISTACK, 1, STACK
        LOCFRAME XSTACK, 14, STACK
        PUBLIC zclHVAC_SendClearWeeklySchedule
        FUNCTION zclHVAC_SendClearWeeklySchedule,0a1203H
        ARGFRAME XSTACK, 0, STACK
        LOCFRAME XSTACK, 23, STACK
        PUBLIC zclHVAC_SendGetRelayStatusLog
        FUNCTION zclHVAC_SendGetRelayStatusLog,0a1203H
        ARGFRAME XSTACK, 0, STACK
        LOCFRAME XSTACK, 23, STACK
        PUBLIC zclHVAC_SendGetRelayStatusLogRsp
        FUNCTION zclHVAC_SendGetRelayStatusLogRsp,0a1203H
        ARGFRAME XSTACK, 2, STACK
        LOCFRAME ISTACK, 1, STACK
        LOCFRAME XSTACK, 32, STACK
        PUBLIC zclHVAC_SendGetWeeklySchedule
        FUNCTION zclHVAC_SendGetWeeklySchedule,0a1203H
        ARGFRAME XSTACK, 2, STACK
        LOCFRAME ISTACK, 1, STACK
        LOCFRAME XSTACK, 25, STACK
        PUBLIC zclHVAC_SendGetWeeklyScheduleRsp
        FUNCTION zclHVAC_SendGetWeeklyScheduleRsp,0a1203H
        ARGFRAME XSTACK, 2, STACK
        LOCFRAME ISTACK, 1, STACK
        LOCFRAME XSTACK, 35, STACK
        PUBLIC zclHVAC_SendSetWeeklySchedule
        FUNCTION zclHVAC_SendSetWeeklySchedule,0a1203H
        ARGFRAME XSTACK, 2, STACK
        LOCFRAME ISTACK, 1, STACK
        LOCFRAME XSTACK, 35, STACK
        PUBLIC zclHVAC_SendSetpointRaiseLower
        FUNCTION zclHVAC_SendSetpointRaiseLower,0a1203H
        ARGFRAME XSTACK, 2, STACK
        LOCFRAME ISTACK, 1, STACK
        LOCFRAME XSTACK, 25, STACK
        FUNCTION zclThermostat_ProcessInCmd_GetRelayStatusLogRsp,080203H
        ARGFRAME XSTACK, 11, STACK
        ARGFRAME IOVERLAY, 0, STATIC
        ARGFRAME DOVERLAY, 0, STATIC
        LOCFRAME ISTACK, 1, STACK
        LOCFRAME XSTACK, 21, STACK
        FUNCTION zclThermostat_ProcessInCmd_GetWeeklyScheduleRsp,0a1203H
        ARGFRAME XSTACK, 11, STACK
        ARGFRAME IOVERLAY, 0, STATIC
        ARGFRAME DOVERLAY, 0, STATIC
        LOCFRAME ISTACK, 1, STACK
        LOCFRAME XSTACK, 21, STACK
        FUNCTION zclThermostat_ProcessInCmd_SetWeeklySchedule,0a1203H
        ARGFRAME XSTACK, 11, STACK
        ARGFRAME IOVERLAY, 0, STATIC
        ARGFRAME DOVERLAY, 0, STATIC
        LOCFRAME ISTACK, 1, STACK
        LOCFRAME XSTACK, 21, STACK
        
          CFI Names cfiNames0
          CFI StackFrame CFA_SP SP IDATA
          CFI StackFrame CFA_PSP16 PSP16 XDATA
          CFI StackFrame CFA_XSP16 XSP16 XDATA
          CFI StaticOverlayFrame CFA_IOVERLAY IOVERLAY
          CFI StaticOverlayFrame CFA_DOVERLAY DOVERLAY
          CFI Resource `PSW.CY`:1, `B.BR0`:1, `B.BR1`:1, `B.BR2`:1, `B.BR3`:1
          CFI Resource `B.BR4`:1, `B.BR5`:1, `B.BR6`:1, `B.BR7`:1, `VB.BR8`:1
          CFI Resource `VB.BR9`:1, `VB.BR10`:1, `VB.BR11`:1, `VB.BR12`:1
          CFI Resource `VB.BR13`:1, `VB.BR14`:1, `VB.BR15`:1, VB:8, B:8, A:8
          CFI Resource PSW:8, DPL0:8, DPH0:8, R0:8, R1:8, R2:8, R3:8, R4:8, R5:8
          CFI Resource R6:8, R7:8, V0:8, V1:8, V2:8, V3:8, V4:8, V5:8, V6:8, V7:8
          CFI Resource V8:8, V9:8, V10:8, V11:8, V12:8, V13:8, V14:8, V15:8, SP:8
          CFI Resource PSPH:8, PSPL:8, PSP16:16, XSPH:8, XSPL:8, XSP16:16
          CFI VirtualResource ?RET:24
          CFI Resource ?BRET_EXT:8
          CFI VirtualResource ?RET_HIGH:8, ?RET_LOW:8
          CFI ResourceParts PSP16 PSPH, PSPL
          CFI ResourceParts XSP16 XSPH, XSPL
          CFI ResourceParts ?RET ?BRET_EXT, ?RET_HIGH, ?RET_LOW
          CFI EndNames cfiNames0
        
          CFI Common cfiCommon0 Using cfiNames0
          CFI CodeAlign 1
          CFI DataAlign -1
          CFI ReturnAddress ?RET CODE
          CFI CFA_DOVERLAY Used
          CFI CFA_IOVERLAY Used
          CFI CFA_SP SP+-3
          CFI CFA_PSP16 PSP16+0
          CFI CFA_XSP16 XSP16+0
          CFI `PSW.CY` SameValue
          CFI `B.BR0` SameValue
          CFI `B.BR1` SameValue
          CFI `B.BR2` SameValue
          CFI `B.BR3` SameValue
          CFI `B.BR4` SameValue
          CFI `B.BR5` SameValue
          CFI `B.BR6` SameValue
          CFI `B.BR7` SameValue
          CFI `VB.BR8` SameValue
          CFI `VB.BR9` SameValue
          CFI `VB.BR10` SameValue
          CFI `VB.BR11` SameValue
          CFI `VB.BR12` SameValue
          CFI `VB.BR13` SameValue
          CFI `VB.BR14` SameValue
          CFI `VB.BR15` SameValue
          CFI VB SameValue
          CFI B Undefined
          CFI A Undefined
          CFI PSW SameValue
          CFI DPL0 SameValue
          CFI DPH0 SameValue
          CFI R0 Undefined
          CFI R1 Undefined
          CFI R2 Undefined
          CFI R3 Undefined
          CFI R4 Undefined
          CFI R5 Undefined
          CFI R6 SameValue
          CFI R7 SameValue
          CFI V0 SameValue
          CFI V1 SameValue
          CFI V2 SameValue
          CFI V3 SameValue
          CFI V4 SameValue
          CFI V5 SameValue
          CFI V6 SameValue
          CFI V7 SameValue
          CFI V8 SameValue
          CFI V9 SameValue
          CFI V10 SameValue
          CFI V11 SameValue
          CFI V12 SameValue
          CFI V13 SameValue
          CFI V14 SameValue
          CFI V15 SameValue
          CFI PSPH Undefined
          CFI PSPL Undefined
          CFI XSPH Undefined
          CFI XSPL Undefined
          CFI ?RET Concat
          CFI ?BRET_EXT Frame(CFA_SP, 3)
          CFI ?RET_HIGH Frame(CFA_SP, 2)
          CFI ?RET_LOW Frame(CFA_SP, 1)
          CFI EndCommon cfiCommon0
        
        
          CFI Common cfiCommon1 Using cfiNames0
          CFI CodeAlign 1
          CFI DataAlign -1
          CFI ReturnAddress ?RET CODE
          CFI CFA_DOVERLAY Used
          CFI CFA_IOVERLAY Used
          CFI CFA_SP SP+-2
          CFI CFA_PSP16 PSP16+0
          CFI CFA_XSP16 XSP16+0
          CFI `PSW.CY` SameValue
          CFI `B.BR0` SameValue
          CFI `B.BR1` SameValue
          CFI `B.BR2` SameValue
          CFI `B.BR3` SameValue
          CFI `B.BR4` SameValue
          CFI `B.BR5` SameValue
          CFI `B.BR6` SameValue
          CFI `B.BR7` SameValue
          CFI `VB.BR8` SameValue
          CFI `VB.BR9` SameValue
          CFI `VB.BR10` SameValue
          CFI `VB.BR11` SameValue
          CFI `VB.BR12` SameValue
          CFI `VB.BR13` SameValue
          CFI `VB.BR14` SameValue
          CFI `VB.BR15` SameValue
          CFI VB SameValue
          CFI B SameValue
          CFI A SameValue
          CFI PSW SameValue
          CFI DPL0 SameValue
          CFI DPH0 SameValue
          CFI R0 SameValue
          CFI R1 SameValue
          CFI R2 SameValue
          CFI R3 SameValue
          CFI R4 SameValue
          CFI R5 SameValue
          CFI R6 SameValue
          CFI R7 SameValue
          CFI V0 SameValue
          CFI V1 SameValue
          CFI V2 SameValue
          CFI V3 SameValue
          CFI V4 SameValue
          CFI V5 SameValue
          CFI V6 SameValue
          CFI V7 SameValue
          CFI V8 SameValue
          CFI V9 SameValue
          CFI V10 SameValue
          CFI V11 SameValue
          CFI V12 SameValue
          CFI V13 SameValue
          CFI V14 SameValue
          CFI V15 SameValue
          CFI PSPH Undefined
          CFI PSPL Undefined
          CFI XSPH Undefined
          CFI XSPL Undefined
          CFI ?RET Concat
          CFI ?BRET_EXT SameValue
          CFI ?RET_HIGH Frame(CFA_SP, 2)
          CFI ?RET_LOW Frame(CFA_SP, 1)
          CFI EndCommon cfiCommon1
        
osal_mem_alloc      SYMBOL "osal_mem_alloc"
`??osal_mem_alloc::?relay` SYMBOL "?relay", osal_mem_alloc
osal_mem_free       SYMBOL "osal_mem_free"
`??osal_mem_free::?relay` SYMBOL "?relay", osal_mem_free
zcl_SendCommand     SYMBOL "zcl_SendCommand"
`??zcl_SendCommand::?relay` SYMBOL "?relay", zcl_SendCommand
zcl_registerPlugin  SYMBOL "zcl_registerPlugin"
`??zcl_registerPlugin::?relay` SYMBOL "?relay", zcl_registerPlugin
zclHVAC_RegisterCmdCallbacks SYMBOL "zclHVAC_RegisterCmdCallbacks"
`??zclHVAC_RegisterCmdCallbacks::?relay` SYMBOL "?relay", zclHVAC_RegisterCmdCallbacks
zclHVAC_SendClearWeeklySchedule SYMBOL "zclHVAC_SendClearWeeklySchedule"
`??zclHVAC_SendClearWeeklySchedule::?relay` SYMBOL "?relay", zclHVAC_SendClearWeeklySchedule
zclHVAC_SendGetRelayStatusLog SYMBOL "zclHVAC_SendGetRelayStatusLog"
`??zclHVAC_SendGetRelayStatusLog::?relay` SYMBOL "?relay", zclHVAC_SendGetRelayStatusLog
zclHVAC_SendGetRelayStatusLogRsp SYMBOL "zclHVAC_SendGetRelayStatusLogRsp"
`??zclHVAC_SendGetRelayStatusLogRsp::?relay` SYMBOL "?relay", zclHVAC_SendGetRelayStatusLogRsp
zclHVAC_SendGetWeeklySchedule SYMBOL "zclHVAC_SendGetWeeklySchedule"
`??zclHVAC_SendGetWeeklySchedule::?relay` SYMBOL "?relay", zclHVAC_SendGetWeeklySchedule
zclHVAC_SendGetWeeklyScheduleRsp SYMBOL "zclHVAC_SendGetWeeklyScheduleRsp"
`??zclHVAC_SendGetWeeklyScheduleRsp::?relay` SYMBOL "?relay", zclHVAC_SendGetWeeklyScheduleRsp
zclHVAC_SendSetWeeklySchedule SYMBOL "zclHVAC_SendSetWeeklySchedule"
`??zclHVAC_SendSetWeeklySchedule::?relay` SYMBOL "?relay", zclHVAC_SendSetWeeklySchedule
zclHVAC_SendSetpointRaiseLower SYMBOL "zclHVAC_SendSetpointRaiseLower"
`??zclHVAC_SendSetpointRaiseLower::?relay` SYMBOL "?relay", zclHVAC_SendSetpointRaiseLower

        EXTERN `??osal_mem_alloc::?relay`
        FUNCTION `??osal_mem_alloc::?relay`,00H
        EXTERN `??osal_mem_free::?relay`
        FUNCTION `??osal_mem_free::?relay`,00H
        EXTERN `??zcl_SendCommand::?relay`
        FUNCTION `??zcl_SendCommand::?relay`,00H
        EXTERN `??zcl_registerPlugin::?relay`
        FUNCTION `??zcl_registerPlugin::?relay`,00H
        EXTERN osal_mem_alloc
        FUNCTION osal_mem_alloc,0202H
        ARGFRAME ISTACK, 0, STACK
        ARGFRAME PSTACK, 0, STACK
        ARGFRAME XSTACK, 24, STACK
        ARGFRAME IOVERLAY, 0, STATIC
        ARGFRAME DOVERLAY, 0, STATIC
        EXTERN osal_mem_free
        FUNCTION osal_mem_free,0202H
        ARGFRAME ISTACK, 0, STACK
        ARGFRAME PSTACK, 0, STACK
        ARGFRAME XSTACK, 24, STACK
        ARGFRAME IOVERLAY, 0, STATIC
        ARGFRAME DOVERLAY, 0, STATIC
        EXTERN zcl_SendCommand
        FUNCTION zcl_SendCommand,0202H
        ARGFRAME ISTACK, 0, STACK
        ARGFRAME PSTACK, 0, STACK
        ARGFRAME XSTACK, 35, STACK
        ARGFRAME IOVERLAY, 0, STATIC
        ARGFRAME DOVERLAY, 0, STATIC
        EXTERN zcl_registerPlugin
        FUNCTION zcl_registerPlugin,0202H
        ARGFRAME ISTACK, 0, STACK
        ARGFRAME PSTACK, 0, STACK
        ARGFRAME XSTACK, 14, STACK
        ARGFRAME IOVERLAY, 0, STATIC
        ARGFRAME DOVERLAY, 0, STATIC

// C:\Users\Teddy\Desktop\aaa\[COMBROS] Z-Stack Home 1.2.2a.44539\Components\stack\zcl\zcl_hvac.c
//    1 /**************************************************************************************************
//    2   Filename:       zcl_hvac.c
//    3   Revised:        $Date: 2013-10-16 16:08:27 -0700 (Wed, 16 Oct 2013) $
//    4   Revision:       $Revision: 35699 $
//    5 
//    6   Description:    Zigbee Cluster Library - HVAC
//    7 
//    8 
//    9   Copyright 2006-2013 Texas Instruments Incorporated. All rights reserved.
//   10 
//   11   IMPORTANT: Your use of this Software is limited to those specific rights
//   12   granted under the terms of a software license agreement between the user
//   13   who downloaded the software, his/her employer (which must be your employer)
//   14   and Texas Instruments Incorporated (the "License").  You may not use this
//   15   Software unless you agree to abide by the terms of the License. The License
//   16   limits your use, and you acknowledge, that the Software may not be modified,
//   17   copied or distributed unless embedded on a Texas Instruments microcontroller
//   18   or used solely and exclusively in conjunction with a Texas Instruments radio
//   19   frequency transceiver, which is integrated into your product.  Other than for
//   20   the foregoing purpose, you may not use, reproduce, copy, prepare derivative
//   21   works of, modify, distribute, perform, display or sell this Software and/or
//   22   its documentation for any purpose.
//   23 
//   24   YOU FURTHER ACKNOWLEDGE AND AGREE THAT THE SOFTWARE AND DOCUMENTATION ARE
//   25   PROVIDED "AS IS" WITHOUT WARRANTY OF ANY KIND, EITHER EXPRESS OR IMPLIED,
//   26   INCLUDING WITHOUT LIMITATION, ANY WARRANTY OF MERCHANTABILITY, TITLE,
//   27   NON-INFRINGEMENT AND FITNESS FOR A PARTICULAR PURPOSE. IN NO EVENT SHALL
//   28   TEXAS INSTRUMENTS OR ITS LICENSORS BE LIABLE OR OBLIGATED UNDER CONTRACT,
//   29   NEGLIGENCE, STRICT LIABILITY, CONTRIBUTION, BREACH OF WARRANTY, OR OTHER
//   30   LEGAL EQUITABLE THEORY ANY DIRECT OR INDIRECT DAMAGES OR EXPENSES
//   31   INCLUDING BUT NOT LIMITED TO ANY INCIDENTAL, SPECIAL, INDIRECT, PUNITIVE
//   32   OR CONSEQUENTIAL DAMAGES, LOST PROFITS OR LOST DATA, COST OF PROCUREMENT
//   33   OF SUBSTITUTE GOODS, TECHNOLOGY, SERVICES, OR ANY CLAIMS BY THIRD PARTIES
//   34   (INCLUDING BUT NOT LIMITED TO ANY DEFENSE THEREOF), OR OTHER SIMILAR COSTS.
//   35 
//   36   Should you have any questions regarding your right to use this Software,
//   37   contact Texas Instruments Incorporated at www.TI.com.
//   38 **************************************************************************************************/
//   39 
//   40 #ifdef ZCL_HVAC_CLUSTER
//   41 
//   42 /*********************************************************************
//   43  * INCLUDES
//   44  */
//   45 #include "zcl.h"
//   46 #include "zcl_general.h"
//   47 #include "zcl_hvac.h"
//   48 
//   49 #if defined ( INTER_PAN )
//   50   #include "stub_aps.h"
//   51 #endif
//   52 
//   53 /*********************************************************************
//   54  * MACROS
//   55  */
//   56 
//   57 /*********************************************************************
//   58  * CONSTANTS
//   59  */
//   60 
//   61 /*********************************************************************
//   62  * TYPEDEFS
//   63  */
//   64 typedef struct zclHVACCBRec
//   65 {
//   66   struct zclHVACCBRec     *next;
//   67   uint8                   endpoint; // Used to link it into the endpoint descriptor
//   68   zclHVAC_AppCallbacks_t  *CBs;     // Pointer to Callback function
//   69 } zclHVACCBRec_t;
//   70 
//   71 /*********************************************************************
//   72  * GLOBAL VARIABLES
//   73  */
//   74 
//   75 /*********************************************************************
//   76  * GLOBAL FUNCTIONS
//   77  */
//   78 
//   79 /*********************************************************************
//   80  * LOCAL VARIABLES
//   81  */

        RSEG XDATA_Z:XDATA:NOROOT(0)
        DATA16
//   82 static zclHVACCBRec_t *zclHVACCBs = (zclHVACCBRec_t *)NULL;
zclHVACCBs:
        DS 2
        REQUIRE __INIT_XDATA_Z

        RSEG XDATA_Z:XDATA:NOROOT(0)
        DATA8
//   83 static uint8 zclHVACPluginRegisted = FALSE;
zclHVACPluginRegisted:
        DS 1
        REQUIRE __INIT_XDATA_Z
//   84 
//   85 
//   86 /*********************************************************************
//   87  * LOCAL FUNCTIONS
//   88  */
//   89 static ZStatus_t zclHVAC_HdlIncoming( zclIncoming_t *pInMsg );
//   90 static ZStatus_t zclHVAC_HdlInSpecificCommands( zclIncoming_t *pInMsg );
//   91 static zclHVAC_AppCallbacks_t *zclHVAC_FindCallbacks( uint8 endpoint );
//   92 
//   93 static ZStatus_t zclHVAC_ProcessInPumpCmds( zclIncoming_t *pInMsg );
//   94 static ZStatus_t zclHVAC_ProcessInThermostatCmds( zclIncoming_t *pInMsg, zclHVAC_AppCallbacks_t *pCBs );
//   95 static ZStatus_t zclThermostat_ProcessInCmd_SetpointRaiseLower( zclIncoming_t *pInMsg, zclHVAC_AppCallbacks_t *pCBs );
//   96 static ZStatus_t zclThermostat_ProcessInCmd_SetWeeklySchedule( zclIncoming_t *pInMsg, zclHVAC_AppCallbacks_t *pCBs );
//   97 static ZStatus_t zclThermostat_ProcessInCmd_GetWeeklySchedule( zclIncoming_t *pInMsg, zclHVAC_AppCallbacks_t *pCBs );
//   98 static ZStatus_t zclThermostat_ProcessInCmd_ClearWeeklySchedule( zclIncoming_t *pInMsg, zclHVAC_AppCallbacks_t *pCBs );
//   99 static ZStatus_t zclThermostat_ProcessInCmd_GetRelayStatusLog( zclIncoming_t *pInMsg, zclHVAC_AppCallbacks_t *pCBs );
//  100 static ZStatus_t zclThermostat_ProcessInCmd_GetWeeklyScheduleRsp( zclIncoming_t *pInMsg, zclHVAC_AppCallbacks_t *pCBs );
//  101 static ZStatus_t zclThermostat_ProcessInCmd_GetRelayStatusLogRsp( zclIncoming_t *pInMsg, zclHVAC_AppCallbacks_t *pCBs );
//  102 
//  103 /*********************************************************************
//  104  * @fn      zclHVAC_RegisterCmdCallbacks
//  105  *
//  106  * @brief   Register an applications command callbacks
//  107  *
//  108  * @param   endpoint - application's endpoint
//  109  * @param   callbacks - pointer to the callback record.
//  110  *
//  111  * @return  ZMemError if not able to allocate
//  112  */

        RSEG BANKED_CODE:HUGECODE:NOROOT(0)
//  113 ZStatus_t zclHVAC_RegisterCmdCallbacks( uint8 endpoint, zclHVAC_AppCallbacks_t *callbacks )
zclHVAC_RegisterCmdCallbacks:
          CFI Block cfiBlock0 Using cfiCommon0
          CFI Function zclHVAC_RegisterCmdCallbacks
        CODE
//  114 {
        FUNCALL zclHVAC_RegisterCmdCallbacks, zcl_registerPlugin
        LOCFRAME ISTACK, 0, STACK
        LOCFRAME PSTACK, 0, STACK
        LOCFRAME XSTACK, 14, STACK
        LOCFRAME IOVERLAY, 0, STATIC
        LOCFRAME DOVERLAY, 0, STATIC
        ARGFRAME ISTACK, 0, STACK
        ARGFRAME PSTACK, 0, STACK
        ARGFRAME XSTACK, 14, STACK
        ARGFRAME IOVERLAY, 0, STATIC
        ARGFRAME DOVERLAY, 0, STATIC
        FUNCALL zclHVAC_RegisterCmdCallbacks, osal_mem_alloc
        LOCFRAME ISTACK, 0, STACK
        LOCFRAME PSTACK, 0, STACK
        LOCFRAME XSTACK, 12, STACK
        LOCFRAME IOVERLAY, 0, STATIC
        LOCFRAME DOVERLAY, 0, STATIC
        ARGFRAME ISTACK, 0, STACK
        ARGFRAME PSTACK, 0, STACK
        ARGFRAME XSTACK, 12, STACK
        ARGFRAME IOVERLAY, 0, STATIC
        ARGFRAME DOVERLAY, 0, STATIC
        REQUIRE ?V0
        REQUIRE ?V2
        REQUIRE ?V3
        MOV     A,#-0xc
        LCALL   ?BANKED_ENTER_XDATA
          CFI DPH0 load(1, XDATA, add(CFA_XSP16, literal(-1)))
          CFI DPL0 load(1, XDATA, add(CFA_XSP16, literal(-2)))
          CFI ?BRET_EXT load(1, XDATA, add(CFA_XSP16, literal(-3)))
          CFI ?RET_HIGH load(1, XDATA, add(CFA_XSP16, literal(-4)))
          CFI ?RET_LOW load(1, XDATA, add(CFA_XSP16, literal(-5)))
          CFI R7 load(1, XDATA, add(CFA_XSP16, literal(-6)))
          CFI V3 load(1, XDATA, add(CFA_XSP16, literal(-7)))
          CFI V2 load(1, XDATA, add(CFA_XSP16, literal(-8)))
          CFI V1 load(1, XDATA, add(CFA_XSP16, literal(-9)))
          CFI V0 load(1, XDATA, add(CFA_XSP16, literal(-10)))
          CFI VB load(1, XDATA, add(CFA_XSP16, literal(-11)))
          CFI R6 load(1, XDATA, add(CFA_XSP16, literal(-12)))
          CFI CFA_SP SP+0
          CFI CFA_XSP16 add(XSP16, 12)
        ; Saved register size: 12
        ; Auto size: 0
        MOV     ?V0,R1
        MOV     A,R2
        MOV     R6,A
        MOV     A,R3
        MOV     R7,A
//  115   zclHVACCBRec_t *pNewItem;
//  116   zclHVACCBRec_t *pLoop;
//  117 
//  118   // Register as a ZCL Plugin
//  119   if ( !zclHVACPluginRegisted )
        MOV     DPTR,#zclHVACPluginRegisted
        MOVX    A,@DPTR
        JNZ     ??zclHVAC_RegisterCmdCallbacks_0
//  120   {
//  121     zcl_registerPlugin( ZCL_CLUSTER_ID_HVAC_PUMP_CONFIG_CONTROL,
//  122                         ZCL_CLUSTER_ID_HVAC_USER_INTERFACE_CONFIG,
//  123                         zclHVAC_HdlIncoming );
        ; Setup parameters for call to function zcl_registerPlugin
        MOV     ?V2,#`??zclHVAC_HdlIncoming::?relay` & 0xff
        MOV     ?V3,#(`??zclHVAC_HdlIncoming::?relay` >> 8) & 0xff
        MOV     R0,#?V2
        LCALL   ?PUSH_XSTACK_I_TWO
          CFI CFA_XSP16 add(XSP16, 14)
        MOV     R4,#0x4
        MOV     R5,#0x2
        MOV     R2,#0x0
        MOV     R3,#0x2
        LCALL   `??zcl_registerPlugin::?relay`; Banked call to: zcl_registerPlugin
        MOV     A,#0x2
        LCALL   ?DEALLOC_XSTACK8
          CFI CFA_XSP16 add(XSP16, 12)
//  124     zclHVACPluginRegisted = TRUE;
        MOV     DPTR,#zclHVACPluginRegisted
        MOV     A,#0x1
        MOVX    @DPTR,A
//  125   }
//  126 
//  127   // Fill in the new profile list
//  128   pNewItem = zcl_mem_alloc( sizeof( zclHVACCBRec_t ) );
??zclHVAC_RegisterCmdCallbacks_0:
        ; Setup parameters for call to function osal_mem_alloc
        MOV     R2,#0x5
        MOV     R3,#0x0
        LCALL   `??osal_mem_alloc::?relay`; Banked call to: osal_mem_alloc
        MOV     ?V2,R2
        MOV     ?V3,R3
        MOV     R0,?V2
        MOV     R1,?V3
//  129   if ( pNewItem == NULL )
        MOV     A,R0
        ORL     A,R1
        JNZ     ??zclHVAC_RegisterCmdCallbacks_1
//  130     return (ZMemError);
        MOV     R1,#0x10
        SJMP    ??zclHVAC_RegisterCmdCallbacks_2
//  131 
//  132   pNewItem->next = (zclHVACCBRec_t *)NULL;
??zclHVAC_RegisterCmdCallbacks_1:
        MOV     DPL,R0
        MOV     DPH,R1
        CLR     A
        MOVX    @DPTR,A
        INC     DPTR
        LCALL   ?Subroutine47 & 0xFFFF
//  133   pNewItem->endpoint = endpoint;
??CrossCallReturnLabel_104:
        INC     DPTR
        MOV     A,?V0
        LCALL   ?Subroutine47 & 0xFFFF
//  134   pNewItem->CBs = callbacks;
??CrossCallReturnLabel_105:
        INC     DPTR
        INC     DPTR
        MOV     A,R6
        MOVX    @DPTR,A
        INC     DPTR
        MOV     A,R7
        MOVX    @DPTR,A
//  135 
//  136   // Find spot in list
//  137   if ( zclHVACCBs == NULL )
        MOV     DPTR,#zclHVACCBs
        LCALL   ??Subroutine60_0 & 0xFFFF
??CrossCallReturnLabel_109:
        MOV     DPTR,#zclHVACCBs
        JZ      ??zclHVAC_RegisterCmdCallbacks_3
//  138   {
//  139     zclHVACCBs = pNewItem;
//  140   }
//  141   else
//  142   {
//  143     // Look for end of list
//  144     pLoop = zclHVACCBs;
        MOVX    A,@DPTR
        MOV     R4,A
        INC     DPTR
        MOVX    A,@DPTR
        SJMP    ??zclHVAC_RegisterCmdCallbacks_4
//  145     while ( pLoop->next != NULL )
//  146       pLoop = pLoop->next;
??zclHVAC_RegisterCmdCallbacks_5:
        MOV     A,R2
        MOV     R4,A
        MOV     A,R3
??zclHVAC_RegisterCmdCallbacks_4:
        LCALL   ?Subroutine14 & 0xFFFF
??CrossCallReturnLabel_107:
        JNZ     ??zclHVAC_RegisterCmdCallbacks_5
//  147 
//  148     // Put new item at end of list
//  149     pLoop->next = pNewItem;
        MOV     DPL,R4
        MOV     DPH,R5
??zclHVAC_RegisterCmdCallbacks_3:
        MOV     A,R0
        MOVX    @DPTR,A
        INC     DPTR
        MOV     A,R1
        MOVX    @DPTR,A
//  150   }
//  151   return ( ZSuccess );
        MOV     R1,#0x0
??zclHVAC_RegisterCmdCallbacks_2:
        LJMP    ??Subroutine56_0 & 0xFFFF
//  152 }
          CFI EndBlock cfiBlock0
//  153 
//  154 /*********************************************************************
//  155  * @fn      zclHVAC_SendSetpointRaiseLower
//  156  *
//  157  * @brief   Call to send out a Setpoint Raise/Lower Command
//  158  *
//  159  * @param   srcEP - Sending application's endpoint
//  160  * @param   dstAddr - where you want the message to go
//  161  * @param   mode - which setpoint is to be configured
//  162  * @param   amount - amount setpoint(s) are to be increased (or decreased) by,
//  163  *                   in steps of 0.1°C
//  164  * @param   seqNum - transaction sequence number
//  165  *
//  166  * @return  ZStatus_t
//  167  */

        RSEG BANKED_CODE:HUGECODE:NOROOT(0)
//  168 ZStatus_t zclHVAC_SendSetpointRaiseLower( uint8 srcEP, afAddrType_t *dstAddr,
zclHVAC_SendSetpointRaiseLower:
          CFI Block cfiBlock1 Using cfiCommon0
          CFI Function zclHVAC_SendSetpointRaiseLower
        CODE
//  169                                           uint8 mode, int8 amount,
//  170                                           uint8 disableDefaultRsp, uint8 seqNum )
//  171 {
        FUNCALL zclHVAC_SendSetpointRaiseLower, zcl_SendCommand
        LOCFRAME ISTACK, 0, STACK
        LOCFRAME PSTACK, 0, STACK
        LOCFRAME XSTACK, 25, STACK
        LOCFRAME IOVERLAY, 0, STATIC
        LOCFRAME DOVERLAY, 0, STATIC
        ARGFRAME ISTACK, 0, STACK
        ARGFRAME PSTACK, 0, STACK
        ARGFRAME XSTACK, 25, STACK
        ARGFRAME IOVERLAY, 0, STATIC
        ARGFRAME DOVERLAY, 0, STATIC
        REQUIRE ?V0
        REQUIRE ?V1
        REQUIRE ?V2
        REQUIRE ?V3
        MOV     A,#-0xc
        LCALL   ?BANKED_ENTER_XDATA
          CFI DPH0 load(1, XDATA, add(CFA_XSP16, literal(-1)))
          CFI DPL0 load(1, XDATA, add(CFA_XSP16, literal(-2)))
          CFI ?BRET_EXT load(1, XDATA, add(CFA_XSP16, literal(-3)))
          CFI ?RET_HIGH load(1, XDATA, add(CFA_XSP16, literal(-4)))
          CFI ?RET_LOW load(1, XDATA, add(CFA_XSP16, literal(-5)))
          CFI R7 load(1, XDATA, add(CFA_XSP16, literal(-6)))
          CFI V3 load(1, XDATA, add(CFA_XSP16, literal(-7)))
          CFI V2 load(1, XDATA, add(CFA_XSP16, literal(-8)))
          CFI V1 load(1, XDATA, add(CFA_XSP16, literal(-9)))
          CFI V0 load(1, XDATA, add(CFA_XSP16, literal(-10)))
          CFI VB load(1, XDATA, add(CFA_XSP16, literal(-11)))
          CFI R6 load(1, XDATA, add(CFA_XSP16, literal(-12)))
          CFI CFA_SP SP+0
          CFI CFA_XSP16 add(XSP16, 12)
        ; Saved register size: 12
        ; Auto size: 2
        MOV     A,#-0x2
        LCALL   ?ALLOC_XSTACK8
          CFI CFA_XSP16 add(XSP16, 14)
        MOV     A,R1
        MOV     R6,A
        MOV     A,R4
//  172   uint8 buf[PAYLOAD_LEN_SETPOINT_RAISE_LOWER];
//  173 
//  174   buf[0] = mode;
        MOV     DPL,?XSP + 0
        MOV     DPH,?XSP + 1
        MOVX    @DPTR,A
//  175   buf[1] = amount;
        MOV     A,#0x1
        LCALL   ?XSTACK_DISP0_8
        LCALL   ?Subroutine31 & 0xFFFF
//  176 
//  177   return zcl_SendCommand( srcEP, dstAddr, ZCL_CLUSTER_ID_HVAC_THERMOSTAT,
//  178                           COMMAND_THERMOSTAT_SETPOINT_RAISE_LOWER, TRUE,
//  179                           ZCL_FRAME_CLIENT_SERVER_DIR, disableDefaultRsp, 0,
//  180                           seqNum, PAYLOAD_LEN_SETPOINT_RAISE_LOWER, buf );
??CrossCallReturnLabel_50:
        LCALL   ?PUSH_XSTACK_I_TWO
          CFI CFA_XSP16 add(XSP16, 16)
        MOV     ?V2,#0x2
        MOV     ?V3,#0x0
        MOV     R0,#?V2
        LCALL   ?PUSH_XSTACK_I_TWO
          CFI CFA_XSP16 add(XSP16, 18)
        MOV     A,#0x13
        LCALL   ?XSTACK_DISP0_8
        LCALL   ?Subroutine24 & 0xFFFF
??CrossCallReturnLabel_32:
        LCALL   ?PUSH_XSTACK_I_ONE
          CFI CFA_XSP16 add(XSP16, 19)
        CLR     A
        MOV     ?V2,A
        MOV     R0,#?V2
        LCALL   ?PUSH_XSTACK_I_TWO
          CFI CFA_XSP16 add(XSP16, 21)
        MOV     A,#0x15
        LCALL   ?XSTACK_DISP0_8
        LCALL   ?Subroutine24 & 0xFFFF
??CrossCallReturnLabel_33:
        LCALL   ?PUSH_XSTACK_I_ONE
          CFI CFA_XSP16 add(XSP16, 22)
        MOV     ?V1,#0x0
        MOV     R0,#?V1
        LCALL   ?PUSH_XSTACK_I_ONE
          CFI CFA_XSP16 add(XSP16, 23)
        MOV     ?V1,#0x1
        MOV     R0,#?V1
        LCALL   ?PUSH_XSTACK_I_ONE
          CFI CFA_XSP16 add(XSP16, 24)
        MOV     ?V1,#0x0
        LJMP    ?Subroutine0 & 0xFFFF
//  181 }
          CFI EndBlock cfiBlock1
//  182 
//  183 /*********************************************************************
//  184  * @fn      zclHVAC_SendSetWeeklySchedule
//  185  *
//  186  * @brief   Call to send out a Set Weekly Schedule Command
//  187  *
//  188  * @param   srcEP - Sending application's endpoint
//  189  * @param   dstAddr - where you want the message to go
//  190  * @param   pPayload - payload for Set Weekly Schedule cmd
//  191  * @param   seqNum - transaction sequence number
//  192  *
//  193  * @return  ZStatus_t
//  194  */

        RSEG BANKED_CODE:HUGECODE:NOROOT(0)
//  195 ZStatus_t zclHVAC_SendSetWeeklySchedule( uint8 srcEP, afAddrType_t *dstAddr,
zclHVAC_SendSetWeeklySchedule:
          CFI Block cfiBlock2 Using cfiCommon0
          CFI Function zclHVAC_SendSetWeeklySchedule
        CODE
//  196                                          zclThermostatWeeklySchedule_t *pPayload,
//  197                                          uint8 disableDefaultRsp, uint8 seqNum )
//  198 {
        FUNCALL zclHVAC_SendSetWeeklySchedule, osal_mem_alloc
        LOCFRAME ISTACK, 0, STACK
        LOCFRAME PSTACK, 0, STACK
        LOCFRAME XSTACK, 24, STACK
        LOCFRAME IOVERLAY, 0, STATIC
        LOCFRAME DOVERLAY, 0, STATIC
        ARGFRAME ISTACK, 0, STACK
        ARGFRAME PSTACK, 0, STACK
        ARGFRAME XSTACK, 24, STACK
        ARGFRAME IOVERLAY, 0, STATIC
        ARGFRAME DOVERLAY, 0, STATIC
        FUNCALL zclHVAC_SendSetWeeklySchedule, zcl_SendCommand
        LOCFRAME ISTACK, 0, STACK
        LOCFRAME PSTACK, 0, STACK
        LOCFRAME XSTACK, 35, STACK
        LOCFRAME IOVERLAY, 0, STATIC
        LOCFRAME DOVERLAY, 0, STATIC
        ARGFRAME ISTACK, 0, STACK
        ARGFRAME PSTACK, 0, STACK
        ARGFRAME XSTACK, 35, STACK
        ARGFRAME IOVERLAY, 0, STATIC
        ARGFRAME DOVERLAY, 0, STATIC
        FUNCALL zclHVAC_SendSetWeeklySchedule, osal_mem_free
        LOCFRAME ISTACK, 0, STACK
        LOCFRAME PSTACK, 0, STACK
        LOCFRAME XSTACK, 24, STACK
        LOCFRAME IOVERLAY, 0, STATIC
        LOCFRAME DOVERLAY, 0, STATIC
        ARGFRAME ISTACK, 0, STACK
        ARGFRAME PSTACK, 0, STACK
        ARGFRAME XSTACK, 24, STACK
        ARGFRAME IOVERLAY, 0, STATIC
        ARGFRAME DOVERLAY, 0, STATIC
        REQUIRE ?V0
        REQUIRE ?V1
        REQUIRE ?V2
        REQUIRE ?V3
        REQUIRE ?V4
        REQUIRE ?V5
        REQUIRE ?V6
        REQUIRE ?V7
        REQUIRE ?V8
        REQUIRE ?V9
        REQUIRE ?V10
        REQUIRE ?V11
        REQUIRE ?V12
        REQUIRE ?V13
        REQUIRE ?V14
        REQUIRE ?V15
        MOV     A,#-0x18
        LCALL   ?BANKED_ENTER_XDATA
          CFI DPH0 load(1, XDATA, add(CFA_XSP16, literal(-1)))
          CFI DPL0 load(1, XDATA, add(CFA_XSP16, literal(-2)))
          CFI ?BRET_EXT load(1, XDATA, add(CFA_XSP16, literal(-3)))
          CFI ?RET_HIGH load(1, XDATA, add(CFA_XSP16, literal(-4)))
          CFI ?RET_LOW load(1, XDATA, add(CFA_XSP16, literal(-5)))
          CFI R7 load(1, XDATA, add(CFA_XSP16, literal(-6)))
          CFI V15 load(1, XDATA, add(CFA_XSP16, literal(-7)))
          CFI V14 load(1, XDATA, add(CFA_XSP16, literal(-8)))
          CFI V13 load(1, XDATA, add(CFA_XSP16, literal(-9)))
          CFI V12 load(1, XDATA, add(CFA_XSP16, literal(-10)))
          CFI V11 load(1, XDATA, add(CFA_XSP16, literal(-11)))
          CFI V10 load(1, XDATA, add(CFA_XSP16, literal(-12)))
          CFI V9 load(1, XDATA, add(CFA_XSP16, literal(-13)))
          CFI V8 load(1, XDATA, add(CFA_XSP16, literal(-14)))
          CFI V7 load(1, XDATA, add(CFA_XSP16, literal(-15)))
          CFI V6 load(1, XDATA, add(CFA_XSP16, literal(-16)))
          CFI V5 load(1, XDATA, add(CFA_XSP16, literal(-17)))
          CFI V4 load(1, XDATA, add(CFA_XSP16, literal(-18)))
          CFI V3 load(1, XDATA, add(CFA_XSP16, literal(-19)))
          CFI V2 load(1, XDATA, add(CFA_XSP16, literal(-20)))
          CFI V1 load(1, XDATA, add(CFA_XSP16, literal(-21)))
          CFI V0 load(1, XDATA, add(CFA_XSP16, literal(-22)))
          CFI VB load(1, XDATA, add(CFA_XSP16, literal(-23)))
          CFI R6 load(1, XDATA, add(CFA_XSP16, literal(-24)))
          CFI CFA_SP SP+0
          CFI CFA_XSP16 add(XSP16, 24)
        ; Saved register size: 24
        ; Auto size: 0
        LCALL   ?Subroutine34 & 0xFFFF
//  199   uint8 i;
//  200   uint8 modeBuff;   // buffer to determine how to incorporate heat/cool set points
//  201   uint8 *pBuf;    // variable length payload
//  202   uint8 offset;
//  203   uint16 arrayRecordSize;    // number of bytes in record array
//  204   uint16 calculatedBufSize;
//  205   ZStatus_t status;
//  206 
//  207 
//  208   modeBuff = pPayload->modeForSequence;    // store the modeForSequence in buffer
//  209 
//  210   // if either the heat or cool set points
//  211   if( ( modeBuff == HVAC_THERMOSTAT_MODE_HEAT ) || ( modeBuff == HVAC_THERMOSTAT_MODE_COOL ) )
??CrossCallReturnLabel_60:
        JZ      ??zclHVAC_SendSetWeeklySchedule_0
        MOV     A,#0x1
        XRL     A,R6
        JNZ     ??zclHVAC_SendSetWeeklySchedule_1
//  212   {
//  213     // calculate the number of transitions multiplied by size of transitionTime and heatSetPoint/coolSetPoint
//  214     arrayRecordSize = ( pPayload->numberOfTransitionsForSequence * PAYLOAD_LEN_WEEKLY_SCHEDULE_COOL_HEAT_MODE );
??zclHVAC_SendSetWeeklySchedule_0:
        LCALL   ?Subroutine21 & 0xFFFF
//  215   }
??CrossCallReturnLabel_26:
        LCALL   ?S_SHL
        MOV     R0,?V0
        MOV     R1,?V1
        SJMP    ??CrossCallReturnLabel_44
//  216   // if both cool and heat set points
//  217   else if( modeBuff == HVAC_THERMOSTAT_MODE_BOTH )
??zclHVAC_SendSetWeeklySchedule_1:
        MOV     A,#0x2
        XRL     A,R6
        JNZ     ??zclHVAC_SendSetWeeklySchedule_2
//  218   {
//  219     // calculate the number of transitions multiplied by size of transitionTime, heatSetPoint, and coolSetPoint
//  220     arrayRecordSize = ( pPayload->numberOfTransitionsForSequence * PAYLOAD_LEN_WEEKLY_SCHEDULE_BOTH_MODES );
        LCALL   ?Subroutine27 & 0xFFFF
//  221   }
//  222   else
//  223   {
//  224     return ( ZFailure );    // invalid data
//  225   }
//  226 
//  227   // get a buffer large enough to hold the whole packet
//  228   calculatedBufSize = ( PAYLOAD_LEN_WEEKLY_SCHEDULE + arrayRecordSize );
??CrossCallReturnLabel_44:
        LCALL   ?Subroutine36 & 0xFFFF
//  229 
//  230   pBuf = zcl_mem_alloc( calculatedBufSize );
??CrossCallReturnLabel_64:
        LCALL   `??osal_mem_alloc::?relay`; Banked call to: osal_mem_alloc
        MOV     ?V0,R2
        MOV     ?V1,R3
//  231   if( !pBuf )
        MOV     A,R2
        ORL     A,?V1
        JZ      ??zclHVAC_SendSetWeeklySchedule_2
//  232   {
//  233     return ( ZFailure );  // no memory
//  234   }
//  235 
//  236   // over-the-air is always little endian. Break into a byte stream.
//  237   pBuf[0] = pPayload->numberOfTransitionsForSequence;
        LCALL   ?Subroutine6 & 0xFFFF
//  238   pBuf[1] = pPayload->dayOfWeekForSequence;
//  239   pBuf[2] = pPayload->modeForSequence;
//  240   offset = 3;
//  241   for( i = 0; i < ( pPayload->numberOfTransitionsForSequence ); i++ )
??CrossCallReturnLabel_2:
        SJMP    ??zclHVAC_SendSetWeeklySchedule_3
//  242   {
//  243     if( modeBuff == HVAC_THERMOSTAT_MODE_HEAT )   // heat set point
//  244     {
//  245       pBuf[offset++] = LO_UINT16( pPayload->sThermostateSequenceMode.psThermostatModeHeat[i].transitionTime );
??zclHVAC_SendSetWeeklySchedule_4:
        LCALL   ?Subroutine8 & 0xFFFF
//  246       pBuf[offset++] = HI_UINT16( pPayload->sThermostateSequenceMode.psThermostatModeHeat[i].transitionTime );
//  247       pBuf[offset++] = LO_UINT16( pPayload->sThermostateSequenceMode.psThermostatModeHeat[i].heatSetPoint );
//  248       pBuf[offset++] = HI_UINT16( pPayload->sThermostateSequenceMode.psThermostatModeHeat[i].heatSetPoint );
//  249     }
??CrossCallReturnLabel_6:
        PUSH    A
          CFI CFA_SP SP+-1
        LCALL   ?Subroutine33 & 0xFFFF
??CrossCallReturnLabel_54:
        POP     A
          CFI CFA_SP SP+0
        LCALL   ?Subroutine18 & 0xFFFF
??CrossCallReturnLabel_20:
        PUSH    A
          CFI CFA_SP SP+-1
        LCALL   ?Subroutine33 & 0xFFFF
??CrossCallReturnLabel_55:
        POP     A
          CFI CFA_SP SP+0
        LCALL   ?Subroutine19 & 0xFFFF
??CrossCallReturnLabel_22:
        INC     DPTR
        INC     DPTR
        INC     DPTR
        MOVX    A,@DPTR
        PUSH    A
          CFI CFA_SP SP+-1
        LCALL   ?Subroutine33 & 0xFFFF
??CrossCallReturnLabel_56:
        POP     A
          CFI CFA_SP SP+0
        MOVX    @DPTR,A
        INC     R1
        INC     R2
??zclHVAC_SendSetWeeklySchedule_3:
        MOV     DPL,?V2
        MOV     DPH,?V3
        MOVX    A,@DPTR
        MOV     R0,A
        MOV     A,R2
        CLR     C
        SUBB    A,R0
        JNC     ??zclHVAC_SendSetWeeklySchedule_5
        LCALL   ?Subroutine35 & 0xFFFF
??CrossCallReturnLabel_62:
        LCALL   ?S_SHL
        MOV     ?V14,?V4
        MOV     ?V15,?V5
        MOV     A,R6
        JZ      ??zclHVAC_SendSetWeeklySchedule_4
//  250     else if( modeBuff == HVAC_THERMOSTAT_MODE_COOL )    // cool set point
        MOV     A,#0x1
        XRL     A,R6
        JZ      ??zclHVAC_SendSetWeeklySchedule_4
//  251     {
//  252       pBuf[offset++] = LO_UINT16( pPayload->sThermostateSequenceMode.psThermostatModeCool[i].transitionTime );
//  253       pBuf[offset++] = HI_UINT16( pPayload->sThermostateSequenceMode.psThermostatModeCool[i].transitionTime );
//  254       pBuf[offset++] = LO_UINT16( pPayload->sThermostateSequenceMode.psThermostatModeCool[i].coolSetPoint );
//  255       pBuf[offset++] = HI_UINT16( pPayload->sThermostateSequenceMode.psThermostatModeCool[i].coolSetPoint );
//  256     }
//  257     else if( modeBuff == HVAC_THERMOSTAT_MODE_BOTH )    // both cool and heat set points
        MOV     A,#0x2
        XRL     A,R6
        JNZ     ??zclHVAC_SendSetWeeklySchedule_2
//  258     {
//  259       pBuf[offset++] = LO_UINT16( pPayload->sThermostateSequenceMode.psThermostatModeBoth[i].transitionTime );
        LCALL   ?Subroutine5 & 0xFFFF
//  260       pBuf[offset++] = HI_UINT16( pPayload->sThermostateSequenceMode.psThermostatModeBoth[i].transitionTime );
//  261       pBuf[offset++] = LO_UINT16( pPayload->sThermostateSequenceMode.psThermostatModeBoth[i].heatSetPoint );
//  262       pBuf[offset++] = HI_UINT16( pPayload->sThermostateSequenceMode.psThermostatModeBoth[i].heatSetPoint );
//  263       pBuf[offset++] = LO_UINT16( pPayload->sThermostateSequenceMode.psThermostatModeBoth[i].coolSetPoint );
//  264       pBuf[offset++] = HI_UINT16( pPayload->sThermostateSequenceMode.psThermostatModeBoth[i].coolSetPoint );
//  265     }
??CrossCallReturnLabel_0:
        SJMP    ??CrossCallReturnLabel_22
//  266     else
//  267     {
//  268       return ( ZFailure );    // unsupported mode
??zclHVAC_SendSetWeeklySchedule_2:
        MOV     R1,#0x1
        SJMP    ??zclHVAC_SendSetWeeklySchedule_6
//  269     }
//  270   }
//  271 
//  272   status = zcl_SendCommand( srcEP, dstAddr, ZCL_CLUSTER_ID_HVAC_THERMOSTAT,
//  273                            COMMAND_THERMOSTAT_SET_WEEKLY_SCHEDULE, TRUE,
//  274                            ZCL_FRAME_CLIENT_SERVER_DIR, disableDefaultRsp, 0, seqNum, calculatedBufSize, pBuf );
??zclHVAC_SendSetWeeklySchedule_5:
        ; Setup parameters for call to function zcl_SendCommand
        MOV     R0,#?V0
        LCALL   ?PUSH_XSTACK_I_TWO
          CFI CFA_XSP16 add(XSP16, 26)
        MOV     R0,#?V6
        LCALL   ?PUSH_XSTACK_I_TWO
          CFI CFA_XSP16 add(XSP16, 28)
        MOV     A,#0x1d
        LCALL   ?XSTACK_DISP0_8
        LCALL   ?Subroutine25 & 0xFFFF
??CrossCallReturnLabel_36:
        LCALL   ?PUSH_XSTACK_I_ONE
          CFI CFA_XSP16 add(XSP16, 29)
        CLR     A
        MOV     ?V2,A
        MOV     ?V3,A
        MOV     R0,#?V2
        LCALL   ?PUSH_XSTACK_I_TWO
          CFI CFA_XSP16 add(XSP16, 31)
        MOV     A,#0x1f
        LCALL   ?XSTACK_DISP0_8
        LCALL   ?Subroutine25 & 0xFFFF
??CrossCallReturnLabel_37:
        LCALL   ?PUSH_XSTACK_I_ONE
          CFI CFA_XSP16 add(XSP16, 32)
        MOV     ?V2,#0x0
        MOV     R0,#?V2
        LCALL   ?PUSH_XSTACK_I_ONE
          CFI CFA_XSP16 add(XSP16, 33)
        MOV     ?V2,#0x1
        MOV     R0,#?V2
        LCALL   ?PUSH_XSTACK_I_ONE
          CFI CFA_XSP16 add(XSP16, 34)
        MOV     R0,#?V2
        LCALL   ?PUSH_XSTACK_I_ONE
          CFI CFA_XSP16 add(XSP16, 35)
        MOV     R4,#0x1
        MOV     R5,#0x2
        MOV     R2,?V8
        MOV     R3,?V9
        MOV     A,R7
        MOV     R1,A
        LCALL   `??zcl_SendCommand::?relay`; Banked call to: zcl_SendCommand
        MOV     A,#0xb
        LCALL   ?DEALLOC_XSTACK8
          CFI CFA_XSP16 add(XSP16, 24)
        MOV     A,R1
        MOV     R6,A
//  275   zcl_mem_free( pBuf );
        ; Setup parameters for call to function osal_mem_free
        MOV     R2,?V0
        MOV     R3,?V1
        LCALL   `??osal_mem_free::?relay`; Banked call to: osal_mem_free
//  276 
//  277   return status;
        MOV     A,R6
        MOV     R1,A
??zclHVAC_SendSetWeeklySchedule_6:
          CFI EndBlock cfiBlock2
        REQUIRE ?Subroutine1
        ; // Fall through to label ?Subroutine1
//  278 }

        RSEG BANKED_CODE:HUGECODE:NOROOT(0)
?Subroutine1:
          CFI Block cfiBlock3 Using cfiCommon0
          CFI NoFunction
          CFI CFA_SP SP+0
          CFI CFA_XSP16 add(XSP16, 24)
          CFI VB load(1, XDATA, add(CFA_XSP16, literal(-23)))
          CFI DPL0 load(1, XDATA, add(CFA_XSP16, literal(-2)))
          CFI DPH0 load(1, XDATA, add(CFA_XSP16, literal(-1)))
          CFI R6 load(1, XDATA, add(CFA_XSP16, literal(-24)))
          CFI R7 load(1, XDATA, add(CFA_XSP16, literal(-6)))
          CFI V0 load(1, XDATA, add(CFA_XSP16, literal(-22)))
          CFI V1 load(1, XDATA, add(CFA_XSP16, literal(-21)))
          CFI V2 load(1, XDATA, add(CFA_XSP16, literal(-20)))
          CFI V3 load(1, XDATA, add(CFA_XSP16, literal(-19)))
          CFI V4 load(1, XDATA, add(CFA_XSP16, literal(-18)))
          CFI V5 load(1, XDATA, add(CFA_XSP16, literal(-17)))
          CFI V6 load(1, XDATA, add(CFA_XSP16, literal(-16)))
          CFI V7 load(1, XDATA, add(CFA_XSP16, literal(-15)))
          CFI V8 load(1, XDATA, add(CFA_XSP16, literal(-14)))
          CFI V9 load(1, XDATA, add(CFA_XSP16, literal(-13)))
          CFI V10 load(1, XDATA, add(CFA_XSP16, literal(-12)))
          CFI V11 load(1, XDATA, add(CFA_XSP16, literal(-11)))
          CFI V12 load(1, XDATA, add(CFA_XSP16, literal(-10)))
          CFI V13 load(1, XDATA, add(CFA_XSP16, literal(-9)))
          CFI V14 load(1, XDATA, add(CFA_XSP16, literal(-8)))
          CFI V15 load(1, XDATA, add(CFA_XSP16, literal(-7)))
          CFI ?BRET_EXT load(1, XDATA, add(CFA_XSP16, literal(-3)))
          CFI ?RET_HIGH load(1, XDATA, add(CFA_XSP16, literal(-4)))
          CFI ?RET_LOW load(1, XDATA, add(CFA_XSP16, literal(-5)))
        MOV     R7,#0x10
        LJMP    ?BANKED_LEAVE_XDATA
          CFI EndBlock cfiBlock3
//  279 
//  280 /*********************************************************************
//  281  * @fn      zclHVAC_SendGetWeeklySchedule
//  282  *
//  283  * @brief   Call to send out a Get Weekly Schedule Command
//  284  *
//  285  * @param   srcEP - Sending application's endpoint
//  286  * @param   dstAddr - where you want the message to go
//  287  * @param   daysToReturn - indicates number of days client would like to return the set point values for
//  288  * @param   modeToReturn - indicates the mode the client would like to return the set point values for
//  289  * @param   seqNum - transaction sequence number
//  290  *
//  291  * @return  ZStatus_t
//  292  */

        RSEG BANKED_CODE:HUGECODE:NOROOT(0)
//  293 ZStatus_t zclHVAC_SendGetWeeklySchedule( uint8 srcEP, afAddrType_t *dstAddr,
zclHVAC_SendGetWeeklySchedule:
          CFI Block cfiBlock4 Using cfiCommon0
          CFI Function zclHVAC_SendGetWeeklySchedule
        CODE
//  294                                          uint8 daysToReturn, uint8 modeToReturn,
//  295                                          uint8 disableDefaultRsp, uint8 seqNum )
//  296 {
        FUNCALL zclHVAC_SendGetWeeklySchedule, zcl_SendCommand
        LOCFRAME ISTACK, 0, STACK
        LOCFRAME PSTACK, 0, STACK
        LOCFRAME XSTACK, 25, STACK
        LOCFRAME IOVERLAY, 0, STATIC
        LOCFRAME DOVERLAY, 0, STATIC
        ARGFRAME ISTACK, 0, STACK
        ARGFRAME PSTACK, 0, STACK
        ARGFRAME XSTACK, 25, STACK
        ARGFRAME IOVERLAY, 0, STATIC
        ARGFRAME DOVERLAY, 0, STATIC
        REQUIRE ?V0
        REQUIRE ?V1
        REQUIRE ?V2
        REQUIRE ?V3
        MOV     A,#-0xc
        LCALL   ?BANKED_ENTER_XDATA
          CFI DPH0 load(1, XDATA, add(CFA_XSP16, literal(-1)))
          CFI DPL0 load(1, XDATA, add(CFA_XSP16, literal(-2)))
          CFI ?BRET_EXT load(1, XDATA, add(CFA_XSP16, literal(-3)))
          CFI ?RET_HIGH load(1, XDATA, add(CFA_XSP16, literal(-4)))
          CFI ?RET_LOW load(1, XDATA, add(CFA_XSP16, literal(-5)))
          CFI R7 load(1, XDATA, add(CFA_XSP16, literal(-6)))
          CFI V3 load(1, XDATA, add(CFA_XSP16, literal(-7)))
          CFI V2 load(1, XDATA, add(CFA_XSP16, literal(-8)))
          CFI V1 load(1, XDATA, add(CFA_XSP16, literal(-9)))
          CFI V0 load(1, XDATA, add(CFA_XSP16, literal(-10)))
          CFI VB load(1, XDATA, add(CFA_XSP16, literal(-11)))
          CFI R6 load(1, XDATA, add(CFA_XSP16, literal(-12)))
          CFI CFA_SP SP+0
          CFI CFA_XSP16 add(XSP16, 12)
        ; Saved register size: 12
        ; Auto size: 2
        MOV     A,#-0x2
        LCALL   ?ALLOC_XSTACK8
          CFI CFA_XSP16 add(XSP16, 14)
        MOV     A,R1
        MOV     R6,A
        MOV     A,R4
//  297   uint8 buf[PAYLOAD_LEN_GET_WEEKLY_SCHEDULE];
//  298 
//  299   buf[0] = daysToReturn;
        MOV     DPL,?XSP + 0
        MOV     DPH,?XSP + 1
        MOVX    @DPTR,A
//  300   buf[1] = modeToReturn;
        MOV     A,#0x1
        LCALL   ?XSTACK_DISP0_8
        LCALL   ?Subroutine31 & 0xFFFF
//  301 
//  302   return zcl_SendCommand( srcEP, dstAddr, ZCL_CLUSTER_ID_HVAC_THERMOSTAT,
//  303                           COMMAND_THERMOSTAT_GET_WEEKLY_SCHEDULE, TRUE,
//  304                           ZCL_FRAME_CLIENT_SERVER_DIR, disableDefaultRsp, 0,
//  305                           seqNum, PAYLOAD_LEN_GET_WEEKLY_SCHEDULE, buf );
??CrossCallReturnLabel_51:
        LCALL   ?PUSH_XSTACK_I_TWO
          CFI CFA_XSP16 add(XSP16, 16)
        MOV     ?V2,#0x2
        MOV     ?V3,#0x0
        MOV     R0,#?V2
        LCALL   ?PUSH_XSTACK_I_TWO
          CFI CFA_XSP16 add(XSP16, 18)
        MOV     A,#0x13
        LCALL   ?XSTACK_DISP0_8
        LCALL   ?Subroutine24 & 0xFFFF
??CrossCallReturnLabel_34:
        LCALL   ?PUSH_XSTACK_I_ONE
          CFI CFA_XSP16 add(XSP16, 19)
        CLR     A
        MOV     ?V2,A
        MOV     R0,#?V2
        LCALL   ?PUSH_XSTACK_I_TWO
          CFI CFA_XSP16 add(XSP16, 21)
        MOV     A,#0x15
        LCALL   ?XSTACK_DISP0_8
        LCALL   ?Subroutine24 & 0xFFFF
??CrossCallReturnLabel_35:
        LCALL   ?PUSH_XSTACK_I_ONE
          CFI CFA_XSP16 add(XSP16, 22)
        MOV     ?V1,#0x0
        MOV     R0,#?V1
        LCALL   ?PUSH_XSTACK_I_ONE
          CFI CFA_XSP16 add(XSP16, 23)
        MOV     ?V1,#0x1
        MOV     R0,#?V1
        LCALL   ?PUSH_XSTACK_I_ONE
          CFI CFA_XSP16 add(XSP16, 24)
        MOV     ?V1,#0x2
        SJMP    ?Subroutine0
//  306 }
          CFI EndBlock cfiBlock4

        RSEG BANKED_CODE:HUGECODE:NOROOT(0)
?Subroutine31:
          CFI Block cfiCond5 Using cfiCommon0
          CFI Function zclHVAC_SendSetpointRaiseLower
          CFI Conditional ??CrossCallReturnLabel_50
          CFI R6 load(1, XDATA, add(CFA_XSP16, literal(-12)))
          CFI VB load(1, XDATA, add(CFA_XSP16, literal(-11)))
          CFI V0 load(1, XDATA, add(CFA_XSP16, literal(-10)))
          CFI V1 load(1, XDATA, add(CFA_XSP16, literal(-9)))
          CFI V2 load(1, XDATA, add(CFA_XSP16, literal(-8)))
          CFI V3 load(1, XDATA, add(CFA_XSP16, literal(-7)))
          CFI R7 load(1, XDATA, add(CFA_XSP16, literal(-6)))
          CFI ?RET_LOW load(1, XDATA, add(CFA_XSP16, literal(-5)))
          CFI ?RET_HIGH load(1, XDATA, add(CFA_XSP16, literal(-4)))
          CFI ?BRET_EXT load(1, XDATA, add(CFA_XSP16, literal(-3)))
          CFI DPL0 load(1, XDATA, add(CFA_XSP16, literal(-2)))
          CFI DPH0 load(1, XDATA, add(CFA_XSP16, literal(-1)))
          CFI CFA_SP SP+-2
          CFI CFA_XSP16 add(XSP16, 14)
          CFI Block cfiCond6 Using cfiCommon0
          CFI (cfiCond6) Function zclHVAC_SendGetWeeklySchedule
          CFI (cfiCond6) Conditional ??CrossCallReturnLabel_51
          CFI (cfiCond6) R6 load(1, XDATA, add(CFA_XSP16, literal(-12)))
          CFI (cfiCond6) VB load(1, XDATA, add(CFA_XSP16, literal(-11)))
          CFI (cfiCond6) V0 load(1, XDATA, add(CFA_XSP16, literal(-10)))
          CFI (cfiCond6) V1 load(1, XDATA, add(CFA_XSP16, literal(-9)))
          CFI (cfiCond6) V2 load(1, XDATA, add(CFA_XSP16, literal(-8)))
          CFI (cfiCond6) V3 load(1, XDATA, add(CFA_XSP16, literal(-7)))
          CFI (cfiCond6) R7 load(1, XDATA, add(CFA_XSP16, literal(-6)))
          CFI (cfiCond6) ?RET_LOW load(1, XDATA, add(CFA_XSP16, literal(-5)))
          CFI (cfiCond6) ?RET_HIGH load(1, XDATA, add(CFA_XSP16, literal(-4)))
          CFI (cfiCond6) ?BRET_EXT load(1, XDATA, add(CFA_XSP16, literal(-3)))
          CFI (cfiCond6) DPL0 load(1, XDATA, add(CFA_XSP16, literal(-2)))
          CFI (cfiCond6) DPH0 load(1, XDATA, add(CFA_XSP16, literal(-1)))
          CFI (cfiCond6) CFA_SP SP+-2
          CFI (cfiCond6) CFA_XSP16 add(XSP16, 14)
          CFI Block cfiPicker7 Using cfiCommon1
          CFI (cfiPicker7) NoFunction
          CFI (cfiPicker7) Picker
        MOV     A,R5
        MOVX    @DPTR,A
        ; Setup parameters for call to function zcl_SendCommand
        ; Setup parameters for call to function zcl_SendCommand
        MOV     R0,?XSP + 0
        MOV     R1,?XSP + 1
        MOV     ?V2,R0
        MOV     ?V3,R1
        MOV     R0,#?V2
        RET
          CFI EndBlock cfiCond5
          CFI EndBlock cfiCond6
          CFI EndBlock cfiPicker7

        RSEG BANKED_CODE:HUGECODE:NOROOT(0)
?Subroutine24:
          CFI Block cfiCond8 Using cfiCommon0
          CFI Function zclHVAC_SendSetpointRaiseLower
          CFI Conditional ??CrossCallReturnLabel_32
          CFI R6 load(1, XDATA, add(CFA_XSP16, literal(-12)))
          CFI VB load(1, XDATA, add(CFA_XSP16, literal(-11)))
          CFI V0 load(1, XDATA, add(CFA_XSP16, literal(-10)))
          CFI V1 load(1, XDATA, add(CFA_XSP16, literal(-9)))
          CFI V2 load(1, XDATA, add(CFA_XSP16, literal(-8)))
          CFI V3 load(1, XDATA, add(CFA_XSP16, literal(-7)))
          CFI R7 load(1, XDATA, add(CFA_XSP16, literal(-6)))
          CFI ?RET_LOW load(1, XDATA, add(CFA_XSP16, literal(-5)))
          CFI ?RET_HIGH load(1, XDATA, add(CFA_XSP16, literal(-4)))
          CFI ?BRET_EXT load(1, XDATA, add(CFA_XSP16, literal(-3)))
          CFI DPL0 load(1, XDATA, add(CFA_XSP16, literal(-2)))
          CFI DPH0 load(1, XDATA, add(CFA_XSP16, literal(-1)))
          CFI CFA_SP SP+-2
          CFI CFA_XSP16 add(XSP16, 18)
          CFI Block cfiCond9 Using cfiCommon0
          CFI (cfiCond9) Function zclHVAC_SendSetpointRaiseLower
          CFI (cfiCond9) Conditional ??CrossCallReturnLabel_33
          CFI (cfiCond9) R6 load(1, XDATA, add(CFA_XSP16, literal(-12)))
          CFI (cfiCond9) VB load(1, XDATA, add(CFA_XSP16, literal(-11)))
          CFI (cfiCond9) V0 load(1, XDATA, add(CFA_XSP16, literal(-10)))
          CFI (cfiCond9) V1 load(1, XDATA, add(CFA_XSP16, literal(-9)))
          CFI (cfiCond9) V2 load(1, XDATA, add(CFA_XSP16, literal(-8)))
          CFI (cfiCond9) V3 load(1, XDATA, add(CFA_XSP16, literal(-7)))
          CFI (cfiCond9) R7 load(1, XDATA, add(CFA_XSP16, literal(-6)))
          CFI (cfiCond9) ?RET_LOW load(1, XDATA, add(CFA_XSP16, literal(-5)))
          CFI (cfiCond9) ?RET_HIGH load(1, XDATA, add(CFA_XSP16, literal(-4)))
          CFI (cfiCond9) ?BRET_EXT load(1, XDATA, add(CFA_XSP16, literal(-3)))
          CFI (cfiCond9) DPL0 load(1, XDATA, add(CFA_XSP16, literal(-2)))
          CFI (cfiCond9) DPH0 load(1, XDATA, add(CFA_XSP16, literal(-1)))
          CFI (cfiCond9) CFA_SP SP+-2
          CFI (cfiCond9) CFA_XSP16 add(XSP16, 21)
          CFI Block cfiCond10 Using cfiCommon0
          CFI (cfiCond10) Function zclHVAC_SendGetWeeklySchedule
          CFI (cfiCond10) Conditional ??CrossCallReturnLabel_34
          CFI (cfiCond10) R6 load(1, XDATA, add(CFA_XSP16, literal(-12)))
          CFI (cfiCond10) VB load(1, XDATA, add(CFA_XSP16, literal(-11)))
          CFI (cfiCond10) V0 load(1, XDATA, add(CFA_XSP16, literal(-10)))
          CFI (cfiCond10) V1 load(1, XDATA, add(CFA_XSP16, literal(-9)))
          CFI (cfiCond10) V2 load(1, XDATA, add(CFA_XSP16, literal(-8)))
          CFI (cfiCond10) V3 load(1, XDATA, add(CFA_XSP16, literal(-7)))
          CFI (cfiCond10) R7 load(1, XDATA, add(CFA_XSP16, literal(-6)))
          CFI (cfiCond10) ?RET_LOW load(1, XDATA, add(CFA_XSP16, literal(-5)))
          CFI (cfiCond10) ?RET_HIGH load(1, XDATA, add(CFA_XSP16, literal(-4)))
          CFI (cfiCond10) ?BRET_EXT load(1, XDATA, add(CFA_XSP16, literal(-3)))
          CFI (cfiCond10) DPL0 load(1, XDATA, add(CFA_XSP16, literal(-2)))
          CFI (cfiCond10) DPH0 load(1, XDATA, add(CFA_XSP16, literal(-1)))
          CFI (cfiCond10) CFA_SP SP+-2
          CFI (cfiCond10) CFA_XSP16 add(XSP16, 18)
          CFI Block cfiCond11 Using cfiCommon0
          CFI (cfiCond11) Function zclHVAC_SendGetWeeklySchedule
          CFI (cfiCond11) Conditional ??CrossCallReturnLabel_35
          CFI (cfiCond11) R6 load(1, XDATA, add(CFA_XSP16, literal(-12)))
          CFI (cfiCond11) VB load(1, XDATA, add(CFA_XSP16, literal(-11)))
          CFI (cfiCond11) V0 load(1, XDATA, add(CFA_XSP16, literal(-10)))
          CFI (cfiCond11) V1 load(1, XDATA, add(CFA_XSP16, literal(-9)))
          CFI (cfiCond11) V2 load(1, XDATA, add(CFA_XSP16, literal(-8)))
          CFI (cfiCond11) V3 load(1, XDATA, add(CFA_XSP16, literal(-7)))
          CFI (cfiCond11) R7 load(1, XDATA, add(CFA_XSP16, literal(-6)))
          CFI (cfiCond11) ?RET_LOW load(1, XDATA, add(CFA_XSP16, literal(-5)))
          CFI (cfiCond11) ?RET_HIGH load(1, XDATA, add(CFA_XSP16, literal(-4)))
          CFI (cfiCond11) ?BRET_EXT load(1, XDATA, add(CFA_XSP16, literal(-3)))
          CFI (cfiCond11) DPL0 load(1, XDATA, add(CFA_XSP16, literal(-2)))
          CFI (cfiCond11) DPH0 load(1, XDATA, add(CFA_XSP16, literal(-1)))
          CFI (cfiCond11) CFA_SP SP+-2
          CFI (cfiCond11) CFA_XSP16 add(XSP16, 21)
          CFI Block cfiPicker12 Using cfiCommon1
          CFI (cfiPicker12) NoFunction
          CFI (cfiPicker12) Picker
        MOVX    A,@DPTR
        MOV     ?V1,A
        MOV     R0,#?V1
        RET
          CFI EndBlock cfiCond8
          CFI EndBlock cfiCond9
          CFI EndBlock cfiCond10
          CFI EndBlock cfiCond11
          CFI EndBlock cfiPicker12
//  307 
//  308 /*********************************************************************
//  309  * @fn      zclHVAC_SendClearWeeklySchedule
//  310  *
//  311  * @brief   Call to send out a Clear Weekly Schedule Command
//  312  *
//  313  * @param   srcEP - Sending application's endpoint
//  314  * @param   dstAddr - where you want the message to go
//  315  * @param   seqNum - transaction sequence number
//  316  *
//  317  * @return  ZStatus_t
//  318  */

        RSEG BANKED_CODE:HUGECODE:NOROOT(0)
//  319 ZStatus_t zclHVAC_SendClearWeeklySchedule( uint8 srcEP, afAddrType_t *dstAddr,
zclHVAC_SendClearWeeklySchedule:
          CFI Block cfiBlock13 Using cfiCommon0
          CFI Function zclHVAC_SendClearWeeklySchedule
        CODE
//  320                                            uint8 disableDefaultRsp, uint8 seqNum )
//  321 {
        FUNCALL zclHVAC_SendClearWeeklySchedule, zcl_SendCommand
        LOCFRAME ISTACK, 0, STACK
        LOCFRAME PSTACK, 0, STACK
        LOCFRAME XSTACK, 23, STACK
        LOCFRAME IOVERLAY, 0, STATIC
        LOCFRAME DOVERLAY, 0, STATIC
        ARGFRAME ISTACK, 0, STACK
        ARGFRAME PSTACK, 0, STACK
        ARGFRAME XSTACK, 23, STACK
        ARGFRAME IOVERLAY, 0, STATIC
        ARGFRAME DOVERLAY, 0, STATIC
        REQUIRE ?V0
        REQUIRE ?V1
        REQUIRE ?V2
        REQUIRE ?V3
        MOV     A,#-0xc
        LCALL   ?BANKED_ENTER_XDATA
          CFI DPH0 load(1, XDATA, add(CFA_XSP16, literal(-1)))
          CFI DPL0 load(1, XDATA, add(CFA_XSP16, literal(-2)))
          CFI ?BRET_EXT load(1, XDATA, add(CFA_XSP16, literal(-3)))
          CFI ?RET_HIGH load(1, XDATA, add(CFA_XSP16, literal(-4)))
          CFI ?RET_LOW load(1, XDATA, add(CFA_XSP16, literal(-5)))
          CFI R7 load(1, XDATA, add(CFA_XSP16, literal(-6)))
          CFI V3 load(1, XDATA, add(CFA_XSP16, literal(-7)))
          CFI V2 load(1, XDATA, add(CFA_XSP16, literal(-8)))
          CFI V1 load(1, XDATA, add(CFA_XSP16, literal(-9)))
          CFI V0 load(1, XDATA, add(CFA_XSP16, literal(-10)))
          CFI VB load(1, XDATA, add(CFA_XSP16, literal(-11)))
          CFI R6 load(1, XDATA, add(CFA_XSP16, literal(-12)))
          CFI CFA_SP SP+0
          CFI CFA_XSP16 add(XSP16, 12)
        ; Saved register size: 12
        ; Auto size: 0
        MOV     A,R4
        MOV     R7,A
//  322   // no payload
//  323 
//  324   return zcl_SendCommand( srcEP, dstAddr, ZCL_CLUSTER_ID_HVAC_THERMOSTAT,
//  325                           COMMAND_THERMOSTAT_CLEAR_WEEKLY_SCHEDULE, TRUE,
//  326                           ZCL_FRAME_CLIENT_SERVER_DIR, disableDefaultRsp, 0, seqNum, 0, 0 );
        ; Setup parameters for call to function zcl_SendCommand
        CLR     A
        MOV     ?V2,A
        MOV     ?V3,A
        MOV     R0,#?V2
        LCALL   ?PUSH_XSTACK_I_TWO
          CFI CFA_XSP16 add(XSP16, 14)
        MOV     R0,#?V2
        LCALL   ?PUSH_XSTACK_I_TWO
          CFI CFA_XSP16 add(XSP16, 16)
        MOV     A,R5
        MOV     ?V1,A
        MOV     R0,#?V1
        LCALL   ?PUSH_XSTACK_I_ONE
          CFI CFA_XSP16 add(XSP16, 17)
        MOV     R0,#?V2
        LCALL   ?PUSH_XSTACK_I_TWO
          CFI CFA_XSP16 add(XSP16, 19)
        MOV     A,R7
        MOV     ?V1,A
        MOV     R0,#?V1
        LCALL   ?PUSH_XSTACK_I_ONE
          CFI CFA_XSP16 add(XSP16, 20)
        MOV     ?V1,#0x0
        MOV     R0,#?V1
        LCALL   ?PUSH_XSTACK_I_ONE
          CFI CFA_XSP16 add(XSP16, 21)
        MOV     ?V1,#0x1
        MOV     R0,#?V1
        LCALL   ?PUSH_XSTACK_I_ONE
          CFI CFA_XSP16 add(XSP16, 22)
        MOV     ?V1,#0x3
          CFI EndBlock cfiBlock13
        REQUIRE ?Subroutine4
        ; // Fall through to label ?Subroutine4
//  327 }

        RSEG BANKED_CODE:HUGECODE:NOROOT(0)
?Subroutine4:
          CFI Block cfiBlock14 Using cfiCommon0
          CFI NoFunction
          CFI CFA_SP SP+0
          CFI CFA_XSP16 add(XSP16, 22)
          CFI VB load(1, XDATA, add(CFA_XSP16, literal(-11)))
          CFI DPL0 load(1, XDATA, add(CFA_XSP16, literal(-2)))
          CFI DPH0 load(1, XDATA, add(CFA_XSP16, literal(-1)))
          CFI R6 load(1, XDATA, add(CFA_XSP16, literal(-12)))
          CFI R7 load(1, XDATA, add(CFA_XSP16, literal(-6)))
          CFI V0 load(1, XDATA, add(CFA_XSP16, literal(-10)))
          CFI V1 load(1, XDATA, add(CFA_XSP16, literal(-9)))
          CFI V2 load(1, XDATA, add(CFA_XSP16, literal(-8)))
          CFI V3 load(1, XDATA, add(CFA_XSP16, literal(-7)))
          CFI ?BRET_EXT load(1, XDATA, add(CFA_XSP16, literal(-3)))
          CFI ?RET_HIGH load(1, XDATA, add(CFA_XSP16, literal(-4)))
          CFI ?RET_LOW load(1, XDATA, add(CFA_XSP16, literal(-5)))
        MOV     R0,#?V1
        LCALL   ?PUSH_XSTACK_I_ONE
          CFI CFA_XSP16 add(XSP16, 23)
        MOV     R4,#0x1
        MOV     R5,#0x2
        LCALL   `??zcl_SendCommand::?relay`; Banked call to: zcl_SendCommand
        MOV     A,#0xb
        SJMP    ??Subroutine55_0
          CFI EndBlock cfiBlock14

        RSEG BANKED_CODE:HUGECODE:NOROOT(0)
?Subroutine0:
          CFI Block cfiBlock15 Using cfiCommon0
          CFI NoFunction
          CFI CFA_SP SP+0
          CFI CFA_XSP16 add(XSP16, 24)
          CFI VB load(1, XDATA, add(CFA_XSP16, literal(-11)))
          CFI DPL0 load(1, XDATA, add(CFA_XSP16, literal(-2)))
          CFI DPH0 load(1, XDATA, add(CFA_XSP16, literal(-1)))
          CFI R6 load(1, XDATA, add(CFA_XSP16, literal(-12)))
          CFI R7 load(1, XDATA, add(CFA_XSP16, literal(-6)))
          CFI V0 load(1, XDATA, add(CFA_XSP16, literal(-10)))
          CFI V1 load(1, XDATA, add(CFA_XSP16, literal(-9)))
          CFI V2 load(1, XDATA, add(CFA_XSP16, literal(-8)))
          CFI V3 load(1, XDATA, add(CFA_XSP16, literal(-7)))
          CFI ?BRET_EXT load(1, XDATA, add(CFA_XSP16, literal(-3)))
          CFI ?RET_HIGH load(1, XDATA, add(CFA_XSP16, literal(-4)))
          CFI ?RET_LOW load(1, XDATA, add(CFA_XSP16, literal(-5)))
        MOV     R0,#?V1
        LCALL   ?PUSH_XSTACK_I_ONE
          CFI CFA_XSP16 add(XSP16, 25)
        MOV     R4,#0x1
        MOV     R5,#0x2
        MOV     A,R6
        MOV     R1,A
        LCALL   `??zcl_SendCommand::?relay`; Banked call to: zcl_SendCommand
        MOV     A,#0xb
        LCALL   ?DEALLOC_XSTACK8
          CFI CFA_XSP16 add(XSP16, 14)
        MOV     A,#0x2
          CFI EndBlock cfiBlock15
        REQUIRE ??Subroutine55_0
        ; // Fall through to label ??Subroutine55_0

        RSEG BANKED_CODE:HUGECODE:NOROOT(0)
??Subroutine55_0:
          CFI Block cfiBlock16 Using cfiCommon0
          CFI NoFunction
          CFI CFA_SP SP+0
          CFI CFA_XSP16 add(XSP16, 23)
          CFI VB load(1, XDATA, add(CFA_XSP16, literal(-11)))
          CFI DPL0 load(1, XDATA, add(CFA_XSP16, literal(-2)))
          CFI DPH0 load(1, XDATA, add(CFA_XSP16, literal(-1)))
          CFI R6 load(1, XDATA, add(CFA_XSP16, literal(-12)))
          CFI R7 load(1, XDATA, add(CFA_XSP16, literal(-6)))
          CFI V0 load(1, XDATA, add(CFA_XSP16, literal(-10)))
          CFI V1 load(1, XDATA, add(CFA_XSP16, literal(-9)))
          CFI V2 load(1, XDATA, add(CFA_XSP16, literal(-8)))
          CFI V3 load(1, XDATA, add(CFA_XSP16, literal(-7)))
          CFI ?BRET_EXT load(1, XDATA, add(CFA_XSP16, literal(-3)))
          CFI ?RET_HIGH load(1, XDATA, add(CFA_XSP16, literal(-4)))
          CFI ?RET_LOW load(1, XDATA, add(CFA_XSP16, literal(-5)))
          CFI Invalid
        LCALL   ?DEALLOC_XSTACK8
          CFI EndBlock cfiBlock16
        REQUIRE ??Subroutine56_0
        ; // Fall through to label ??Subroutine56_0

        RSEG BANKED_CODE:HUGECODE:NOROOT(0)
??Subroutine56_0:
          CFI Block cfiBlock17 Using cfiCommon0
          CFI NoFunction
          CFI CFA_SP SP+0
          CFI CFA_XSP16 add(XSP16, 12)
          CFI VB load(1, XDATA, add(CFA_XSP16, literal(-11)))
          CFI DPL0 load(1, XDATA, add(CFA_XSP16, literal(-2)))
          CFI DPH0 load(1, XDATA, add(CFA_XSP16, literal(-1)))
          CFI R6 load(1, XDATA, add(CFA_XSP16, literal(-12)))
          CFI R7 load(1, XDATA, add(CFA_XSP16, literal(-6)))
          CFI V0 load(1, XDATA, add(CFA_XSP16, literal(-10)))
          CFI V1 load(1, XDATA, add(CFA_XSP16, literal(-9)))
          CFI V2 load(1, XDATA, add(CFA_XSP16, literal(-8)))
          CFI V3 load(1, XDATA, add(CFA_XSP16, literal(-7)))
          CFI ?BRET_EXT load(1, XDATA, add(CFA_XSP16, literal(-3)))
          CFI ?RET_HIGH load(1, XDATA, add(CFA_XSP16, literal(-4)))
          CFI ?RET_LOW load(1, XDATA, add(CFA_XSP16, literal(-5)))
        MOV     R7,#0x4
        LJMP    ?BANKED_LEAVE_XDATA
          CFI EndBlock cfiBlock17
//  328 
//  329 /*********************************************************************
//  330  * @fn      zclHVAC_SendGetRelayStatusLog
//  331  *
//  332  * @brief   Call to send out a Get Relay Status Log Command
//  333  *
//  334  * @param   srcEP - Sending application's endpoint
//  335  * @param   dstAddr - where you want the message to go
//  336  * @param   seqNum - transaction sequence number
//  337  *
//  338  * @return  ZStatus_t
//  339  */

        RSEG BANKED_CODE:HUGECODE:NOROOT(0)
//  340 ZStatus_t zclHVAC_SendGetRelayStatusLog( uint8 srcEP, afAddrType_t *dstAddr,
zclHVAC_SendGetRelayStatusLog:
          CFI Block cfiBlock18 Using cfiCommon0
          CFI Function zclHVAC_SendGetRelayStatusLog
        CODE
//  341                                          uint8 disableDefaultRsp, uint8 seqNum )
//  342 {
        FUNCALL zclHVAC_SendGetRelayStatusLog, zcl_SendCommand
        LOCFRAME ISTACK, 0, STACK
        LOCFRAME PSTACK, 0, STACK
        LOCFRAME XSTACK, 23, STACK
        LOCFRAME IOVERLAY, 0, STATIC
        LOCFRAME DOVERLAY, 0, STATIC
        ARGFRAME ISTACK, 0, STACK
        ARGFRAME PSTACK, 0, STACK
        ARGFRAME XSTACK, 23, STACK
        ARGFRAME IOVERLAY, 0, STATIC
        ARGFRAME DOVERLAY, 0, STATIC
        REQUIRE ?V0
        REQUIRE ?V1
        REQUIRE ?V2
        REQUIRE ?V3
        MOV     A,#-0xc
        LCALL   ?BANKED_ENTER_XDATA
          CFI DPH0 load(1, XDATA, add(CFA_XSP16, literal(-1)))
          CFI DPL0 load(1, XDATA, add(CFA_XSP16, literal(-2)))
          CFI ?BRET_EXT load(1, XDATA, add(CFA_XSP16, literal(-3)))
          CFI ?RET_HIGH load(1, XDATA, add(CFA_XSP16, literal(-4)))
          CFI ?RET_LOW load(1, XDATA, add(CFA_XSP16, literal(-5)))
          CFI R7 load(1, XDATA, add(CFA_XSP16, literal(-6)))
          CFI V3 load(1, XDATA, add(CFA_XSP16, literal(-7)))
          CFI V2 load(1, XDATA, add(CFA_XSP16, literal(-8)))
          CFI V1 load(1, XDATA, add(CFA_XSP16, literal(-9)))
          CFI V0 load(1, XDATA, add(CFA_XSP16, literal(-10)))
          CFI VB load(1, XDATA, add(CFA_XSP16, literal(-11)))
          CFI R6 load(1, XDATA, add(CFA_XSP16, literal(-12)))
          CFI CFA_SP SP+0
          CFI CFA_XSP16 add(XSP16, 12)
        ; Saved register size: 12
        ; Auto size: 0
        MOV     A,R4
        MOV     R7,A
//  343   // no payload
//  344 
//  345   return zcl_SendCommand( srcEP, dstAddr, ZCL_CLUSTER_ID_HVAC_THERMOSTAT,
//  346                           COMMAND_THERMOSTAT_GET_RELAY_STATUS_LOG, TRUE,
//  347                           ZCL_FRAME_CLIENT_SERVER_DIR, disableDefaultRsp, 0, seqNum, 0, 0 );
        ; Setup parameters for call to function zcl_SendCommand
        CLR     A
        MOV     ?V2,A
        MOV     ?V3,A
        MOV     R0,#?V2
        LCALL   ?PUSH_XSTACK_I_TWO
          CFI CFA_XSP16 add(XSP16, 14)
        MOV     R0,#?V2
        LCALL   ?PUSH_XSTACK_I_TWO
          CFI CFA_XSP16 add(XSP16, 16)
        MOV     A,R5
        MOV     ?V1,A
        MOV     R0,#?V1
        LCALL   ?PUSH_XSTACK_I_ONE
          CFI CFA_XSP16 add(XSP16, 17)
        MOV     R0,#?V2
        LCALL   ?PUSH_XSTACK_I_TWO
          CFI CFA_XSP16 add(XSP16, 19)
        MOV     A,R7
        MOV     ?V1,A
        MOV     R0,#?V1
        LCALL   ?PUSH_XSTACK_I_ONE
          CFI CFA_XSP16 add(XSP16, 20)
        MOV     ?V1,#0x0
        MOV     R0,#?V1
        LCALL   ?PUSH_XSTACK_I_ONE
          CFI CFA_XSP16 add(XSP16, 21)
        MOV     ?V1,#0x1
        MOV     R0,#?V1
        LCALL   ?PUSH_XSTACK_I_ONE
          CFI CFA_XSP16 add(XSP16, 22)
        MOV     ?V1,#0x4
        SJMP    ?Subroutine4
//  348 }
          CFI EndBlock cfiBlock18
//  349 
//  350 /*********************************************************************
//  351  * @fn      zclHVAC_SendGetWeeklyScheduleRsp
//  352  *
//  353  * @brief   Call to send out a Get Weekly Schedule Response Command
//  354  *
//  355  * @param   srcEP - Sending application's endpoint
//  356  * @param   dstAddr - where you want the message to go
//  357  * @param   pPayload - payload for Get Weekly Schedule rsp
//  358  * @param   seqNum - transaction sequence number
//  359  *
//  360  * @return  ZStatus_t
//  361  */

        RSEG BANKED_CODE:HUGECODE:NOROOT(0)
//  362 ZStatus_t zclHVAC_SendGetWeeklyScheduleRsp( uint8 srcEP, afAddrType_t *dstAddr,
zclHVAC_SendGetWeeklyScheduleRsp:
          CFI Block cfiBlock19 Using cfiCommon0
          CFI Function zclHVAC_SendGetWeeklyScheduleRsp
        CODE
//  363                                             zclThermostatWeeklySchedule_t *pPayload,
//  364                                             uint8 disableDefaultRsp, uint8 seqNum )
//  365 {
        FUNCALL zclHVAC_SendGetWeeklyScheduleRsp, osal_mem_alloc
        LOCFRAME ISTACK, 0, STACK
        LOCFRAME PSTACK, 0, STACK
        LOCFRAME XSTACK, 24, STACK
        LOCFRAME IOVERLAY, 0, STATIC
        LOCFRAME DOVERLAY, 0, STATIC
        ARGFRAME ISTACK, 0, STACK
        ARGFRAME PSTACK, 0, STACK
        ARGFRAME XSTACK, 24, STACK
        ARGFRAME IOVERLAY, 0, STATIC
        ARGFRAME DOVERLAY, 0, STATIC
        FUNCALL zclHVAC_SendGetWeeklyScheduleRsp, zcl_SendCommand
        LOCFRAME ISTACK, 0, STACK
        LOCFRAME PSTACK, 0, STACK
        LOCFRAME XSTACK, 35, STACK
        LOCFRAME IOVERLAY, 0, STATIC
        LOCFRAME DOVERLAY, 0, STATIC
        ARGFRAME ISTACK, 0, STACK
        ARGFRAME PSTACK, 0, STACK
        ARGFRAME XSTACK, 35, STACK
        ARGFRAME IOVERLAY, 0, STATIC
        ARGFRAME DOVERLAY, 0, STATIC
        FUNCALL zclHVAC_SendGetWeeklyScheduleRsp, osal_mem_free
        LOCFRAME ISTACK, 0, STACK
        LOCFRAME PSTACK, 0, STACK
        LOCFRAME XSTACK, 24, STACK
        LOCFRAME IOVERLAY, 0, STATIC
        LOCFRAME DOVERLAY, 0, STATIC
        ARGFRAME ISTACK, 0, STACK
        ARGFRAME PSTACK, 0, STACK
        ARGFRAME XSTACK, 24, STACK
        ARGFRAME IOVERLAY, 0, STATIC
        ARGFRAME DOVERLAY, 0, STATIC
        REQUIRE ?V0
        REQUIRE ?V1
        REQUIRE ?V2
        REQUIRE ?V3
        REQUIRE ?V4
        REQUIRE ?V5
        REQUIRE ?V6
        REQUIRE ?V7
        REQUIRE ?V8
        REQUIRE ?V9
        REQUIRE ?V10
        REQUIRE ?V11
        REQUIRE ?V12
        REQUIRE ?V13
        REQUIRE ?V14
        REQUIRE ?V15
        MOV     A,#-0x18
        LCALL   ?BANKED_ENTER_XDATA
          CFI DPH0 load(1, XDATA, add(CFA_XSP16, literal(-1)))
          CFI DPL0 load(1, XDATA, add(CFA_XSP16, literal(-2)))
          CFI ?BRET_EXT load(1, XDATA, add(CFA_XSP16, literal(-3)))
          CFI ?RET_HIGH load(1, XDATA, add(CFA_XSP16, literal(-4)))
          CFI ?RET_LOW load(1, XDATA, add(CFA_XSP16, literal(-5)))
          CFI R7 load(1, XDATA, add(CFA_XSP16, literal(-6)))
          CFI V15 load(1, XDATA, add(CFA_XSP16, literal(-7)))
          CFI V14 load(1, XDATA, add(CFA_XSP16, literal(-8)))
          CFI V13 load(1, XDATA, add(CFA_XSP16, literal(-9)))
          CFI V12 load(1, XDATA, add(CFA_XSP16, literal(-10)))
          CFI V11 load(1, XDATA, add(CFA_XSP16, literal(-11)))
          CFI V10 load(1, XDATA, add(CFA_XSP16, literal(-12)))
          CFI V9 load(1, XDATA, add(CFA_XSP16, literal(-13)))
          CFI V8 load(1, XDATA, add(CFA_XSP16, literal(-14)))
          CFI V7 load(1, XDATA, add(CFA_XSP16, literal(-15)))
          CFI V6 load(1, XDATA, add(CFA_XSP16, literal(-16)))
          CFI V5 load(1, XDATA, add(CFA_XSP16, literal(-17)))
          CFI V4 load(1, XDATA, add(CFA_XSP16, literal(-18)))
          CFI V3 load(1, XDATA, add(CFA_XSP16, literal(-19)))
          CFI V2 load(1, XDATA, add(CFA_XSP16, literal(-20)))
          CFI V1 load(1, XDATA, add(CFA_XSP16, literal(-21)))
          CFI V0 load(1, XDATA, add(CFA_XSP16, literal(-22)))
          CFI VB load(1, XDATA, add(CFA_XSP16, literal(-23)))
          CFI R6 load(1, XDATA, add(CFA_XSP16, literal(-24)))
          CFI CFA_SP SP+0
          CFI CFA_XSP16 add(XSP16, 24)
        ; Saved register size: 24
        ; Auto size: 0
        LCALL   ?Subroutine34 & 0xFFFF
//  366   uint8 i;
//  367   uint8 modeBuff;   // buffer to determine how to incorporate heat/cool set points
//  368   uint8 *pBuf;    // variable length payload
//  369   uint8 offset;
//  370   uint16 arrayRecordSize;    // number of bytes in record array
//  371   uint16 calculatedBufSize;
//  372   ZStatus_t status;
//  373 
//  374 
//  375   modeBuff = pPayload->modeForSequence;    // store the modeForSequence in buffer
//  376 
//  377   // if either the heat or cool set points
//  378   if( ( modeBuff == HVAC_THERMOSTAT_MODE_HEAT ) || ( modeBuff == HVAC_THERMOSTAT_MODE_COOL ) )
??CrossCallReturnLabel_61:
        JZ      ??zclHVAC_SendGetWeeklyScheduleRsp_0
        MOV     A,#0x1
        XRL     A,R6
        JNZ     ??zclHVAC_SendGetWeeklyScheduleRsp_1
//  379   {
//  380     // calculate the number of transitions multiplied by size of transitionTime and heatSetPoint/coolSetPoint
//  381     arrayRecordSize = ( pPayload->numberOfTransitionsForSequence * PAYLOAD_LEN_WEEKLY_SCHEDULE_COOL_HEAT_MODE );
??zclHVAC_SendGetWeeklyScheduleRsp_0:
        LCALL   ?Subroutine21 & 0xFFFF
//  382   }
??CrossCallReturnLabel_27:
        LCALL   ?S_SHL
        MOV     R0,?V0
        MOV     R1,?V1
        SJMP    ??CrossCallReturnLabel_45
//  383   // if both cool and heat set points
//  384   else if( modeBuff == HVAC_THERMOSTAT_MODE_BOTH )
??zclHVAC_SendGetWeeklyScheduleRsp_1:
        MOV     A,#0x2
        XRL     A,R6
        JNZ     ??zclHVAC_SendGetWeeklyScheduleRsp_2
//  385   {
//  386     // calculate the number of transitions multiplied by size of transitionTime, heatSetPoint, and coolSetPoint
//  387     arrayRecordSize = ( pPayload->numberOfTransitionsForSequence * PAYLOAD_LEN_WEEKLY_SCHEDULE_BOTH_MODES );
        LCALL   ?Subroutine27 & 0xFFFF
//  388   }
//  389   else
//  390   {
//  391     return ( ZFailure );    // invalid data
//  392   }
//  393 
//  394   // get a buffer large enough to hold the whole packet
//  395   calculatedBufSize = ( PAYLOAD_LEN_WEEKLY_SCHEDULE + arrayRecordSize );
??CrossCallReturnLabel_45:
        LCALL   ?Subroutine36 & 0xFFFF
//  396 
//  397   pBuf = zcl_mem_alloc( calculatedBufSize );
??CrossCallReturnLabel_65:
        LCALL   `??osal_mem_alloc::?relay`; Banked call to: osal_mem_alloc
        MOV     ?V0,R2
        MOV     ?V1,R3
//  398   if( !pBuf )
        MOV     A,R2
        ORL     A,?V1
        JZ      ??zclHVAC_SendGetWeeklyScheduleRsp_2
//  399   {
//  400     return ( ZFailure );  // no memory
//  401   }
//  402 
//  403   // over-the-air is always little endian. Break into a byte stream.
//  404   pBuf[0] = pPayload->numberOfTransitionsForSequence;
        LCALL   ?Subroutine6 & 0xFFFF
//  405   pBuf[1] = pPayload->dayOfWeekForSequence;
//  406   pBuf[2] = pPayload->modeForSequence;
//  407   offset = 3;
//  408   for( i = 0; i < ( pPayload->numberOfTransitionsForSequence ); i++ )
??CrossCallReturnLabel_3:
        SJMP    ??zclHVAC_SendGetWeeklyScheduleRsp_3
//  409   {
//  410     if( modeBuff == HVAC_THERMOSTAT_MODE_HEAT )   // heat set point
//  411     {
//  412       pBuf[offset++] = LO_UINT16( pPayload->sThermostateSequenceMode.psThermostatModeHeat[i].transitionTime );
??zclHVAC_SendGetWeeklyScheduleRsp_4:
        LCALL   ?Subroutine8 & 0xFFFF
//  413       pBuf[offset++] = HI_UINT16( pPayload->sThermostateSequenceMode.psThermostatModeHeat[i].transitionTime );
//  414       pBuf[offset++] = LO_UINT16( pPayload->sThermostateSequenceMode.psThermostatModeHeat[i].heatSetPoint );
//  415       pBuf[offset++] = HI_UINT16( pPayload->sThermostateSequenceMode.psThermostatModeHeat[i].heatSetPoint );
//  416     }
??CrossCallReturnLabel_7:
        PUSH    A
          CFI CFA_SP SP+-1
        LCALL   ?Subroutine33 & 0xFFFF
??CrossCallReturnLabel_57:
        POP     A
          CFI CFA_SP SP+0
        LCALL   ?Subroutine18 & 0xFFFF
??CrossCallReturnLabel_21:
        PUSH    A
          CFI CFA_SP SP+-1
        LCALL   ?Subroutine33 & 0xFFFF
??CrossCallReturnLabel_58:
        POP     A
          CFI CFA_SP SP+0
        LCALL   ?Subroutine19 & 0xFFFF
??CrossCallReturnLabel_23:
        INC     DPTR
        INC     DPTR
        INC     DPTR
        MOVX    A,@DPTR
        PUSH    A
          CFI CFA_SP SP+-1
        LCALL   ?Subroutine33 & 0xFFFF
??CrossCallReturnLabel_59:
        POP     A
          CFI CFA_SP SP+0
        MOVX    @DPTR,A
        INC     R1
        INC     R2
??zclHVAC_SendGetWeeklyScheduleRsp_3:
        MOV     DPL,?V2
        MOV     DPH,?V3
        MOVX    A,@DPTR
        MOV     R0,A
        MOV     A,R2
        CLR     C
        SUBB    A,R0
        JNC     ??zclHVAC_SendGetWeeklyScheduleRsp_5
        LCALL   ?Subroutine35 & 0xFFFF
??CrossCallReturnLabel_63:
        LCALL   ?S_SHL
        MOV     ?V14,?V4
        MOV     ?V15,?V5
        MOV     A,R6
        JZ      ??zclHVAC_SendGetWeeklyScheduleRsp_4
//  417     else if( modeBuff == HVAC_THERMOSTAT_MODE_COOL )    // cool set point
        MOV     A,#0x1
        XRL     A,R6
        JZ      ??zclHVAC_SendGetWeeklyScheduleRsp_4
//  418     {
//  419       pBuf[offset++] = LO_UINT16( pPayload->sThermostateSequenceMode.psThermostatModeCool[i].transitionTime );
//  420       pBuf[offset++] = HI_UINT16( pPayload->sThermostateSequenceMode.psThermostatModeCool[i].transitionTime );
//  421       pBuf[offset++] = LO_UINT16( pPayload->sThermostateSequenceMode.psThermostatModeCool[i].coolSetPoint );
//  422       pBuf[offset++] = HI_UINT16( pPayload->sThermostateSequenceMode.psThermostatModeCool[i].coolSetPoint );
//  423     }
//  424     else if( modeBuff == HVAC_THERMOSTAT_MODE_BOTH )    // both cool and heat set points
        MOV     A,#0x2
        XRL     A,R6
        JNZ     ??zclHVAC_SendGetWeeklyScheduleRsp_2
//  425     {
//  426       pBuf[offset++] = LO_UINT16( pPayload->sThermostateSequenceMode.psThermostatModeBoth[i].transitionTime );
        LCALL   ?Subroutine5 & 0xFFFF
//  427       pBuf[offset++] = HI_UINT16( pPayload->sThermostateSequenceMode.psThermostatModeBoth[i].transitionTime );
//  428       pBuf[offset++] = LO_UINT16( pPayload->sThermostateSequenceMode.psThermostatModeBoth[i].heatSetPoint );
//  429       pBuf[offset++] = HI_UINT16( pPayload->sThermostateSequenceMode.psThermostatModeBoth[i].heatSetPoint );
//  430       pBuf[offset++] = LO_UINT16( pPayload->sThermostateSequenceMode.psThermostatModeBoth[i].coolSetPoint );
//  431       pBuf[offset++] = HI_UINT16( pPayload->sThermostateSequenceMode.psThermostatModeBoth[i].coolSetPoint );
//  432     }
??CrossCallReturnLabel_1:
        SJMP    ??CrossCallReturnLabel_23
//  433     else
//  434     {
//  435       return ( ZFailure );    // unsupported mode
??zclHVAC_SendGetWeeklyScheduleRsp_2:
        MOV     R1,#0x1
        SJMP    ??zclHVAC_SendGetWeeklyScheduleRsp_6
//  436     }
//  437   }
//  438 
//  439   status = zcl_SendCommand( srcEP, dstAddr, ZCL_CLUSTER_ID_HVAC_THERMOSTAT,
//  440                            COMMAND_THERMOSTAT_GET_WEEKLY_SCHEDULE_RSP, TRUE,
//  441                            ZCL_FRAME_SERVER_CLIENT_DIR, disableDefaultRsp, 0, seqNum, calculatedBufSize, pBuf );
??zclHVAC_SendGetWeeklyScheduleRsp_5:
        ; Setup parameters for call to function zcl_SendCommand
        MOV     R0,#?V0
        LCALL   ?PUSH_XSTACK_I_TWO
          CFI CFA_XSP16 add(XSP16, 26)
        MOV     R0,#?V6
        LCALL   ?PUSH_XSTACK_I_TWO
          CFI CFA_XSP16 add(XSP16, 28)
        MOV     A,#0x1d
        LCALL   ?XSTACK_DISP0_8
        LCALL   ?Subroutine25 & 0xFFFF
??CrossCallReturnLabel_38:
        LCALL   ?PUSH_XSTACK_I_ONE
          CFI CFA_XSP16 add(XSP16, 29)
        CLR     A
        MOV     ?V2,A
        MOV     ?V3,A
        MOV     R0,#?V2
        LCALL   ?PUSH_XSTACK_I_TWO
          CFI CFA_XSP16 add(XSP16, 31)
        MOV     A,#0x1f
        LCALL   ?XSTACK_DISP0_8
        LCALL   ?Subroutine25 & 0xFFFF
??CrossCallReturnLabel_39:
        LCALL   ?PUSH_XSTACK_I_ONE
          CFI CFA_XSP16 add(XSP16, 32)
        MOV     ?V2,#0x1
        MOV     R0,#?V2
        LCALL   ?PUSH_XSTACK_I_ONE
          CFI CFA_XSP16 add(XSP16, 33)
        MOV     R0,#?V2
        LCALL   ?PUSH_XSTACK_I_ONE
          CFI CFA_XSP16 add(XSP16, 34)
        MOV     ?V2,#0x0
        MOV     R0,#?V2
        LCALL   ?PUSH_XSTACK_I_ONE
          CFI CFA_XSP16 add(XSP16, 35)
        MOV     R4,#0x1
        MOV     R5,#0x2
        MOV     R2,?V8
        MOV     R3,?V9
        MOV     A,R7
        MOV     R1,A
        LCALL   `??zcl_SendCommand::?relay`; Banked call to: zcl_SendCommand
        MOV     A,#0xb
        LCALL   ?DEALLOC_XSTACK8
          CFI CFA_XSP16 add(XSP16, 24)
        MOV     A,R1
        MOV     R6,A
//  442   zcl_mem_free( pBuf );
        ; Setup parameters for call to function osal_mem_free
        MOV     R2,?V0
        MOV     R3,?V1
        LCALL   `??osal_mem_free::?relay`; Banked call to: osal_mem_free
//  443 
//  444   return status;
        MOV     A,R6
        MOV     R1,A
??zclHVAC_SendGetWeeklyScheduleRsp_6:
        LJMP    ?Subroutine1 & 0xFFFF
//  445 }
          CFI EndBlock cfiBlock19

        RSEG BANKED_CODE:HUGECODE:NOROOT(0)
?Subroutine36:
          CFI Block cfiCond20 Using cfiCommon0
          CFI Function zclHVAC_SendSetWeeklySchedule
          CFI Conditional ??CrossCallReturnLabel_64
          CFI R6 load(1, XDATA, add(CFA_XSP16, literal(-24)))
          CFI VB load(1, XDATA, add(CFA_XSP16, literal(-23)))
          CFI V0 load(1, XDATA, add(CFA_XSP16, literal(-22)))
          CFI V1 load(1, XDATA, add(CFA_XSP16, literal(-21)))
          CFI V2 load(1, XDATA, add(CFA_XSP16, literal(-20)))
          CFI V3 load(1, XDATA, add(CFA_XSP16, literal(-19)))
          CFI V4 load(1, XDATA, add(CFA_XSP16, literal(-18)))
          CFI V5 load(1, XDATA, add(CFA_XSP16, literal(-17)))
          CFI V6 load(1, XDATA, add(CFA_XSP16, literal(-16)))
          CFI V7 load(1, XDATA, add(CFA_XSP16, literal(-15)))
          CFI V8 load(1, XDATA, add(CFA_XSP16, literal(-14)))
          CFI V9 load(1, XDATA, add(CFA_XSP16, literal(-13)))
          CFI V10 load(1, XDATA, add(CFA_XSP16, literal(-12)))
          CFI V11 load(1, XDATA, add(CFA_XSP16, literal(-11)))
          CFI V12 load(1, XDATA, add(CFA_XSP16, literal(-10)))
          CFI V13 load(1, XDATA, add(CFA_XSP16, literal(-9)))
          CFI V14 load(1, XDATA, add(CFA_XSP16, literal(-8)))
          CFI V15 load(1, XDATA, add(CFA_XSP16, literal(-7)))
          CFI R7 load(1, XDATA, add(CFA_XSP16, literal(-6)))
          CFI ?RET_LOW load(1, XDATA, add(CFA_XSP16, literal(-5)))
          CFI ?RET_HIGH load(1, XDATA, add(CFA_XSP16, literal(-4)))
          CFI ?BRET_EXT load(1, XDATA, add(CFA_XSP16, literal(-3)))
          CFI DPL0 load(1, XDATA, add(CFA_XSP16, literal(-2)))
          CFI DPH0 load(1, XDATA, add(CFA_XSP16, literal(-1)))
          CFI CFA_SP SP+-2
          CFI CFA_XSP16 add(XSP16, 24)
          CFI Block cfiCond21 Using cfiCommon0
          CFI (cfiCond21) Function zclHVAC_SendGetWeeklyScheduleRsp
          CFI (cfiCond21) Conditional ??CrossCallReturnLabel_65
          CFI (cfiCond21) R6 load(1, XDATA, add(CFA_XSP16, literal(-24)))
          CFI (cfiCond21) VB load(1, XDATA, add(CFA_XSP16, literal(-23)))
          CFI (cfiCond21) V0 load(1, XDATA, add(CFA_XSP16, literal(-22)))
          CFI (cfiCond21) V1 load(1, XDATA, add(CFA_XSP16, literal(-21)))
          CFI (cfiCond21) V2 load(1, XDATA, add(CFA_XSP16, literal(-20)))
          CFI (cfiCond21) V3 load(1, XDATA, add(CFA_XSP16, literal(-19)))
          CFI (cfiCond21) V4 load(1, XDATA, add(CFA_XSP16, literal(-18)))
          CFI (cfiCond21) V5 load(1, XDATA, add(CFA_XSP16, literal(-17)))
          CFI (cfiCond21) V6 load(1, XDATA, add(CFA_XSP16, literal(-16)))
          CFI (cfiCond21) V7 load(1, XDATA, add(CFA_XSP16, literal(-15)))
          CFI (cfiCond21) V8 load(1, XDATA, add(CFA_XSP16, literal(-14)))
          CFI (cfiCond21) V9 load(1, XDATA, add(CFA_XSP16, literal(-13)))
          CFI (cfiCond21) V10 load(1, XDATA, add(CFA_XSP16, literal(-12)))
          CFI (cfiCond21) V11 load(1, XDATA, add(CFA_XSP16, literal(-11)))
          CFI (cfiCond21) V12 load(1, XDATA, add(CFA_XSP16, literal(-10)))
          CFI (cfiCond21) V13 load(1, XDATA, add(CFA_XSP16, literal(-9)))
          CFI (cfiCond21) V14 load(1, XDATA, add(CFA_XSP16, literal(-8)))
          CFI (cfiCond21) V15 load(1, XDATA, add(CFA_XSP16, literal(-7)))
          CFI (cfiCond21) R7 load(1, XDATA, add(CFA_XSP16, literal(-6)))
          CFI (cfiCond21) ?RET_LOW load(1, XDATA, add(CFA_XSP16, literal(-5)))
          CFI (cfiCond21) ?RET_HIGH load(1, XDATA, add(CFA_XSP16, literal(-4)))
          CFI (cfiCond21) ?BRET_EXT load(1, XDATA, add(CFA_XSP16, literal(-3)))
          CFI (cfiCond21) DPL0 load(1, XDATA, add(CFA_XSP16, literal(-2)))
          CFI (cfiCond21) DPH0 load(1, XDATA, add(CFA_XSP16, literal(-1)))
          CFI (cfiCond21) CFA_SP SP+-2
          CFI (cfiCond21) CFA_XSP16 add(XSP16, 24)
          CFI Block cfiPicker22 Using cfiCommon1
          CFI (cfiPicker22) NoFunction
          CFI (cfiPicker22) Picker
        MOV     A,R0
        ADD     A,#0x3
        MOV     ?V6,A
        CLR     A
        ADDC    A,R1
        MOV     ?V7,A
        ; Setup parameters for call to function osal_mem_alloc
        ; Setup parameters for call to function osal_mem_alloc
        MOV     R2,?V6
        MOV     R3,A
        RET
          CFI EndBlock cfiCond20
          CFI EndBlock cfiCond21
          CFI EndBlock cfiPicker22

        RSEG BANKED_CODE:HUGECODE:NOROOT(0)
?Subroutine35:
          CFI Block cfiCond23 Using cfiCommon0
          CFI Function zclHVAC_SendSetWeeklySchedule
          CFI Conditional ??CrossCallReturnLabel_62
          CFI R6 load(1, XDATA, add(CFA_XSP16, literal(-24)))
          CFI VB load(1, XDATA, add(CFA_XSP16, literal(-23)))
          CFI V0 load(1, XDATA, add(CFA_XSP16, literal(-22)))
          CFI V1 load(1, XDATA, add(CFA_XSP16, literal(-21)))
          CFI V2 load(1, XDATA, add(CFA_XSP16, literal(-20)))
          CFI V3 load(1, XDATA, add(CFA_XSP16, literal(-19)))
          CFI V4 load(1, XDATA, add(CFA_XSP16, literal(-18)))
          CFI V5 load(1, XDATA, add(CFA_XSP16, literal(-17)))
          CFI V6 load(1, XDATA, add(CFA_XSP16, literal(-16)))
          CFI V7 load(1, XDATA, add(CFA_XSP16, literal(-15)))
          CFI V8 load(1, XDATA, add(CFA_XSP16, literal(-14)))
          CFI V9 load(1, XDATA, add(CFA_XSP16, literal(-13)))
          CFI V10 load(1, XDATA, add(CFA_XSP16, literal(-12)))
          CFI V11 load(1, XDATA, add(CFA_XSP16, literal(-11)))
          CFI V12 load(1, XDATA, add(CFA_XSP16, literal(-10)))
          CFI V13 load(1, XDATA, add(CFA_XSP16, literal(-9)))
          CFI V14 load(1, XDATA, add(CFA_XSP16, literal(-8)))
          CFI V15 load(1, XDATA, add(CFA_XSP16, literal(-7)))
          CFI R7 load(1, XDATA, add(CFA_XSP16, literal(-6)))
          CFI ?RET_LOW load(1, XDATA, add(CFA_XSP16, literal(-5)))
          CFI ?RET_HIGH load(1, XDATA, add(CFA_XSP16, literal(-4)))
          CFI ?BRET_EXT load(1, XDATA, add(CFA_XSP16, literal(-3)))
          CFI DPL0 load(1, XDATA, add(CFA_XSP16, literal(-2)))
          CFI DPH0 load(1, XDATA, add(CFA_XSP16, literal(-1)))
          CFI CFA_SP SP+-2
          CFI CFA_XSP16 add(XSP16, 24)
          CFI Block cfiCond24 Using cfiCommon0
          CFI (cfiCond24) Function zclHVAC_SendGetWeeklyScheduleRsp
          CFI (cfiCond24) Conditional ??CrossCallReturnLabel_63
          CFI (cfiCond24) R6 load(1, XDATA, add(CFA_XSP16, literal(-24)))
          CFI (cfiCond24) VB load(1, XDATA, add(CFA_XSP16, literal(-23)))
          CFI (cfiCond24) V0 load(1, XDATA, add(CFA_XSP16, literal(-22)))
          CFI (cfiCond24) V1 load(1, XDATA, add(CFA_XSP16, literal(-21)))
          CFI (cfiCond24) V2 load(1, XDATA, add(CFA_XSP16, literal(-20)))
          CFI (cfiCond24) V3 load(1, XDATA, add(CFA_XSP16, literal(-19)))
          CFI (cfiCond24) V4 load(1, XDATA, add(CFA_XSP16, literal(-18)))
          CFI (cfiCond24) V5 load(1, XDATA, add(CFA_XSP16, literal(-17)))
          CFI (cfiCond24) V6 load(1, XDATA, add(CFA_XSP16, literal(-16)))
          CFI (cfiCond24) V7 load(1, XDATA, add(CFA_XSP16, literal(-15)))
          CFI (cfiCond24) V8 load(1, XDATA, add(CFA_XSP16, literal(-14)))
          CFI (cfiCond24) V9 load(1, XDATA, add(CFA_XSP16, literal(-13)))
          CFI (cfiCond24) V10 load(1, XDATA, add(CFA_XSP16, literal(-12)))
          CFI (cfiCond24) V11 load(1, XDATA, add(CFA_XSP16, literal(-11)))
          CFI (cfiCond24) V12 load(1, XDATA, add(CFA_XSP16, literal(-10)))
          CFI (cfiCond24) V13 load(1, XDATA, add(CFA_XSP16, literal(-9)))
          CFI (cfiCond24) V14 load(1, XDATA, add(CFA_XSP16, literal(-8)))
          CFI (cfiCond24) V15 load(1, XDATA, add(CFA_XSP16, literal(-7)))
          CFI (cfiCond24) R7 load(1, XDATA, add(CFA_XSP16, literal(-6)))
          CFI (cfiCond24) ?RET_LOW load(1, XDATA, add(CFA_XSP16, literal(-5)))
          CFI (cfiCond24) ?RET_HIGH load(1, XDATA, add(CFA_XSP16, literal(-4)))
          CFI (cfiCond24) ?BRET_EXT load(1, XDATA, add(CFA_XSP16, literal(-3)))
          CFI (cfiCond24) DPL0 load(1, XDATA, add(CFA_XSP16, literal(-2)))
          CFI (cfiCond24) DPH0 load(1, XDATA, add(CFA_XSP16, literal(-1)))
          CFI (cfiCond24) CFA_SP SP+-2
          CFI (cfiCond24) CFA_XSP16 add(XSP16, 24)
          CFI Block cfiPicker25 Using cfiCommon1
          CFI (cfiPicker25) NoFunction
          CFI (cfiPicker25) Picker
        MOV     A,R1
        MOV     R4,A
        MOV     A,?V0
        ADD     A,R4
        MOV     ?V12,A
        CLR     A
        ADDC    A,R3
        MOV     ?V13,A
        MOV     A,R2
        MOV     R4,A
        MOV     ?V4,R4
        MOV     ?V5,#0x0
        MOV     A,#0x2
        MOV     R0,#?V4
        RET
          CFI EndBlock cfiCond23
          CFI EndBlock cfiCond24
          CFI EndBlock cfiPicker25

        RSEG BANKED_CODE:HUGECODE:NOROOT(0)
?Subroutine34:
          CFI Block cfiCond26 Using cfiCommon0
          CFI Function zclHVAC_SendSetWeeklySchedule
          CFI Conditional ??CrossCallReturnLabel_60
          CFI R6 load(1, XDATA, add(CFA_XSP16, literal(-24)))
          CFI VB load(1, XDATA, add(CFA_XSP16, literal(-23)))
          CFI V0 load(1, XDATA, add(CFA_XSP16, literal(-22)))
          CFI V1 load(1, XDATA, add(CFA_XSP16, literal(-21)))
          CFI V2 load(1, XDATA, add(CFA_XSP16, literal(-20)))
          CFI V3 load(1, XDATA, add(CFA_XSP16, literal(-19)))
          CFI V4 load(1, XDATA, add(CFA_XSP16, literal(-18)))
          CFI V5 load(1, XDATA, add(CFA_XSP16, literal(-17)))
          CFI V6 load(1, XDATA, add(CFA_XSP16, literal(-16)))
          CFI V7 load(1, XDATA, add(CFA_XSP16, literal(-15)))
          CFI V8 load(1, XDATA, add(CFA_XSP16, literal(-14)))
          CFI V9 load(1, XDATA, add(CFA_XSP16, literal(-13)))
          CFI V10 load(1, XDATA, add(CFA_XSP16, literal(-12)))
          CFI V11 load(1, XDATA, add(CFA_XSP16, literal(-11)))
          CFI V12 load(1, XDATA, add(CFA_XSP16, literal(-10)))
          CFI V13 load(1, XDATA, add(CFA_XSP16, literal(-9)))
          CFI V14 load(1, XDATA, add(CFA_XSP16, literal(-8)))
          CFI V15 load(1, XDATA, add(CFA_XSP16, literal(-7)))
          CFI R7 load(1, XDATA, add(CFA_XSP16, literal(-6)))
          CFI ?RET_LOW load(1, XDATA, add(CFA_XSP16, literal(-5)))
          CFI ?RET_HIGH load(1, XDATA, add(CFA_XSP16, literal(-4)))
          CFI ?BRET_EXT load(1, XDATA, add(CFA_XSP16, literal(-3)))
          CFI DPL0 load(1, XDATA, add(CFA_XSP16, literal(-2)))
          CFI DPH0 load(1, XDATA, add(CFA_XSP16, literal(-1)))
          CFI CFA_SP SP+-2
          CFI CFA_XSP16 add(XSP16, 24)
          CFI Block cfiCond27 Using cfiCommon0
          CFI (cfiCond27) Function zclHVAC_SendGetWeeklyScheduleRsp
          CFI (cfiCond27) Conditional ??CrossCallReturnLabel_61
          CFI (cfiCond27) R6 load(1, XDATA, add(CFA_XSP16, literal(-24)))
          CFI (cfiCond27) VB load(1, XDATA, add(CFA_XSP16, literal(-23)))
          CFI (cfiCond27) V0 load(1, XDATA, add(CFA_XSP16, literal(-22)))
          CFI (cfiCond27) V1 load(1, XDATA, add(CFA_XSP16, literal(-21)))
          CFI (cfiCond27) V2 load(1, XDATA, add(CFA_XSP16, literal(-20)))
          CFI (cfiCond27) V3 load(1, XDATA, add(CFA_XSP16, literal(-19)))
          CFI (cfiCond27) V4 load(1, XDATA, add(CFA_XSP16, literal(-18)))
          CFI (cfiCond27) V5 load(1, XDATA, add(CFA_XSP16, literal(-17)))
          CFI (cfiCond27) V6 load(1, XDATA, add(CFA_XSP16, literal(-16)))
          CFI (cfiCond27) V7 load(1, XDATA, add(CFA_XSP16, literal(-15)))
          CFI (cfiCond27) V8 load(1, XDATA, add(CFA_XSP16, literal(-14)))
          CFI (cfiCond27) V9 load(1, XDATA, add(CFA_XSP16, literal(-13)))
          CFI (cfiCond27) V10 load(1, XDATA, add(CFA_XSP16, literal(-12)))
          CFI (cfiCond27) V11 load(1, XDATA, add(CFA_XSP16, literal(-11)))
          CFI (cfiCond27) V12 load(1, XDATA, add(CFA_XSP16, literal(-10)))
          CFI (cfiCond27) V13 load(1, XDATA, add(CFA_XSP16, literal(-9)))
          CFI (cfiCond27) V14 load(1, XDATA, add(CFA_XSP16, literal(-8)))
          CFI (cfiCond27) V15 load(1, XDATA, add(CFA_XSP16, literal(-7)))
          CFI (cfiCond27) R7 load(1, XDATA, add(CFA_XSP16, literal(-6)))
          CFI (cfiCond27) ?RET_LOW load(1, XDATA, add(CFA_XSP16, literal(-5)))
          CFI (cfiCond27) ?RET_HIGH load(1, XDATA, add(CFA_XSP16, literal(-4)))
          CFI (cfiCond27) ?BRET_EXT load(1, XDATA, add(CFA_XSP16, literal(-3)))
          CFI (cfiCond27) DPL0 load(1, XDATA, add(CFA_XSP16, literal(-2)))
          CFI (cfiCond27) DPH0 load(1, XDATA, add(CFA_XSP16, literal(-1)))
          CFI (cfiCond27) CFA_SP SP+-2
          CFI (cfiCond27) CFA_XSP16 add(XSP16, 24)
          CFI Block cfiPicker28 Using cfiCommon1
          CFI (cfiPicker28) NoFunction
          CFI (cfiPicker28) Picker
        MOV     A,R1
        MOV     R7,A
        MOV     ?V8,R2
        MOV     ?V9,R3
        MOV     ?V2,R4
        MOV     ?V3,R5
        MOV     A,R4
        ADD     A,#0x2
        MOV     ?V4,A
        CLR     A
        ADDC    A,?V3
        MOV     ?V5,A
        MOV     DPL,?V4
        MOV     DPH,A
        MOVX    A,@DPTR
        MOV     R6,A
        RET
          CFI EndBlock cfiCond26
          CFI EndBlock cfiCond27
          CFI EndBlock cfiPicker28

        RSEG BANKED_CODE:HUGECODE:NOROOT(0)
?Subroutine33:
          CFI Block cfiCond29 Using cfiCommon0
          CFI Function zclHVAC_SendSetWeeklySchedule
          CFI Conditional ??CrossCallReturnLabel_54
          CFI R6 load(1, XDATA, add(CFA_XSP16, literal(-24)))
          CFI VB load(1, XDATA, add(CFA_XSP16, literal(-23)))
          CFI V0 load(1, XDATA, add(CFA_XSP16, literal(-22)))
          CFI V1 load(1, XDATA, add(CFA_XSP16, literal(-21)))
          CFI V2 load(1, XDATA, add(CFA_XSP16, literal(-20)))
          CFI V3 load(1, XDATA, add(CFA_XSP16, literal(-19)))
          CFI V4 load(1, XDATA, add(CFA_XSP16, literal(-18)))
          CFI V5 load(1, XDATA, add(CFA_XSP16, literal(-17)))
          CFI V6 load(1, XDATA, add(CFA_XSP16, literal(-16)))
          CFI V7 load(1, XDATA, add(CFA_XSP16, literal(-15)))
          CFI V8 load(1, XDATA, add(CFA_XSP16, literal(-14)))
          CFI V9 load(1, XDATA, add(CFA_XSP16, literal(-13)))
          CFI V10 load(1, XDATA, add(CFA_XSP16, literal(-12)))
          CFI V11 load(1, XDATA, add(CFA_XSP16, literal(-11)))
          CFI V12 load(1, XDATA, add(CFA_XSP16, literal(-10)))
          CFI V13 load(1, XDATA, add(CFA_XSP16, literal(-9)))
          CFI V14 load(1, XDATA, add(CFA_XSP16, literal(-8)))
          CFI V15 load(1, XDATA, add(CFA_XSP16, literal(-7)))
          CFI R7 load(1, XDATA, add(CFA_XSP16, literal(-6)))
          CFI ?RET_LOW load(1, XDATA, add(CFA_XSP16, literal(-5)))
          CFI ?RET_HIGH load(1, XDATA, add(CFA_XSP16, literal(-4)))
          CFI ?BRET_EXT load(1, XDATA, add(CFA_XSP16, literal(-3)))
          CFI DPL0 load(1, XDATA, add(CFA_XSP16, literal(-2)))
          CFI DPH0 load(1, XDATA, add(CFA_XSP16, literal(-1)))
          CFI CFA_XSP16 add(XSP16, 24)
          CFI Block cfiCond30 Using cfiCommon0
          CFI (cfiCond30) Function zclHVAC_SendSetWeeklySchedule
          CFI (cfiCond30) Conditional ??CrossCallReturnLabel_55
          CFI (cfiCond30) R6 load(1, XDATA, add(CFA_XSP16, literal(-24)))
          CFI (cfiCond30) VB load(1, XDATA, add(CFA_XSP16, literal(-23)))
          CFI (cfiCond30) V0 load(1, XDATA, add(CFA_XSP16, literal(-22)))
          CFI (cfiCond30) V1 load(1, XDATA, add(CFA_XSP16, literal(-21)))
          CFI (cfiCond30) V2 load(1, XDATA, add(CFA_XSP16, literal(-20)))
          CFI (cfiCond30) V3 load(1, XDATA, add(CFA_XSP16, literal(-19)))
          CFI (cfiCond30) V4 load(1, XDATA, add(CFA_XSP16, literal(-18)))
          CFI (cfiCond30) V5 load(1, XDATA, add(CFA_XSP16, literal(-17)))
          CFI (cfiCond30) V6 load(1, XDATA, add(CFA_XSP16, literal(-16)))
          CFI (cfiCond30) V7 load(1, XDATA, add(CFA_XSP16, literal(-15)))
          CFI (cfiCond30) V8 load(1, XDATA, add(CFA_XSP16, literal(-14)))
          CFI (cfiCond30) V9 load(1, XDATA, add(CFA_XSP16, literal(-13)))
          CFI (cfiCond30) V10 load(1, XDATA, add(CFA_XSP16, literal(-12)))
          CFI (cfiCond30) V11 load(1, XDATA, add(CFA_XSP16, literal(-11)))
          CFI (cfiCond30) V12 load(1, XDATA, add(CFA_XSP16, literal(-10)))
          CFI (cfiCond30) V13 load(1, XDATA, add(CFA_XSP16, literal(-9)))
          CFI (cfiCond30) V14 load(1, XDATA, add(CFA_XSP16, literal(-8)))
          CFI (cfiCond30) V15 load(1, XDATA, add(CFA_XSP16, literal(-7)))
          CFI (cfiCond30) R7 load(1, XDATA, add(CFA_XSP16, literal(-6)))
          CFI (cfiCond30) ?RET_LOW load(1, XDATA, add(CFA_XSP16, literal(-5)))
          CFI (cfiCond30) ?RET_HIGH load(1, XDATA, add(CFA_XSP16, literal(-4)))
          CFI (cfiCond30) ?BRET_EXT load(1, XDATA, add(CFA_XSP16, literal(-3)))
          CFI (cfiCond30) DPL0 load(1, XDATA, add(CFA_XSP16, literal(-2)))
          CFI (cfiCond30) DPH0 load(1, XDATA, add(CFA_XSP16, literal(-1)))
          CFI (cfiCond30) CFA_XSP16 add(XSP16, 24)
          CFI Block cfiCond31 Using cfiCommon0
          CFI (cfiCond31) Function zclHVAC_SendSetWeeklySchedule
          CFI (cfiCond31) Conditional ??CrossCallReturnLabel_56
          CFI (cfiCond31) R6 load(1, XDATA, add(CFA_XSP16, literal(-24)))
          CFI (cfiCond31) VB load(1, XDATA, add(CFA_XSP16, literal(-23)))
          CFI (cfiCond31) V0 load(1, XDATA, add(CFA_XSP16, literal(-22)))
          CFI (cfiCond31) V1 load(1, XDATA, add(CFA_XSP16, literal(-21)))
          CFI (cfiCond31) V2 load(1, XDATA, add(CFA_XSP16, literal(-20)))
          CFI (cfiCond31) V3 load(1, XDATA, add(CFA_XSP16, literal(-19)))
          CFI (cfiCond31) V4 load(1, XDATA, add(CFA_XSP16, literal(-18)))
          CFI (cfiCond31) V5 load(1, XDATA, add(CFA_XSP16, literal(-17)))
          CFI (cfiCond31) V6 load(1, XDATA, add(CFA_XSP16, literal(-16)))
          CFI (cfiCond31) V7 load(1, XDATA, add(CFA_XSP16, literal(-15)))
          CFI (cfiCond31) V8 load(1, XDATA, add(CFA_XSP16, literal(-14)))
          CFI (cfiCond31) V9 load(1, XDATA, add(CFA_XSP16, literal(-13)))
          CFI (cfiCond31) V10 load(1, XDATA, add(CFA_XSP16, literal(-12)))
          CFI (cfiCond31) V11 load(1, XDATA, add(CFA_XSP16, literal(-11)))
          CFI (cfiCond31) V12 load(1, XDATA, add(CFA_XSP16, literal(-10)))
          CFI (cfiCond31) V13 load(1, XDATA, add(CFA_XSP16, literal(-9)))
          CFI (cfiCond31) V14 load(1, XDATA, add(CFA_XSP16, literal(-8)))
          CFI (cfiCond31) V15 load(1, XDATA, add(CFA_XSP16, literal(-7)))
          CFI (cfiCond31) R7 load(1, XDATA, add(CFA_XSP16, literal(-6)))
          CFI (cfiCond31) ?RET_LOW load(1, XDATA, add(CFA_XSP16, literal(-5)))
          CFI (cfiCond31) ?RET_HIGH load(1, XDATA, add(CFA_XSP16, literal(-4)))
          CFI (cfiCond31) ?BRET_EXT load(1, XDATA, add(CFA_XSP16, literal(-3)))
          CFI (cfiCond31) DPL0 load(1, XDATA, add(CFA_XSP16, literal(-2)))
          CFI (cfiCond31) DPH0 load(1, XDATA, add(CFA_XSP16, literal(-1)))
          CFI (cfiCond31) CFA_XSP16 add(XSP16, 24)
          CFI Block cfiCond32 Using cfiCommon0
          CFI (cfiCond32) Function zclHVAC_SendGetWeeklyScheduleRsp
          CFI (cfiCond32) Conditional ??CrossCallReturnLabel_57
          CFI (cfiCond32) R6 load(1, XDATA, add(CFA_XSP16, literal(-24)))
          CFI (cfiCond32) VB load(1, XDATA, add(CFA_XSP16, literal(-23)))
          CFI (cfiCond32) V0 load(1, XDATA, add(CFA_XSP16, literal(-22)))
          CFI (cfiCond32) V1 load(1, XDATA, add(CFA_XSP16, literal(-21)))
          CFI (cfiCond32) V2 load(1, XDATA, add(CFA_XSP16, literal(-20)))
          CFI (cfiCond32) V3 load(1, XDATA, add(CFA_XSP16, literal(-19)))
          CFI (cfiCond32) V4 load(1, XDATA, add(CFA_XSP16, literal(-18)))
          CFI (cfiCond32) V5 load(1, XDATA, add(CFA_XSP16, literal(-17)))
          CFI (cfiCond32) V6 load(1, XDATA, add(CFA_XSP16, literal(-16)))
          CFI (cfiCond32) V7 load(1, XDATA, add(CFA_XSP16, literal(-15)))
          CFI (cfiCond32) V8 load(1, XDATA, add(CFA_XSP16, literal(-14)))
          CFI (cfiCond32) V9 load(1, XDATA, add(CFA_XSP16, literal(-13)))
          CFI (cfiCond32) V10 load(1, XDATA, add(CFA_XSP16, literal(-12)))
          CFI (cfiCond32) V11 load(1, XDATA, add(CFA_XSP16, literal(-11)))
          CFI (cfiCond32) V12 load(1, XDATA, add(CFA_XSP16, literal(-10)))
          CFI (cfiCond32) V13 load(1, XDATA, add(CFA_XSP16, literal(-9)))
          CFI (cfiCond32) V14 load(1, XDATA, add(CFA_XSP16, literal(-8)))
          CFI (cfiCond32) V15 load(1, XDATA, add(CFA_XSP16, literal(-7)))
          CFI (cfiCond32) R7 load(1, XDATA, add(CFA_XSP16, literal(-6)))
          CFI (cfiCond32) ?RET_LOW load(1, XDATA, add(CFA_XSP16, literal(-5)))
          CFI (cfiCond32) ?RET_HIGH load(1, XDATA, add(CFA_XSP16, literal(-4)))
          CFI (cfiCond32) ?BRET_EXT load(1, XDATA, add(CFA_XSP16, literal(-3)))
          CFI (cfiCond32) DPL0 load(1, XDATA, add(CFA_XSP16, literal(-2)))
          CFI (cfiCond32) DPH0 load(1, XDATA, add(CFA_XSP16, literal(-1)))
          CFI (cfiCond32) CFA_XSP16 add(XSP16, 24)
          CFI Block cfiCond33 Using cfiCommon0
          CFI (cfiCond33) Function zclHVAC_SendGetWeeklyScheduleRsp
          CFI (cfiCond33) Conditional ??CrossCallReturnLabel_58
          CFI (cfiCond33) R6 load(1, XDATA, add(CFA_XSP16, literal(-24)))
          CFI (cfiCond33) VB load(1, XDATA, add(CFA_XSP16, literal(-23)))
          CFI (cfiCond33) V0 load(1, XDATA, add(CFA_XSP16, literal(-22)))
          CFI (cfiCond33) V1 load(1, XDATA, add(CFA_XSP16, literal(-21)))
          CFI (cfiCond33) V2 load(1, XDATA, add(CFA_XSP16, literal(-20)))
          CFI (cfiCond33) V3 load(1, XDATA, add(CFA_XSP16, literal(-19)))
          CFI (cfiCond33) V4 load(1, XDATA, add(CFA_XSP16, literal(-18)))
          CFI (cfiCond33) V5 load(1, XDATA, add(CFA_XSP16, literal(-17)))
          CFI (cfiCond33) V6 load(1, XDATA, add(CFA_XSP16, literal(-16)))
          CFI (cfiCond33) V7 load(1, XDATA, add(CFA_XSP16, literal(-15)))
          CFI (cfiCond33) V8 load(1, XDATA, add(CFA_XSP16, literal(-14)))
          CFI (cfiCond33) V9 load(1, XDATA, add(CFA_XSP16, literal(-13)))
          CFI (cfiCond33) V10 load(1, XDATA, add(CFA_XSP16, literal(-12)))
          CFI (cfiCond33) V11 load(1, XDATA, add(CFA_XSP16, literal(-11)))
          CFI (cfiCond33) V12 load(1, XDATA, add(CFA_XSP16, literal(-10)))
          CFI (cfiCond33) V13 load(1, XDATA, add(CFA_XSP16, literal(-9)))
          CFI (cfiCond33) V14 load(1, XDATA, add(CFA_XSP16, literal(-8)))
          CFI (cfiCond33) V15 load(1, XDATA, add(CFA_XSP16, literal(-7)))
          CFI (cfiCond33) R7 load(1, XDATA, add(CFA_XSP16, literal(-6)))
          CFI (cfiCond33) ?RET_LOW load(1, XDATA, add(CFA_XSP16, literal(-5)))
          CFI (cfiCond33) ?RET_HIGH load(1, XDATA, add(CFA_XSP16, literal(-4)))
          CFI (cfiCond33) ?BRET_EXT load(1, XDATA, add(CFA_XSP16, literal(-3)))
          CFI (cfiCond33) DPL0 load(1, XDATA, add(CFA_XSP16, literal(-2)))
          CFI (cfiCond33) DPH0 load(1, XDATA, add(CFA_XSP16, literal(-1)))
          CFI (cfiCond33) CFA_XSP16 add(XSP16, 24)
          CFI Block cfiCond34 Using cfiCommon0
          CFI (cfiCond34) Function zclHVAC_SendGetWeeklyScheduleRsp
          CFI (cfiCond34) Conditional ??CrossCallReturnLabel_59
          CFI (cfiCond34) R6 load(1, XDATA, add(CFA_XSP16, literal(-24)))
          CFI (cfiCond34) VB load(1, XDATA, add(CFA_XSP16, literal(-23)))
          CFI (cfiCond34) V0 load(1, XDATA, add(CFA_XSP16, literal(-22)))
          CFI (cfiCond34) V1 load(1, XDATA, add(CFA_XSP16, literal(-21)))
          CFI (cfiCond34) V2 load(1, XDATA, add(CFA_XSP16, literal(-20)))
          CFI (cfiCond34) V3 load(1, XDATA, add(CFA_XSP16, literal(-19)))
          CFI (cfiCond34) V4 load(1, XDATA, add(CFA_XSP16, literal(-18)))
          CFI (cfiCond34) V5 load(1, XDATA, add(CFA_XSP16, literal(-17)))
          CFI (cfiCond34) V6 load(1, XDATA, add(CFA_XSP16, literal(-16)))
          CFI (cfiCond34) V7 load(1, XDATA, add(CFA_XSP16, literal(-15)))
          CFI (cfiCond34) V8 load(1, XDATA, add(CFA_XSP16, literal(-14)))
          CFI (cfiCond34) V9 load(1, XDATA, add(CFA_XSP16, literal(-13)))
          CFI (cfiCond34) V10 load(1, XDATA, add(CFA_XSP16, literal(-12)))
          CFI (cfiCond34) V11 load(1, XDATA, add(CFA_XSP16, literal(-11)))
          CFI (cfiCond34) V12 load(1, XDATA, add(CFA_XSP16, literal(-10)))
          CFI (cfiCond34) V13 load(1, XDATA, add(CFA_XSP16, literal(-9)))
          CFI (cfiCond34) V14 load(1, XDATA, add(CFA_XSP16, literal(-8)))
          CFI (cfiCond34) V15 load(1, XDATA, add(CFA_XSP16, literal(-7)))
          CFI (cfiCond34) R7 load(1, XDATA, add(CFA_XSP16, literal(-6)))
          CFI (cfiCond34) ?RET_LOW load(1, XDATA, add(CFA_XSP16, literal(-5)))
          CFI (cfiCond34) ?RET_HIGH load(1, XDATA, add(CFA_XSP16, literal(-4)))
          CFI (cfiCond34) ?BRET_EXT load(1, XDATA, add(CFA_XSP16, literal(-3)))
          CFI (cfiCond34) DPL0 load(1, XDATA, add(CFA_XSP16, literal(-2)))
          CFI (cfiCond34) DPH0 load(1, XDATA, add(CFA_XSP16, literal(-1)))
          CFI (cfiCond34) CFA_XSP16 add(XSP16, 24)
          CFI Block cfiPicker35 Using cfiCommon1
          CFI (cfiPicker35) NoFunction
          CFI (cfiPicker35) Picker
        MOV     A,?V0
        ADD     A,R1
        MOV     DPL,A
        CLR     A
        ADDC    A,R3
        MOV     DPH,A
        RET
          CFI EndBlock cfiCond29
          CFI EndBlock cfiCond30
          CFI EndBlock cfiCond31
          CFI EndBlock cfiCond32
          CFI EndBlock cfiCond33
          CFI EndBlock cfiCond34
          CFI EndBlock cfiPicker35

        RSEG BANKED_CODE:HUGECODE:NOROOT(0)
?Subroutine27:
          CFI Block cfiCond36 Using cfiCommon0
          CFI Function zclHVAC_SendSetWeeklySchedule
          CFI Conditional ??CrossCallReturnLabel_44
          CFI R6 load(1, XDATA, add(CFA_XSP16, literal(-24)))
          CFI VB load(1, XDATA, add(CFA_XSP16, literal(-23)))
          CFI V0 load(1, XDATA, add(CFA_XSP16, literal(-22)))
          CFI V1 load(1, XDATA, add(CFA_XSP16, literal(-21)))
          CFI V2 load(1, XDATA, add(CFA_XSP16, literal(-20)))
          CFI V3 load(1, XDATA, add(CFA_XSP16, literal(-19)))
          CFI V4 load(1, XDATA, add(CFA_XSP16, literal(-18)))
          CFI V5 load(1, XDATA, add(CFA_XSP16, literal(-17)))
          CFI V6 load(1, XDATA, add(CFA_XSP16, literal(-16)))
          CFI V7 load(1, XDATA, add(CFA_XSP16, literal(-15)))
          CFI V8 load(1, XDATA, add(CFA_XSP16, literal(-14)))
          CFI V9 load(1, XDATA, add(CFA_XSP16, literal(-13)))
          CFI V10 load(1, XDATA, add(CFA_XSP16, literal(-12)))
          CFI V11 load(1, XDATA, add(CFA_XSP16, literal(-11)))
          CFI V12 load(1, XDATA, add(CFA_XSP16, literal(-10)))
          CFI V13 load(1, XDATA, add(CFA_XSP16, literal(-9)))
          CFI V14 load(1, XDATA, add(CFA_XSP16, literal(-8)))
          CFI V15 load(1, XDATA, add(CFA_XSP16, literal(-7)))
          CFI R7 load(1, XDATA, add(CFA_XSP16, literal(-6)))
          CFI ?RET_LOW load(1, XDATA, add(CFA_XSP16, literal(-5)))
          CFI ?RET_HIGH load(1, XDATA, add(CFA_XSP16, literal(-4)))
          CFI ?BRET_EXT load(1, XDATA, add(CFA_XSP16, literal(-3)))
          CFI DPL0 load(1, XDATA, add(CFA_XSP16, literal(-2)))
          CFI DPH0 load(1, XDATA, add(CFA_XSP16, literal(-1)))
          CFI CFA_SP SP+-2
          CFI CFA_XSP16 add(XSP16, 24)
          CFI Block cfiCond37 Using cfiCommon0
          CFI (cfiCond37) Function zclHVAC_SendGetWeeklyScheduleRsp
          CFI (cfiCond37) Conditional ??CrossCallReturnLabel_45
          CFI (cfiCond37) R6 load(1, XDATA, add(CFA_XSP16, literal(-24)))
          CFI (cfiCond37) VB load(1, XDATA, add(CFA_XSP16, literal(-23)))
          CFI (cfiCond37) V0 load(1, XDATA, add(CFA_XSP16, literal(-22)))
          CFI (cfiCond37) V1 load(1, XDATA, add(CFA_XSP16, literal(-21)))
          CFI (cfiCond37) V2 load(1, XDATA, add(CFA_XSP16, literal(-20)))
          CFI (cfiCond37) V3 load(1, XDATA, add(CFA_XSP16, literal(-19)))
          CFI (cfiCond37) V4 load(1, XDATA, add(CFA_XSP16, literal(-18)))
          CFI (cfiCond37) V5 load(1, XDATA, add(CFA_XSP16, literal(-17)))
          CFI (cfiCond37) V6 load(1, XDATA, add(CFA_XSP16, literal(-16)))
          CFI (cfiCond37) V7 load(1, XDATA, add(CFA_XSP16, literal(-15)))
          CFI (cfiCond37) V8 load(1, XDATA, add(CFA_XSP16, literal(-14)))
          CFI (cfiCond37) V9 load(1, XDATA, add(CFA_XSP16, literal(-13)))
          CFI (cfiCond37) V10 load(1, XDATA, add(CFA_XSP16, literal(-12)))
          CFI (cfiCond37) V11 load(1, XDATA, add(CFA_XSP16, literal(-11)))
          CFI (cfiCond37) V12 load(1, XDATA, add(CFA_XSP16, literal(-10)))
          CFI (cfiCond37) V13 load(1, XDATA, add(CFA_XSP16, literal(-9)))
          CFI (cfiCond37) V14 load(1, XDATA, add(CFA_XSP16, literal(-8)))
          CFI (cfiCond37) V15 load(1, XDATA, add(CFA_XSP16, literal(-7)))
          CFI (cfiCond37) R7 load(1, XDATA, add(CFA_XSP16, literal(-6)))
          CFI (cfiCond37) ?RET_LOW load(1, XDATA, add(CFA_XSP16, literal(-5)))
          CFI (cfiCond37) ?RET_HIGH load(1, XDATA, add(CFA_XSP16, literal(-4)))
          CFI (cfiCond37) ?BRET_EXT load(1, XDATA, add(CFA_XSP16, literal(-3)))
          CFI (cfiCond37) DPL0 load(1, XDATA, add(CFA_XSP16, literal(-2)))
          CFI (cfiCond37) DPH0 load(1, XDATA, add(CFA_XSP16, literal(-1)))
          CFI (cfiCond37) CFA_SP SP+-2
          CFI (cfiCond37) CFA_XSP16 add(XSP16, 24)
          CFI Block cfiPicker38 Using cfiCommon1
          CFI (cfiPicker38) NoFunction
          CFI (cfiPicker38) Picker
        MOV     DPL,R4
        MOV     DPH,R5
        MOVX    A,@DPTR
        MOV     B,#0x6
        MUL     AB
        MOV     R0,A
        MOV     R1,B
        RET
          CFI EndBlock cfiCond36
          CFI EndBlock cfiCond37
          CFI EndBlock cfiPicker38

        RSEG BANKED_CODE:HUGECODE:NOROOT(0)
?Subroutine25:
          CFI Block cfiCond39 Using cfiCommon0
          CFI Function zclHVAC_SendSetWeeklySchedule
          CFI Conditional ??CrossCallReturnLabel_36
          CFI R6 load(1, XDATA, add(CFA_XSP16, literal(-24)))
          CFI VB load(1, XDATA, add(CFA_XSP16, literal(-23)))
          CFI V0 load(1, XDATA, add(CFA_XSP16, literal(-22)))
          CFI V1 load(1, XDATA, add(CFA_XSP16, literal(-21)))
          CFI V2 load(1, XDATA, add(CFA_XSP16, literal(-20)))
          CFI V3 load(1, XDATA, add(CFA_XSP16, literal(-19)))
          CFI V4 load(1, XDATA, add(CFA_XSP16, literal(-18)))
          CFI V5 load(1, XDATA, add(CFA_XSP16, literal(-17)))
          CFI V6 load(1, XDATA, add(CFA_XSP16, literal(-16)))
          CFI V7 load(1, XDATA, add(CFA_XSP16, literal(-15)))
          CFI V8 load(1, XDATA, add(CFA_XSP16, literal(-14)))
          CFI V9 load(1, XDATA, add(CFA_XSP16, literal(-13)))
          CFI V10 load(1, XDATA, add(CFA_XSP16, literal(-12)))
          CFI V11 load(1, XDATA, add(CFA_XSP16, literal(-11)))
          CFI V12 load(1, XDATA, add(CFA_XSP16, literal(-10)))
          CFI V13 load(1, XDATA, add(CFA_XSP16, literal(-9)))
          CFI V14 load(1, XDATA, add(CFA_XSP16, literal(-8)))
          CFI V15 load(1, XDATA, add(CFA_XSP16, literal(-7)))
          CFI R7 load(1, XDATA, add(CFA_XSP16, literal(-6)))
          CFI ?RET_LOW load(1, XDATA, add(CFA_XSP16, literal(-5)))
          CFI ?RET_HIGH load(1, XDATA, add(CFA_XSP16, literal(-4)))
          CFI ?BRET_EXT load(1, XDATA, add(CFA_XSP16, literal(-3)))
          CFI DPL0 load(1, XDATA, add(CFA_XSP16, literal(-2)))
          CFI DPH0 load(1, XDATA, add(CFA_XSP16, literal(-1)))
          CFI CFA_SP SP+-2
          CFI CFA_XSP16 add(XSP16, 28)
          CFI Block cfiCond40 Using cfiCommon0
          CFI (cfiCond40) Function zclHVAC_SendSetWeeklySchedule
          CFI (cfiCond40) Conditional ??CrossCallReturnLabel_37
          CFI (cfiCond40) R6 load(1, XDATA, add(CFA_XSP16, literal(-24)))
          CFI (cfiCond40) VB load(1, XDATA, add(CFA_XSP16, literal(-23)))
          CFI (cfiCond40) V0 load(1, XDATA, add(CFA_XSP16, literal(-22)))
          CFI (cfiCond40) V1 load(1, XDATA, add(CFA_XSP16, literal(-21)))
          CFI (cfiCond40) V2 load(1, XDATA, add(CFA_XSP16, literal(-20)))
          CFI (cfiCond40) V3 load(1, XDATA, add(CFA_XSP16, literal(-19)))
          CFI (cfiCond40) V4 load(1, XDATA, add(CFA_XSP16, literal(-18)))
          CFI (cfiCond40) V5 load(1, XDATA, add(CFA_XSP16, literal(-17)))
          CFI (cfiCond40) V6 load(1, XDATA, add(CFA_XSP16, literal(-16)))
          CFI (cfiCond40) V7 load(1, XDATA, add(CFA_XSP16, literal(-15)))
          CFI (cfiCond40) V8 load(1, XDATA, add(CFA_XSP16, literal(-14)))
          CFI (cfiCond40) V9 load(1, XDATA, add(CFA_XSP16, literal(-13)))
          CFI (cfiCond40) V10 load(1, XDATA, add(CFA_XSP16, literal(-12)))
          CFI (cfiCond40) V11 load(1, XDATA, add(CFA_XSP16, literal(-11)))
          CFI (cfiCond40) V12 load(1, XDATA, add(CFA_XSP16, literal(-10)))
          CFI (cfiCond40) V13 load(1, XDATA, add(CFA_XSP16, literal(-9)))
          CFI (cfiCond40) V14 load(1, XDATA, add(CFA_XSP16, literal(-8)))
          CFI (cfiCond40) V15 load(1, XDATA, add(CFA_XSP16, literal(-7)))
          CFI (cfiCond40) R7 load(1, XDATA, add(CFA_XSP16, literal(-6)))
          CFI (cfiCond40) ?RET_LOW load(1, XDATA, add(CFA_XSP16, literal(-5)))
          CFI (cfiCond40) ?RET_HIGH load(1, XDATA, add(CFA_XSP16, literal(-4)))
          CFI (cfiCond40) ?BRET_EXT load(1, XDATA, add(CFA_XSP16, literal(-3)))
          CFI (cfiCond40) DPL0 load(1, XDATA, add(CFA_XSP16, literal(-2)))
          CFI (cfiCond40) DPH0 load(1, XDATA, add(CFA_XSP16, literal(-1)))
          CFI (cfiCond40) CFA_SP SP+-2
          CFI (cfiCond40) CFA_XSP16 add(XSP16, 31)
          CFI Block cfiCond41 Using cfiCommon0
          CFI (cfiCond41) Function zclHVAC_SendGetWeeklyScheduleRsp
          CFI (cfiCond41) Conditional ??CrossCallReturnLabel_38
          CFI (cfiCond41) R6 load(1, XDATA, add(CFA_XSP16, literal(-24)))
          CFI (cfiCond41) VB load(1, XDATA, add(CFA_XSP16, literal(-23)))
          CFI (cfiCond41) V0 load(1, XDATA, add(CFA_XSP16, literal(-22)))
          CFI (cfiCond41) V1 load(1, XDATA, add(CFA_XSP16, literal(-21)))
          CFI (cfiCond41) V2 load(1, XDATA, add(CFA_XSP16, literal(-20)))
          CFI (cfiCond41) V3 load(1, XDATA, add(CFA_XSP16, literal(-19)))
          CFI (cfiCond41) V4 load(1, XDATA, add(CFA_XSP16, literal(-18)))
          CFI (cfiCond41) V5 load(1, XDATA, add(CFA_XSP16, literal(-17)))
          CFI (cfiCond41) V6 load(1, XDATA, add(CFA_XSP16, literal(-16)))
          CFI (cfiCond41) V7 load(1, XDATA, add(CFA_XSP16, literal(-15)))
          CFI (cfiCond41) V8 load(1, XDATA, add(CFA_XSP16, literal(-14)))
          CFI (cfiCond41) V9 load(1, XDATA, add(CFA_XSP16, literal(-13)))
          CFI (cfiCond41) V10 load(1, XDATA, add(CFA_XSP16, literal(-12)))
          CFI (cfiCond41) V11 load(1, XDATA, add(CFA_XSP16, literal(-11)))
          CFI (cfiCond41) V12 load(1, XDATA, add(CFA_XSP16, literal(-10)))
          CFI (cfiCond41) V13 load(1, XDATA, add(CFA_XSP16, literal(-9)))
          CFI (cfiCond41) V14 load(1, XDATA, add(CFA_XSP16, literal(-8)))
          CFI (cfiCond41) V15 load(1, XDATA, add(CFA_XSP16, literal(-7)))
          CFI (cfiCond41) R7 load(1, XDATA, add(CFA_XSP16, literal(-6)))
          CFI (cfiCond41) ?RET_LOW load(1, XDATA, add(CFA_XSP16, literal(-5)))
          CFI (cfiCond41) ?RET_HIGH load(1, XDATA, add(CFA_XSP16, literal(-4)))
          CFI (cfiCond41) ?BRET_EXT load(1, XDATA, add(CFA_XSP16, literal(-3)))
          CFI (cfiCond41) DPL0 load(1, XDATA, add(CFA_XSP16, literal(-2)))
          CFI (cfiCond41) DPH0 load(1, XDATA, add(CFA_XSP16, literal(-1)))
          CFI (cfiCond41) CFA_SP SP+-2
          CFI (cfiCond41) CFA_XSP16 add(XSP16, 28)
          CFI Block cfiCond42 Using cfiCommon0
          CFI (cfiCond42) Function zclHVAC_SendGetWeeklyScheduleRsp
          CFI (cfiCond42) Conditional ??CrossCallReturnLabel_39
          CFI (cfiCond42) R6 load(1, XDATA, add(CFA_XSP16, literal(-24)))
          CFI (cfiCond42) VB load(1, XDATA, add(CFA_XSP16, literal(-23)))
          CFI (cfiCond42) V0 load(1, XDATA, add(CFA_XSP16, literal(-22)))
          CFI (cfiCond42) V1 load(1, XDATA, add(CFA_XSP16, literal(-21)))
          CFI (cfiCond42) V2 load(1, XDATA, add(CFA_XSP16, literal(-20)))
          CFI (cfiCond42) V3 load(1, XDATA, add(CFA_XSP16, literal(-19)))
          CFI (cfiCond42) V4 load(1, XDATA, add(CFA_XSP16, literal(-18)))
          CFI (cfiCond42) V5 load(1, XDATA, add(CFA_XSP16, literal(-17)))
          CFI (cfiCond42) V6 load(1, XDATA, add(CFA_XSP16, literal(-16)))
          CFI (cfiCond42) V7 load(1, XDATA, add(CFA_XSP16, literal(-15)))
          CFI (cfiCond42) V8 load(1, XDATA, add(CFA_XSP16, literal(-14)))
          CFI (cfiCond42) V9 load(1, XDATA, add(CFA_XSP16, literal(-13)))
          CFI (cfiCond42) V10 load(1, XDATA, add(CFA_XSP16, literal(-12)))
          CFI (cfiCond42) V11 load(1, XDATA, add(CFA_XSP16, literal(-11)))
          CFI (cfiCond42) V12 load(1, XDATA, add(CFA_XSP16, literal(-10)))
          CFI (cfiCond42) V13 load(1, XDATA, add(CFA_XSP16, literal(-9)))
          CFI (cfiCond42) V14 load(1, XDATA, add(CFA_XSP16, literal(-8)))
          CFI (cfiCond42) V15 load(1, XDATA, add(CFA_XSP16, literal(-7)))
          CFI (cfiCond42) R7 load(1, XDATA, add(CFA_XSP16, literal(-6)))
          CFI (cfiCond42) ?RET_LOW load(1, XDATA, add(CFA_XSP16, literal(-5)))
          CFI (cfiCond42) ?RET_HIGH load(1, XDATA, add(CFA_XSP16, literal(-4)))
          CFI (cfiCond42) ?BRET_EXT load(1, XDATA, add(CFA_XSP16, literal(-3)))
          CFI (cfiCond42) DPL0 load(1, XDATA, add(CFA_XSP16, literal(-2)))
          CFI (cfiCond42) DPH0 load(1, XDATA, add(CFA_XSP16, literal(-1)))
          CFI (cfiCond42) CFA_SP SP+-2
          CFI (cfiCond42) CFA_XSP16 add(XSP16, 31)
          CFI Block cfiPicker43 Using cfiCommon1
          CFI (cfiPicker43) NoFunction
          CFI (cfiPicker43) Picker
        MOVX    A,@DPTR
        MOV     ?V2,A
        MOV     R0,#?V2
        RET
          CFI EndBlock cfiCond39
          CFI EndBlock cfiCond40
          CFI EndBlock cfiCond41
          CFI EndBlock cfiCond42
          CFI EndBlock cfiPicker43

        RSEG BANKED_CODE:HUGECODE:NOROOT(0)
?Subroutine21:
          CFI Block cfiCond44 Using cfiCommon0
          CFI Function zclHVAC_SendSetWeeklySchedule
          CFI Conditional ??CrossCallReturnLabel_26
          CFI R6 load(1, XDATA, add(CFA_XSP16, literal(-24)))
          CFI VB load(1, XDATA, add(CFA_XSP16, literal(-23)))
          CFI V0 load(1, XDATA, add(CFA_XSP16, literal(-22)))
          CFI V1 load(1, XDATA, add(CFA_XSP16, literal(-21)))
          CFI V2 load(1, XDATA, add(CFA_XSP16, literal(-20)))
          CFI V3 load(1, XDATA, add(CFA_XSP16, literal(-19)))
          CFI V4 load(1, XDATA, add(CFA_XSP16, literal(-18)))
          CFI V5 load(1, XDATA, add(CFA_XSP16, literal(-17)))
          CFI V6 load(1, XDATA, add(CFA_XSP16, literal(-16)))
          CFI V7 load(1, XDATA, add(CFA_XSP16, literal(-15)))
          CFI V8 load(1, XDATA, add(CFA_XSP16, literal(-14)))
          CFI V9 load(1, XDATA, add(CFA_XSP16, literal(-13)))
          CFI V10 load(1, XDATA, add(CFA_XSP16, literal(-12)))
          CFI V11 load(1, XDATA, add(CFA_XSP16, literal(-11)))
          CFI V12 load(1, XDATA, add(CFA_XSP16, literal(-10)))
          CFI V13 load(1, XDATA, add(CFA_XSP16, literal(-9)))
          CFI V14 load(1, XDATA, add(CFA_XSP16, literal(-8)))
          CFI V15 load(1, XDATA, add(CFA_XSP16, literal(-7)))
          CFI R7 load(1, XDATA, add(CFA_XSP16, literal(-6)))
          CFI ?RET_LOW load(1, XDATA, add(CFA_XSP16, literal(-5)))
          CFI ?RET_HIGH load(1, XDATA, add(CFA_XSP16, literal(-4)))
          CFI ?BRET_EXT load(1, XDATA, add(CFA_XSP16, literal(-3)))
          CFI DPL0 load(1, XDATA, add(CFA_XSP16, literal(-2)))
          CFI DPH0 load(1, XDATA, add(CFA_XSP16, literal(-1)))
          CFI CFA_SP SP+-2
          CFI CFA_XSP16 add(XSP16, 24)
          CFI Block cfiCond45 Using cfiCommon0
          CFI (cfiCond45) Function zclHVAC_SendGetWeeklyScheduleRsp
          CFI (cfiCond45) Conditional ??CrossCallReturnLabel_27
          CFI (cfiCond45) R6 load(1, XDATA, add(CFA_XSP16, literal(-24)))
          CFI (cfiCond45) VB load(1, XDATA, add(CFA_XSP16, literal(-23)))
          CFI (cfiCond45) V0 load(1, XDATA, add(CFA_XSP16, literal(-22)))
          CFI (cfiCond45) V1 load(1, XDATA, add(CFA_XSP16, literal(-21)))
          CFI (cfiCond45) V2 load(1, XDATA, add(CFA_XSP16, literal(-20)))
          CFI (cfiCond45) V3 load(1, XDATA, add(CFA_XSP16, literal(-19)))
          CFI (cfiCond45) V4 load(1, XDATA, add(CFA_XSP16, literal(-18)))
          CFI (cfiCond45) V5 load(1, XDATA, add(CFA_XSP16, literal(-17)))
          CFI (cfiCond45) V6 load(1, XDATA, add(CFA_XSP16, literal(-16)))
          CFI (cfiCond45) V7 load(1, XDATA, add(CFA_XSP16, literal(-15)))
          CFI (cfiCond45) V8 load(1, XDATA, add(CFA_XSP16, literal(-14)))
          CFI (cfiCond45) V9 load(1, XDATA, add(CFA_XSP16, literal(-13)))
          CFI (cfiCond45) V10 load(1, XDATA, add(CFA_XSP16, literal(-12)))
          CFI (cfiCond45) V11 load(1, XDATA, add(CFA_XSP16, literal(-11)))
          CFI (cfiCond45) V12 load(1, XDATA, add(CFA_XSP16, literal(-10)))
          CFI (cfiCond45) V13 load(1, XDATA, add(CFA_XSP16, literal(-9)))
          CFI (cfiCond45) V14 load(1, XDATA, add(CFA_XSP16, literal(-8)))
          CFI (cfiCond45) V15 load(1, XDATA, add(CFA_XSP16, literal(-7)))
          CFI (cfiCond45) R7 load(1, XDATA, add(CFA_XSP16, literal(-6)))
          CFI (cfiCond45) ?RET_LOW load(1, XDATA, add(CFA_XSP16, literal(-5)))
          CFI (cfiCond45) ?RET_HIGH load(1, XDATA, add(CFA_XSP16, literal(-4)))
          CFI (cfiCond45) ?BRET_EXT load(1, XDATA, add(CFA_XSP16, literal(-3)))
          CFI (cfiCond45) DPL0 load(1, XDATA, add(CFA_XSP16, literal(-2)))
          CFI (cfiCond45) DPH0 load(1, XDATA, add(CFA_XSP16, literal(-1)))
          CFI (cfiCond45) CFA_SP SP+-2
          CFI (cfiCond45) CFA_XSP16 add(XSP16, 24)
          CFI Block cfiPicker46 Using cfiCommon1
          CFI (cfiPicker46) NoFunction
          CFI (cfiPicker46) Picker
        MOV     DPL,R4
        MOV     DPH,R5
        MOVX    A,@DPTR
        MOV     ?V0,A
        MOV     ?V1,#0x0
        MOV     A,#0x2
        MOV     R0,#?V0
        RET
          CFI EndBlock cfiCond44
          CFI EndBlock cfiCond45
          CFI EndBlock cfiPicker46

        RSEG BANKED_CODE:HUGECODE:NOROOT(0)
?Subroutine19:
          CFI Block cfiCond47 Using cfiCommon0
          CFI Function zclHVAC_SendSetWeeklySchedule
          CFI Conditional ??CrossCallReturnLabel_22
          CFI R6 load(1, XDATA, add(CFA_XSP16, literal(-24)))
          CFI VB load(1, XDATA, add(CFA_XSP16, literal(-23)))
          CFI V0 load(1, XDATA, add(CFA_XSP16, literal(-22)))
          CFI V1 load(1, XDATA, add(CFA_XSP16, literal(-21)))
          CFI V2 load(1, XDATA, add(CFA_XSP16, literal(-20)))
          CFI V3 load(1, XDATA, add(CFA_XSP16, literal(-19)))
          CFI V4 load(1, XDATA, add(CFA_XSP16, literal(-18)))
          CFI V5 load(1, XDATA, add(CFA_XSP16, literal(-17)))
          CFI V6 load(1, XDATA, add(CFA_XSP16, literal(-16)))
          CFI V7 load(1, XDATA, add(CFA_XSP16, literal(-15)))
          CFI V8 load(1, XDATA, add(CFA_XSP16, literal(-14)))
          CFI V9 load(1, XDATA, add(CFA_XSP16, literal(-13)))
          CFI V10 load(1, XDATA, add(CFA_XSP16, literal(-12)))
          CFI V11 load(1, XDATA, add(CFA_XSP16, literal(-11)))
          CFI V12 load(1, XDATA, add(CFA_XSP16, literal(-10)))
          CFI V13 load(1, XDATA, add(CFA_XSP16, literal(-9)))
          CFI V14 load(1, XDATA, add(CFA_XSP16, literal(-8)))
          CFI V15 load(1, XDATA, add(CFA_XSP16, literal(-7)))
          CFI R7 load(1, XDATA, add(CFA_XSP16, literal(-6)))
          CFI ?RET_LOW load(1, XDATA, add(CFA_XSP16, literal(-5)))
          CFI ?RET_HIGH load(1, XDATA, add(CFA_XSP16, literal(-4)))
          CFI ?BRET_EXT load(1, XDATA, add(CFA_XSP16, literal(-3)))
          CFI DPL0 load(1, XDATA, add(CFA_XSP16, literal(-2)))
          CFI DPH0 load(1, XDATA, add(CFA_XSP16, literal(-1)))
          CFI CFA_SP SP+-2
          CFI CFA_XSP16 add(XSP16, 24)
          CFI Block cfiCond48 Using cfiCommon0
          CFI (cfiCond48) Function zclHVAC_SendGetWeeklyScheduleRsp
          CFI (cfiCond48) Conditional ??CrossCallReturnLabel_23
          CFI (cfiCond48) R6 load(1, XDATA, add(CFA_XSP16, literal(-24)))
          CFI (cfiCond48) VB load(1, XDATA, add(CFA_XSP16, literal(-23)))
          CFI (cfiCond48) V0 load(1, XDATA, add(CFA_XSP16, literal(-22)))
          CFI (cfiCond48) V1 load(1, XDATA, add(CFA_XSP16, literal(-21)))
          CFI (cfiCond48) V2 load(1, XDATA, add(CFA_XSP16, literal(-20)))
          CFI (cfiCond48) V3 load(1, XDATA, add(CFA_XSP16, literal(-19)))
          CFI (cfiCond48) V4 load(1, XDATA, add(CFA_XSP16, literal(-18)))
          CFI (cfiCond48) V5 load(1, XDATA, add(CFA_XSP16, literal(-17)))
          CFI (cfiCond48) V6 load(1, XDATA, add(CFA_XSP16, literal(-16)))
          CFI (cfiCond48) V7 load(1, XDATA, add(CFA_XSP16, literal(-15)))
          CFI (cfiCond48) V8 load(1, XDATA, add(CFA_XSP16, literal(-14)))
          CFI (cfiCond48) V9 load(1, XDATA, add(CFA_XSP16, literal(-13)))
          CFI (cfiCond48) V10 load(1, XDATA, add(CFA_XSP16, literal(-12)))
          CFI (cfiCond48) V11 load(1, XDATA, add(CFA_XSP16, literal(-11)))
          CFI (cfiCond48) V12 load(1, XDATA, add(CFA_XSP16, literal(-10)))
          CFI (cfiCond48) V13 load(1, XDATA, add(CFA_XSP16, literal(-9)))
          CFI (cfiCond48) V14 load(1, XDATA, add(CFA_XSP16, literal(-8)))
          CFI (cfiCond48) V15 load(1, XDATA, add(CFA_XSP16, literal(-7)))
          CFI (cfiCond48) R7 load(1, XDATA, add(CFA_XSP16, literal(-6)))
          CFI (cfiCond48) ?RET_LOW load(1, XDATA, add(CFA_XSP16, literal(-5)))
          CFI (cfiCond48) ?RET_HIGH load(1, XDATA, add(CFA_XSP16, literal(-4)))
          CFI (cfiCond48) ?BRET_EXT load(1, XDATA, add(CFA_XSP16, literal(-3)))
          CFI (cfiCond48) DPL0 load(1, XDATA, add(CFA_XSP16, literal(-2)))
          CFI (cfiCond48) DPH0 load(1, XDATA, add(CFA_XSP16, literal(-1)))
          CFI (cfiCond48) CFA_SP SP+-2
          CFI (cfiCond48) CFA_XSP16 add(XSP16, 24)
          CFI Block cfiPicker49 Using cfiCommon1
          CFI (cfiPicker49) NoFunction
          CFI (cfiPicker49) Picker
        LCALL   ?Subroutine42 & 0xFFFF
??CrossCallReturnLabel_77:
        RET
          CFI EndBlock cfiCond47
          CFI EndBlock cfiCond48
          CFI EndBlock cfiPicker49

        RSEG BANKED_CODE:HUGECODE:NOROOT(0)
?Subroutine42:
          CFI Block cfiCond50 Using cfiCommon0
          CFI Function zclHVAC_SendSetWeeklySchedule
          CFI Conditional ??CrossCallReturnLabel_77, ??CrossCallReturnLabel_22
          CFI R6 load(1, XDATA, add(CFA_XSP16, literal(-24)))
          CFI VB load(1, XDATA, add(CFA_XSP16, literal(-23)))
          CFI V0 load(1, XDATA, add(CFA_XSP16, literal(-22)))
          CFI V1 load(1, XDATA, add(CFA_XSP16, literal(-21)))
          CFI V2 load(1, XDATA, add(CFA_XSP16, literal(-20)))
          CFI V3 load(1, XDATA, add(CFA_XSP16, literal(-19)))
          CFI V4 load(1, XDATA, add(CFA_XSP16, literal(-18)))
          CFI V5 load(1, XDATA, add(CFA_XSP16, literal(-17)))
          CFI V6 load(1, XDATA, add(CFA_XSP16, literal(-16)))
          CFI V7 load(1, XDATA, add(CFA_XSP16, literal(-15)))
          CFI V8 load(1, XDATA, add(CFA_XSP16, literal(-14)))
          CFI V9 load(1, XDATA, add(CFA_XSP16, literal(-13)))
          CFI V10 load(1, XDATA, add(CFA_XSP16, literal(-12)))
          CFI V11 load(1, XDATA, add(CFA_XSP16, literal(-11)))
          CFI V12 load(1, XDATA, add(CFA_XSP16, literal(-10)))
          CFI V13 load(1, XDATA, add(CFA_XSP16, literal(-9)))
          CFI V14 load(1, XDATA, add(CFA_XSP16, literal(-8)))
          CFI V15 load(1, XDATA, add(CFA_XSP16, literal(-7)))
          CFI R7 load(1, XDATA, add(CFA_XSP16, literal(-6)))
          CFI ?RET_LOW load(1, XDATA, add(CFA_XSP16, literal(-5)))
          CFI ?RET_HIGH load(1, XDATA, add(CFA_XSP16, literal(-4)))
          CFI ?BRET_EXT load(1, XDATA, add(CFA_XSP16, literal(-3)))
          CFI DPL0 load(1, XDATA, add(CFA_XSP16, literal(-2)))
          CFI DPH0 load(1, XDATA, add(CFA_XSP16, literal(-1)))
          CFI CFA_SP SP+-4
          CFI CFA_XSP16 add(XSP16, 24)
          CFI Block cfiCond51 Using cfiCommon0
          CFI (cfiCond51) Function zclHVAC_SendGetWeeklyScheduleRsp
          CFI (cfiCond51) Conditional ??CrossCallReturnLabel_77, ??CrossCallReturnLabel_23
          CFI (cfiCond51) R6 load(1, XDATA, add(CFA_XSP16, literal(-24)))
          CFI (cfiCond51) VB load(1, XDATA, add(CFA_XSP16, literal(-23)))
          CFI (cfiCond51) V0 load(1, XDATA, add(CFA_XSP16, literal(-22)))
          CFI (cfiCond51) V1 load(1, XDATA, add(CFA_XSP16, literal(-21)))
          CFI (cfiCond51) V2 load(1, XDATA, add(CFA_XSP16, literal(-20)))
          CFI (cfiCond51) V3 load(1, XDATA, add(CFA_XSP16, literal(-19)))
          CFI (cfiCond51) V4 load(1, XDATA, add(CFA_XSP16, literal(-18)))
          CFI (cfiCond51) V5 load(1, XDATA, add(CFA_XSP16, literal(-17)))
          CFI (cfiCond51) V6 load(1, XDATA, add(CFA_XSP16, literal(-16)))
          CFI (cfiCond51) V7 load(1, XDATA, add(CFA_XSP16, literal(-15)))
          CFI (cfiCond51) V8 load(1, XDATA, add(CFA_XSP16, literal(-14)))
          CFI (cfiCond51) V9 load(1, XDATA, add(CFA_XSP16, literal(-13)))
          CFI (cfiCond51) V10 load(1, XDATA, add(CFA_XSP16, literal(-12)))
          CFI (cfiCond51) V11 load(1, XDATA, add(CFA_XSP16, literal(-11)))
          CFI (cfiCond51) V12 load(1, XDATA, add(CFA_XSP16, literal(-10)))
          CFI (cfiCond51) V13 load(1, XDATA, add(CFA_XSP16, literal(-9)))
          CFI (cfiCond51) V14 load(1, XDATA, add(CFA_XSP16, literal(-8)))
          CFI (cfiCond51) V15 load(1, XDATA, add(CFA_XSP16, literal(-7)))
          CFI (cfiCond51) R7 load(1, XDATA, add(CFA_XSP16, literal(-6)))
          CFI (cfiCond51) ?RET_LOW load(1, XDATA, add(CFA_XSP16, literal(-5)))
          CFI (cfiCond51) ?RET_HIGH load(1, XDATA, add(CFA_XSP16, literal(-4)))
          CFI (cfiCond51) ?BRET_EXT load(1, XDATA, add(CFA_XSP16, literal(-3)))
          CFI (cfiCond51) DPL0 load(1, XDATA, add(CFA_XSP16, literal(-2)))
          CFI (cfiCond51) DPH0 load(1, XDATA, add(CFA_XSP16, literal(-1)))
          CFI (cfiCond51) CFA_SP SP+-4
          CFI (cfiCond51) CFA_XSP16 add(XSP16, 24)
          CFI Block cfiCond52 Using cfiCommon0
          CFI (cfiCond52) Function zclHVAC_SendSetWeeklySchedule
          CFI (cfiCond52) Conditional ??CrossCallReturnLabel_78, ??CrossCallReturnLabel_20
          CFI (cfiCond52) R6 load(1, XDATA, add(CFA_XSP16, literal(-24)))
          CFI (cfiCond52) VB load(1, XDATA, add(CFA_XSP16, literal(-23)))
          CFI (cfiCond52) V0 load(1, XDATA, add(CFA_XSP16, literal(-22)))
          CFI (cfiCond52) V1 load(1, XDATA, add(CFA_XSP16, literal(-21)))
          CFI (cfiCond52) V2 load(1, XDATA, add(CFA_XSP16, literal(-20)))
          CFI (cfiCond52) V3 load(1, XDATA, add(CFA_XSP16, literal(-19)))
          CFI (cfiCond52) V4 load(1, XDATA, add(CFA_XSP16, literal(-18)))
          CFI (cfiCond52) V5 load(1, XDATA, add(CFA_XSP16, literal(-17)))
          CFI (cfiCond52) V6 load(1, XDATA, add(CFA_XSP16, literal(-16)))
          CFI (cfiCond52) V7 load(1, XDATA, add(CFA_XSP16, literal(-15)))
          CFI (cfiCond52) V8 load(1, XDATA, add(CFA_XSP16, literal(-14)))
          CFI (cfiCond52) V9 load(1, XDATA, add(CFA_XSP16, literal(-13)))
          CFI (cfiCond52) V10 load(1, XDATA, add(CFA_XSP16, literal(-12)))
          CFI (cfiCond52) V11 load(1, XDATA, add(CFA_XSP16, literal(-11)))
          CFI (cfiCond52) V12 load(1, XDATA, add(CFA_XSP16, literal(-10)))
          CFI (cfiCond52) V13 load(1, XDATA, add(CFA_XSP16, literal(-9)))
          CFI (cfiCond52) V14 load(1, XDATA, add(CFA_XSP16, literal(-8)))
          CFI (cfiCond52) V15 load(1, XDATA, add(CFA_XSP16, literal(-7)))
          CFI (cfiCond52) R7 load(1, XDATA, add(CFA_XSP16, literal(-6)))
          CFI (cfiCond52) ?RET_LOW load(1, XDATA, add(CFA_XSP16, literal(-5)))
          CFI (cfiCond52) ?RET_HIGH load(1, XDATA, add(CFA_XSP16, literal(-4)))
          CFI (cfiCond52) ?BRET_EXT load(1, XDATA, add(CFA_XSP16, literal(-3)))
          CFI (cfiCond52) DPL0 load(1, XDATA, add(CFA_XSP16, literal(-2)))
          CFI (cfiCond52) DPH0 load(1, XDATA, add(CFA_XSP16, literal(-1)))
          CFI (cfiCond52) CFA_SP SP+-4
          CFI (cfiCond52) CFA_XSP16 add(XSP16, 24)
          CFI Block cfiCond53 Using cfiCommon0
          CFI (cfiCond53) Function zclHVAC_SendGetWeeklyScheduleRsp
          CFI (cfiCond53) Conditional ??CrossCallReturnLabel_78, ??CrossCallReturnLabel_21
          CFI (cfiCond53) R6 load(1, XDATA, add(CFA_XSP16, literal(-24)))
          CFI (cfiCond53) VB load(1, XDATA, add(CFA_XSP16, literal(-23)))
          CFI (cfiCond53) V0 load(1, XDATA, add(CFA_XSP16, literal(-22)))
          CFI (cfiCond53) V1 load(1, XDATA, add(CFA_XSP16, literal(-21)))
          CFI (cfiCond53) V2 load(1, XDATA, add(CFA_XSP16, literal(-20)))
          CFI (cfiCond53) V3 load(1, XDATA, add(CFA_XSP16, literal(-19)))
          CFI (cfiCond53) V4 load(1, XDATA, add(CFA_XSP16, literal(-18)))
          CFI (cfiCond53) V5 load(1, XDATA, add(CFA_XSP16, literal(-17)))
          CFI (cfiCond53) V6 load(1, XDATA, add(CFA_XSP16, literal(-16)))
          CFI (cfiCond53) V7 load(1, XDATA, add(CFA_XSP16, literal(-15)))
          CFI (cfiCond53) V8 load(1, XDATA, add(CFA_XSP16, literal(-14)))
          CFI (cfiCond53) V9 load(1, XDATA, add(CFA_XSP16, literal(-13)))
          CFI (cfiCond53) V10 load(1, XDATA, add(CFA_XSP16, literal(-12)))
          CFI (cfiCond53) V11 load(1, XDATA, add(CFA_XSP16, literal(-11)))
          CFI (cfiCond53) V12 load(1, XDATA, add(CFA_XSP16, literal(-10)))
          CFI (cfiCond53) V13 load(1, XDATA, add(CFA_XSP16, literal(-9)))
          CFI (cfiCond53) V14 load(1, XDATA, add(CFA_XSP16, literal(-8)))
          CFI (cfiCond53) V15 load(1, XDATA, add(CFA_XSP16, literal(-7)))
          CFI (cfiCond53) R7 load(1, XDATA, add(CFA_XSP16, literal(-6)))
          CFI (cfiCond53) ?RET_LOW load(1, XDATA, add(CFA_XSP16, literal(-5)))
          CFI (cfiCond53) ?RET_HIGH load(1, XDATA, add(CFA_XSP16, literal(-4)))
          CFI (cfiCond53) ?BRET_EXT load(1, XDATA, add(CFA_XSP16, literal(-3)))
          CFI (cfiCond53) DPL0 load(1, XDATA, add(CFA_XSP16, literal(-2)))
          CFI (cfiCond53) DPH0 load(1, XDATA, add(CFA_XSP16, literal(-1)))
          CFI (cfiCond53) CFA_SP SP+-4
          CFI (cfiCond53) CFA_XSP16 add(XSP16, 24)
          CFI Block cfiPicker54 Using cfiCommon1
          CFI (cfiPicker54) NoFunction
          CFI (cfiPicker54) Picker
        MOVX    @DPTR,A
        INC     R1
        LCALL   ?Subroutine52 & 0xFFFF
??CrossCallReturnLabel_95:
        MOV     DPL,R0
        MOV     DPH,A
        RET
          CFI EndBlock cfiCond50
          CFI EndBlock cfiCond51
          CFI EndBlock cfiCond52
          CFI EndBlock cfiCond53
          CFI EndBlock cfiPicker54

        RSEG BANKED_CODE:HUGECODE:NOROOT(0)
?Subroutine18:
          CFI Block cfiCond55 Using cfiCommon0
          CFI Function zclHVAC_SendSetWeeklySchedule
          CFI Conditional ??CrossCallReturnLabel_20
          CFI R6 load(1, XDATA, add(CFA_XSP16, literal(-24)))
          CFI VB load(1, XDATA, add(CFA_XSP16, literal(-23)))
          CFI V0 load(1, XDATA, add(CFA_XSP16, literal(-22)))
          CFI V1 load(1, XDATA, add(CFA_XSP16, literal(-21)))
          CFI V2 load(1, XDATA, add(CFA_XSP16, literal(-20)))
          CFI V3 load(1, XDATA, add(CFA_XSP16, literal(-19)))
          CFI V4 load(1, XDATA, add(CFA_XSP16, literal(-18)))
          CFI V5 load(1, XDATA, add(CFA_XSP16, literal(-17)))
          CFI V6 load(1, XDATA, add(CFA_XSP16, literal(-16)))
          CFI V7 load(1, XDATA, add(CFA_XSP16, literal(-15)))
          CFI V8 load(1, XDATA, add(CFA_XSP16, literal(-14)))
          CFI V9 load(1, XDATA, add(CFA_XSP16, literal(-13)))
          CFI V10 load(1, XDATA, add(CFA_XSP16, literal(-12)))
          CFI V11 load(1, XDATA, add(CFA_XSP16, literal(-11)))
          CFI V12 load(1, XDATA, add(CFA_XSP16, literal(-10)))
          CFI V13 load(1, XDATA, add(CFA_XSP16, literal(-9)))
          CFI V14 load(1, XDATA, add(CFA_XSP16, literal(-8)))
          CFI V15 load(1, XDATA, add(CFA_XSP16, literal(-7)))
          CFI R7 load(1, XDATA, add(CFA_XSP16, literal(-6)))
          CFI ?RET_LOW load(1, XDATA, add(CFA_XSP16, literal(-5)))
          CFI ?RET_HIGH load(1, XDATA, add(CFA_XSP16, literal(-4)))
          CFI ?BRET_EXT load(1, XDATA, add(CFA_XSP16, literal(-3)))
          CFI DPL0 load(1, XDATA, add(CFA_XSP16, literal(-2)))
          CFI DPH0 load(1, XDATA, add(CFA_XSP16, literal(-1)))
          CFI CFA_SP SP+-2
          CFI CFA_XSP16 add(XSP16, 24)
          CFI Block cfiCond56 Using cfiCommon0
          CFI (cfiCond56) Function zclHVAC_SendGetWeeklyScheduleRsp
          CFI (cfiCond56) Conditional ??CrossCallReturnLabel_21
          CFI (cfiCond56) R6 load(1, XDATA, add(CFA_XSP16, literal(-24)))
          CFI (cfiCond56) VB load(1, XDATA, add(CFA_XSP16, literal(-23)))
          CFI (cfiCond56) V0 load(1, XDATA, add(CFA_XSP16, literal(-22)))
          CFI (cfiCond56) V1 load(1, XDATA, add(CFA_XSP16, literal(-21)))
          CFI (cfiCond56) V2 load(1, XDATA, add(CFA_XSP16, literal(-20)))
          CFI (cfiCond56) V3 load(1, XDATA, add(CFA_XSP16, literal(-19)))
          CFI (cfiCond56) V4 load(1, XDATA, add(CFA_XSP16, literal(-18)))
          CFI (cfiCond56) V5 load(1, XDATA, add(CFA_XSP16, literal(-17)))
          CFI (cfiCond56) V6 load(1, XDATA, add(CFA_XSP16, literal(-16)))
          CFI (cfiCond56) V7 load(1, XDATA, add(CFA_XSP16, literal(-15)))
          CFI (cfiCond56) V8 load(1, XDATA, add(CFA_XSP16, literal(-14)))
          CFI (cfiCond56) V9 load(1, XDATA, add(CFA_XSP16, literal(-13)))
          CFI (cfiCond56) V10 load(1, XDATA, add(CFA_XSP16, literal(-12)))
          CFI (cfiCond56) V11 load(1, XDATA, add(CFA_XSP16, literal(-11)))
          CFI (cfiCond56) V12 load(1, XDATA, add(CFA_XSP16, literal(-10)))
          CFI (cfiCond56) V13 load(1, XDATA, add(CFA_XSP16, literal(-9)))
          CFI (cfiCond56) V14 load(1, XDATA, add(CFA_XSP16, literal(-8)))
          CFI (cfiCond56) V15 load(1, XDATA, add(CFA_XSP16, literal(-7)))
          CFI (cfiCond56) R7 load(1, XDATA, add(CFA_XSP16, literal(-6)))
          CFI (cfiCond56) ?RET_LOW load(1, XDATA, add(CFA_XSP16, literal(-5)))
          CFI (cfiCond56) ?RET_HIGH load(1, XDATA, add(CFA_XSP16, literal(-4)))
          CFI (cfiCond56) ?BRET_EXT load(1, XDATA, add(CFA_XSP16, literal(-3)))
          CFI (cfiCond56) DPL0 load(1, XDATA, add(CFA_XSP16, literal(-2)))
          CFI (cfiCond56) DPH0 load(1, XDATA, add(CFA_XSP16, literal(-1)))
          CFI (cfiCond56) CFA_SP SP+-2
          CFI (cfiCond56) CFA_XSP16 add(XSP16, 24)
          CFI Block cfiPicker57 Using cfiCommon1
          CFI (cfiPicker57) NoFunction
          CFI (cfiPicker57) Picker
        LCALL   ?Subroutine42 & 0xFFFF
??CrossCallReturnLabel_78:
        INC     DPTR
        INC     DPTR
        MOVX    A,@DPTR
        RET
          CFI EndBlock cfiCond55
          CFI EndBlock cfiCond56
          CFI EndBlock cfiPicker57

        RSEG BANKED_CODE:HUGECODE:NOROOT(0)
?Subroutine8:
          CFI Block cfiCond58 Using cfiCommon0
          CFI Function zclHVAC_SendSetWeeklySchedule
          CFI Conditional ??CrossCallReturnLabel_6
          CFI R6 load(1, XDATA, add(CFA_XSP16, literal(-24)))
          CFI VB load(1, XDATA, add(CFA_XSP16, literal(-23)))
          CFI V0 load(1, XDATA, add(CFA_XSP16, literal(-22)))
          CFI V1 load(1, XDATA, add(CFA_XSP16, literal(-21)))
          CFI V2 load(1, XDATA, add(CFA_XSP16, literal(-20)))
          CFI V3 load(1, XDATA, add(CFA_XSP16, literal(-19)))
          CFI V4 load(1, XDATA, add(CFA_XSP16, literal(-18)))
          CFI V5 load(1, XDATA, add(CFA_XSP16, literal(-17)))
          CFI V6 load(1, XDATA, add(CFA_XSP16, literal(-16)))
          CFI V7 load(1, XDATA, add(CFA_XSP16, literal(-15)))
          CFI V8 load(1, XDATA, add(CFA_XSP16, literal(-14)))
          CFI V9 load(1, XDATA, add(CFA_XSP16, literal(-13)))
          CFI V10 load(1, XDATA, add(CFA_XSP16, literal(-12)))
          CFI V11 load(1, XDATA, add(CFA_XSP16, literal(-11)))
          CFI V12 load(1, XDATA, add(CFA_XSP16, literal(-10)))
          CFI V13 load(1, XDATA, add(CFA_XSP16, literal(-9)))
          CFI V14 load(1, XDATA, add(CFA_XSP16, literal(-8)))
          CFI V15 load(1, XDATA, add(CFA_XSP16, literal(-7)))
          CFI R7 load(1, XDATA, add(CFA_XSP16, literal(-6)))
          CFI ?RET_LOW load(1, XDATA, add(CFA_XSP16, literal(-5)))
          CFI ?RET_HIGH load(1, XDATA, add(CFA_XSP16, literal(-4)))
          CFI ?BRET_EXT load(1, XDATA, add(CFA_XSP16, literal(-3)))
          CFI DPL0 load(1, XDATA, add(CFA_XSP16, literal(-2)))
          CFI DPH0 load(1, XDATA, add(CFA_XSP16, literal(-1)))
          CFI CFA_SP SP+-2
          CFI CFA_XSP16 add(XSP16, 24)
          CFI Block cfiCond59 Using cfiCommon0
          CFI (cfiCond59) Function zclHVAC_SendGetWeeklyScheduleRsp
          CFI (cfiCond59) Conditional ??CrossCallReturnLabel_7
          CFI (cfiCond59) R6 load(1, XDATA, add(CFA_XSP16, literal(-24)))
          CFI (cfiCond59) VB load(1, XDATA, add(CFA_XSP16, literal(-23)))
          CFI (cfiCond59) V0 load(1, XDATA, add(CFA_XSP16, literal(-22)))
          CFI (cfiCond59) V1 load(1, XDATA, add(CFA_XSP16, literal(-21)))
          CFI (cfiCond59) V2 load(1, XDATA, add(CFA_XSP16, literal(-20)))
          CFI (cfiCond59) V3 load(1, XDATA, add(CFA_XSP16, literal(-19)))
          CFI (cfiCond59) V4 load(1, XDATA, add(CFA_XSP16, literal(-18)))
          CFI (cfiCond59) V5 load(1, XDATA, add(CFA_XSP16, literal(-17)))
          CFI (cfiCond59) V6 load(1, XDATA, add(CFA_XSP16, literal(-16)))
          CFI (cfiCond59) V7 load(1, XDATA, add(CFA_XSP16, literal(-15)))
          CFI (cfiCond59) V8 load(1, XDATA, add(CFA_XSP16, literal(-14)))
          CFI (cfiCond59) V9 load(1, XDATA, add(CFA_XSP16, literal(-13)))
          CFI (cfiCond59) V10 load(1, XDATA, add(CFA_XSP16, literal(-12)))
          CFI (cfiCond59) V11 load(1, XDATA, add(CFA_XSP16, literal(-11)))
          CFI (cfiCond59) V12 load(1, XDATA, add(CFA_XSP16, literal(-10)))
          CFI (cfiCond59) V13 load(1, XDATA, add(CFA_XSP16, literal(-9)))
          CFI (cfiCond59) V14 load(1, XDATA, add(CFA_XSP16, literal(-8)))
          CFI (cfiCond59) V15 load(1, XDATA, add(CFA_XSP16, literal(-7)))
          CFI (cfiCond59) R7 load(1, XDATA, add(CFA_XSP16, literal(-6)))
          CFI (cfiCond59) ?RET_LOW load(1, XDATA, add(CFA_XSP16, literal(-5)))
          CFI (cfiCond59) ?RET_HIGH load(1, XDATA, add(CFA_XSP16, literal(-4)))
          CFI (cfiCond59) ?BRET_EXT load(1, XDATA, add(CFA_XSP16, literal(-3)))
          CFI (cfiCond59) DPL0 load(1, XDATA, add(CFA_XSP16, literal(-2)))
          CFI (cfiCond59) DPH0 load(1, XDATA, add(CFA_XSP16, literal(-1)))
          CFI (cfiCond59) CFA_SP SP+-2
          CFI (cfiCond59) CFA_XSP16 add(XSP16, 24)
          CFI Block cfiPicker60 Using cfiCommon1
          CFI (cfiPicker60) NoFunction
          CFI (cfiPicker60) Picker
        LCALL   ?Subroutine52 & 0xFFFF
??CrossCallReturnLabel_94:
        LCALL   ?Subroutine41 & 0xFFFF
??CrossCallReturnLabel_75:
        ADD     A,?V14
        MOV     R0,A
        INC     DPTR
        MOVX    A,@DPTR
        ADDC    A,?V15
        MOV     DPL,R0
        MOV     DPH,A
        INC     DPTR
        MOVX    A,@DPTR
        RET
          CFI EndBlock cfiCond58
          CFI EndBlock cfiCond59
          CFI EndBlock cfiPicker60

        RSEG BANKED_CODE:HUGECODE:NOROOT(0)
?Subroutine52:
          CFI Block cfiCond61 Using cfiCommon0
          CFI Function zclHVAC_SendSetWeeklySchedule
          CFI Conditional ??CrossCallReturnLabel_95, ??CrossCallReturnLabel_77, ??CrossCallReturnLabel_22
          CFI R6 load(1, XDATA, add(CFA_XSP16, literal(-24)))
          CFI VB load(1, XDATA, add(CFA_XSP16, literal(-23)))
          CFI V0 load(1, XDATA, add(CFA_XSP16, literal(-22)))
          CFI V1 load(1, XDATA, add(CFA_XSP16, literal(-21)))
          CFI V2 load(1, XDATA, add(CFA_XSP16, literal(-20)))
          CFI V3 load(1, XDATA, add(CFA_XSP16, literal(-19)))
          CFI V4 load(1, XDATA, add(CFA_XSP16, literal(-18)))
          CFI V5 load(1, XDATA, add(CFA_XSP16, literal(-17)))
          CFI V6 load(1, XDATA, add(CFA_XSP16, literal(-16)))
          CFI V7 load(1, XDATA, add(CFA_XSP16, literal(-15)))
          CFI V8 load(1, XDATA, add(CFA_XSP16, literal(-14)))
          CFI V9 load(1, XDATA, add(CFA_XSP16, literal(-13)))
          CFI V10 load(1, XDATA, add(CFA_XSP16, literal(-12)))
          CFI V11 load(1, XDATA, add(CFA_XSP16, literal(-11)))
          CFI V12 load(1, XDATA, add(CFA_XSP16, literal(-10)))
          CFI V13 load(1, XDATA, add(CFA_XSP16, literal(-9)))
          CFI V14 load(1, XDATA, add(CFA_XSP16, literal(-8)))
          CFI V15 load(1, XDATA, add(CFA_XSP16, literal(-7)))
          CFI R7 load(1, XDATA, add(CFA_XSP16, literal(-6)))
          CFI ?RET_LOW load(1, XDATA, add(CFA_XSP16, literal(-5)))
          CFI ?RET_HIGH load(1, XDATA, add(CFA_XSP16, literal(-4)))
          CFI ?BRET_EXT load(1, XDATA, add(CFA_XSP16, literal(-3)))
          CFI DPL0 load(1, XDATA, add(CFA_XSP16, literal(-2)))
          CFI DPH0 load(1, XDATA, add(CFA_XSP16, literal(-1)))
          CFI CFA_SP SP+-6
          CFI CFA_XSP16 add(XSP16, 24)
          CFI Block cfiCond62 Using cfiCommon0
          CFI (cfiCond62) Function zclHVAC_SendGetWeeklyScheduleRsp
          CFI (cfiCond62) Conditional ??CrossCallReturnLabel_95, ??CrossCallReturnLabel_77, ??CrossCallReturnLabel_23
          CFI (cfiCond62) R6 load(1, XDATA, add(CFA_XSP16, literal(-24)))
          CFI (cfiCond62) VB load(1, XDATA, add(CFA_XSP16, literal(-23)))
          CFI (cfiCond62) V0 load(1, XDATA, add(CFA_XSP16, literal(-22)))
          CFI (cfiCond62) V1 load(1, XDATA, add(CFA_XSP16, literal(-21)))
          CFI (cfiCond62) V2 load(1, XDATA, add(CFA_XSP16, literal(-20)))
          CFI (cfiCond62) V3 load(1, XDATA, add(CFA_XSP16, literal(-19)))
          CFI (cfiCond62) V4 load(1, XDATA, add(CFA_XSP16, literal(-18)))
          CFI (cfiCond62) V5 load(1, XDATA, add(CFA_XSP16, literal(-17)))
          CFI (cfiCond62) V6 load(1, XDATA, add(CFA_XSP16, literal(-16)))
          CFI (cfiCond62) V7 load(1, XDATA, add(CFA_XSP16, literal(-15)))
          CFI (cfiCond62) V8 load(1, XDATA, add(CFA_XSP16, literal(-14)))
          CFI (cfiCond62) V9 load(1, XDATA, add(CFA_XSP16, literal(-13)))
          CFI (cfiCond62) V10 load(1, XDATA, add(CFA_XSP16, literal(-12)))
          CFI (cfiCond62) V11 load(1, XDATA, add(CFA_XSP16, literal(-11)))
          CFI (cfiCond62) V12 load(1, XDATA, add(CFA_XSP16, literal(-10)))
          CFI (cfiCond62) V13 load(1, XDATA, add(CFA_XSP16, literal(-9)))
          CFI (cfiCond62) V14 load(1, XDATA, add(CFA_XSP16, literal(-8)))
          CFI (cfiCond62) V15 load(1, XDATA, add(CFA_XSP16, literal(-7)))
          CFI (cfiCond62) R7 load(1, XDATA, add(CFA_XSP16, literal(-6)))
          CFI (cfiCond62) ?RET_LOW load(1, XDATA, add(CFA_XSP16, literal(-5)))
          CFI (cfiCond62) ?RET_HIGH load(1, XDATA, add(CFA_XSP16, literal(-4)))
          CFI (cfiCond62) ?BRET_EXT load(1, XDATA, add(CFA_XSP16, literal(-3)))
          CFI (cfiCond62) DPL0 load(1, XDATA, add(CFA_XSP16, literal(-2)))
          CFI (cfiCond62) DPH0 load(1, XDATA, add(CFA_XSP16, literal(-1)))
          CFI (cfiCond62) CFA_SP SP+-6
          CFI (cfiCond62) CFA_XSP16 add(XSP16, 24)
          CFI Block cfiCond63 Using cfiCommon0
          CFI (cfiCond63) Function zclHVAC_SendSetWeeklySchedule
          CFI (cfiCond63) Conditional ??CrossCallReturnLabel_95, ??CrossCallReturnLabel_78, ??CrossCallReturnLabel_20
          CFI (cfiCond63) R6 load(1, XDATA, add(CFA_XSP16, literal(-24)))
          CFI (cfiCond63) VB load(1, XDATA, add(CFA_XSP16, literal(-23)))
          CFI (cfiCond63) V0 load(1, XDATA, add(CFA_XSP16, literal(-22)))
          CFI (cfiCond63) V1 load(1, XDATA, add(CFA_XSP16, literal(-21)))
          CFI (cfiCond63) V2 load(1, XDATA, add(CFA_XSP16, literal(-20)))
          CFI (cfiCond63) V3 load(1, XDATA, add(CFA_XSP16, literal(-19)))
          CFI (cfiCond63) V4 load(1, XDATA, add(CFA_XSP16, literal(-18)))
          CFI (cfiCond63) V5 load(1, XDATA, add(CFA_XSP16, literal(-17)))
          CFI (cfiCond63) V6 load(1, XDATA, add(CFA_XSP16, literal(-16)))
          CFI (cfiCond63) V7 load(1, XDATA, add(CFA_XSP16, literal(-15)))
          CFI (cfiCond63) V8 load(1, XDATA, add(CFA_XSP16, literal(-14)))
          CFI (cfiCond63) V9 load(1, XDATA, add(CFA_XSP16, literal(-13)))
          CFI (cfiCond63) V10 load(1, XDATA, add(CFA_XSP16, literal(-12)))
          CFI (cfiCond63) V11 load(1, XDATA, add(CFA_XSP16, literal(-11)))
          CFI (cfiCond63) V12 load(1, XDATA, add(CFA_XSP16, literal(-10)))
          CFI (cfiCond63) V13 load(1, XDATA, add(CFA_XSP16, literal(-9)))
          CFI (cfiCond63) V14 load(1, XDATA, add(CFA_XSP16, literal(-8)))
          CFI (cfiCond63) V15 load(1, XDATA, add(CFA_XSP16, literal(-7)))
          CFI (cfiCond63) R7 load(1, XDATA, add(CFA_XSP16, literal(-6)))
          CFI (cfiCond63) ?RET_LOW load(1, XDATA, add(CFA_XSP16, literal(-5)))
          CFI (cfiCond63) ?RET_HIGH load(1, XDATA, add(CFA_XSP16, literal(-4)))
          CFI (cfiCond63) ?BRET_EXT load(1, XDATA, add(CFA_XSP16, literal(-3)))
          CFI (cfiCond63) DPL0 load(1, XDATA, add(CFA_XSP16, literal(-2)))
          CFI (cfiCond63) DPH0 load(1, XDATA, add(CFA_XSP16, literal(-1)))
          CFI (cfiCond63) CFA_SP SP+-6
          CFI (cfiCond63) CFA_XSP16 add(XSP16, 24)
          CFI Block cfiCond64 Using cfiCommon0
          CFI (cfiCond64) Function zclHVAC_SendGetWeeklyScheduleRsp
          CFI (cfiCond64) Conditional ??CrossCallReturnLabel_95, ??CrossCallReturnLabel_78, ??CrossCallReturnLabel_21
          CFI (cfiCond64) R6 load(1, XDATA, add(CFA_XSP16, literal(-24)))
          CFI (cfiCond64) VB load(1, XDATA, add(CFA_XSP16, literal(-23)))
          CFI (cfiCond64) V0 load(1, XDATA, add(CFA_XSP16, literal(-22)))
          CFI (cfiCond64) V1 load(1, XDATA, add(CFA_XSP16, literal(-21)))
          CFI (cfiCond64) V2 load(1, XDATA, add(CFA_XSP16, literal(-20)))
          CFI (cfiCond64) V3 load(1, XDATA, add(CFA_XSP16, literal(-19)))
          CFI (cfiCond64) V4 load(1, XDATA, add(CFA_XSP16, literal(-18)))
          CFI (cfiCond64) V5 load(1, XDATA, add(CFA_XSP16, literal(-17)))
          CFI (cfiCond64) V6 load(1, XDATA, add(CFA_XSP16, literal(-16)))
          CFI (cfiCond64) V7 load(1, XDATA, add(CFA_XSP16, literal(-15)))
          CFI (cfiCond64) V8 load(1, XDATA, add(CFA_XSP16, literal(-14)))
          CFI (cfiCond64) V9 load(1, XDATA, add(CFA_XSP16, literal(-13)))
          CFI (cfiCond64) V10 load(1, XDATA, add(CFA_XSP16, literal(-12)))
          CFI (cfiCond64) V11 load(1, XDATA, add(CFA_XSP16, literal(-11)))
          CFI (cfiCond64) V12 load(1, XDATA, add(CFA_XSP16, literal(-10)))
          CFI (cfiCond64) V13 load(1, XDATA, add(CFA_XSP16, literal(-9)))
          CFI (cfiCond64) V14 load(1, XDATA, add(CFA_XSP16, literal(-8)))
          CFI (cfiCond64) V15 load(1, XDATA, add(CFA_XSP16, literal(-7)))
          CFI (cfiCond64) R7 load(1, XDATA, add(CFA_XSP16, literal(-6)))
          CFI (cfiCond64) ?RET_LOW load(1, XDATA, add(CFA_XSP16, literal(-5)))
          CFI (cfiCond64) ?RET_HIGH load(1, XDATA, add(CFA_XSP16, literal(-4)))
          CFI (cfiCond64) ?BRET_EXT load(1, XDATA, add(CFA_XSP16, literal(-3)))
          CFI (cfiCond64) DPL0 load(1, XDATA, add(CFA_XSP16, literal(-2)))
          CFI (cfiCond64) DPH0 load(1, XDATA, add(CFA_XSP16, literal(-1)))
          CFI (cfiCond64) CFA_SP SP+-6
          CFI (cfiCond64) CFA_XSP16 add(XSP16, 24)
          CFI Block cfiCond65 Using cfiCommon0
          CFI (cfiCond65) Function zclHVAC_SendSetWeeklySchedule
          CFI (cfiCond65) Conditional ??CrossCallReturnLabel_94, ??CrossCallReturnLabel_6
          CFI (cfiCond65) R6 load(1, XDATA, add(CFA_XSP16, literal(-24)))
          CFI (cfiCond65) VB load(1, XDATA, add(CFA_XSP16, literal(-23)))
          CFI (cfiCond65) V0 load(1, XDATA, add(CFA_XSP16, literal(-22)))
          CFI (cfiCond65) V1 load(1, XDATA, add(CFA_XSP16, literal(-21)))
          CFI (cfiCond65) V2 load(1, XDATA, add(CFA_XSP16, literal(-20)))
          CFI (cfiCond65) V3 load(1, XDATA, add(CFA_XSP16, literal(-19)))
          CFI (cfiCond65) V4 load(1, XDATA, add(CFA_XSP16, literal(-18)))
          CFI (cfiCond65) V5 load(1, XDATA, add(CFA_XSP16, literal(-17)))
          CFI (cfiCond65) V6 load(1, XDATA, add(CFA_XSP16, literal(-16)))
          CFI (cfiCond65) V7 load(1, XDATA, add(CFA_XSP16, literal(-15)))
          CFI (cfiCond65) V8 load(1, XDATA, add(CFA_XSP16, literal(-14)))
          CFI (cfiCond65) V9 load(1, XDATA, add(CFA_XSP16, literal(-13)))
          CFI (cfiCond65) V10 load(1, XDATA, add(CFA_XSP16, literal(-12)))
          CFI (cfiCond65) V11 load(1, XDATA, add(CFA_XSP16, literal(-11)))
          CFI (cfiCond65) V12 load(1, XDATA, add(CFA_XSP16, literal(-10)))
          CFI (cfiCond65) V13 load(1, XDATA, add(CFA_XSP16, literal(-9)))
          CFI (cfiCond65) V14 load(1, XDATA, add(CFA_XSP16, literal(-8)))
          CFI (cfiCond65) V15 load(1, XDATA, add(CFA_XSP16, literal(-7)))
          CFI (cfiCond65) R7 load(1, XDATA, add(CFA_XSP16, literal(-6)))
          CFI (cfiCond65) ?RET_LOW load(1, XDATA, add(CFA_XSP16, literal(-5)))
          CFI (cfiCond65) ?RET_HIGH load(1, XDATA, add(CFA_XSP16, literal(-4)))
          CFI (cfiCond65) ?BRET_EXT load(1, XDATA, add(CFA_XSP16, literal(-3)))
          CFI (cfiCond65) DPL0 load(1, XDATA, add(CFA_XSP16, literal(-2)))
          CFI (cfiCond65) DPH0 load(1, XDATA, add(CFA_XSP16, literal(-1)))
          CFI (cfiCond65) CFA_SP SP+-4
          CFI (cfiCond65) CFA_XSP16 add(XSP16, 24)
          CFI Block cfiCond66 Using cfiCommon0
          CFI (cfiCond66) Function zclHVAC_SendGetWeeklyScheduleRsp
          CFI (cfiCond66) Conditional ??CrossCallReturnLabel_94, ??CrossCallReturnLabel_7
          CFI (cfiCond66) R6 load(1, XDATA, add(CFA_XSP16, literal(-24)))
          CFI (cfiCond66) VB load(1, XDATA, add(CFA_XSP16, literal(-23)))
          CFI (cfiCond66) V0 load(1, XDATA, add(CFA_XSP16, literal(-22)))
          CFI (cfiCond66) V1 load(1, XDATA, add(CFA_XSP16, literal(-21)))
          CFI (cfiCond66) V2 load(1, XDATA, add(CFA_XSP16, literal(-20)))
          CFI (cfiCond66) V3 load(1, XDATA, add(CFA_XSP16, literal(-19)))
          CFI (cfiCond66) V4 load(1, XDATA, add(CFA_XSP16, literal(-18)))
          CFI (cfiCond66) V5 load(1, XDATA, add(CFA_XSP16, literal(-17)))
          CFI (cfiCond66) V6 load(1, XDATA, add(CFA_XSP16, literal(-16)))
          CFI (cfiCond66) V7 load(1, XDATA, add(CFA_XSP16, literal(-15)))
          CFI (cfiCond66) V8 load(1, XDATA, add(CFA_XSP16, literal(-14)))
          CFI (cfiCond66) V9 load(1, XDATA, add(CFA_XSP16, literal(-13)))
          CFI (cfiCond66) V10 load(1, XDATA, add(CFA_XSP16, literal(-12)))
          CFI (cfiCond66) V11 load(1, XDATA, add(CFA_XSP16, literal(-11)))
          CFI (cfiCond66) V12 load(1, XDATA, add(CFA_XSP16, literal(-10)))
          CFI (cfiCond66) V13 load(1, XDATA, add(CFA_XSP16, literal(-9)))
          CFI (cfiCond66) V14 load(1, XDATA, add(CFA_XSP16, literal(-8)))
          CFI (cfiCond66) V15 load(1, XDATA, add(CFA_XSP16, literal(-7)))
          CFI (cfiCond66) R7 load(1, XDATA, add(CFA_XSP16, literal(-6)))
          CFI (cfiCond66) ?RET_LOW load(1, XDATA, add(CFA_XSP16, literal(-5)))
          CFI (cfiCond66) ?RET_HIGH load(1, XDATA, add(CFA_XSP16, literal(-4)))
          CFI (cfiCond66) ?BRET_EXT load(1, XDATA, add(CFA_XSP16, literal(-3)))
          CFI (cfiCond66) DPL0 load(1, XDATA, add(CFA_XSP16, literal(-2)))
          CFI (cfiCond66) DPH0 load(1, XDATA, add(CFA_XSP16, literal(-1)))
          CFI (cfiCond66) CFA_SP SP+-4
          CFI (cfiCond66) CFA_XSP16 add(XSP16, 24)
          CFI Block cfiPicker67 Using cfiCommon1
          CFI (cfiPicker67) NoFunction
          CFI (cfiPicker67) Picker
        MOV     DPL,?V10
        MOV     DPH,?V11
        MOVX    A,@DPTR
        ADD     A,?V14
        MOV     R0,A
        INC     DPTR
        MOVX    A,@DPTR
        ADDC    A,?V15
        RET
          CFI EndBlock cfiCond61
          CFI EndBlock cfiCond62
          CFI EndBlock cfiCond63
          CFI EndBlock cfiCond64
          CFI EndBlock cfiCond65
          CFI EndBlock cfiCond66
          CFI EndBlock cfiPicker67

        RSEG BANKED_CODE:HUGECODE:NOROOT(0)
?Subroutine6:
          CFI Block cfiCond68 Using cfiCommon0
          CFI Function zclHVAC_SendSetWeeklySchedule
          CFI Conditional ??CrossCallReturnLabel_2
          CFI R6 load(1, XDATA, add(CFA_XSP16, literal(-24)))
          CFI VB load(1, XDATA, add(CFA_XSP16, literal(-23)))
          CFI V0 load(1, XDATA, add(CFA_XSP16, literal(-22)))
          CFI V1 load(1, XDATA, add(CFA_XSP16, literal(-21)))
          CFI V2 load(1, XDATA, add(CFA_XSP16, literal(-20)))
          CFI V3 load(1, XDATA, add(CFA_XSP16, literal(-19)))
          CFI V4 load(1, XDATA, add(CFA_XSP16, literal(-18)))
          CFI V5 load(1, XDATA, add(CFA_XSP16, literal(-17)))
          CFI V6 load(1, XDATA, add(CFA_XSP16, literal(-16)))
          CFI V7 load(1, XDATA, add(CFA_XSP16, literal(-15)))
          CFI V8 load(1, XDATA, add(CFA_XSP16, literal(-14)))
          CFI V9 load(1, XDATA, add(CFA_XSP16, literal(-13)))
          CFI V10 load(1, XDATA, add(CFA_XSP16, literal(-12)))
          CFI V11 load(1, XDATA, add(CFA_XSP16, literal(-11)))
          CFI V12 load(1, XDATA, add(CFA_XSP16, literal(-10)))
          CFI V13 load(1, XDATA, add(CFA_XSP16, literal(-9)))
          CFI V14 load(1, XDATA, add(CFA_XSP16, literal(-8)))
          CFI V15 load(1, XDATA, add(CFA_XSP16, literal(-7)))
          CFI R7 load(1, XDATA, add(CFA_XSP16, literal(-6)))
          CFI ?RET_LOW load(1, XDATA, add(CFA_XSP16, literal(-5)))
          CFI ?RET_HIGH load(1, XDATA, add(CFA_XSP16, literal(-4)))
          CFI ?BRET_EXT load(1, XDATA, add(CFA_XSP16, literal(-3)))
          CFI DPL0 load(1, XDATA, add(CFA_XSP16, literal(-2)))
          CFI DPH0 load(1, XDATA, add(CFA_XSP16, literal(-1)))
          CFI CFA_SP SP+-2
          CFI CFA_XSP16 add(XSP16, 24)
          CFI Block cfiCond69 Using cfiCommon0
          CFI (cfiCond69) Function zclHVAC_SendGetWeeklyScheduleRsp
          CFI (cfiCond69) Conditional ??CrossCallReturnLabel_3
          CFI (cfiCond69) R6 load(1, XDATA, add(CFA_XSP16, literal(-24)))
          CFI (cfiCond69) VB load(1, XDATA, add(CFA_XSP16, literal(-23)))
          CFI (cfiCond69) V0 load(1, XDATA, add(CFA_XSP16, literal(-22)))
          CFI (cfiCond69) V1 load(1, XDATA, add(CFA_XSP16, literal(-21)))
          CFI (cfiCond69) V2 load(1, XDATA, add(CFA_XSP16, literal(-20)))
          CFI (cfiCond69) V3 load(1, XDATA, add(CFA_XSP16, literal(-19)))
          CFI (cfiCond69) V4 load(1, XDATA, add(CFA_XSP16, literal(-18)))
          CFI (cfiCond69) V5 load(1, XDATA, add(CFA_XSP16, literal(-17)))
          CFI (cfiCond69) V6 load(1, XDATA, add(CFA_XSP16, literal(-16)))
          CFI (cfiCond69) V7 load(1, XDATA, add(CFA_XSP16, literal(-15)))
          CFI (cfiCond69) V8 load(1, XDATA, add(CFA_XSP16, literal(-14)))
          CFI (cfiCond69) V9 load(1, XDATA, add(CFA_XSP16, literal(-13)))
          CFI (cfiCond69) V10 load(1, XDATA, add(CFA_XSP16, literal(-12)))
          CFI (cfiCond69) V11 load(1, XDATA, add(CFA_XSP16, literal(-11)))
          CFI (cfiCond69) V12 load(1, XDATA, add(CFA_XSP16, literal(-10)))
          CFI (cfiCond69) V13 load(1, XDATA, add(CFA_XSP16, literal(-9)))
          CFI (cfiCond69) V14 load(1, XDATA, add(CFA_XSP16, literal(-8)))
          CFI (cfiCond69) V15 load(1, XDATA, add(CFA_XSP16, literal(-7)))
          CFI (cfiCond69) R7 load(1, XDATA, add(CFA_XSP16, literal(-6)))
          CFI (cfiCond69) ?RET_LOW load(1, XDATA, add(CFA_XSP16, literal(-5)))
          CFI (cfiCond69) ?RET_HIGH load(1, XDATA, add(CFA_XSP16, literal(-4)))
          CFI (cfiCond69) ?BRET_EXT load(1, XDATA, add(CFA_XSP16, literal(-3)))
          CFI (cfiCond69) DPL0 load(1, XDATA, add(CFA_XSP16, literal(-2)))
          CFI (cfiCond69) DPH0 load(1, XDATA, add(CFA_XSP16, literal(-1)))
          CFI (cfiCond69) CFA_SP SP+-2
          CFI (cfiCond69) CFA_XSP16 add(XSP16, 24)
          CFI Block cfiPicker70 Using cfiCommon1
          CFI (cfiPicker70) NoFunction
          CFI (cfiPicker70) Picker
        MOV     DPL,?V2
        MOV     DPH,?V3
        MOVX    A,@DPTR
        MOV     DPL,R2
        MOV     DPH,R3
        MOVX    @DPTR,A
        MOV     DPL,?V2
        MOV     DPH,?V3
        INC     DPTR
        MOVX    A,@DPTR
        MOV     DPL,R2
        MOV     DPH,R3
        INC     DPTR
        MOVX    @DPTR,A
        MOV     DPL,?V4
        MOV     DPH,?V5
        MOVX    A,@DPTR
        MOV     DPL,R2
        MOV     DPH,R3
        INC     DPTR
        INC     DPTR
        MOVX    @DPTR,A
        MOV     R1,#0x3
        MOV     R2,#0x0
        MOV     A,?V2
        ADD     A,R1
        MOV     ?V10,A
        CLR     A
        ADDC    A,?V3
        MOV     ?V11,A
        RET
          CFI EndBlock cfiCond68
          CFI EndBlock cfiCond69
          CFI EndBlock cfiPicker70

        RSEG BANKED_CODE:HUGECODE:NOROOT(0)
?Subroutine5:
          CFI Block cfiCond71 Using cfiCommon0
          CFI Function zclHVAC_SendSetWeeklySchedule
          CFI Conditional ??CrossCallReturnLabel_0
          CFI R6 load(1, XDATA, add(CFA_XSP16, literal(-24)))
          CFI VB load(1, XDATA, add(CFA_XSP16, literal(-23)))
          CFI V0 load(1, XDATA, add(CFA_XSP16, literal(-22)))
          CFI V1 load(1, XDATA, add(CFA_XSP16, literal(-21)))
          CFI V2 load(1, XDATA, add(CFA_XSP16, literal(-20)))
          CFI V3 load(1, XDATA, add(CFA_XSP16, literal(-19)))
          CFI V4 load(1, XDATA, add(CFA_XSP16, literal(-18)))
          CFI V5 load(1, XDATA, add(CFA_XSP16, literal(-17)))
          CFI V6 load(1, XDATA, add(CFA_XSP16, literal(-16)))
          CFI V7 load(1, XDATA, add(CFA_XSP16, literal(-15)))
          CFI V8 load(1, XDATA, add(CFA_XSP16, literal(-14)))
          CFI V9 load(1, XDATA, add(CFA_XSP16, literal(-13)))
          CFI V10 load(1, XDATA, add(CFA_XSP16, literal(-12)))
          CFI V11 load(1, XDATA, add(CFA_XSP16, literal(-11)))
          CFI V12 load(1, XDATA, add(CFA_XSP16, literal(-10)))
          CFI V13 load(1, XDATA, add(CFA_XSP16, literal(-9)))
          CFI V14 load(1, XDATA, add(CFA_XSP16, literal(-8)))
          CFI V15 load(1, XDATA, add(CFA_XSP16, literal(-7)))
          CFI R7 load(1, XDATA, add(CFA_XSP16, literal(-6)))
          CFI ?RET_LOW load(1, XDATA, add(CFA_XSP16, literal(-5)))
          CFI ?RET_HIGH load(1, XDATA, add(CFA_XSP16, literal(-4)))
          CFI ?BRET_EXT load(1, XDATA, add(CFA_XSP16, literal(-3)))
          CFI DPL0 load(1, XDATA, add(CFA_XSP16, literal(-2)))
          CFI DPH0 load(1, XDATA, add(CFA_XSP16, literal(-1)))
          CFI CFA_SP SP+-2
          CFI CFA_XSP16 add(XSP16, 24)
          CFI Block cfiCond72 Using cfiCommon0
          CFI (cfiCond72) Function zclHVAC_SendGetWeeklyScheduleRsp
          CFI (cfiCond72) Conditional ??CrossCallReturnLabel_1
          CFI (cfiCond72) R6 load(1, XDATA, add(CFA_XSP16, literal(-24)))
          CFI (cfiCond72) VB load(1, XDATA, add(CFA_XSP16, literal(-23)))
          CFI (cfiCond72) V0 load(1, XDATA, add(CFA_XSP16, literal(-22)))
          CFI (cfiCond72) V1 load(1, XDATA, add(CFA_XSP16, literal(-21)))
          CFI (cfiCond72) V2 load(1, XDATA, add(CFA_XSP16, literal(-20)))
          CFI (cfiCond72) V3 load(1, XDATA, add(CFA_XSP16, literal(-19)))
          CFI (cfiCond72) V4 load(1, XDATA, add(CFA_XSP16, literal(-18)))
          CFI (cfiCond72) V5 load(1, XDATA, add(CFA_XSP16, literal(-17)))
          CFI (cfiCond72) V6 load(1, XDATA, add(CFA_XSP16, literal(-16)))
          CFI (cfiCond72) V7 load(1, XDATA, add(CFA_XSP16, literal(-15)))
          CFI (cfiCond72) V8 load(1, XDATA, add(CFA_XSP16, literal(-14)))
          CFI (cfiCond72) V9 load(1, XDATA, add(CFA_XSP16, literal(-13)))
          CFI (cfiCond72) V10 load(1, XDATA, add(CFA_XSP16, literal(-12)))
          CFI (cfiCond72) V11 load(1, XDATA, add(CFA_XSP16, literal(-11)))
          CFI (cfiCond72) V12 load(1, XDATA, add(CFA_XSP16, literal(-10)))
          CFI (cfiCond72) V13 load(1, XDATA, add(CFA_XSP16, literal(-9)))
          CFI (cfiCond72) V14 load(1, XDATA, add(CFA_XSP16, literal(-8)))
          CFI (cfiCond72) V15 load(1, XDATA, add(CFA_XSP16, literal(-7)))
          CFI (cfiCond72) R7 load(1, XDATA, add(CFA_XSP16, literal(-6)))
          CFI (cfiCond72) ?RET_LOW load(1, XDATA, add(CFA_XSP16, literal(-5)))
          CFI (cfiCond72) ?RET_HIGH load(1, XDATA, add(CFA_XSP16, literal(-4)))
          CFI (cfiCond72) ?BRET_EXT load(1, XDATA, add(CFA_XSP16, literal(-3)))
          CFI (cfiCond72) DPL0 load(1, XDATA, add(CFA_XSP16, literal(-2)))
          CFI (cfiCond72) DPH0 load(1, XDATA, add(CFA_XSP16, literal(-1)))
          CFI (cfiCond72) CFA_SP SP+-2
          CFI (cfiCond72) CFA_XSP16 add(XSP16, 24)
          CFI Block cfiPicker73 Using cfiCommon1
          CFI (cfiPicker73) NoFunction
          CFI (cfiPicker73) Picker
        MOV     A,R4
        MOV     B,#0x6
        MUL     AB
        MOV     R4,A
        MOV     R5,B
        MOV     DPL,?V10
        MOV     DPH,?V11
        MOVX    A,@DPTR
        ADD     A,R4
        MOV     R0,A
        INC     DPTR
        MOVX    A,@DPTR
        ADDC    A,R5
        LCALL   ?Subroutine41 & 0xFFFF
??CrossCallReturnLabel_76:
        LCALL   ?Subroutine54 & 0xFFFF
??CrossCallReturnLabel_98:
        LCALL   ?Subroutine40 & 0xFFFF
??CrossCallReturnLabel_73:
        LCALL   ?Subroutine39 & 0xFFFF
??CrossCallReturnLabel_71:
        LCALL   ?Subroutine39 & 0xFFFF
??CrossCallReturnLabel_72:
        LCALL   ?Subroutine40 & 0xFFFF
??CrossCallReturnLabel_74:
        RET
          CFI EndBlock cfiCond71
          CFI EndBlock cfiCond72
          CFI EndBlock cfiPicker73

        RSEG BANKED_CODE:HUGECODE:NOROOT(0)
?Subroutine41:
          CFI Block cfiCond74 Using cfiCommon0
          CFI Function zclHVAC_SendSetWeeklySchedule
          CFI Conditional ??CrossCallReturnLabel_75, ??CrossCallReturnLabel_6
          CFI R6 load(1, XDATA, add(CFA_XSP16, literal(-24)))
          CFI VB load(1, XDATA, add(CFA_XSP16, literal(-23)))
          CFI V0 load(1, XDATA, add(CFA_XSP16, literal(-22)))
          CFI V1 load(1, XDATA, add(CFA_XSP16, literal(-21)))
          CFI V2 load(1, XDATA, add(CFA_XSP16, literal(-20)))
          CFI V3 load(1, XDATA, add(CFA_XSP16, literal(-19)))
          CFI V4 load(1, XDATA, add(CFA_XSP16, literal(-18)))
          CFI V5 load(1, XDATA, add(CFA_XSP16, literal(-17)))
          CFI V6 load(1, XDATA, add(CFA_XSP16, literal(-16)))
          CFI V7 load(1, XDATA, add(CFA_XSP16, literal(-15)))
          CFI V8 load(1, XDATA, add(CFA_XSP16, literal(-14)))
          CFI V9 load(1, XDATA, add(CFA_XSP16, literal(-13)))
          CFI V10 load(1, XDATA, add(CFA_XSP16, literal(-12)))
          CFI V11 load(1, XDATA, add(CFA_XSP16, literal(-11)))
          CFI V12 load(1, XDATA, add(CFA_XSP16, literal(-10)))
          CFI V13 load(1, XDATA, add(CFA_XSP16, literal(-9)))
          CFI V14 load(1, XDATA, add(CFA_XSP16, literal(-8)))
          CFI V15 load(1, XDATA, add(CFA_XSP16, literal(-7)))
          CFI R7 load(1, XDATA, add(CFA_XSP16, literal(-6)))
          CFI ?RET_LOW load(1, XDATA, add(CFA_XSP16, literal(-5)))
          CFI ?RET_HIGH load(1, XDATA, add(CFA_XSP16, literal(-4)))
          CFI ?BRET_EXT load(1, XDATA, add(CFA_XSP16, literal(-3)))
          CFI DPL0 load(1, XDATA, add(CFA_XSP16, literal(-2)))
          CFI DPH0 load(1, XDATA, add(CFA_XSP16, literal(-1)))
          CFI CFA_SP SP+-4
          CFI CFA_XSP16 add(XSP16, 24)
          CFI Block cfiCond75 Using cfiCommon0
          CFI (cfiCond75) Function zclHVAC_SendGetWeeklyScheduleRsp
          CFI (cfiCond75) Conditional ??CrossCallReturnLabel_75, ??CrossCallReturnLabel_7
          CFI (cfiCond75) R6 load(1, XDATA, add(CFA_XSP16, literal(-24)))
          CFI (cfiCond75) VB load(1, XDATA, add(CFA_XSP16, literal(-23)))
          CFI (cfiCond75) V0 load(1, XDATA, add(CFA_XSP16, literal(-22)))
          CFI (cfiCond75) V1 load(1, XDATA, add(CFA_XSP16, literal(-21)))
          CFI (cfiCond75) V2 load(1, XDATA, add(CFA_XSP16, literal(-20)))
          CFI (cfiCond75) V3 load(1, XDATA, add(CFA_XSP16, literal(-19)))
          CFI (cfiCond75) V4 load(1, XDATA, add(CFA_XSP16, literal(-18)))
          CFI (cfiCond75) V5 load(1, XDATA, add(CFA_XSP16, literal(-17)))
          CFI (cfiCond75) V6 load(1, XDATA, add(CFA_XSP16, literal(-16)))
          CFI (cfiCond75) V7 load(1, XDATA, add(CFA_XSP16, literal(-15)))
          CFI (cfiCond75) V8 load(1, XDATA, add(CFA_XSP16, literal(-14)))
          CFI (cfiCond75) V9 load(1, XDATA, add(CFA_XSP16, literal(-13)))
          CFI (cfiCond75) V10 load(1, XDATA, add(CFA_XSP16, literal(-12)))
          CFI (cfiCond75) V11 load(1, XDATA, add(CFA_XSP16, literal(-11)))
          CFI (cfiCond75) V12 load(1, XDATA, add(CFA_XSP16, literal(-10)))
          CFI (cfiCond75) V13 load(1, XDATA, add(CFA_XSP16, literal(-9)))
          CFI (cfiCond75) V14 load(1, XDATA, add(CFA_XSP16, literal(-8)))
          CFI (cfiCond75) V15 load(1, XDATA, add(CFA_XSP16, literal(-7)))
          CFI (cfiCond75) R7 load(1, XDATA, add(CFA_XSP16, literal(-6)))
          CFI (cfiCond75) ?RET_LOW load(1, XDATA, add(CFA_XSP16, literal(-5)))
          CFI (cfiCond75) ?RET_HIGH load(1, XDATA, add(CFA_XSP16, literal(-4)))
          CFI (cfiCond75) ?BRET_EXT load(1, XDATA, add(CFA_XSP16, literal(-3)))
          CFI (cfiCond75) DPL0 load(1, XDATA, add(CFA_XSP16, literal(-2)))
          CFI (cfiCond75) DPH0 load(1, XDATA, add(CFA_XSP16, literal(-1)))
          CFI (cfiCond75) CFA_SP SP+-4
          CFI (cfiCond75) CFA_XSP16 add(XSP16, 24)
          CFI Block cfiCond76 Using cfiCommon0
          CFI (cfiCond76) Function zclHVAC_SendSetWeeklySchedule
          CFI (cfiCond76) Conditional ??CrossCallReturnLabel_76, ??CrossCallReturnLabel_0
          CFI (cfiCond76) R6 load(1, XDATA, add(CFA_XSP16, literal(-24)))
          CFI (cfiCond76) VB load(1, XDATA, add(CFA_XSP16, literal(-23)))
          CFI (cfiCond76) V0 load(1, XDATA, add(CFA_XSP16, literal(-22)))
          CFI (cfiCond76) V1 load(1, XDATA, add(CFA_XSP16, literal(-21)))
          CFI (cfiCond76) V2 load(1, XDATA, add(CFA_XSP16, literal(-20)))
          CFI (cfiCond76) V3 load(1, XDATA, add(CFA_XSP16, literal(-19)))
          CFI (cfiCond76) V4 load(1, XDATA, add(CFA_XSP16, literal(-18)))
          CFI (cfiCond76) V5 load(1, XDATA, add(CFA_XSP16, literal(-17)))
          CFI (cfiCond76) V6 load(1, XDATA, add(CFA_XSP16, literal(-16)))
          CFI (cfiCond76) V7 load(1, XDATA, add(CFA_XSP16, literal(-15)))
          CFI (cfiCond76) V8 load(1, XDATA, add(CFA_XSP16, literal(-14)))
          CFI (cfiCond76) V9 load(1, XDATA, add(CFA_XSP16, literal(-13)))
          CFI (cfiCond76) V10 load(1, XDATA, add(CFA_XSP16, literal(-12)))
          CFI (cfiCond76) V11 load(1, XDATA, add(CFA_XSP16, literal(-11)))
          CFI (cfiCond76) V12 load(1, XDATA, add(CFA_XSP16, literal(-10)))
          CFI (cfiCond76) V13 load(1, XDATA, add(CFA_XSP16, literal(-9)))
          CFI (cfiCond76) V14 load(1, XDATA, add(CFA_XSP16, literal(-8)))
          CFI (cfiCond76) V15 load(1, XDATA, add(CFA_XSP16, literal(-7)))
          CFI (cfiCond76) R7 load(1, XDATA, add(CFA_XSP16, literal(-6)))
          CFI (cfiCond76) ?RET_LOW load(1, XDATA, add(CFA_XSP16, literal(-5)))
          CFI (cfiCond76) ?RET_HIGH load(1, XDATA, add(CFA_XSP16, literal(-4)))
          CFI (cfiCond76) ?BRET_EXT load(1, XDATA, add(CFA_XSP16, literal(-3)))
          CFI (cfiCond76) DPL0 load(1, XDATA, add(CFA_XSP16, literal(-2)))
          CFI (cfiCond76) DPH0 load(1, XDATA, add(CFA_XSP16, literal(-1)))
          CFI (cfiCond76) CFA_SP SP+-4
          CFI (cfiCond76) CFA_XSP16 add(XSP16, 24)
          CFI Block cfiCond77 Using cfiCommon0
          CFI (cfiCond77) Function zclHVAC_SendGetWeeklyScheduleRsp
          CFI (cfiCond77) Conditional ??CrossCallReturnLabel_76, ??CrossCallReturnLabel_1
          CFI (cfiCond77) R6 load(1, XDATA, add(CFA_XSP16, literal(-24)))
          CFI (cfiCond77) VB load(1, XDATA, add(CFA_XSP16, literal(-23)))
          CFI (cfiCond77) V0 load(1, XDATA, add(CFA_XSP16, literal(-22)))
          CFI (cfiCond77) V1 load(1, XDATA, add(CFA_XSP16, literal(-21)))
          CFI (cfiCond77) V2 load(1, XDATA, add(CFA_XSP16, literal(-20)))
          CFI (cfiCond77) V3 load(1, XDATA, add(CFA_XSP16, literal(-19)))
          CFI (cfiCond77) V4 load(1, XDATA, add(CFA_XSP16, literal(-18)))
          CFI (cfiCond77) V5 load(1, XDATA, add(CFA_XSP16, literal(-17)))
          CFI (cfiCond77) V6 load(1, XDATA, add(CFA_XSP16, literal(-16)))
          CFI (cfiCond77) V7 load(1, XDATA, add(CFA_XSP16, literal(-15)))
          CFI (cfiCond77) V8 load(1, XDATA, add(CFA_XSP16, literal(-14)))
          CFI (cfiCond77) V9 load(1, XDATA, add(CFA_XSP16, literal(-13)))
          CFI (cfiCond77) V10 load(1, XDATA, add(CFA_XSP16, literal(-12)))
          CFI (cfiCond77) V11 load(1, XDATA, add(CFA_XSP16, literal(-11)))
          CFI (cfiCond77) V12 load(1, XDATA, add(CFA_XSP16, literal(-10)))
          CFI (cfiCond77) V13 load(1, XDATA, add(CFA_XSP16, literal(-9)))
          CFI (cfiCond77) V14 load(1, XDATA, add(CFA_XSP16, literal(-8)))
          CFI (cfiCond77) V15 load(1, XDATA, add(CFA_XSP16, literal(-7)))
          CFI (cfiCond77) R7 load(1, XDATA, add(CFA_XSP16, literal(-6)))
          CFI (cfiCond77) ?RET_LOW load(1, XDATA, add(CFA_XSP16, literal(-5)))
          CFI (cfiCond77) ?RET_HIGH load(1, XDATA, add(CFA_XSP16, literal(-4)))
          CFI (cfiCond77) ?BRET_EXT load(1, XDATA, add(CFA_XSP16, literal(-3)))
          CFI (cfiCond77) DPL0 load(1, XDATA, add(CFA_XSP16, literal(-2)))
          CFI (cfiCond77) DPH0 load(1, XDATA, add(CFA_XSP16, literal(-1)))
          CFI (cfiCond77) CFA_SP SP+-4
          CFI (cfiCond77) CFA_XSP16 add(XSP16, 24)
          CFI Block cfiPicker78 Using cfiCommon1
          CFI (cfiPicker78) NoFunction
          CFI (cfiPicker78) Picker
        MOV     DPL,R0
        MOV     DPH,A
        MOVX    A,@DPTR
        MOV     DPL,?V12
        MOV     DPH,?V13
        LCALL   ?Subroutine53 & 0xFFFF
??CrossCallReturnLabel_96:
        RET
          CFI EndBlock cfiCond74
          CFI EndBlock cfiCond75
          CFI EndBlock cfiCond76
          CFI EndBlock cfiCond77
          CFI EndBlock cfiPicker78

        RSEG BANKED_CODE:HUGECODE:NOROOT(0)
?Subroutine53:
          CFI Block cfiCond79 Using cfiCommon0
          CFI Function zclHVAC_SendSetWeeklySchedule
          CFI Conditional ??CrossCallReturnLabel_96, ??CrossCallReturnLabel_75, ??CrossCallReturnLabel_6
          CFI R6 load(1, XDATA, add(CFA_XSP16, literal(-24)))
          CFI VB load(1, XDATA, add(CFA_XSP16, literal(-23)))
          CFI V0 load(1, XDATA, add(CFA_XSP16, literal(-22)))
          CFI V1 load(1, XDATA, add(CFA_XSP16, literal(-21)))
          CFI V2 load(1, XDATA, add(CFA_XSP16, literal(-20)))
          CFI V3 load(1, XDATA, add(CFA_XSP16, literal(-19)))
          CFI V4 load(1, XDATA, add(CFA_XSP16, literal(-18)))
          CFI V5 load(1, XDATA, add(CFA_XSP16, literal(-17)))
          CFI V6 load(1, XDATA, add(CFA_XSP16, literal(-16)))
          CFI V7 load(1, XDATA, add(CFA_XSP16, literal(-15)))
          CFI V8 load(1, XDATA, add(CFA_XSP16, literal(-14)))
          CFI V9 load(1, XDATA, add(CFA_XSP16, literal(-13)))
          CFI V10 load(1, XDATA, add(CFA_XSP16, literal(-12)))
          CFI V11 load(1, XDATA, add(CFA_XSP16, literal(-11)))
          CFI V12 load(1, XDATA, add(CFA_XSP16, literal(-10)))
          CFI V13 load(1, XDATA, add(CFA_XSP16, literal(-9)))
          CFI V14 load(1, XDATA, add(CFA_XSP16, literal(-8)))
          CFI V15 load(1, XDATA, add(CFA_XSP16, literal(-7)))
          CFI R7 load(1, XDATA, add(CFA_XSP16, literal(-6)))
          CFI ?RET_LOW load(1, XDATA, add(CFA_XSP16, literal(-5)))
          CFI ?RET_HIGH load(1, XDATA, add(CFA_XSP16, literal(-4)))
          CFI ?BRET_EXT load(1, XDATA, add(CFA_XSP16, literal(-3)))
          CFI DPL0 load(1, XDATA, add(CFA_XSP16, literal(-2)))
          CFI DPH0 load(1, XDATA, add(CFA_XSP16, literal(-1)))
          CFI CFA_SP SP+-6
          CFI CFA_XSP16 add(XSP16, 24)
          CFI Block cfiCond80 Using cfiCommon0
          CFI (cfiCond80) Function zclHVAC_SendGetWeeklyScheduleRsp
          CFI (cfiCond80) Conditional ??CrossCallReturnLabel_96, ??CrossCallReturnLabel_75, ??CrossCallReturnLabel_7
          CFI (cfiCond80) R6 load(1, XDATA, add(CFA_XSP16, literal(-24)))
          CFI (cfiCond80) VB load(1, XDATA, add(CFA_XSP16, literal(-23)))
          CFI (cfiCond80) V0 load(1, XDATA, add(CFA_XSP16, literal(-22)))
          CFI (cfiCond80) V1 load(1, XDATA, add(CFA_XSP16, literal(-21)))
          CFI (cfiCond80) V2 load(1, XDATA, add(CFA_XSP16, literal(-20)))
          CFI (cfiCond80) V3 load(1, XDATA, add(CFA_XSP16, literal(-19)))
          CFI (cfiCond80) V4 load(1, XDATA, add(CFA_XSP16, literal(-18)))
          CFI (cfiCond80) V5 load(1, XDATA, add(CFA_XSP16, literal(-17)))
          CFI (cfiCond80) V6 load(1, XDATA, add(CFA_XSP16, literal(-16)))
          CFI (cfiCond80) V7 load(1, XDATA, add(CFA_XSP16, literal(-15)))
          CFI (cfiCond80) V8 load(1, XDATA, add(CFA_XSP16, literal(-14)))
          CFI (cfiCond80) V9 load(1, XDATA, add(CFA_XSP16, literal(-13)))
          CFI (cfiCond80) V10 load(1, XDATA, add(CFA_XSP16, literal(-12)))
          CFI (cfiCond80) V11 load(1, XDATA, add(CFA_XSP16, literal(-11)))
          CFI (cfiCond80) V12 load(1, XDATA, add(CFA_XSP16, literal(-10)))
          CFI (cfiCond80) V13 load(1, XDATA, add(CFA_XSP16, literal(-9)))
          CFI (cfiCond80) V14 load(1, XDATA, add(CFA_XSP16, literal(-8)))
          CFI (cfiCond80) V15 load(1, XDATA, add(CFA_XSP16, literal(-7)))
          CFI (cfiCond80) R7 load(1, XDATA, add(CFA_XSP16, literal(-6)))
          CFI (cfiCond80) ?RET_LOW load(1, XDATA, add(CFA_XSP16, literal(-5)))
          CFI (cfiCond80) ?RET_HIGH load(1, XDATA, add(CFA_XSP16, literal(-4)))
          CFI (cfiCond80) ?BRET_EXT load(1, XDATA, add(CFA_XSP16, literal(-3)))
          CFI (cfiCond80) DPL0 load(1, XDATA, add(CFA_XSP16, literal(-2)))
          CFI (cfiCond80) DPH0 load(1, XDATA, add(CFA_XSP16, literal(-1)))
          CFI (cfiCond80) CFA_SP SP+-6
          CFI (cfiCond80) CFA_XSP16 add(XSP16, 24)
          CFI Block cfiCond81 Using cfiCommon0
          CFI (cfiCond81) Function zclHVAC_SendSetWeeklySchedule
          CFI (cfiCond81) Conditional ??CrossCallReturnLabel_96, ??CrossCallReturnLabel_76, ??CrossCallReturnLabel_0
          CFI (cfiCond81) R6 load(1, XDATA, add(CFA_XSP16, literal(-24)))
          CFI (cfiCond81) VB load(1, XDATA, add(CFA_XSP16, literal(-23)))
          CFI (cfiCond81) V0 load(1, XDATA, add(CFA_XSP16, literal(-22)))
          CFI (cfiCond81) V1 load(1, XDATA, add(CFA_XSP16, literal(-21)))
          CFI (cfiCond81) V2 load(1, XDATA, add(CFA_XSP16, literal(-20)))
          CFI (cfiCond81) V3 load(1, XDATA, add(CFA_XSP16, literal(-19)))
          CFI (cfiCond81) V4 load(1, XDATA, add(CFA_XSP16, literal(-18)))
          CFI (cfiCond81) V5 load(1, XDATA, add(CFA_XSP16, literal(-17)))
          CFI (cfiCond81) V6 load(1, XDATA, add(CFA_XSP16, literal(-16)))
          CFI (cfiCond81) V7 load(1, XDATA, add(CFA_XSP16, literal(-15)))
          CFI (cfiCond81) V8 load(1, XDATA, add(CFA_XSP16, literal(-14)))
          CFI (cfiCond81) V9 load(1, XDATA, add(CFA_XSP16, literal(-13)))
          CFI (cfiCond81) V10 load(1, XDATA, add(CFA_XSP16, literal(-12)))
          CFI (cfiCond81) V11 load(1, XDATA, add(CFA_XSP16, literal(-11)))
          CFI (cfiCond81) V12 load(1, XDATA, add(CFA_XSP16, literal(-10)))
          CFI (cfiCond81) V13 load(1, XDATA, add(CFA_XSP16, literal(-9)))
          CFI (cfiCond81) V14 load(1, XDATA, add(CFA_XSP16, literal(-8)))
          CFI (cfiCond81) V15 load(1, XDATA, add(CFA_XSP16, literal(-7)))
          CFI (cfiCond81) R7 load(1, XDATA, add(CFA_XSP16, literal(-6)))
          CFI (cfiCond81) ?RET_LOW load(1, XDATA, add(CFA_XSP16, literal(-5)))
          CFI (cfiCond81) ?RET_HIGH load(1, XDATA, add(CFA_XSP16, literal(-4)))
          CFI (cfiCond81) ?BRET_EXT load(1, XDATA, add(CFA_XSP16, literal(-3)))
          CFI (cfiCond81) DPL0 load(1, XDATA, add(CFA_XSP16, literal(-2)))
          CFI (cfiCond81) DPH0 load(1, XDATA, add(CFA_XSP16, literal(-1)))
          CFI (cfiCond81) CFA_SP SP+-6
          CFI (cfiCond81) CFA_XSP16 add(XSP16, 24)
          CFI Block cfiCond82 Using cfiCommon0
          CFI (cfiCond82) Function zclHVAC_SendGetWeeklyScheduleRsp
          CFI (cfiCond82) Conditional ??CrossCallReturnLabel_96, ??CrossCallReturnLabel_76, ??CrossCallReturnLabel_1
          CFI (cfiCond82) R6 load(1, XDATA, add(CFA_XSP16, literal(-24)))
          CFI (cfiCond82) VB load(1, XDATA, add(CFA_XSP16, literal(-23)))
          CFI (cfiCond82) V0 load(1, XDATA, add(CFA_XSP16, literal(-22)))
          CFI (cfiCond82) V1 load(1, XDATA, add(CFA_XSP16, literal(-21)))
          CFI (cfiCond82) V2 load(1, XDATA, add(CFA_XSP16, literal(-20)))
          CFI (cfiCond82) V3 load(1, XDATA, add(CFA_XSP16, literal(-19)))
          CFI (cfiCond82) V4 load(1, XDATA, add(CFA_XSP16, literal(-18)))
          CFI (cfiCond82) V5 load(1, XDATA, add(CFA_XSP16, literal(-17)))
          CFI (cfiCond82) V6 load(1, XDATA, add(CFA_XSP16, literal(-16)))
          CFI (cfiCond82) V7 load(1, XDATA, add(CFA_XSP16, literal(-15)))
          CFI (cfiCond82) V8 load(1, XDATA, add(CFA_XSP16, literal(-14)))
          CFI (cfiCond82) V9 load(1, XDATA, add(CFA_XSP16, literal(-13)))
          CFI (cfiCond82) V10 load(1, XDATA, add(CFA_XSP16, literal(-12)))
          CFI (cfiCond82) V11 load(1, XDATA, add(CFA_XSP16, literal(-11)))
          CFI (cfiCond82) V12 load(1, XDATA, add(CFA_XSP16, literal(-10)))
          CFI (cfiCond82) V13 load(1, XDATA, add(CFA_XSP16, literal(-9)))
          CFI (cfiCond82) V14 load(1, XDATA, add(CFA_XSP16, literal(-8)))
          CFI (cfiCond82) V15 load(1, XDATA, add(CFA_XSP16, literal(-7)))
          CFI (cfiCond82) R7 load(1, XDATA, add(CFA_XSP16, literal(-6)))
          CFI (cfiCond82) ?RET_LOW load(1, XDATA, add(CFA_XSP16, literal(-5)))
          CFI (cfiCond82) ?RET_HIGH load(1, XDATA, add(CFA_XSP16, literal(-4)))
          CFI (cfiCond82) ?BRET_EXT load(1, XDATA, add(CFA_XSP16, literal(-3)))
          CFI (cfiCond82) DPL0 load(1, XDATA, add(CFA_XSP16, literal(-2)))
          CFI (cfiCond82) DPH0 load(1, XDATA, add(CFA_XSP16, literal(-1)))
          CFI (cfiCond82) CFA_SP SP+-6
          CFI (cfiCond82) CFA_XSP16 add(XSP16, 24)
          CFI Block cfiCond83 Using cfiCommon0
          CFI (cfiCond83) Function zclHVAC_SendSetWeeklySchedule
          CFI (cfiCond83) Conditional ??CrossCallReturnLabel_97, ??CrossCallReturnLabel_90, ??CrossCallReturnLabel_73, ??CrossCallReturnLabel_0
          CFI (cfiCond83) R6 load(1, XDATA, add(CFA_XSP16, literal(-24)))
          CFI (cfiCond83) VB load(1, XDATA, add(CFA_XSP16, literal(-23)))
          CFI (cfiCond83) V0 load(1, XDATA, add(CFA_XSP16, literal(-22)))
          CFI (cfiCond83) V1 load(1, XDATA, add(CFA_XSP16, literal(-21)))
          CFI (cfiCond83) V2 load(1, XDATA, add(CFA_XSP16, literal(-20)))
          CFI (cfiCond83) V3 load(1, XDATA, add(CFA_XSP16, literal(-19)))
          CFI (cfiCond83) V4 load(1, XDATA, add(CFA_XSP16, literal(-18)))
          CFI (cfiCond83) V5 load(1, XDATA, add(CFA_XSP16, literal(-17)))
          CFI (cfiCond83) V6 load(1, XDATA, add(CFA_XSP16, literal(-16)))
          CFI (cfiCond83) V7 load(1, XDATA, add(CFA_XSP16, literal(-15)))
          CFI (cfiCond83) V8 load(1, XDATA, add(CFA_XSP16, literal(-14)))
          CFI (cfiCond83) V9 load(1, XDATA, add(CFA_XSP16, literal(-13)))
          CFI (cfiCond83) V10 load(1, XDATA, add(CFA_XSP16, literal(-12)))
          CFI (cfiCond83) V11 load(1, XDATA, add(CFA_XSP16, literal(-11)))
          CFI (cfiCond83) V12 load(1, XDATA, add(CFA_XSP16, literal(-10)))
          CFI (cfiCond83) V13 load(1, XDATA, add(CFA_XSP16, literal(-9)))
          CFI (cfiCond83) V14 load(1, XDATA, add(CFA_XSP16, literal(-8)))
          CFI (cfiCond83) V15 load(1, XDATA, add(CFA_XSP16, literal(-7)))
          CFI (cfiCond83) R7 load(1, XDATA, add(CFA_XSP16, literal(-6)))
          CFI (cfiCond83) ?RET_LOW load(1, XDATA, add(CFA_XSP16, literal(-5)))
          CFI (cfiCond83) ?RET_HIGH load(1, XDATA, add(CFA_XSP16, literal(-4)))
          CFI (cfiCond83) ?BRET_EXT load(1, XDATA, add(CFA_XSP16, literal(-3)))
          CFI (cfiCond83) DPL0 load(1, XDATA, add(CFA_XSP16, literal(-2)))
          CFI (cfiCond83) DPH0 load(1, XDATA, add(CFA_XSP16, literal(-1)))
          CFI (cfiCond83) CFA_SP SP+-8
          CFI (cfiCond83) CFA_XSP16 add(XSP16, 24)
          CFI Block cfiCond84 Using cfiCommon0
          CFI (cfiCond84) Function zclHVAC_SendGetWeeklyScheduleRsp
          CFI (cfiCond84) Conditional ??CrossCallReturnLabel_97, ??CrossCallReturnLabel_90, ??CrossCallReturnLabel_73, ??CrossCallReturnLabel_1
          CFI (cfiCond84) R6 load(1, XDATA, add(CFA_XSP16, literal(-24)))
          CFI (cfiCond84) VB load(1, XDATA, add(CFA_XSP16, literal(-23)))
          CFI (cfiCond84) V0 load(1, XDATA, add(CFA_XSP16, literal(-22)))
          CFI (cfiCond84) V1 load(1, XDATA, add(CFA_XSP16, literal(-21)))
          CFI (cfiCond84) V2 load(1, XDATA, add(CFA_XSP16, literal(-20)))
          CFI (cfiCond84) V3 load(1, XDATA, add(CFA_XSP16, literal(-19)))
          CFI (cfiCond84) V4 load(1, XDATA, add(CFA_XSP16, literal(-18)))
          CFI (cfiCond84) V5 load(1, XDATA, add(CFA_XSP16, literal(-17)))
          CFI (cfiCond84) V6 load(1, XDATA, add(CFA_XSP16, literal(-16)))
          CFI (cfiCond84) V7 load(1, XDATA, add(CFA_XSP16, literal(-15)))
          CFI (cfiCond84) V8 load(1, XDATA, add(CFA_XSP16, literal(-14)))
          CFI (cfiCond84) V9 load(1, XDATA, add(CFA_XSP16, literal(-13)))
          CFI (cfiCond84) V10 load(1, XDATA, add(CFA_XSP16, literal(-12)))
          CFI (cfiCond84) V11 load(1, XDATA, add(CFA_XSP16, literal(-11)))
          CFI (cfiCond84) V12 load(1, XDATA, add(CFA_XSP16, literal(-10)))
          CFI (cfiCond84) V13 load(1, XDATA, add(CFA_XSP16, literal(-9)))
          CFI (cfiCond84) V14 load(1, XDATA, add(CFA_XSP16, literal(-8)))
          CFI (cfiCond84) V15 load(1, XDATA, add(CFA_XSP16, literal(-7)))
          CFI (cfiCond84) R7 load(1, XDATA, add(CFA_XSP16, literal(-6)))
          CFI (cfiCond84) ?RET_LOW load(1, XDATA, add(CFA_XSP16, literal(-5)))
          CFI (cfiCond84) ?RET_HIGH load(1, XDATA, add(CFA_XSP16, literal(-4)))
          CFI (cfiCond84) ?BRET_EXT load(1, XDATA, add(CFA_XSP16, literal(-3)))
          CFI (cfiCond84) DPL0 load(1, XDATA, add(CFA_XSP16, literal(-2)))
          CFI (cfiCond84) DPH0 load(1, XDATA, add(CFA_XSP16, literal(-1)))
          CFI (cfiCond84) CFA_SP SP+-8
          CFI (cfiCond84) CFA_XSP16 add(XSP16, 24)
          CFI Block cfiCond85 Using cfiCommon0
          CFI (cfiCond85) Function zclHVAC_SendSetWeeklySchedule
          CFI (cfiCond85) Conditional ??CrossCallReturnLabel_97, ??CrossCallReturnLabel_90, ??CrossCallReturnLabel_74, ??CrossCallReturnLabel_0
          CFI (cfiCond85) R6 load(1, XDATA, add(CFA_XSP16, literal(-24)))
          CFI (cfiCond85) VB load(1, XDATA, add(CFA_XSP16, literal(-23)))
          CFI (cfiCond85) V0 load(1, XDATA, add(CFA_XSP16, literal(-22)))
          CFI (cfiCond85) V1 load(1, XDATA, add(CFA_XSP16, literal(-21)))
          CFI (cfiCond85) V2 load(1, XDATA, add(CFA_XSP16, literal(-20)))
          CFI (cfiCond85) V3 load(1, XDATA, add(CFA_XSP16, literal(-19)))
          CFI (cfiCond85) V4 load(1, XDATA, add(CFA_XSP16, literal(-18)))
          CFI (cfiCond85) V5 load(1, XDATA, add(CFA_XSP16, literal(-17)))
          CFI (cfiCond85) V6 load(1, XDATA, add(CFA_XSP16, literal(-16)))
          CFI (cfiCond85) V7 load(1, XDATA, add(CFA_XSP16, literal(-15)))
          CFI (cfiCond85) V8 load(1, XDATA, add(CFA_XSP16, literal(-14)))
          CFI (cfiCond85) V9 load(1, XDATA, add(CFA_XSP16, literal(-13)))
          CFI (cfiCond85) V10 load(1, XDATA, add(CFA_XSP16, literal(-12)))
          CFI (cfiCond85) V11 load(1, XDATA, add(CFA_XSP16, literal(-11)))
          CFI (cfiCond85) V12 load(1, XDATA, add(CFA_XSP16, literal(-10)))
          CFI (cfiCond85) V13 load(1, XDATA, add(CFA_XSP16, literal(-9)))
          CFI (cfiCond85) V14 load(1, XDATA, add(CFA_XSP16, literal(-8)))
          CFI (cfiCond85) V15 load(1, XDATA, add(CFA_XSP16, literal(-7)))
          CFI (cfiCond85) R7 load(1, XDATA, add(CFA_XSP16, literal(-6)))
          CFI (cfiCond85) ?RET_LOW load(1, XDATA, add(CFA_XSP16, literal(-5)))
          CFI (cfiCond85) ?RET_HIGH load(1, XDATA, add(CFA_XSP16, literal(-4)))
          CFI (cfiCond85) ?BRET_EXT load(1, XDATA, add(CFA_XSP16, literal(-3)))
          CFI (cfiCond85) DPL0 load(1, XDATA, add(CFA_XSP16, literal(-2)))
          CFI (cfiCond85) DPH0 load(1, XDATA, add(CFA_XSP16, literal(-1)))
          CFI (cfiCond85) CFA_SP SP+-8
          CFI (cfiCond85) CFA_XSP16 add(XSP16, 24)
          CFI Block cfiCond86 Using cfiCommon0
          CFI (cfiCond86) Function zclHVAC_SendGetWeeklyScheduleRsp
          CFI (cfiCond86) Conditional ??CrossCallReturnLabel_97, ??CrossCallReturnLabel_90, ??CrossCallReturnLabel_74, ??CrossCallReturnLabel_1
          CFI (cfiCond86) R6 load(1, XDATA, add(CFA_XSP16, literal(-24)))
          CFI (cfiCond86) VB load(1, XDATA, add(CFA_XSP16, literal(-23)))
          CFI (cfiCond86) V0 load(1, XDATA, add(CFA_XSP16, literal(-22)))
          CFI (cfiCond86) V1 load(1, XDATA, add(CFA_XSP16, literal(-21)))
          CFI (cfiCond86) V2 load(1, XDATA, add(CFA_XSP16, literal(-20)))
          CFI (cfiCond86) V3 load(1, XDATA, add(CFA_XSP16, literal(-19)))
          CFI (cfiCond86) V4 load(1, XDATA, add(CFA_XSP16, literal(-18)))
          CFI (cfiCond86) V5 load(1, XDATA, add(CFA_XSP16, literal(-17)))
          CFI (cfiCond86) V6 load(1, XDATA, add(CFA_XSP16, literal(-16)))
          CFI (cfiCond86) V7 load(1, XDATA, add(CFA_XSP16, literal(-15)))
          CFI (cfiCond86) V8 load(1, XDATA, add(CFA_XSP16, literal(-14)))
          CFI (cfiCond86) V9 load(1, XDATA, add(CFA_XSP16, literal(-13)))
          CFI (cfiCond86) V10 load(1, XDATA, add(CFA_XSP16, literal(-12)))
          CFI (cfiCond86) V11 load(1, XDATA, add(CFA_XSP16, literal(-11)))
          CFI (cfiCond86) V12 load(1, XDATA, add(CFA_XSP16, literal(-10)))
          CFI (cfiCond86) V13 load(1, XDATA, add(CFA_XSP16, literal(-9)))
          CFI (cfiCond86) V14 load(1, XDATA, add(CFA_XSP16, literal(-8)))
          CFI (cfiCond86) V15 load(1, XDATA, add(CFA_XSP16, literal(-7)))
          CFI (cfiCond86) R7 load(1, XDATA, add(CFA_XSP16, literal(-6)))
          CFI (cfiCond86) ?RET_LOW load(1, XDATA, add(CFA_XSP16, literal(-5)))
          CFI (cfiCond86) ?RET_HIGH load(1, XDATA, add(CFA_XSP16, literal(-4)))
          CFI (cfiCond86) ?BRET_EXT load(1, XDATA, add(CFA_XSP16, literal(-3)))
          CFI (cfiCond86) DPL0 load(1, XDATA, add(CFA_XSP16, literal(-2)))
          CFI (cfiCond86) DPH0 load(1, XDATA, add(CFA_XSP16, literal(-1)))
          CFI (cfiCond86) CFA_SP SP+-8
          CFI (cfiCond86) CFA_XSP16 add(XSP16, 24)
          CFI Block cfiCond87 Using cfiCommon0
          CFI (cfiCond87) Function zclHVAC_SendSetWeeklySchedule
          CFI (cfiCond87) Conditional ??CrossCallReturnLabel_97, ??CrossCallReturnLabel_91, ??CrossCallReturnLabel_71, ??CrossCallReturnLabel_0
          CFI (cfiCond87) R6 load(1, XDATA, add(CFA_XSP16, literal(-24)))
          CFI (cfiCond87) VB load(1, XDATA, add(CFA_XSP16, literal(-23)))
          CFI (cfiCond87) V0 load(1, XDATA, add(CFA_XSP16, literal(-22)))
          CFI (cfiCond87) V1 load(1, XDATA, add(CFA_XSP16, literal(-21)))
          CFI (cfiCond87) V2 load(1, XDATA, add(CFA_XSP16, literal(-20)))
          CFI (cfiCond87) V3 load(1, XDATA, add(CFA_XSP16, literal(-19)))
          CFI (cfiCond87) V4 load(1, XDATA, add(CFA_XSP16, literal(-18)))
          CFI (cfiCond87) V5 load(1, XDATA, add(CFA_XSP16, literal(-17)))
          CFI (cfiCond87) V6 load(1, XDATA, add(CFA_XSP16, literal(-16)))
          CFI (cfiCond87) V7 load(1, XDATA, add(CFA_XSP16, literal(-15)))
          CFI (cfiCond87) V8 load(1, XDATA, add(CFA_XSP16, literal(-14)))
          CFI (cfiCond87) V9 load(1, XDATA, add(CFA_XSP16, literal(-13)))
          CFI (cfiCond87) V10 load(1, XDATA, add(CFA_XSP16, literal(-12)))
          CFI (cfiCond87) V11 load(1, XDATA, add(CFA_XSP16, literal(-11)))
          CFI (cfiCond87) V12 load(1, XDATA, add(CFA_XSP16, literal(-10)))
          CFI (cfiCond87) V13 load(1, XDATA, add(CFA_XSP16, literal(-9)))
          CFI (cfiCond87) V14 load(1, XDATA, add(CFA_XSP16, literal(-8)))
          CFI (cfiCond87) V15 load(1, XDATA, add(CFA_XSP16, literal(-7)))
          CFI (cfiCond87) R7 load(1, XDATA, add(CFA_XSP16, literal(-6)))
          CFI (cfiCond87) ?RET_LOW load(1, XDATA, add(CFA_XSP16, literal(-5)))
          CFI (cfiCond87) ?RET_HIGH load(1, XDATA, add(CFA_XSP16, literal(-4)))
          CFI (cfiCond87) ?BRET_EXT load(1, XDATA, add(CFA_XSP16, literal(-3)))
          CFI (cfiCond87) DPL0 load(1, XDATA, add(CFA_XSP16, literal(-2)))
          CFI (cfiCond87) DPH0 load(1, XDATA, add(CFA_XSP16, literal(-1)))
          CFI (cfiCond87) CFA_SP SP+-8
          CFI (cfiCond87) CFA_XSP16 add(XSP16, 24)
          CFI Block cfiCond88 Using cfiCommon0
          CFI (cfiCond88) Function zclHVAC_SendGetWeeklyScheduleRsp
          CFI (cfiCond88) Conditional ??CrossCallReturnLabel_97, ??CrossCallReturnLabel_91, ??CrossCallReturnLabel_71, ??CrossCallReturnLabel_1
          CFI (cfiCond88) R6 load(1, XDATA, add(CFA_XSP16, literal(-24)))
          CFI (cfiCond88) VB load(1, XDATA, add(CFA_XSP16, literal(-23)))
          CFI (cfiCond88) V0 load(1, XDATA, add(CFA_XSP16, literal(-22)))
          CFI (cfiCond88) V1 load(1, XDATA, add(CFA_XSP16, literal(-21)))
          CFI (cfiCond88) V2 load(1, XDATA, add(CFA_XSP16, literal(-20)))
          CFI (cfiCond88) V3 load(1, XDATA, add(CFA_XSP16, literal(-19)))
          CFI (cfiCond88) V4 load(1, XDATA, add(CFA_XSP16, literal(-18)))
          CFI (cfiCond88) V5 load(1, XDATA, add(CFA_XSP16, literal(-17)))
          CFI (cfiCond88) V6 load(1, XDATA, add(CFA_XSP16, literal(-16)))
          CFI (cfiCond88) V7 load(1, XDATA, add(CFA_XSP16, literal(-15)))
          CFI (cfiCond88) V8 load(1, XDATA, add(CFA_XSP16, literal(-14)))
          CFI (cfiCond88) V9 load(1, XDATA, add(CFA_XSP16, literal(-13)))
          CFI (cfiCond88) V10 load(1, XDATA, add(CFA_XSP16, literal(-12)))
          CFI (cfiCond88) V11 load(1, XDATA, add(CFA_XSP16, literal(-11)))
          CFI (cfiCond88) V12 load(1, XDATA, add(CFA_XSP16, literal(-10)))
          CFI (cfiCond88) V13 load(1, XDATA, add(CFA_XSP16, literal(-9)))
          CFI (cfiCond88) V14 load(1, XDATA, add(CFA_XSP16, literal(-8)))
          CFI (cfiCond88) V15 load(1, XDATA, add(CFA_XSP16, literal(-7)))
          CFI (cfiCond88) R7 load(1, XDATA, add(CFA_XSP16, literal(-6)))
          CFI (cfiCond88) ?RET_LOW load(1, XDATA, add(CFA_XSP16, literal(-5)))
          CFI (cfiCond88) ?RET_HIGH load(1, XDATA, add(CFA_XSP16, literal(-4)))
          CFI (cfiCond88) ?BRET_EXT load(1, XDATA, add(CFA_XSP16, literal(-3)))
          CFI (cfiCond88) DPL0 load(1, XDATA, add(CFA_XSP16, literal(-2)))
          CFI (cfiCond88) DPH0 load(1, XDATA, add(CFA_XSP16, literal(-1)))
          CFI (cfiCond88) CFA_SP SP+-8
          CFI (cfiCond88) CFA_XSP16 add(XSP16, 24)
          CFI Block cfiCond89 Using cfiCommon0
          CFI (cfiCond89) Function zclHVAC_SendSetWeeklySchedule
          CFI (cfiCond89) Conditional ??CrossCallReturnLabel_97, ??CrossCallReturnLabel_91, ??CrossCallReturnLabel_72, ??CrossCallReturnLabel_0
          CFI (cfiCond89) R6 load(1, XDATA, add(CFA_XSP16, literal(-24)))
          CFI (cfiCond89) VB load(1, XDATA, add(CFA_XSP16, literal(-23)))
          CFI (cfiCond89) V0 load(1, XDATA, add(CFA_XSP16, literal(-22)))
          CFI (cfiCond89) V1 load(1, XDATA, add(CFA_XSP16, literal(-21)))
          CFI (cfiCond89) V2 load(1, XDATA, add(CFA_XSP16, literal(-20)))
          CFI (cfiCond89) V3 load(1, XDATA, add(CFA_XSP16, literal(-19)))
          CFI (cfiCond89) V4 load(1, XDATA, add(CFA_XSP16, literal(-18)))
          CFI (cfiCond89) V5 load(1, XDATA, add(CFA_XSP16, literal(-17)))
          CFI (cfiCond89) V6 load(1, XDATA, add(CFA_XSP16, literal(-16)))
          CFI (cfiCond89) V7 load(1, XDATA, add(CFA_XSP16, literal(-15)))
          CFI (cfiCond89) V8 load(1, XDATA, add(CFA_XSP16, literal(-14)))
          CFI (cfiCond89) V9 load(1, XDATA, add(CFA_XSP16, literal(-13)))
          CFI (cfiCond89) V10 load(1, XDATA, add(CFA_XSP16, literal(-12)))
          CFI (cfiCond89) V11 load(1, XDATA, add(CFA_XSP16, literal(-11)))
          CFI (cfiCond89) V12 load(1, XDATA, add(CFA_XSP16, literal(-10)))
          CFI (cfiCond89) V13 load(1, XDATA, add(CFA_XSP16, literal(-9)))
          CFI (cfiCond89) V14 load(1, XDATA, add(CFA_XSP16, literal(-8)))
          CFI (cfiCond89) V15 load(1, XDATA, add(CFA_XSP16, literal(-7)))
          CFI (cfiCond89) R7 load(1, XDATA, add(CFA_XSP16, literal(-6)))
          CFI (cfiCond89) ?RET_LOW load(1, XDATA, add(CFA_XSP16, literal(-5)))
          CFI (cfiCond89) ?RET_HIGH load(1, XDATA, add(CFA_XSP16, literal(-4)))
          CFI (cfiCond89) ?BRET_EXT load(1, XDATA, add(CFA_XSP16, literal(-3)))
          CFI (cfiCond89) DPL0 load(1, XDATA, add(CFA_XSP16, literal(-2)))
          CFI (cfiCond89) DPH0 load(1, XDATA, add(CFA_XSP16, literal(-1)))
          CFI (cfiCond89) CFA_SP SP+-8
          CFI (cfiCond89) CFA_XSP16 add(XSP16, 24)
          CFI Block cfiCond90 Using cfiCommon0
          CFI (cfiCond90) Function zclHVAC_SendGetWeeklyScheduleRsp
          CFI (cfiCond90) Conditional ??CrossCallReturnLabel_97, ??CrossCallReturnLabel_91, ??CrossCallReturnLabel_72, ??CrossCallReturnLabel_1
          CFI (cfiCond90) R6 load(1, XDATA, add(CFA_XSP16, literal(-24)))
          CFI (cfiCond90) VB load(1, XDATA, add(CFA_XSP16, literal(-23)))
          CFI (cfiCond90) V0 load(1, XDATA, add(CFA_XSP16, literal(-22)))
          CFI (cfiCond90) V1 load(1, XDATA, add(CFA_XSP16, literal(-21)))
          CFI (cfiCond90) V2 load(1, XDATA, add(CFA_XSP16, literal(-20)))
          CFI (cfiCond90) V3 load(1, XDATA, add(CFA_XSP16, literal(-19)))
          CFI (cfiCond90) V4 load(1, XDATA, add(CFA_XSP16, literal(-18)))
          CFI (cfiCond90) V5 load(1, XDATA, add(CFA_XSP16, literal(-17)))
          CFI (cfiCond90) V6 load(1, XDATA, add(CFA_XSP16, literal(-16)))
          CFI (cfiCond90) V7 load(1, XDATA, add(CFA_XSP16, literal(-15)))
          CFI (cfiCond90) V8 load(1, XDATA, add(CFA_XSP16, literal(-14)))
          CFI (cfiCond90) V9 load(1, XDATA, add(CFA_XSP16, literal(-13)))
          CFI (cfiCond90) V10 load(1, XDATA, add(CFA_XSP16, literal(-12)))
          CFI (cfiCond90) V11 load(1, XDATA, add(CFA_XSP16, literal(-11)))
          CFI (cfiCond90) V12 load(1, XDATA, add(CFA_XSP16, literal(-10)))
          CFI (cfiCond90) V13 load(1, XDATA, add(CFA_XSP16, literal(-9)))
          CFI (cfiCond90) V14 load(1, XDATA, add(CFA_XSP16, literal(-8)))
          CFI (cfiCond90) V15 load(1, XDATA, add(CFA_XSP16, literal(-7)))
          CFI (cfiCond90) R7 load(1, XDATA, add(CFA_XSP16, literal(-6)))
          CFI (cfiCond90) ?RET_LOW load(1, XDATA, add(CFA_XSP16, literal(-5)))
          CFI (cfiCond90) ?RET_HIGH load(1, XDATA, add(CFA_XSP16, literal(-4)))
          CFI (cfiCond90) ?BRET_EXT load(1, XDATA, add(CFA_XSP16, literal(-3)))
          CFI (cfiCond90) DPL0 load(1, XDATA, add(CFA_XSP16, literal(-2)))
          CFI (cfiCond90) DPH0 load(1, XDATA, add(CFA_XSP16, literal(-1)))
          CFI (cfiCond90) CFA_SP SP+-8
          CFI (cfiCond90) CFA_XSP16 add(XSP16, 24)
          CFI Block cfiPicker91 Using cfiCommon1
          CFI (cfiPicker91) NoFunction
          CFI (cfiPicker91) Picker
        MOVX    @DPTR,A
        INC     R1
        MOV     DPL,?V10
        MOV     DPH,?V11
        MOVX    A,@DPTR
        RET
          CFI EndBlock cfiCond79
          CFI EndBlock cfiCond80
          CFI EndBlock cfiCond81
          CFI EndBlock cfiCond82
          CFI EndBlock cfiCond83
          CFI EndBlock cfiCond84
          CFI EndBlock cfiCond85
          CFI EndBlock cfiCond86
          CFI EndBlock cfiCond87
          CFI EndBlock cfiCond88
          CFI EndBlock cfiCond89
          CFI EndBlock cfiCond90
          CFI EndBlock cfiPicker91

        RSEG BANKED_CODE:HUGECODE:NOROOT(0)
?Subroutine40:
          CFI Block cfiCond92 Using cfiCommon0
          CFI Function zclHVAC_SendSetWeeklySchedule
          CFI Conditional ??CrossCallReturnLabel_73, ??CrossCallReturnLabel_0
          CFI R6 load(1, XDATA, add(CFA_XSP16, literal(-24)))
          CFI VB load(1, XDATA, add(CFA_XSP16, literal(-23)))
          CFI V0 load(1, XDATA, add(CFA_XSP16, literal(-22)))
          CFI V1 load(1, XDATA, add(CFA_XSP16, literal(-21)))
          CFI V2 load(1, XDATA, add(CFA_XSP16, literal(-20)))
          CFI V3 load(1, XDATA, add(CFA_XSP16, literal(-19)))
          CFI V4 load(1, XDATA, add(CFA_XSP16, literal(-18)))
          CFI V5 load(1, XDATA, add(CFA_XSP16, literal(-17)))
          CFI V6 load(1, XDATA, add(CFA_XSP16, literal(-16)))
          CFI V7 load(1, XDATA, add(CFA_XSP16, literal(-15)))
          CFI V8 load(1, XDATA, add(CFA_XSP16, literal(-14)))
          CFI V9 load(1, XDATA, add(CFA_XSP16, literal(-13)))
          CFI V10 load(1, XDATA, add(CFA_XSP16, literal(-12)))
          CFI V11 load(1, XDATA, add(CFA_XSP16, literal(-11)))
          CFI V12 load(1, XDATA, add(CFA_XSP16, literal(-10)))
          CFI V13 load(1, XDATA, add(CFA_XSP16, literal(-9)))
          CFI V14 load(1, XDATA, add(CFA_XSP16, literal(-8)))
          CFI V15 load(1, XDATA, add(CFA_XSP16, literal(-7)))
          CFI R7 load(1, XDATA, add(CFA_XSP16, literal(-6)))
          CFI ?RET_LOW load(1, XDATA, add(CFA_XSP16, literal(-5)))
          CFI ?RET_HIGH load(1, XDATA, add(CFA_XSP16, literal(-4)))
          CFI ?BRET_EXT load(1, XDATA, add(CFA_XSP16, literal(-3)))
          CFI DPL0 load(1, XDATA, add(CFA_XSP16, literal(-2)))
          CFI DPH0 load(1, XDATA, add(CFA_XSP16, literal(-1)))
          CFI CFA_SP SP+-4
          CFI CFA_XSP16 add(XSP16, 24)
          CFI Block cfiCond93 Using cfiCommon0
          CFI (cfiCond93) Function zclHVAC_SendGetWeeklyScheduleRsp
          CFI (cfiCond93) Conditional ??CrossCallReturnLabel_73, ??CrossCallReturnLabel_1
          CFI (cfiCond93) R6 load(1, XDATA, add(CFA_XSP16, literal(-24)))
          CFI (cfiCond93) VB load(1, XDATA, add(CFA_XSP16, literal(-23)))
          CFI (cfiCond93) V0 load(1, XDATA, add(CFA_XSP16, literal(-22)))
          CFI (cfiCond93) V1 load(1, XDATA, add(CFA_XSP16, literal(-21)))
          CFI (cfiCond93) V2 load(1, XDATA, add(CFA_XSP16, literal(-20)))
          CFI (cfiCond93) V3 load(1, XDATA, add(CFA_XSP16, literal(-19)))
          CFI (cfiCond93) V4 load(1, XDATA, add(CFA_XSP16, literal(-18)))
          CFI (cfiCond93) V5 load(1, XDATA, add(CFA_XSP16, literal(-17)))
          CFI (cfiCond93) V6 load(1, XDATA, add(CFA_XSP16, literal(-16)))
          CFI (cfiCond93) V7 load(1, XDATA, add(CFA_XSP16, literal(-15)))
          CFI (cfiCond93) V8 load(1, XDATA, add(CFA_XSP16, literal(-14)))
          CFI (cfiCond93) V9 load(1, XDATA, add(CFA_XSP16, literal(-13)))
          CFI (cfiCond93) V10 load(1, XDATA, add(CFA_XSP16, literal(-12)))
          CFI (cfiCond93) V11 load(1, XDATA, add(CFA_XSP16, literal(-11)))
          CFI (cfiCond93) V12 load(1, XDATA, add(CFA_XSP16, literal(-10)))
          CFI (cfiCond93) V13 load(1, XDATA, add(CFA_XSP16, literal(-9)))
          CFI (cfiCond93) V14 load(1, XDATA, add(CFA_XSP16, literal(-8)))
          CFI (cfiCond93) V15 load(1, XDATA, add(CFA_XSP16, literal(-7)))
          CFI (cfiCond93) R7 load(1, XDATA, add(CFA_XSP16, literal(-6)))
          CFI (cfiCond93) ?RET_LOW load(1, XDATA, add(CFA_XSP16, literal(-5)))
          CFI (cfiCond93) ?RET_HIGH load(1, XDATA, add(CFA_XSP16, literal(-4)))
          CFI (cfiCond93) ?BRET_EXT load(1, XDATA, add(CFA_XSP16, literal(-3)))
          CFI (cfiCond93) DPL0 load(1, XDATA, add(CFA_XSP16, literal(-2)))
          CFI (cfiCond93) DPH0 load(1, XDATA, add(CFA_XSP16, literal(-1)))
          CFI (cfiCond93) CFA_SP SP+-4
          CFI (cfiCond93) CFA_XSP16 add(XSP16, 24)
          CFI Block cfiCond94 Using cfiCommon0
          CFI (cfiCond94) Function zclHVAC_SendSetWeeklySchedule
          CFI (cfiCond94) Conditional ??CrossCallReturnLabel_74, ??CrossCallReturnLabel_0
          CFI (cfiCond94) R6 load(1, XDATA, add(CFA_XSP16, literal(-24)))
          CFI (cfiCond94) VB load(1, XDATA, add(CFA_XSP16, literal(-23)))
          CFI (cfiCond94) V0 load(1, XDATA, add(CFA_XSP16, literal(-22)))
          CFI (cfiCond94) V1 load(1, XDATA, add(CFA_XSP16, literal(-21)))
          CFI (cfiCond94) V2 load(1, XDATA, add(CFA_XSP16, literal(-20)))
          CFI (cfiCond94) V3 load(1, XDATA, add(CFA_XSP16, literal(-19)))
          CFI (cfiCond94) V4 load(1, XDATA, add(CFA_XSP16, literal(-18)))
          CFI (cfiCond94) V5 load(1, XDATA, add(CFA_XSP16, literal(-17)))
          CFI (cfiCond94) V6 load(1, XDATA, add(CFA_XSP16, literal(-16)))
          CFI (cfiCond94) V7 load(1, XDATA, add(CFA_XSP16, literal(-15)))
          CFI (cfiCond94) V8 load(1, XDATA, add(CFA_XSP16, literal(-14)))
          CFI (cfiCond94) V9 load(1, XDATA, add(CFA_XSP16, literal(-13)))
          CFI (cfiCond94) V10 load(1, XDATA, add(CFA_XSP16, literal(-12)))
          CFI (cfiCond94) V11 load(1, XDATA, add(CFA_XSP16, literal(-11)))
          CFI (cfiCond94) V12 load(1, XDATA, add(CFA_XSP16, literal(-10)))
          CFI (cfiCond94) V13 load(1, XDATA, add(CFA_XSP16, literal(-9)))
          CFI (cfiCond94) V14 load(1, XDATA, add(CFA_XSP16, literal(-8)))
          CFI (cfiCond94) V15 load(1, XDATA, add(CFA_XSP16, literal(-7)))
          CFI (cfiCond94) R7 load(1, XDATA, add(CFA_XSP16, literal(-6)))
          CFI (cfiCond94) ?RET_LOW load(1, XDATA, add(CFA_XSP16, literal(-5)))
          CFI (cfiCond94) ?RET_HIGH load(1, XDATA, add(CFA_XSP16, literal(-4)))
          CFI (cfiCond94) ?BRET_EXT load(1, XDATA, add(CFA_XSP16, literal(-3)))
          CFI (cfiCond94) DPL0 load(1, XDATA, add(CFA_XSP16, literal(-2)))
          CFI (cfiCond94) DPH0 load(1, XDATA, add(CFA_XSP16, literal(-1)))
          CFI (cfiCond94) CFA_SP SP+-4
          CFI (cfiCond94) CFA_XSP16 add(XSP16, 24)
          CFI Block cfiCond95 Using cfiCommon0
          CFI (cfiCond95) Function zclHVAC_SendGetWeeklyScheduleRsp
          CFI (cfiCond95) Conditional ??CrossCallReturnLabel_74, ??CrossCallReturnLabel_1
          CFI (cfiCond95) R6 load(1, XDATA, add(CFA_XSP16, literal(-24)))
          CFI (cfiCond95) VB load(1, XDATA, add(CFA_XSP16, literal(-23)))
          CFI (cfiCond95) V0 load(1, XDATA, add(CFA_XSP16, literal(-22)))
          CFI (cfiCond95) V1 load(1, XDATA, add(CFA_XSP16, literal(-21)))
          CFI (cfiCond95) V2 load(1, XDATA, add(CFA_XSP16, literal(-20)))
          CFI (cfiCond95) V3 load(1, XDATA, add(CFA_XSP16, literal(-19)))
          CFI (cfiCond95) V4 load(1, XDATA, add(CFA_XSP16, literal(-18)))
          CFI (cfiCond95) V5 load(1, XDATA, add(CFA_XSP16, literal(-17)))
          CFI (cfiCond95) V6 load(1, XDATA, add(CFA_XSP16, literal(-16)))
          CFI (cfiCond95) V7 load(1, XDATA, add(CFA_XSP16, literal(-15)))
          CFI (cfiCond95) V8 load(1, XDATA, add(CFA_XSP16, literal(-14)))
          CFI (cfiCond95) V9 load(1, XDATA, add(CFA_XSP16, literal(-13)))
          CFI (cfiCond95) V10 load(1, XDATA, add(CFA_XSP16, literal(-12)))
          CFI (cfiCond95) V11 load(1, XDATA, add(CFA_XSP16, literal(-11)))
          CFI (cfiCond95) V12 load(1, XDATA, add(CFA_XSP16, literal(-10)))
          CFI (cfiCond95) V13 load(1, XDATA, add(CFA_XSP16, literal(-9)))
          CFI (cfiCond95) V14 load(1, XDATA, add(CFA_XSP16, literal(-8)))
          CFI (cfiCond95) V15 load(1, XDATA, add(CFA_XSP16, literal(-7)))
          CFI (cfiCond95) R7 load(1, XDATA, add(CFA_XSP16, literal(-6)))
          CFI (cfiCond95) ?RET_LOW load(1, XDATA, add(CFA_XSP16, literal(-5)))
          CFI (cfiCond95) ?RET_HIGH load(1, XDATA, add(CFA_XSP16, literal(-4)))
          CFI (cfiCond95) ?BRET_EXT load(1, XDATA, add(CFA_XSP16, literal(-3)))
          CFI (cfiCond95) DPL0 load(1, XDATA, add(CFA_XSP16, literal(-2)))
          CFI (cfiCond95) DPH0 load(1, XDATA, add(CFA_XSP16, literal(-1)))
          CFI (cfiCond95) CFA_SP SP+-4
          CFI (cfiCond95) CFA_XSP16 add(XSP16, 24)
          CFI Block cfiPicker96 Using cfiCommon1
          CFI (cfiPicker96) NoFunction
          CFI (cfiPicker96) Picker
        INC     DPTR
        LCALL   ?Subroutine50 & 0xFFFF
??CrossCallReturnLabel_90:
        RET
          CFI EndBlock cfiCond92
          CFI EndBlock cfiCond93
          CFI EndBlock cfiCond94
          CFI EndBlock cfiCond95
          CFI EndBlock cfiPicker96

        RSEG BANKED_CODE:HUGECODE:NOROOT(0)
?Subroutine50:
          CFI Block cfiCond97 Using cfiCommon0
          CFI Function zclHVAC_SendSetWeeklySchedule
          CFI Conditional ??CrossCallReturnLabel_90, ??CrossCallReturnLabel_73, ??CrossCallReturnLabel_0
          CFI R6 load(1, XDATA, add(CFA_XSP16, literal(-24)))
          CFI VB load(1, XDATA, add(CFA_XSP16, literal(-23)))
          CFI V0 load(1, XDATA, add(CFA_XSP16, literal(-22)))
          CFI V1 load(1, XDATA, add(CFA_XSP16, literal(-21)))
          CFI V2 load(1, XDATA, add(CFA_XSP16, literal(-20)))
          CFI V3 load(1, XDATA, add(CFA_XSP16, literal(-19)))
          CFI V4 load(1, XDATA, add(CFA_XSP16, literal(-18)))
          CFI V5 load(1, XDATA, add(CFA_XSP16, literal(-17)))
          CFI V6 load(1, XDATA, add(CFA_XSP16, literal(-16)))
          CFI V7 load(1, XDATA, add(CFA_XSP16, literal(-15)))
          CFI V8 load(1, XDATA, add(CFA_XSP16, literal(-14)))
          CFI V9 load(1, XDATA, add(CFA_XSP16, literal(-13)))
          CFI V10 load(1, XDATA, add(CFA_XSP16, literal(-12)))
          CFI V11 load(1, XDATA, add(CFA_XSP16, literal(-11)))
          CFI V12 load(1, XDATA, add(CFA_XSP16, literal(-10)))
          CFI V13 load(1, XDATA, add(CFA_XSP16, literal(-9)))
          CFI V14 load(1, XDATA, add(CFA_XSP16, literal(-8)))
          CFI V15 load(1, XDATA, add(CFA_XSP16, literal(-7)))
          CFI R7 load(1, XDATA, add(CFA_XSP16, literal(-6)))
          CFI ?RET_LOW load(1, XDATA, add(CFA_XSP16, literal(-5)))
          CFI ?RET_HIGH load(1, XDATA, add(CFA_XSP16, literal(-4)))
          CFI ?BRET_EXT load(1, XDATA, add(CFA_XSP16, literal(-3)))
          CFI DPL0 load(1, XDATA, add(CFA_XSP16, literal(-2)))
          CFI DPH0 load(1, XDATA, add(CFA_XSP16, literal(-1)))
          CFI CFA_SP SP+-6
          CFI CFA_XSP16 add(XSP16, 24)
          CFI Block cfiCond98 Using cfiCommon0
          CFI (cfiCond98) Function zclHVAC_SendGetWeeklyScheduleRsp
          CFI (cfiCond98) Conditional ??CrossCallReturnLabel_90, ??CrossCallReturnLabel_73, ??CrossCallReturnLabel_1
          CFI (cfiCond98) R6 load(1, XDATA, add(CFA_XSP16, literal(-24)))
          CFI (cfiCond98) VB load(1, XDATA, add(CFA_XSP16, literal(-23)))
          CFI (cfiCond98) V0 load(1, XDATA, add(CFA_XSP16, literal(-22)))
          CFI (cfiCond98) V1 load(1, XDATA, add(CFA_XSP16, literal(-21)))
          CFI (cfiCond98) V2 load(1, XDATA, add(CFA_XSP16, literal(-20)))
          CFI (cfiCond98) V3 load(1, XDATA, add(CFA_XSP16, literal(-19)))
          CFI (cfiCond98) V4 load(1, XDATA, add(CFA_XSP16, literal(-18)))
          CFI (cfiCond98) V5 load(1, XDATA, add(CFA_XSP16, literal(-17)))
          CFI (cfiCond98) V6 load(1, XDATA, add(CFA_XSP16, literal(-16)))
          CFI (cfiCond98) V7 load(1, XDATA, add(CFA_XSP16, literal(-15)))
          CFI (cfiCond98) V8 load(1, XDATA, add(CFA_XSP16, literal(-14)))
          CFI (cfiCond98) V9 load(1, XDATA, add(CFA_XSP16, literal(-13)))
          CFI (cfiCond98) V10 load(1, XDATA, add(CFA_XSP16, literal(-12)))
          CFI (cfiCond98) V11 load(1, XDATA, add(CFA_XSP16, literal(-11)))
          CFI (cfiCond98) V12 load(1, XDATA, add(CFA_XSP16, literal(-10)))
          CFI (cfiCond98) V13 load(1, XDATA, add(CFA_XSP16, literal(-9)))
          CFI (cfiCond98) V14 load(1, XDATA, add(CFA_XSP16, literal(-8)))
          CFI (cfiCond98) V15 load(1, XDATA, add(CFA_XSP16, literal(-7)))
          CFI (cfiCond98) R7 load(1, XDATA, add(CFA_XSP16, literal(-6)))
          CFI (cfiCond98) ?RET_LOW load(1, XDATA, add(CFA_XSP16, literal(-5)))
          CFI (cfiCond98) ?RET_HIGH load(1, XDATA, add(CFA_XSP16, literal(-4)))
          CFI (cfiCond98) ?BRET_EXT load(1, XDATA, add(CFA_XSP16, literal(-3)))
          CFI (cfiCond98) DPL0 load(1, XDATA, add(CFA_XSP16, literal(-2)))
          CFI (cfiCond98) DPH0 load(1, XDATA, add(CFA_XSP16, literal(-1)))
          CFI (cfiCond98) CFA_SP SP+-6
          CFI (cfiCond98) CFA_XSP16 add(XSP16, 24)
          CFI Block cfiCond99 Using cfiCommon0
          CFI (cfiCond99) Function zclHVAC_SendSetWeeklySchedule
          CFI (cfiCond99) Conditional ??CrossCallReturnLabel_90, ??CrossCallReturnLabel_74, ??CrossCallReturnLabel_0
          CFI (cfiCond99) R6 load(1, XDATA, add(CFA_XSP16, literal(-24)))
          CFI (cfiCond99) VB load(1, XDATA, add(CFA_XSP16, literal(-23)))
          CFI (cfiCond99) V0 load(1, XDATA, add(CFA_XSP16, literal(-22)))
          CFI (cfiCond99) V1 load(1, XDATA, add(CFA_XSP16, literal(-21)))
          CFI (cfiCond99) V2 load(1, XDATA, add(CFA_XSP16, literal(-20)))
          CFI (cfiCond99) V3 load(1, XDATA, add(CFA_XSP16, literal(-19)))
          CFI (cfiCond99) V4 load(1, XDATA, add(CFA_XSP16, literal(-18)))
          CFI (cfiCond99) V5 load(1, XDATA, add(CFA_XSP16, literal(-17)))
          CFI (cfiCond99) V6 load(1, XDATA, add(CFA_XSP16, literal(-16)))
          CFI (cfiCond99) V7 load(1, XDATA, add(CFA_XSP16, literal(-15)))
          CFI (cfiCond99) V8 load(1, XDATA, add(CFA_XSP16, literal(-14)))
          CFI (cfiCond99) V9 load(1, XDATA, add(CFA_XSP16, literal(-13)))
          CFI (cfiCond99) V10 load(1, XDATA, add(CFA_XSP16, literal(-12)))
          CFI (cfiCond99) V11 load(1, XDATA, add(CFA_XSP16, literal(-11)))
          CFI (cfiCond99) V12 load(1, XDATA, add(CFA_XSP16, literal(-10)))
          CFI (cfiCond99) V13 load(1, XDATA, add(CFA_XSP16, literal(-9)))
          CFI (cfiCond99) V14 load(1, XDATA, add(CFA_XSP16, literal(-8)))
          CFI (cfiCond99) V15 load(1, XDATA, add(CFA_XSP16, literal(-7)))
          CFI (cfiCond99) R7 load(1, XDATA, add(CFA_XSP16, literal(-6)))
          CFI (cfiCond99) ?RET_LOW load(1, XDATA, add(CFA_XSP16, literal(-5)))
          CFI (cfiCond99) ?RET_HIGH load(1, XDATA, add(CFA_XSP16, literal(-4)))
          CFI (cfiCond99) ?BRET_EXT load(1, XDATA, add(CFA_XSP16, literal(-3)))
          CFI (cfiCond99) DPL0 load(1, XDATA, add(CFA_XSP16, literal(-2)))
          CFI (cfiCond99) DPH0 load(1, XDATA, add(CFA_XSP16, literal(-1)))
          CFI (cfiCond99) CFA_SP SP+-6
          CFI (cfiCond99) CFA_XSP16 add(XSP16, 24)
          CFI Block cfiCond100 Using cfiCommon0
          CFI (cfiCond100) Function zclHVAC_SendGetWeeklyScheduleRsp
          CFI (cfiCond100) Conditional ??CrossCallReturnLabel_90, ??CrossCallReturnLabel_74, ??CrossCallReturnLabel_1
          CFI (cfiCond100) R6 load(1, XDATA, add(CFA_XSP16, literal(-24)))
          CFI (cfiCond100) VB load(1, XDATA, add(CFA_XSP16, literal(-23)))
          CFI (cfiCond100) V0 load(1, XDATA, add(CFA_XSP16, literal(-22)))
          CFI (cfiCond100) V1 load(1, XDATA, add(CFA_XSP16, literal(-21)))
          CFI (cfiCond100) V2 load(1, XDATA, add(CFA_XSP16, literal(-20)))
          CFI (cfiCond100) V3 load(1, XDATA, add(CFA_XSP16, literal(-19)))
          CFI (cfiCond100) V4 load(1, XDATA, add(CFA_XSP16, literal(-18)))
          CFI (cfiCond100) V5 load(1, XDATA, add(CFA_XSP16, literal(-17)))
          CFI (cfiCond100) V6 load(1, XDATA, add(CFA_XSP16, literal(-16)))
          CFI (cfiCond100) V7 load(1, XDATA, add(CFA_XSP16, literal(-15)))
          CFI (cfiCond100) V8 load(1, XDATA, add(CFA_XSP16, literal(-14)))
          CFI (cfiCond100) V9 load(1, XDATA, add(CFA_XSP16, literal(-13)))
          CFI (cfiCond100) V10 load(1, XDATA, add(CFA_XSP16, literal(-12)))
          CFI (cfiCond100) V11 load(1, XDATA, add(CFA_XSP16, literal(-11)))
          CFI (cfiCond100) V12 load(1, XDATA, add(CFA_XSP16, literal(-10)))
          CFI (cfiCond100) V13 load(1, XDATA, add(CFA_XSP16, literal(-9)))
          CFI (cfiCond100) V14 load(1, XDATA, add(CFA_XSP16, literal(-8)))
          CFI (cfiCond100) V15 load(1, XDATA, add(CFA_XSP16, literal(-7)))
          CFI (cfiCond100) R7 load(1, XDATA, add(CFA_XSP16, literal(-6)))
          CFI (cfiCond100) ?RET_LOW load(1, XDATA, add(CFA_XSP16, literal(-5)))
          CFI (cfiCond100) ?RET_HIGH load(1, XDATA, add(CFA_XSP16, literal(-4)))
          CFI (cfiCond100) ?BRET_EXT load(1, XDATA, add(CFA_XSP16, literal(-3)))
          CFI (cfiCond100) DPL0 load(1, XDATA, add(CFA_XSP16, literal(-2)))
          CFI (cfiCond100) DPH0 load(1, XDATA, add(CFA_XSP16, literal(-1)))
          CFI (cfiCond100) CFA_SP SP+-6
          CFI (cfiCond100) CFA_XSP16 add(XSP16, 24)
          CFI Block cfiCond101 Using cfiCommon0
          CFI (cfiCond101) Function zclHVAC_SendSetWeeklySchedule
          CFI (cfiCond101) Conditional ??CrossCallReturnLabel_91, ??CrossCallReturnLabel_71, ??CrossCallReturnLabel_0
          CFI (cfiCond101) R6 load(1, XDATA, add(CFA_XSP16, literal(-24)))
          CFI (cfiCond101) VB load(1, XDATA, add(CFA_XSP16, literal(-23)))
          CFI (cfiCond101) V0 load(1, XDATA, add(CFA_XSP16, literal(-22)))
          CFI (cfiCond101) V1 load(1, XDATA, add(CFA_XSP16, literal(-21)))
          CFI (cfiCond101) V2 load(1, XDATA, add(CFA_XSP16, literal(-20)))
          CFI (cfiCond101) V3 load(1, XDATA, add(CFA_XSP16, literal(-19)))
          CFI (cfiCond101) V4 load(1, XDATA, add(CFA_XSP16, literal(-18)))
          CFI (cfiCond101) V5 load(1, XDATA, add(CFA_XSP16, literal(-17)))
          CFI (cfiCond101) V6 load(1, XDATA, add(CFA_XSP16, literal(-16)))
          CFI (cfiCond101) V7 load(1, XDATA, add(CFA_XSP16, literal(-15)))
          CFI (cfiCond101) V8 load(1, XDATA, add(CFA_XSP16, literal(-14)))
          CFI (cfiCond101) V9 load(1, XDATA, add(CFA_XSP16, literal(-13)))
          CFI (cfiCond101) V10 load(1, XDATA, add(CFA_XSP16, literal(-12)))
          CFI (cfiCond101) V11 load(1, XDATA, add(CFA_XSP16, literal(-11)))
          CFI (cfiCond101) V12 load(1, XDATA, add(CFA_XSP16, literal(-10)))
          CFI (cfiCond101) V13 load(1, XDATA, add(CFA_XSP16, literal(-9)))
          CFI (cfiCond101) V14 load(1, XDATA, add(CFA_XSP16, literal(-8)))
          CFI (cfiCond101) V15 load(1, XDATA, add(CFA_XSP16, literal(-7)))
          CFI (cfiCond101) R7 load(1, XDATA, add(CFA_XSP16, literal(-6)))
          CFI (cfiCond101) ?RET_LOW load(1, XDATA, add(CFA_XSP16, literal(-5)))
          CFI (cfiCond101) ?RET_HIGH load(1, XDATA, add(CFA_XSP16, literal(-4)))
          CFI (cfiCond101) ?BRET_EXT load(1, XDATA, add(CFA_XSP16, literal(-3)))
          CFI (cfiCond101) DPL0 load(1, XDATA, add(CFA_XSP16, literal(-2)))
          CFI (cfiCond101) DPH0 load(1, XDATA, add(CFA_XSP16, literal(-1)))
          CFI (cfiCond101) CFA_SP SP+-6
          CFI (cfiCond101) CFA_XSP16 add(XSP16, 24)
          CFI Block cfiCond102 Using cfiCommon0
          CFI (cfiCond102) Function zclHVAC_SendGetWeeklyScheduleRsp
          CFI (cfiCond102) Conditional ??CrossCallReturnLabel_91, ??CrossCallReturnLabel_71, ??CrossCallReturnLabel_1
          CFI (cfiCond102) R6 load(1, XDATA, add(CFA_XSP16, literal(-24)))
          CFI (cfiCond102) VB load(1, XDATA, add(CFA_XSP16, literal(-23)))
          CFI (cfiCond102) V0 load(1, XDATA, add(CFA_XSP16, literal(-22)))
          CFI (cfiCond102) V1 load(1, XDATA, add(CFA_XSP16, literal(-21)))
          CFI (cfiCond102) V2 load(1, XDATA, add(CFA_XSP16, literal(-20)))
          CFI (cfiCond102) V3 load(1, XDATA, add(CFA_XSP16, literal(-19)))
          CFI (cfiCond102) V4 load(1, XDATA, add(CFA_XSP16, literal(-18)))
          CFI (cfiCond102) V5 load(1, XDATA, add(CFA_XSP16, literal(-17)))
          CFI (cfiCond102) V6 load(1, XDATA, add(CFA_XSP16, literal(-16)))
          CFI (cfiCond102) V7 load(1, XDATA, add(CFA_XSP16, literal(-15)))
          CFI (cfiCond102) V8 load(1, XDATA, add(CFA_XSP16, literal(-14)))
          CFI (cfiCond102) V9 load(1, XDATA, add(CFA_XSP16, literal(-13)))
          CFI (cfiCond102) V10 load(1, XDATA, add(CFA_XSP16, literal(-12)))
          CFI (cfiCond102) V11 load(1, XDATA, add(CFA_XSP16, literal(-11)))
          CFI (cfiCond102) V12 load(1, XDATA, add(CFA_XSP16, literal(-10)))
          CFI (cfiCond102) V13 load(1, XDATA, add(CFA_XSP16, literal(-9)))
          CFI (cfiCond102) V14 load(1, XDATA, add(CFA_XSP16, literal(-8)))
          CFI (cfiCond102) V15 load(1, XDATA, add(CFA_XSP16, literal(-7)))
          CFI (cfiCond102) R7 load(1, XDATA, add(CFA_XSP16, literal(-6)))
          CFI (cfiCond102) ?RET_LOW load(1, XDATA, add(CFA_XSP16, literal(-5)))
          CFI (cfiCond102) ?RET_HIGH load(1, XDATA, add(CFA_XSP16, literal(-4)))
          CFI (cfiCond102) ?BRET_EXT load(1, XDATA, add(CFA_XSP16, literal(-3)))
          CFI (cfiCond102) DPL0 load(1, XDATA, add(CFA_XSP16, literal(-2)))
          CFI (cfiCond102) DPH0 load(1, XDATA, add(CFA_XSP16, literal(-1)))
          CFI (cfiCond102) CFA_SP SP+-6
          CFI (cfiCond102) CFA_XSP16 add(XSP16, 24)
          CFI Block cfiCond103 Using cfiCommon0
          CFI (cfiCond103) Function zclHVAC_SendSetWeeklySchedule
          CFI (cfiCond103) Conditional ??CrossCallReturnLabel_91, ??CrossCallReturnLabel_72, ??CrossCallReturnLabel_0
          CFI (cfiCond103) R6 load(1, XDATA, add(CFA_XSP16, literal(-24)))
          CFI (cfiCond103) VB load(1, XDATA, add(CFA_XSP16, literal(-23)))
          CFI (cfiCond103) V0 load(1, XDATA, add(CFA_XSP16, literal(-22)))
          CFI (cfiCond103) V1 load(1, XDATA, add(CFA_XSP16, literal(-21)))
          CFI (cfiCond103) V2 load(1, XDATA, add(CFA_XSP16, literal(-20)))
          CFI (cfiCond103) V3 load(1, XDATA, add(CFA_XSP16, literal(-19)))
          CFI (cfiCond103) V4 load(1, XDATA, add(CFA_XSP16, literal(-18)))
          CFI (cfiCond103) V5 load(1, XDATA, add(CFA_XSP16, literal(-17)))
          CFI (cfiCond103) V6 load(1, XDATA, add(CFA_XSP16, literal(-16)))
          CFI (cfiCond103) V7 load(1, XDATA, add(CFA_XSP16, literal(-15)))
          CFI (cfiCond103) V8 load(1, XDATA, add(CFA_XSP16, literal(-14)))
          CFI (cfiCond103) V9 load(1, XDATA, add(CFA_XSP16, literal(-13)))
          CFI (cfiCond103) V10 load(1, XDATA, add(CFA_XSP16, literal(-12)))
          CFI (cfiCond103) V11 load(1, XDATA, add(CFA_XSP16, literal(-11)))
          CFI (cfiCond103) V12 load(1, XDATA, add(CFA_XSP16, literal(-10)))
          CFI (cfiCond103) V13 load(1, XDATA, add(CFA_XSP16, literal(-9)))
          CFI (cfiCond103) V14 load(1, XDATA, add(CFA_XSP16, literal(-8)))
          CFI (cfiCond103) V15 load(1, XDATA, add(CFA_XSP16, literal(-7)))
          CFI (cfiCond103) R7 load(1, XDATA, add(CFA_XSP16, literal(-6)))
          CFI (cfiCond103) ?RET_LOW load(1, XDATA, add(CFA_XSP16, literal(-5)))
          CFI (cfiCond103) ?RET_HIGH load(1, XDATA, add(CFA_XSP16, literal(-4)))
          CFI (cfiCond103) ?BRET_EXT load(1, XDATA, add(CFA_XSP16, literal(-3)))
          CFI (cfiCond103) DPL0 load(1, XDATA, add(CFA_XSP16, literal(-2)))
          CFI (cfiCond103) DPH0 load(1, XDATA, add(CFA_XSP16, literal(-1)))
          CFI (cfiCond103) CFA_SP SP+-6
          CFI (cfiCond103) CFA_XSP16 add(XSP16, 24)
          CFI Block cfiCond104 Using cfiCommon0
          CFI (cfiCond104) Function zclHVAC_SendGetWeeklyScheduleRsp
          CFI (cfiCond104) Conditional ??CrossCallReturnLabel_91, ??CrossCallReturnLabel_72, ??CrossCallReturnLabel_1
          CFI (cfiCond104) R6 load(1, XDATA, add(CFA_XSP16, literal(-24)))
          CFI (cfiCond104) VB load(1, XDATA, add(CFA_XSP16, literal(-23)))
          CFI (cfiCond104) V0 load(1, XDATA, add(CFA_XSP16, literal(-22)))
          CFI (cfiCond104) V1 load(1, XDATA, add(CFA_XSP16, literal(-21)))
          CFI (cfiCond104) V2 load(1, XDATA, add(CFA_XSP16, literal(-20)))
          CFI (cfiCond104) V3 load(1, XDATA, add(CFA_XSP16, literal(-19)))
          CFI (cfiCond104) V4 load(1, XDATA, add(CFA_XSP16, literal(-18)))
          CFI (cfiCond104) V5 load(1, XDATA, add(CFA_XSP16, literal(-17)))
          CFI (cfiCond104) V6 load(1, XDATA, add(CFA_XSP16, literal(-16)))
          CFI (cfiCond104) V7 load(1, XDATA, add(CFA_XSP16, literal(-15)))
          CFI (cfiCond104) V8 load(1, XDATA, add(CFA_XSP16, literal(-14)))
          CFI (cfiCond104) V9 load(1, XDATA, add(CFA_XSP16, literal(-13)))
          CFI (cfiCond104) V10 load(1, XDATA, add(CFA_XSP16, literal(-12)))
          CFI (cfiCond104) V11 load(1, XDATA, add(CFA_XSP16, literal(-11)))
          CFI (cfiCond104) V12 load(1, XDATA, add(CFA_XSP16, literal(-10)))
          CFI (cfiCond104) V13 load(1, XDATA, add(CFA_XSP16, literal(-9)))
          CFI (cfiCond104) V14 load(1, XDATA, add(CFA_XSP16, literal(-8)))
          CFI (cfiCond104) V15 load(1, XDATA, add(CFA_XSP16, literal(-7)))
          CFI (cfiCond104) R7 load(1, XDATA, add(CFA_XSP16, literal(-6)))
          CFI (cfiCond104) ?RET_LOW load(1, XDATA, add(CFA_XSP16, literal(-5)))
          CFI (cfiCond104) ?RET_HIGH load(1, XDATA, add(CFA_XSP16, literal(-4)))
          CFI (cfiCond104) ?BRET_EXT load(1, XDATA, add(CFA_XSP16, literal(-3)))
          CFI (cfiCond104) DPL0 load(1, XDATA, add(CFA_XSP16, literal(-2)))
          CFI (cfiCond104) DPH0 load(1, XDATA, add(CFA_XSP16, literal(-1)))
          CFI (cfiCond104) CFA_SP SP+-6
          CFI (cfiCond104) CFA_XSP16 add(XSP16, 24)
          CFI Block cfiPicker105 Using cfiCommon1
          CFI (cfiPicker105) NoFunction
          CFI (cfiPicker105) Picker
        MOVX    A,@DPTR
        MOV     ?V4,A
        MOV     A,?V0
        ADD     A,R1
        MOV     DPL,A
        CLR     A
        ADDC    A,R3
        MOV     DPH,A
        MOV     A,?V4
        LCALL   ?Subroutine53 & 0xFFFF
??CrossCallReturnLabel_97:
        LCALL   ?Subroutine54 & 0xFFFF
??CrossCallReturnLabel_99:
        INC     DPTR
        INC     DPTR
        RET
          CFI EndBlock cfiCond97
          CFI EndBlock cfiCond98
          CFI EndBlock cfiCond99
          CFI EndBlock cfiCond100
          CFI EndBlock cfiCond101
          CFI EndBlock cfiCond102
          CFI EndBlock cfiCond103
          CFI EndBlock cfiCond104
          CFI EndBlock cfiPicker105

        RSEG BANKED_CODE:HUGECODE:NOROOT(0)
?Subroutine54:
          CFI Block cfiCond106 Using cfiCommon0
          CFI Function zclHVAC_SendSetWeeklySchedule
          CFI Conditional ??CrossCallReturnLabel_98, ??CrossCallReturnLabel_0
          CFI R6 load(1, XDATA, add(CFA_XSP16, literal(-24)))
          CFI VB load(1, XDATA, add(CFA_XSP16, literal(-23)))
          CFI V0 load(1, XDATA, add(CFA_XSP16, literal(-22)))
          CFI V1 load(1, XDATA, add(CFA_XSP16, literal(-21)))
          CFI V2 load(1, XDATA, add(CFA_XSP16, literal(-20)))
          CFI V3 load(1, XDATA, add(CFA_XSP16, literal(-19)))
          CFI V4 load(1, XDATA, add(CFA_XSP16, literal(-18)))
          CFI V5 load(1, XDATA, add(CFA_XSP16, literal(-17)))
          CFI V6 load(1, XDATA, add(CFA_XSP16, literal(-16)))
          CFI V7 load(1, XDATA, add(CFA_XSP16, literal(-15)))
          CFI V8 load(1, XDATA, add(CFA_XSP16, literal(-14)))
          CFI V9 load(1, XDATA, add(CFA_XSP16, literal(-13)))
          CFI V10 load(1, XDATA, add(CFA_XSP16, literal(-12)))
          CFI V11 load(1, XDATA, add(CFA_XSP16, literal(-11)))
          CFI V12 load(1, XDATA, add(CFA_XSP16, literal(-10)))
          CFI V13 load(1, XDATA, add(CFA_XSP16, literal(-9)))
          CFI V14 load(1, XDATA, add(CFA_XSP16, literal(-8)))
          CFI V15 load(1, XDATA, add(CFA_XSP16, literal(-7)))
          CFI R7 load(1, XDATA, add(CFA_XSP16, literal(-6)))
          CFI ?RET_LOW load(1, XDATA, add(CFA_XSP16, literal(-5)))
          CFI ?RET_HIGH load(1, XDATA, add(CFA_XSP16, literal(-4)))
          CFI ?BRET_EXT load(1, XDATA, add(CFA_XSP16, literal(-3)))
          CFI DPL0 load(1, XDATA, add(CFA_XSP16, literal(-2)))
          CFI DPH0 load(1, XDATA, add(CFA_XSP16, literal(-1)))
          CFI CFA_SP SP+-4
          CFI CFA_XSP16 add(XSP16, 24)
          CFI Block cfiCond107 Using cfiCommon0
          CFI (cfiCond107) Function zclHVAC_SendGetWeeklyScheduleRsp
          CFI (cfiCond107) Conditional ??CrossCallReturnLabel_98, ??CrossCallReturnLabel_1
          CFI (cfiCond107) R6 load(1, XDATA, add(CFA_XSP16, literal(-24)))
          CFI (cfiCond107) VB load(1, XDATA, add(CFA_XSP16, literal(-23)))
          CFI (cfiCond107) V0 load(1, XDATA, add(CFA_XSP16, literal(-22)))
          CFI (cfiCond107) V1 load(1, XDATA, add(CFA_XSP16, literal(-21)))
          CFI (cfiCond107) V2 load(1, XDATA, add(CFA_XSP16, literal(-20)))
          CFI (cfiCond107) V3 load(1, XDATA, add(CFA_XSP16, literal(-19)))
          CFI (cfiCond107) V4 load(1, XDATA, add(CFA_XSP16, literal(-18)))
          CFI (cfiCond107) V5 load(1, XDATA, add(CFA_XSP16, literal(-17)))
          CFI (cfiCond107) V6 load(1, XDATA, add(CFA_XSP16, literal(-16)))
          CFI (cfiCond107) V7 load(1, XDATA, add(CFA_XSP16, literal(-15)))
          CFI (cfiCond107) V8 load(1, XDATA, add(CFA_XSP16, literal(-14)))
          CFI (cfiCond107) V9 load(1, XDATA, add(CFA_XSP16, literal(-13)))
          CFI (cfiCond107) V10 load(1, XDATA, add(CFA_XSP16, literal(-12)))
          CFI (cfiCond107) V11 load(1, XDATA, add(CFA_XSP16, literal(-11)))
          CFI (cfiCond107) V12 load(1, XDATA, add(CFA_XSP16, literal(-10)))
          CFI (cfiCond107) V13 load(1, XDATA, add(CFA_XSP16, literal(-9)))
          CFI (cfiCond107) V14 load(1, XDATA, add(CFA_XSP16, literal(-8)))
          CFI (cfiCond107) V15 load(1, XDATA, add(CFA_XSP16, literal(-7)))
          CFI (cfiCond107) R7 load(1, XDATA, add(CFA_XSP16, literal(-6)))
          CFI (cfiCond107) ?RET_LOW load(1, XDATA, add(CFA_XSP16, literal(-5)))
          CFI (cfiCond107) ?RET_HIGH load(1, XDATA, add(CFA_XSP16, literal(-4)))
          CFI (cfiCond107) ?BRET_EXT load(1, XDATA, add(CFA_XSP16, literal(-3)))
          CFI (cfiCond107) DPL0 load(1, XDATA, add(CFA_XSP16, literal(-2)))
          CFI (cfiCond107) DPH0 load(1, XDATA, add(CFA_XSP16, literal(-1)))
          CFI (cfiCond107) CFA_SP SP+-4
          CFI (cfiCond107) CFA_XSP16 add(XSP16, 24)
          CFI Block cfiCond108 Using cfiCommon0
          CFI (cfiCond108) Function zclHVAC_SendSetWeeklySchedule
          CFI (cfiCond108) Conditional ??CrossCallReturnLabel_99, ??CrossCallReturnLabel_90, ??CrossCallReturnLabel_73, ??CrossCallReturnLabel_0
          CFI (cfiCond108) R6 load(1, XDATA, add(CFA_XSP16, literal(-24)))
          CFI (cfiCond108) VB load(1, XDATA, add(CFA_XSP16, literal(-23)))
          CFI (cfiCond108) V0 load(1, XDATA, add(CFA_XSP16, literal(-22)))
          CFI (cfiCond108) V1 load(1, XDATA, add(CFA_XSP16, literal(-21)))
          CFI (cfiCond108) V2 load(1, XDATA, add(CFA_XSP16, literal(-20)))
          CFI (cfiCond108) V3 load(1, XDATA, add(CFA_XSP16, literal(-19)))
          CFI (cfiCond108) V4 load(1, XDATA, add(CFA_XSP16, literal(-18)))
          CFI (cfiCond108) V5 load(1, XDATA, add(CFA_XSP16, literal(-17)))
          CFI (cfiCond108) V6 load(1, XDATA, add(CFA_XSP16, literal(-16)))
          CFI (cfiCond108) V7 load(1, XDATA, add(CFA_XSP16, literal(-15)))
          CFI (cfiCond108) V8 load(1, XDATA, add(CFA_XSP16, literal(-14)))
          CFI (cfiCond108) V9 load(1, XDATA, add(CFA_XSP16, literal(-13)))
          CFI (cfiCond108) V10 load(1, XDATA, add(CFA_XSP16, literal(-12)))
          CFI (cfiCond108) V11 load(1, XDATA, add(CFA_XSP16, literal(-11)))
          CFI (cfiCond108) V12 load(1, XDATA, add(CFA_XSP16, literal(-10)))
          CFI (cfiCond108) V13 load(1, XDATA, add(CFA_XSP16, literal(-9)))
          CFI (cfiCond108) V14 load(1, XDATA, add(CFA_XSP16, literal(-8)))
          CFI (cfiCond108) V15 load(1, XDATA, add(CFA_XSP16, literal(-7)))
          CFI (cfiCond108) R7 load(1, XDATA, add(CFA_XSP16, literal(-6)))
          CFI (cfiCond108) ?RET_LOW load(1, XDATA, add(CFA_XSP16, literal(-5)))
          CFI (cfiCond108) ?RET_HIGH load(1, XDATA, add(CFA_XSP16, literal(-4)))
          CFI (cfiCond108) ?BRET_EXT load(1, XDATA, add(CFA_XSP16, literal(-3)))
          CFI (cfiCond108) DPL0 load(1, XDATA, add(CFA_XSP16, literal(-2)))
          CFI (cfiCond108) DPH0 load(1, XDATA, add(CFA_XSP16, literal(-1)))
          CFI (cfiCond108) CFA_SP SP+-8
          CFI (cfiCond108) CFA_XSP16 add(XSP16, 24)
          CFI Block cfiCond109 Using cfiCommon0
          CFI (cfiCond109) Function zclHVAC_SendGetWeeklyScheduleRsp
          CFI (cfiCond109) Conditional ??CrossCallReturnLabel_99, ??CrossCallReturnLabel_90, ??CrossCallReturnLabel_73, ??CrossCallReturnLabel_1
          CFI (cfiCond109) R6 load(1, XDATA, add(CFA_XSP16, literal(-24)))
          CFI (cfiCond109) VB load(1, XDATA, add(CFA_XSP16, literal(-23)))
          CFI (cfiCond109) V0 load(1, XDATA, add(CFA_XSP16, literal(-22)))
          CFI (cfiCond109) V1 load(1, XDATA, add(CFA_XSP16, literal(-21)))
          CFI (cfiCond109) V2 load(1, XDATA, add(CFA_XSP16, literal(-20)))
          CFI (cfiCond109) V3 load(1, XDATA, add(CFA_XSP16, literal(-19)))
          CFI (cfiCond109) V4 load(1, XDATA, add(CFA_XSP16, literal(-18)))
          CFI (cfiCond109) V5 load(1, XDATA, add(CFA_XSP16, literal(-17)))
          CFI (cfiCond109) V6 load(1, XDATA, add(CFA_XSP16, literal(-16)))
          CFI (cfiCond109) V7 load(1, XDATA, add(CFA_XSP16, literal(-15)))
          CFI (cfiCond109) V8 load(1, XDATA, add(CFA_XSP16, literal(-14)))
          CFI (cfiCond109) V9 load(1, XDATA, add(CFA_XSP16, literal(-13)))
          CFI (cfiCond109) V10 load(1, XDATA, add(CFA_XSP16, literal(-12)))
          CFI (cfiCond109) V11 load(1, XDATA, add(CFA_XSP16, literal(-11)))
          CFI (cfiCond109) V12 load(1, XDATA, add(CFA_XSP16, literal(-10)))
          CFI (cfiCond109) V13 load(1, XDATA, add(CFA_XSP16, literal(-9)))
          CFI (cfiCond109) V14 load(1, XDATA, add(CFA_XSP16, literal(-8)))
          CFI (cfiCond109) V15 load(1, XDATA, add(CFA_XSP16, literal(-7)))
          CFI (cfiCond109) R7 load(1, XDATA, add(CFA_XSP16, literal(-6)))
          CFI (cfiCond109) ?RET_LOW load(1, XDATA, add(CFA_XSP16, literal(-5)))
          CFI (cfiCond109) ?RET_HIGH load(1, XDATA, add(CFA_XSP16, literal(-4)))
          CFI (cfiCond109) ?BRET_EXT load(1, XDATA, add(CFA_XSP16, literal(-3)))
          CFI (cfiCond109) DPL0 load(1, XDATA, add(CFA_XSP16, literal(-2)))
          CFI (cfiCond109) DPH0 load(1, XDATA, add(CFA_XSP16, literal(-1)))
          CFI (cfiCond109) CFA_SP SP+-8
          CFI (cfiCond109) CFA_XSP16 add(XSP16, 24)
          CFI Block cfiCond110 Using cfiCommon0
          CFI (cfiCond110) Function zclHVAC_SendSetWeeklySchedule
          CFI (cfiCond110) Conditional ??CrossCallReturnLabel_99, ??CrossCallReturnLabel_90, ??CrossCallReturnLabel_74, ??CrossCallReturnLabel_0
          CFI (cfiCond110) R6 load(1, XDATA, add(CFA_XSP16, literal(-24)))
          CFI (cfiCond110) VB load(1, XDATA, add(CFA_XSP16, literal(-23)))
          CFI (cfiCond110) V0 load(1, XDATA, add(CFA_XSP16, literal(-22)))
          CFI (cfiCond110) V1 load(1, XDATA, add(CFA_XSP16, literal(-21)))
          CFI (cfiCond110) V2 load(1, XDATA, add(CFA_XSP16, literal(-20)))
          CFI (cfiCond110) V3 load(1, XDATA, add(CFA_XSP16, literal(-19)))
          CFI (cfiCond110) V4 load(1, XDATA, add(CFA_XSP16, literal(-18)))
          CFI (cfiCond110) V5 load(1, XDATA, add(CFA_XSP16, literal(-17)))
          CFI (cfiCond110) V6 load(1, XDATA, add(CFA_XSP16, literal(-16)))
          CFI (cfiCond110) V7 load(1, XDATA, add(CFA_XSP16, literal(-15)))
          CFI (cfiCond110) V8 load(1, XDATA, add(CFA_XSP16, literal(-14)))
          CFI (cfiCond110) V9 load(1, XDATA, add(CFA_XSP16, literal(-13)))
          CFI (cfiCond110) V10 load(1, XDATA, add(CFA_XSP16, literal(-12)))
          CFI (cfiCond110) V11 load(1, XDATA, add(CFA_XSP16, literal(-11)))
          CFI (cfiCond110) V12 load(1, XDATA, add(CFA_XSP16, literal(-10)))
          CFI (cfiCond110) V13 load(1, XDATA, add(CFA_XSP16, literal(-9)))
          CFI (cfiCond110) V14 load(1, XDATA, add(CFA_XSP16, literal(-8)))
          CFI (cfiCond110) V15 load(1, XDATA, add(CFA_XSP16, literal(-7)))
          CFI (cfiCond110) R7 load(1, XDATA, add(CFA_XSP16, literal(-6)))
          CFI (cfiCond110) ?RET_LOW load(1, XDATA, add(CFA_XSP16, literal(-5)))
          CFI (cfiCond110) ?RET_HIGH load(1, XDATA, add(CFA_XSP16, literal(-4)))
          CFI (cfiCond110) ?BRET_EXT load(1, XDATA, add(CFA_XSP16, literal(-3)))
          CFI (cfiCond110) DPL0 load(1, XDATA, add(CFA_XSP16, literal(-2)))
          CFI (cfiCond110) DPH0 load(1, XDATA, add(CFA_XSP16, literal(-1)))
          CFI (cfiCond110) CFA_SP SP+-8
          CFI (cfiCond110) CFA_XSP16 add(XSP16, 24)
          CFI Block cfiCond111 Using cfiCommon0
          CFI (cfiCond111) Function zclHVAC_SendGetWeeklyScheduleRsp
          CFI (cfiCond111) Conditional ??CrossCallReturnLabel_99, ??CrossCallReturnLabel_90, ??CrossCallReturnLabel_74, ??CrossCallReturnLabel_1
          CFI (cfiCond111) R6 load(1, XDATA, add(CFA_XSP16, literal(-24)))
          CFI (cfiCond111) VB load(1, XDATA, add(CFA_XSP16, literal(-23)))
          CFI (cfiCond111) V0 load(1, XDATA, add(CFA_XSP16, literal(-22)))
          CFI (cfiCond111) V1 load(1, XDATA, add(CFA_XSP16, literal(-21)))
          CFI (cfiCond111) V2 load(1, XDATA, add(CFA_XSP16, literal(-20)))
