///////////////////////////////////////////////////////////////////////////////
//
// IAR C/C++ Compiler V9.30.1.3056 for 8051               01/Dec/2016  15:07:18
// Copyright 2004-2015 IAR Systems AB.
// Standalone license - IAR Embedded Workbench for 8051
//
//    Core               =  plain
//    Code model         =  banked
//    Data model         =  large
//    Calling convention =  xdata reentrant
//    Constant location  =  data_rom
//    Dptr setup         =  1,16
//                          
//    Source file        =  
//        D:\_GIT_COMBROS\[COMBROS] Z-Stack Home
//        1.2.2a.44539\Projects\zstack\HomeAutomation\SampleHeatingCoolingUnit\Source\zcl_sampleheatingcoolingunit.c
//    Command line       =  
//        -f "D:\_GIT_COMBROS\[COMBROS] Z-Stack Home
//        1.2.2a.44539\Projects\zstack\HomeAutomation\SampleHeatingCoolingUnit\CC2530DB\..\..\..\Tools\CC2530DB\f8wEndev.cfg"
//        (-DCPU32MHZ -DROOT=__near_func -DMAC_CFG_TX_DATA_MAX=3
//        -DMAC_CFG_TX_MAX=6 -DMAC_CFG_RX_MAX=3) -f "D:\_GIT_COMBROS\[COMBROS]
//        Z-Stack Home
//        1.2.2a.44539\Projects\zstack\HomeAutomation\SampleHeatingCoolingUnit\CC2530DB\..\..\..\Tools\CC2530DB\f8wConfig.cfg"
//        (-DZIGBEEPRO -DSECURE=1 -DZG_SECURE_DYNAMIC=0 -DREFLECTOR
//        -DDEFAULT_CHANLIST=0x00000800 -DZDAPP_CONFIG_PAN_ID=0xFAFA
//        -DNWK_START_DELAY=100 -DEXTENDED_JOINING_RANDOM_MASK=0x007F
//        -DBEACON_REQUEST_DELAY=100 -DBEACON_REQ_DELAY_MASK=0x00FF
//        -DLINK_STATUS_JITTER_MASK=0x007F -DROUTE_EXPIRY_TIME=30
//        -DAPSC_ACK_WAIT_DURATION_POLLED=3000 -DNWK_INDIRECT_MSG_TIMEOUT=7
//        -DMAX_RREQ_ENTRIES=8 -DAPSC_MAX_FRAME_RETRIES=3
//        -DNWK_MAX_DATA_RETRIES=2 -DMAX_POLL_FAILURE_RETRIES=2 -DMAX_BCAST=9
//        -DAPS_MAX_GROUPS=16 -DMAX_RTG_ENTRIES=40 -DNWK_MAX_BINDING_ENTRIES=4
//        -DMAX_BINDING_CLUSTER_IDS=4 "-DDEFAULT_KEY={0x01, 0x03, 0x05, 0x07,
//        0x09, 0x0B, 0x0D, 0x0F, 0x00, 0x02, 0x04, 0x06, 0x08, 0x0A, 0x0C,
//        0x0D}" -DMAC_MAX_FRAME_SIZE=116 -DZDNWKMGR_MIN_TRANSMISSIONS=20
//        "-DCONST=const __code" -DGENERIC=__generic -DRFD_RCVC_ALWAYS_ON=FALSE
//        -DPOLL_RATE=1000 -DQUEUED_POLL_RATE=100 -DRESPONSE_POLL_RATE=100
//        -DREJOIN_POLL_RATE=440 -DREJOIN_BACKOFF=900000 -DREJOIN_SCAN=900000)
//        -f "D:\_GIT_COMBROS\[COMBROS] Z-Stack Home
//        1.2.2a.44539\Projects\zstack\HomeAutomation\SampleHeatingCoolingUnit\CC2530DB\..\..\..\Tools\CC2530DB\f8wZCL.cfg"
//        "D:\_GIT_COMBROS\[COMBROS] Z-Stack Home
//        1.2.2a.44539\Projects\zstack\HomeAutomation\SampleHeatingCoolingUnit\Source\zcl_sampleheatingcoolingunit.c"
//        -D END_DEVICE_ENGINE -D SECURE=1 -D TC_LINKKEY_JOIN -D NV_INIT -D
//        NV_RESTORE -D xPOWER_SAVING -D NWK_AUTO_POLL -D xHOLD_AUTO_START -D
//        ZTOOL_P1 -D MT_TASK -D MT_APP_FUNC -D MT_SYS_FUNC -D MT_ZDO_FUNC -D
//        LCD_SUPPORTED=DEBUG -D MULTICAST_ENABLED=FALSE -D ZCL_READ -D
//        ZCL_WRITE -D ZCL_REPORT -D ZCL_EZMODE -D ZCL_BASIC -D ZCL_IDENTIFY -D
//        ZCL_ON_OFF -D ZCL_HVAC_CLUSTER -D xHAL_UART=TRUE -D xHAL_UART_DMA=1
//        -lC "D:\_GIT_COMBROS\[COMBROS] Z-Stack Home
//        1.2.2a.44539\Projects\zstack\HomeAutomation\SampleHeatingCoolingUnit\CC2530DB\EndDeviceEB\List"
//        -lA "D:\_GIT_COMBROS\[COMBROS] Z-Stack Home
//        1.2.2a.44539\Projects\zstack\HomeAutomation\SampleHeatingCoolingUnit\CC2530DB\EndDeviceEB\List"
//        --diag_suppress Pe001,Pa010 -o "D:\_GIT_COMBROS\[COMBROS] Z-Stack
//        Home
//        1.2.2a.44539\Projects\zstack\HomeAutomation\SampleHeatingCoolingUnit\CC2530DB\EndDeviceEB\Obj"
//        -e --debug --core=plain --dptr=16,1 --data_model=large
//        --code_model=banked --calling_convention=xdata_reentrant
//        --place_constants=data_rom --nr_virtual_regs 16 -I
//        "D:\_GIT_COMBROS\[COMBROS] Z-Stack Home
//        1.2.2a.44539\Projects\zstack\HomeAutomation\SampleHeatingCoolingUnit\CC2530DB\"
//        -I "D:\_GIT_COMBROS\[COMBROS] Z-Stack Home
//        1.2.2a.44539\Projects\zstack\HomeAutomation\SampleHeatingCoolingUnit\CC2530DB\..\Source\"
//        -I "D:\_GIT_COMBROS\[COMBROS] Z-Stack Home
//        1.2.2a.44539\Projects\zstack\HomeAutomation\SampleHeatingCoolingUnit\CC2530DB\..\..\Source\"
//        -I "D:\_GIT_COMBROS\[COMBROS] Z-Stack Home
//        1.2.2a.44539\Projects\zstack\HomeAutomation\SampleHeatingCoolingUnit\CC2530DB\..\..\..\HomeAutomation\MY-SOURCE\"
//        -I "D:\_GIT_COMBROS\[COMBROS] Z-Stack Home
//        1.2.2a.44539\Projects\zstack\HomeAutomation\SampleHeatingCoolingUnit\CC2530DB\..\..\..\ZMain\TI2530DB\"
//        -I "D:\_GIT_COMBROS\[COMBROS] Z-Stack Home
//        1.2.2a.44539\Projects\zstack\HomeAutomation\SampleHeatingCoolingUnit\CC2530DB\..\..\..\..\..\Components\hal\include\"
//        -I "D:\_GIT_COMBROS\[COMBROS] Z-Stack Home
//        1.2.2a.44539\Projects\zstack\HomeAutomation\SampleHeatingCoolingUnit\CC2530DB\..\..\..\..\..\Components\hal\target\CC2530EB\"
//        -I "D:\_GIT_COMBROS\[COMBROS] Z-Stack Home
//        1.2.2a.44539\Projects\zstack\HomeAutomation\SampleHeatingCoolingUnit\CC2530DB\..\..\..\..\..\Components\mac\include\"
//        -I "D:\_GIT_COMBROS\[COMBROS] Z-Stack Home
//        1.2.2a.44539\Projects\zstack\HomeAutomation\SampleHeatingCoolingUnit\CC2530DB\..\..\..\..\..\Components\mac\high_level\"
//        -I "D:\_GIT_COMBROS\[COMBROS] Z-Stack Home
//        1.2.2a.44539\Projects\zstack\HomeAutomation\SampleHeatingCoolingUnit\CC2530DB\..\..\..\..\..\Components\mac\low_level\srf04\"
//        -I "D:\_GIT_COMBROS\[COMBROS] Z-Stack Home
//        1.2.2a.44539\Projects\zstack\HomeAutomation\SampleHeatingCoolingUnit\CC2530DB\..\..\..\..\..\Components\mac\low_level\srf04\single_chip\"
//        -I "D:\_GIT_COMBROS\[COMBROS] Z-Stack Home
//        1.2.2a.44539\Projects\zstack\HomeAutomation\SampleHeatingCoolingUnit\CC2530DB\..\..\..\..\..\Components\mt\"
//        -I "D:\_GIT_COMBROS\[COMBROS] Z-Stack Home
//        1.2.2a.44539\Projects\zstack\HomeAutomation\SampleHeatingCoolingUnit\CC2530DB\..\..\..\..\..\Components\osal\include\"
//        -I "D:\_GIT_COMBROS\[COMBROS] Z-Stack Home
//        1.2.2a.44539\Projects\zstack\HomeAutomation\SampleHeatingCoolingUnit\CC2530DB\..\..\..\..\..\Components\services\saddr\"
//        -I "D:\_GIT_COMBROS\[COMBROS] Z-Stack Home
//        1.2.2a.44539\Projects\zstack\HomeAutomation\SampleHeatingCoolingUnit\CC2530DB\..\..\..\..\..\Components\services\sdata\"
//        -I "D:\_GIT_COMBROS\[COMBROS] Z-Stack Home
//        1.2.2a.44539\Projects\zstack\HomeAutomation\SampleHeatingCoolingUnit\CC2530DB\..\..\..\..\..\Components\stack\af\"
//        -I "D:\_GIT_COMBROS\[COMBROS] Z-Stack Home
//        1.2.2a.44539\Projects\zstack\HomeAutomation\SampleHeatingCoolingUnit\CC2530DB\..\..\..\..\..\Components\stack\nwk\"
//        -I "D:\_GIT_COMBROS\[COMBROS] Z-Stack Home
//        1.2.2a.44539\Projects\zstack\HomeAutomation\SampleHeatingCoolingUnit\CC2530DB\..\..\..\..\..\Components\stack\sapi\"
//        -I "D:\_GIT_COMBROS\[COMBROS] Z-Stack Home
//        1.2.2a.44539\Projects\zstack\HomeAutomation\SampleHeatingCoolingUnit\CC2530DB\..\..\..\..\..\Components\stack\sec\"
//        -I "D:\_GIT_COMBROS\[COMBROS] Z-Stack Home
//        1.2.2a.44539\Projects\zstack\HomeAutomation\SampleHeatingCoolingUnit\CC2530DB\..\..\..\..\..\Components\stack\sys\"
//        -I "D:\_GIT_COMBROS\[COMBROS] Z-Stack Home
//        1.2.2a.44539\Projects\zstack\HomeAutomation\SampleHeatingCoolingUnit\CC2530DB\..\..\..\..\..\Components\stack\zcl\"
//        -I "D:\_GIT_COMBROS\[COMBROS] Z-Stack Home
//        1.2.2a.44539\Projects\zstack\HomeAutomation\SampleHeatingCoolingUnit\CC2530DB\..\..\..\..\..\Components\stack\zdo\"
//        -I "D:\_GIT_COMBROS\[COMBROS] Z-Stack Home
//        1.2.2a.44539\Projects\zstack\HomeAutomation\SampleHeatingCoolingUnit\CC2530DB\..\..\..\..\..\Components\zmac\"
//        -I "D:\_GIT_COMBROS\[COMBROS] Z-Stack Home
//        1.2.2a.44539\Projects\zstack\HomeAutomation\SampleHeatingCoolingUnit\CC2530DB\..\..\..\..\..\Components\zmac\f8w\"
//        -Ohz --require_prototypes
//    List file          =  
//        D:\_GIT_COMBROS\[COMBROS] Z-Stack Home
//        1.2.2a.44539\Projects\zstack\HomeAutomation\SampleHeatingCoolingUnit\CC2530DB\EndDeviceEB\List\zcl_sampleheatingcoolingunit.s51
//
///////////////////////////////////////////////////////////////////////////////

        NAME zcl_sampleheatingcoolingunit

        RTMODEL "__SystemLibrary", "CLib"
        RTMODEL "__calling_convention", "xdata_reentrant"
        RTMODEL "__code_model", "banked"
        RTMODEL "__core", "plain"
        RTMODEL "__data_model", "large"
        RTMODEL "__dptr_size", "16"
        RTMODEL "__extended_stack", "disabled"
        RTMODEL "__location_for_constants", "data"
        RTMODEL "__number_of_dptrs", "1"
        RTMODEL "__rt_version", "1"

        RSEG DOVERLAY:DATA:NOROOT(0)
        RSEG IOVERLAY:IDATA:NOROOT(0)
        RSEG ISTACK:IDATA:NOROOT(0)
        RSEG PSTACK:XDATA:NOROOT(0)
        RSEG XSTACK:XDATA:NOROOT(0)

        EXTERN ?V0
        EXTERN ?V1
        EXTERN ?V2
        EXTERN ?V3
        EXTERN ?V4
        EXTERN ?V5
        EXTERN ?V6
        EXTERN ?V7
        EXTERN ?V8
        EXTERN ?V9
        EXTERN ?ALLOC_XSTACK8
        EXTERN ?BANKED_ENTER_XDATA
        EXTERN ?BANKED_LEAVE_XDATA
        EXTERN ?BDISPATCH
        EXTERN ?BRET
        EXTERN ?DEALLOC_XSTACK8
        EXTERN ?PUSH_XSTACK8_X_FOUR
        EXTERN ?PUSH_XSTACK_I_ONE
        EXTERN ?PUSH_XSTACK_I_TWO
        EXTERN ?XSP
        EXTERN ?XSTACK_DISP0_8
        EXTERN ?XSTACK_DISP101_8
        EXTERN ?XSTACK_DISP102_8
        EXTERN __INIT_XDATA_I
        EXTERN __INIT_XDATA_Z

        FUNCTION `??zclSampleHeatingCoolingUnit_BasicResetCB::?re`,0203H
        PUBLIC `??zclSampleHeatingCoolingUnit_BindingProcess::?`
        FUNCTION `??zclSampleHeatingCoolingUnit_BindingProcess::?`,0203H
        FUNCTION `??zclSampleHeatingCoolingUnit_EZModeCB::?relay`,0203H
        FUNCTION `??zclSampleHeatingCoolingUnit_HandleKeys::?rela`,0203H
        FUNCTION `??zclSampleHeatingCoolingUnit_IdentifyCB::?rela`,0203H
        FUNCTION ??zclSampleHeatingCoolingUnit_IdentifyQueryRspC,0203H
        PUBLIC `??zclSampleHeatingCoolingUnit_Init::?relay`
        FUNCTION `??zclSampleHeatingCoolingUnit_Init::?relay`,0203H
        PUBLIC ??zclSampleHeatingCoolingUnit_LcdDisplayHelpMod
        FUNCTION ??zclSampleHeatingCoolingUnit_LcdDisplayHelpMod,0203H
        PUBLIC ??zclSampleHeatingCoolingUnit_LcdDisplayMainMod
        FUNCTION ??zclSampleHeatingCoolingUnit_LcdDisplayMainMod,0203H
        PUBLIC `??zclSampleHeatingCoolingUnit_LcdDisplayUpdate:`
        FUNCTION `??zclSampleHeatingCoolingUnit_LcdDisplayUpdate:`,0203H
        FUNCTION `??zclSampleHeatingCoolingUnit_OnOffCB::?relay`,0203H
        FUNCTION ??zclSampleHeatingCoolingUnit_ProcessIdentifyTi,0203H
        FUNCTION ??zclSampleHeatingCoolingUnit_ProcessInReportCm,0203H
        PUBLIC `??zclSampleHeatingCoolingUnit_event_loop::?rela`
        FUNCTION `??zclSampleHeatingCoolingUnit_event_loop::?rela`,0203H
        PUBWEAK __Constant_1388
        PUBWEAK __Constant_2710
        PUBWEAK __Constant_3e8
        PUBWEAK __Constant_a
        PUBWEAK __Constant_bb8
        PUBLIC giHeatingCoolingUnitScreenMode
        PUBLIC sClearLine
        PUBLIC sCoolMode
        PUBLIC sDeviceName
        PUBLIC sHeatMode
        PUBLIC sOffMode
        PUBLIC sSwEZMode
        PUBLIC sSwHelp
        PUBLIC zclSampleHeatingCoolingUnitSeqNum
        FUNCTION zclSampleHeatingCoolingUnit_BasicResetCB,021603H
        ARGFRAME XSTACK, 29, STACK
        ARGFRAME IOVERLAY, 0, STATIC
        ARGFRAME DOVERLAY, 0, STATIC
        LOCFRAME ISTACK, 2, STACK
        PUBLIC zclSampleHeatingCoolingUnit_BindingProcess
        FUNCTION zclSampleHeatingCoolingUnit_BindingProcess,021203H
        ARGFRAME XSTACK, 16, STACK
        ARGFRAME IOVERLAY, 0, STATIC
        ARGFRAME DOVERLAY, 0, STATIC
        LOCFRAME ISTACK, 2, STACK
        LOCFRAME XSTACK, 9, STACK
        PUBLIC zclSampleHeatingCoolingUnit_DstAddr
        FUNCTION zclSampleHeatingCoolingUnit_EZModeCB,0a1603H
        ARGFRAME XSTACK, 0, STACK
        LOCFRAME XSTACK, 15, STACK
        FUNCTION zclSampleHeatingCoolingUnit_HandleKeys,0a1203H
        ARGFRAME XSTACK, 16, STACK
        ARGFRAME IOVERLAY, 0, STATIC
        ARGFRAME DOVERLAY, 0, STATIC
        LOCFRAME XSTACK, 29, STACK
        FUNCTION zclSampleHeatingCoolingUnit_IdentifyCB,021603H
        ARGFRAME XSTACK, 0, STACK
        LOCFRAME ISTACK, 2, STACK
        FUNCTION zclSampleHeatingCoolingUnit_IdentifyQueryRspCB,021603H
        ARGFRAME XSTACK, 0, STACK
        LOCFRAME ISTACK, 2, STACK
        LOCFRAME XSTACK, 2, STACK
        PUBLIC zclSampleHeatingCoolingUnit_Init
        FUNCTION zclSampleHeatingCoolingUnit_Init,0a1203H
        ARGFRAME XSTACK, 0, STACK
        LOCFRAME XSTACK, 14, STACK
        PUBLIC zclSampleHeatingCoolingUnit_LcdDisplayHelpMode
        FUNCTION zclSampleHeatingCoolingUnit_LcdDisplayHelpMode,021203H
        ARGFRAME XSTACK, 0, STACK
        ARGFRAME IOVERLAY, 0, STATIC
        ARGFRAME DOVERLAY, 0, STATIC
        LOCFRAME ISTACK, 2, STACK
        PUBLIC zclSampleHeatingCoolingUnit_LcdDisplayMainMode
        FUNCTION zclSampleHeatingCoolingUnit_LcdDisplayMainMode,021203H
        ARGFRAME XSTACK, 16, STACK
        ARGFRAME IOVERLAY, 0, STATIC
        ARGFRAME DOVERLAY, 0, STATIC
        LOCFRAME ISTACK, 2, STACK
        PUBLIC zclSampleHeatingCoolingUnit_LcdDisplayUpdate
        FUNCTION zclSampleHeatingCoolingUnit_LcdDisplayUpdate,021203H
        ARGFRAME XSTACK, 40, STACK
        ARGFRAME IOVERLAY, 0, STATIC
        ARGFRAME DOVERLAY, 0, STATIC
        LOCFRAME ISTACK, 2, STACK
        PUBLIC zclSampleHeatingCoolingUnit_NwkState
        FUNCTION zclSampleHeatingCoolingUnit_OnOffCB,021603H
        ARGFRAME XSTACK, 0, STACK
        LOCFRAME XSTACK, 9, STACK
        FUNCTION zclSampleHeatingCoolingUnit_ProcessIdentifyTimeChange,021203H
        ARGFRAME XSTACK, 16, STACK
        ARGFRAME IOVERLAY, 0, STATIC
        ARGFRAME DOVERLAY, 0, STATIC
        LOCFRAME ISTACK, 2, STACK
        LOCFRAME XSTACK, 4, STACK
        FUNCTION zclSampleHeatingCoolingUnit_ProcessInReportCmd,0a1203H
        ARGFRAME XSTACK, 16, STACK
        ARGFRAME IOVERLAY, 0, STATIC
        ARGFRAME DOVERLAY, 0, STATIC
        LOCFRAME ISTACK, 1, STACK
        LOCFRAME XSTACK, 45, STACK
        PUBLIC zclSampleHeatingCoolingUnit_TaskID
        PUBLIC zclSampleHeatingCoolingUnit_event_loop
        FUNCTION zclSampleHeatingCoolingUnit_event_loop,0a1203H
        ARGFRAME XSTACK, 0, STACK
        LOCFRAME XSTACK, 20, STACK
        
          CFI Names cfiNames0
          CFI StackFrame CFA_SP SP IDATA
          CFI StackFrame CFA_PSP16 PSP16 XDATA
          CFI StackFrame CFA_XSP16 XSP16 XDATA
          CFI StaticOverlayFrame CFA_IOVERLAY IOVERLAY
          CFI StaticOverlayFrame CFA_DOVERLAY DOVERLAY
          CFI Resource `PSW.CY`:1, `B.BR0`:1, `B.BR1`:1, `B.BR2`:1, `B.BR3`:1
          CFI Resource `B.BR4`:1, `B.BR5`:1, `B.BR6`:1, `B.BR7`:1, `VB.BR8`:1
          CFI Resource `VB.BR9`:1, `VB.BR10`:1, `VB.BR11`:1, `VB.BR12`:1
          CFI Resource `VB.BR13`:1, `VB.BR14`:1, `VB.BR15`:1, VB:8, B:8, A:8
          CFI Resource PSW:8, DPL0:8, DPH0:8, R0:8, R1:8, R2:8, R3:8, R4:8, R5:8
          CFI Resource R6:8, R7:8, V0:8, V1:8, V2:8, V3:8, V4:8, V5:8, V6:8, V7:8
          CFI Resource V8:8, V9:8, V10:8, V11:8, V12:8, V13:8, V14:8, V15:8, SP:8
          CFI Resource PSPH:8, PSPL:8, PSP16:16, XSPH:8, XSPL:8, XSP16:16
          CFI VirtualResource ?RET:24
          CFI Resource ?BRET_EXT:8
          CFI VirtualResource ?RET_HIGH:8, ?RET_LOW:8
          CFI ResourceParts PSP16 PSPH, PSPL
          CFI ResourceParts XSP16 XSPH, XSPL
          CFI ResourceParts ?RET ?BRET_EXT, ?RET_HIGH, ?RET_LOW
          CFI EndNames cfiNames0
        
          CFI Common cfiCommon0 Using cfiNames0
          CFI CodeAlign 1
          CFI DataAlign -1
          CFI ReturnAddress ?RET CODE
          CFI CFA_DOVERLAY Used
          CFI CFA_IOVERLAY Used
          CFI CFA_SP SP+-3
          CFI CFA_PSP16 PSP16+0
          CFI CFA_XSP16 XSP16+0
          CFI `PSW.CY` SameValue
          CFI `B.BR0` SameValue
          CFI `B.BR1` SameValue
          CFI `B.BR2` SameValue
          CFI `B.BR3` SameValue
          CFI `B.BR4` SameValue
          CFI `B.BR5` SameValue
          CFI `B.BR6` SameValue
          CFI `B.BR7` SameValue
          CFI `VB.BR8` SameValue
          CFI `VB.BR9` SameValue
          CFI `VB.BR10` SameValue
          CFI `VB.BR11` SameValue
          CFI `VB.BR12` SameValue
          CFI `VB.BR13` SameValue
          CFI `VB.BR14` SameValue
          CFI `VB.BR15` SameValue
          CFI VB SameValue
          CFI B Undefined
          CFI A Undefined
          CFI PSW SameValue
          CFI DPL0 SameValue
          CFI DPH0 SameValue
          CFI R0 Undefined
          CFI R1 Undefined
          CFI R2 Undefined
          CFI R3 Undefined
          CFI R4 Undefined
          CFI R5 Undefined
          CFI R6 SameValue
          CFI R7 SameValue
          CFI V0 SameValue
          CFI V1 SameValue
          CFI V2 SameValue
          CFI V3 SameValue
          CFI V4 SameValue
          CFI V5 SameValue
          CFI V6 SameValue
          CFI V7 SameValue
          CFI V8 SameValue
          CFI V9 SameValue
          CFI V10 SameValue
          CFI V11 SameValue
          CFI V12 SameValue
          CFI V13 SameValue
          CFI V14 SameValue
          CFI V15 SameValue
          CFI PSPH Undefined
          CFI PSPL Undefined
          CFI XSPH Undefined
          CFI XSPL Undefined
          CFI ?RET Concat
          CFI ?BRET_EXT Frame(CFA_SP, 3)
          CFI ?RET_HIGH Frame(CFA_SP, 2)
          CFI ?RET_LOW Frame(CFA_SP, 1)
          CFI EndCommon cfiCommon0
        
        
          CFI Common cfiCommon1 Using cfiNames0
          CFI CodeAlign 1
          CFI DataAlign -1
          CFI ReturnAddress ?RET CODE
          CFI CFA_DOVERLAY Used
          CFI CFA_IOVERLAY Used
          CFI CFA_SP SP+-2
          CFI CFA_PSP16 PSP16+0
          CFI CFA_XSP16 XSP16+0
          CFI `PSW.CY` SameValue
          CFI `B.BR0` SameValue
          CFI `B.BR1` SameValue
          CFI `B.BR2` SameValue
          CFI `B.BR3` SameValue
          CFI `B.BR4` SameValue
          CFI `B.BR5` SameValue
          CFI `B.BR6` SameValue
          CFI `B.BR7` SameValue
          CFI `VB.BR8` SameValue
          CFI `VB.BR9` SameValue
          CFI `VB.BR10` SameValue
          CFI `VB.BR11` SameValue
          CFI `VB.BR12` SameValue
          CFI `VB.BR13` SameValue
          CFI `VB.BR14` SameValue
          CFI `VB.BR15` SameValue
          CFI VB SameValue
          CFI B SameValue
          CFI A SameValue
          CFI PSW SameValue
          CFI DPL0 SameValue
          CFI DPH0 SameValue
          CFI R0 SameValue
          CFI R1 SameValue
          CFI R2 SameValue
          CFI R3 SameValue
          CFI R4 SameValue
          CFI R5 SameValue
          CFI R6 SameValue
          CFI R7 SameValue
          CFI V0 SameValue
          CFI V1 SameValue
          CFI V2 SameValue
          CFI V3 SameValue
          CFI V4 SameValue
          CFI V5 SameValue
          CFI V6 SameValue
          CFI V7 SameValue
          CFI V8 SameValue
          CFI V9 SameValue
          CFI V10 SameValue
          CFI V11 SameValue
          CFI V12 SameValue
          CFI V13 SameValue
          CFI V14 SameValue
          CFI V15 SameValue
          CFI PSPH Undefined
          CFI PSPL Undefined
          CFI XSPH Undefined
          CFI XSPL Undefined
          CFI ?RET Concat
          CFI ?BRET_EXT SameValue
          CFI ?RET_HIGH Frame(CFA_SP, 2)
          CFI ?RET_LOW Frame(CFA_SP, 1)
          CFI EndCommon cfiCommon1
        
GetBindingTableEntry SYMBOL "GetBindingTableEntry"
`??GetBindingTableEntry::?relay` SYMBOL "?relay", GetBindingTableEntry
HalLcdWriteString   SYMBOL "HalLcdWriteString"
`??HalLcdWriteString::?relay` SYMBOL "?relay", HalLcdWriteString
HalLedBlink         SYMBOL "HalLedBlink"
`??HalLedBlink::?relay` SYMBOL "?relay", HalLedBlink
HalLedSet           SYMBOL "HalLedSet"
`??HalLedSet::?relay` SYMBOL "?relay", HalLedSet
MT_SysCommandProcessing SYMBOL "MT_SysCommandProcessing"
`??MT_SysCommandProcessing::?relay` SYMBOL "?relay", MT_SysCommandProcessing
NLME_GetCoordShortAddr SYMBOL "NLME_GetCoordShortAddr"
`??NLME_GetCoordShortAddr::?relay` SYMBOL "?relay", NLME_GetCoordShortAddr
NLME_GetShortAddr   SYMBOL "NLME_GetShortAddr"
`??NLME_GetShortAddr::?relay` SYMBOL "?relay", NLME_GetShortAddr
RegisterForKeys     SYMBOL "RegisterForKeys"
`??RegisterForKeys::?relay` SYMBOL "?relay", RegisterForKeys
UART_DebugPrint     SYMBOL "UART_DebugPrint"
`??UART_DebugPrint::?relay` SYMBOL "?relay", UART_DebugPrint
UART_Init           SYMBOL "UART_Init"
`??UART_Init::?relay` SYMBOL "?relay", UART_Init
UART_ParseRxPackage SYMBOL "UART_ParseRxPackage"
`??UART_ParseRxPackage::?relay` SYMBOL "?relay", UART_ParseRxPackage
UART_ZCmdPrint      SYMBOL "UART_ZCmdPrint"
`??UART_ZCmdPrint::?relay` SYMBOL "?relay", UART_ZCmdPrint
UART_ZCmdPrintBuffer SYMBOL "UART_ZCmdPrintBuffer"
`??UART_ZCmdPrintBuffer::?relay` SYMBOL "?relay", UART_ZCmdPrintBuffer
UART_ZCmdPrintNum   SYMBOL "UART_ZCmdPrintNum"
`??UART_ZCmdPrintNum::?relay` SYMBOL "?relay", UART_ZCmdPrintNum
UART_ZCmdPrintString SYMBOL "UART_ZCmdPrintString"
`??UART_ZCmdPrintString::?relay` SYMBOL "?relay", UART_ZCmdPrintString
ZCMD_ReplyCMD       SYMBOL "ZCMD_ReplyCMD"
`??ZCMD_ReplyCMD::?relay` SYMBOL "?relay", ZCMD_ReplyCMD
ZDO_ParseEPListRsp  SYMBOL "ZDO_ParseEPListRsp"
`??ZDO_ParseEPListRsp::?relay` SYMBOL "?relay", ZDO_ParseEPListRsp
ZDO_RegisterForZDOMsg SYMBOL "ZDO_RegisterForZDOMsg"
`??ZDO_RegisterForZDOMsg::?relay` SYMBOL "?relay", ZDO_RegisterForZDOMsg
ZDP_MgmtPermitJoinReq SYMBOL "ZDP_MgmtPermitJoinReq"
`??ZDP_MgmtPermitJoinReq::?relay` SYMBOL "?relay", ZDP_MgmtPermitJoinReq
afRegister          SYMBOL "afRegister"
`??afRegister::?relay` SYMBOL "?relay", afRegister
bindCapacity        SYMBOL "bindCapacity"
`??bindCapacity::?relay` SYMBOL "?relay", bindCapacity
osal_mem_alloc      SYMBOL "osal_mem_alloc"
`??osal_mem_alloc::?relay` SYMBOL "?relay", osal_mem_alloc
osal_mem_free       SYMBOL "osal_mem_free"
`??osal_mem_free::?relay` SYMBOL "?relay", osal_mem_free
osal_msg_deallocate SYMBOL "osal_msg_deallocate"
`??osal_msg_deallocate::?relay` SYMBOL "?relay", osal_msg_deallocate
osal_msg_receive    SYMBOL "osal_msg_receive"
`??osal_msg_receive::?relay` SYMBOL "?relay", osal_msg_receive
osal_set_event      SYMBOL "osal_set_event"
`??osal_set_event::?relay` SYMBOL "?relay", osal_set_event
osal_start_timerEx  SYMBOL "osal_start_timerEx"
`??osal_start_timerEx::?relay` SYMBOL "?relay", osal_start_timerEx
osal_stop_timerEx   SYMBOL "osal_stop_timerEx"
`??osal_stop_timerEx::?relay` SYMBOL "?relay", osal_stop_timerEx
zclGeneral_RegisterCmdCallbacks SYMBOL "zclGeneral_RegisterCmdCallbacks"
`??zclGeneral_RegisterCmdCallbacks::?relay` SYMBOL "?relay", zclGeneral_RegisterCmdCallbacks
zclHA_Init          SYMBOL "zclHA_Init"
`??zclHA_Init::?relay` SYMBOL "?relay", zclHA_Init
zclHA_LcdStatusLine1 SYMBOL "zclHA_LcdStatusLine1"
`??zclHA_LcdStatusLine1::?relay` SYMBOL "?relay", zclHA_LcdStatusLine1
zcl_EZModeAction    SYMBOL "zcl_EZModeAction"
`??zcl_EZModeAction::?relay` SYMBOL "?relay", zcl_EZModeAction
zcl_InvokeEZMode    SYMBOL "zcl_InvokeEZMode"
`??zcl_InvokeEZMode::?relay` SYMBOL "?relay", zcl_InvokeEZMode
zcl_RegisterEZMode  SYMBOL "zcl_RegisterEZMode"
`??zcl_RegisterEZMode::?relay` SYMBOL "?relay", zcl_RegisterEZMode
zcl_SendReportCmd   SYMBOL "zcl_SendReportCmd"
`??zcl_SendReportCmd::?relay` SYMBOL "?relay", zcl_SendReportCmd
zcl_registerAttrList SYMBOL "zcl_registerAttrList"
`??zcl_registerAttrList::?relay` SYMBOL "?relay", zcl_registerAttrList
zcl_registerForMsg  SYMBOL "zcl_registerForMsg"
`??zcl_registerForMsg::?relay` SYMBOL "?relay", zcl_registerForMsg
zgWriteStartupOptions SYMBOL "zgWriteStartupOptions"
`??zgWriteStartupOptions::?relay` SYMBOL "?relay", zgWriteStartupOptions
zclSampleHeatingCoolingUnit_BindingProcess SYMBOL "zclSampleHeatingCoolingUnit_BindingProcess"
`??zclSampleHeatingCoolingUnit_BindingProcess::?` SYMBOL "?relay", zclSampleHeatingCoolingUnit_BindingProcess
zclSampleHeatingCoolingUnit_Init SYMBOL "zclSampleHeatingCoolingUnit_Init"
`??zclSampleHeatingCoolingUnit_Init::?relay` SYMBOL "?relay", zclSampleHeatingCoolingUnit_Init
zclSampleHeatingCoolingUnit_LcdDisplayHelpMode SYMBOL "zclSampleHeatingCoolingUnit_LcdDisplayHelpMode"
??zclSampleHeatingCoolingUnit_LcdDisplayHelpMod SYMBOL "?relay", zclSampleHeatingCoolingUnit_LcdDisplayHelpMode
zclSampleHeatingCoolingUnit_LcdDisplayMainMode SYMBOL "zclSampleHeatingCoolingUnit_LcdDisplayMainMode"
??zclSampleHeatingCoolingUnit_LcdDisplayMainMod SYMBOL "?relay", zclSampleHeatingCoolingUnit_LcdDisplayMainMode
zclSampleHeatingCoolingUnit_LcdDisplayUpdate SYMBOL "zclSampleHeatingCoolingUnit_LcdDisplayUpdate"
`??zclSampleHeatingCoolingUnit_LcdDisplayUpdate:` SYMBOL "?relay", zclSampleHeatingCoolingUnit_LcdDisplayUpdate
zclSampleHeatingCoolingUnit_event_loop SYMBOL "zclSampleHeatingCoolingUnit_event_loop"
`??zclSampleHeatingCoolingUnit_event_loop::?rela` SYMBOL "?relay", zclSampleHeatingCoolingUnit_event_loop

        EXTERN `??GetBindingTableEntry::?relay`
        FUNCTION `??GetBindingTableEntry::?relay`,00H
        EXTERN `??HalLcdWriteString::?relay`
        FUNCTION `??HalLcdWriteString::?relay`,00H
        EXTERN `??HalLedBlink::?relay`
        FUNCTION `??HalLedBlink::?relay`,00H
        EXTERN `??HalLedSet::?relay`
        FUNCTION `??HalLedSet::?relay`,00H
        EXTERN `??MT_SysCommandProcessing::?relay`
        FUNCTION `??MT_SysCommandProcessing::?relay`,00H
        EXTERN `??NLME_GetCoordShortAddr::?relay`
        FUNCTION `??NLME_GetCoordShortAddr::?relay`,00H
        EXTERN `??NLME_GetShortAddr::?relay`
        FUNCTION `??NLME_GetShortAddr::?relay`,00H
        EXTERN `??RegisterForKeys::?relay`
        FUNCTION `??RegisterForKeys::?relay`,00H
        EXTERN `??UART_DebugPrint::?relay`
        FUNCTION `??UART_DebugPrint::?relay`,00H
        EXTERN `??UART_Init::?relay`
        FUNCTION `??UART_Init::?relay`,00H
        EXTERN `??UART_ParseRxPackage::?relay`
        FUNCTION `??UART_ParseRxPackage::?relay`,00H
        EXTERN `??UART_ZCmdPrint::?relay`
        FUNCTION `??UART_ZCmdPrint::?relay`,00H
        EXTERN `??UART_ZCmdPrintBuffer::?relay`
        FUNCTION `??UART_ZCmdPrintBuffer::?relay`,00H
        EXTERN `??UART_ZCmdPrintNum::?relay`
        FUNCTION `??UART_ZCmdPrintNum::?relay`,00H
        EXTERN `??UART_ZCmdPrintString::?relay`
        FUNCTION `??UART_ZCmdPrintString::?relay`,00H
        EXTERN `??ZCMD_ReplyCMD::?relay`
        FUNCTION `??ZCMD_ReplyCMD::?relay`,00H
        EXTERN `??ZDO_ParseEPListRsp::?relay`
        FUNCTION `??ZDO_ParseEPListRsp::?relay`,00H
        EXTERN `??ZDO_RegisterForZDOMsg::?relay`
        FUNCTION `??ZDO_RegisterForZDOMsg::?relay`,00H
        EXTERN `??ZDP_MgmtPermitJoinReq::?relay`
        FUNCTION `??ZDP_MgmtPermitJoinReq::?relay`,00H
        EXTERN `??afRegister::?relay`
        FUNCTION `??afRegister::?relay`,00H
        EXTERN `??bindCapacity::?relay`
        FUNCTION `??bindCapacity::?relay`,00H
        EXTERN `??osal_mem_alloc::?relay`
        FUNCTION `??osal_mem_alloc::?relay`,00H
        EXTERN `??osal_mem_free::?relay`
        FUNCTION `??osal_mem_free::?relay`,00H
        EXTERN `??osal_msg_deallocate::?relay`
        FUNCTION `??osal_msg_deallocate::?relay`,00H
        EXTERN `??osal_msg_receive::?relay`
        FUNCTION `??osal_msg_receive::?relay`,00H
        EXTERN `??osal_set_event::?relay`
        FUNCTION `??osal_set_event::?relay`,00H
        EXTERN `??osal_start_timerEx::?relay`
        FUNCTION `??osal_start_timerEx::?relay`,00H
        EXTERN `??osal_stop_timerEx::?relay`
        FUNCTION `??osal_stop_timerEx::?relay`,00H
        EXTERN `??zclGeneral_RegisterCmdCallbacks::?relay`
        FUNCTION `??zclGeneral_RegisterCmdCallbacks::?relay`,00H
        EXTERN `??zclHA_Init::?relay`
        FUNCTION `??zclHA_Init::?relay`,00H
        EXTERN `??zclHA_LcdStatusLine1::?relay`
        FUNCTION `??zclHA_LcdStatusLine1::?relay`,00H
        EXTERN `??zcl_EZModeAction::?relay`
        FUNCTION `??zcl_EZModeAction::?relay`,00H
        EXTERN `??zcl_InvokeEZMode::?relay`
        FUNCTION `??zcl_InvokeEZMode::?relay`,00H
        EXTERN `??zcl_RegisterEZMode::?relay`
        FUNCTION `??zcl_RegisterEZMode::?relay`,00H
        EXTERN `??zcl_SendReportCmd::?relay`
        FUNCTION `??zcl_SendReportCmd::?relay`,00H
        EXTERN `??zcl_registerAttrList::?relay`
        FUNCTION `??zcl_registerAttrList::?relay`,00H
        EXTERN `??zcl_registerForMsg::?relay`
        FUNCTION `??zcl_registerForMsg::?relay`,00H
        EXTERN `??zgWriteStartupOptions::?relay`
        FUNCTION `??zgWriteStartupOptions::?relay`,00H
        EXTERN FLAG_BINDING
        EXTERN FLAG_ECHO_RDATA
        EXTERN FLAG_HARD_BINDING
        EXTERN FLAG_JOIN_CONFIRM
        EXTERN GetBindingTableEntry
        FUNCTION GetBindingTableEntry,0202H
        ARGFRAME ISTACK, 0, STACK
        ARGFRAME PSTACK, 0, STACK
        ARGFRAME XSTACK, 29, STACK
        ARGFRAME IOVERLAY, 0, STATIC
        ARGFRAME DOVERLAY, 0, STATIC
        EXTERN HalLcdWriteString
        FUNCTION HalLcdWriteString,0202H
        ARGFRAME ISTACK, 2, STACK
        ARGFRAME PSTACK, 0, STACK
        ARGFRAME XSTACK, 29, STACK
        ARGFRAME IOVERLAY, 0, STATIC
        ARGFRAME DOVERLAY, 0, STATIC
        EXTERN HalLedBlink
        FUNCTION HalLedBlink,0202H
        ARGFRAME ISTACK, 2, STACK
        ARGFRAME PSTACK, 0, STACK
        ARGFRAME XSTACK, 40, STACK
        ARGFRAME IOVERLAY, 0, STATIC
        ARGFRAME DOVERLAY, 0, STATIC
        EXTERN HalLedSet
        FUNCTION HalLedSet,0202H
        ARGFRAME ISTACK, 2, STACK
        ARGFRAME PSTACK, 0, STACK
        ARGFRAME XSTACK, 9, STACK
        ARGFRAME IOVERLAY, 0, STATIC
        ARGFRAME DOVERLAY, 0, STATIC
        EXTERN MT_SysCommandProcessing
        FUNCTION MT_SysCommandProcessing,0202H
        ARGFRAME ISTACK, 2, STACK
        ARGFRAME PSTACK, 0, STACK
        ARGFRAME XSTACK, 0, STACK
        ARGFRAME IOVERLAY, 0, STATIC
        ARGFRAME DOVERLAY, 0, STATIC
        EXTERN NLME_GetCoordShortAddr
        FUNCTION NLME_GetCoordShortAddr,0202H
        ARGFRAME ISTACK, 0, STACK
        ARGFRAME PSTACK, 0, STACK
        ARGFRAME XSTACK, 10, STACK
        ARGFRAME IOVERLAY, 0, STATIC
        ARGFRAME DOVERLAY, 0, STATIC
        EXTERN NLME_GetShortAddr
        FUNCTION NLME_GetShortAddr,0202H
        ARGFRAME ISTACK, 0, STACK
        ARGFRAME PSTACK, 0, STACK
        ARGFRAME XSTACK, 29, STACK
        ARGFRAME IOVERLAY, 0, STATIC
        ARGFRAME DOVERLAY, 0, STATIC
        EXTERN RegisterForKeys
        FUNCTION RegisterForKeys,0202H
        ARGFRAME ISTACK, 0, STACK
        ARGFRAME PSTACK, 0, STACK
        ARGFRAME XSTACK, 10, STACK
        ARGFRAME IOVERLAY, 0, STATIC
        ARGFRAME DOVERLAY, 0, STATIC
        EXTERN UART_DebugPrint
        FUNCTION UART_DebugPrint,0202H
        ARGFRAME ISTACK, 0, STACK
        ARGFRAME PSTACK, 0, STACK
        ARGFRAME XSTACK, 29, STACK
        ARGFRAME IOVERLAY, 0, STATIC
        ARGFRAME DOVERLAY, 0, STATIC
        EXTERN UART_Init
        FUNCTION UART_Init,0202H
        ARGFRAME ISTACK, 0, STACK
        ARGFRAME PSTACK, 0, STACK
        ARGFRAME XSTACK, 10, STACK
        ARGFRAME IOVERLAY, 0, STATIC
        ARGFRAME DOVERLAY, 0, STATIC
        EXTERN UART_ParseRxPackage
        FUNCTION UART_ParseRxPackage,0202H
        ARGFRAME ISTACK, 0, STACK
        ARGFRAME PSTACK, 0, STACK
        ARGFRAME XSTACK, 16, STACK
        ARGFRAME IOVERLAY, 0, STATIC
        ARGFRAME DOVERLAY, 0, STATIC
        EXTERN UART_ZCmdPrint
        FUNCTION UART_ZCmdPrint,0202H
        ARGFRAME ISTACK, 0, STACK
        ARGFRAME PSTACK, 0, STACK
        ARGFRAME XSTACK, 40, STACK
        ARGFRAME IOVERLAY, 0, STATIC
        ARGFRAME DOVERLAY, 0, STATIC
        EXTERN UART_ZCmdPrintBuffer
        FUNCTION UART_ZCmdPrintBuffer,0202H
        ARGFRAME ISTACK, 0, STACK
        ARGFRAME PSTACK, 0, STACK
        ARGFRAME XSTACK, 40, STACK
        ARGFRAME IOVERLAY, 0, STATIC
        ARGFRAME DOVERLAY, 0, STATIC
        EXTERN UART_ZCmdPrintNum
        FUNCTION UART_ZCmdPrintNum,0202H
        ARGFRAME ISTACK, 0, STACK
        ARGFRAME PSTACK, 0, STACK
        ARGFRAME XSTACK, 40, STACK
        ARGFRAME IOVERLAY, 0, STATIC
        ARGFRAME DOVERLAY, 0, STATIC
        EXTERN UART_ZCmdPrintString
        FUNCTION UART_ZCmdPrintString,0202H
        ARGFRAME ISTACK, 0, STACK
        ARGFRAME PSTACK, 0, STACK
        ARGFRAME XSTACK, 40, STACK
        ARGFRAME IOVERLAY, 0, STATIC
        ARGFRAME DOVERLAY, 0, STATIC
        EXTERN ZCMD_ReplyCMD
        FUNCTION ZCMD_ReplyCMD,0202H
        ARGFRAME ISTACK, 0, STACK
        ARGFRAME PSTACK, 0, STACK
        ARGFRAME XSTACK, 16, STACK
        ARGFRAME IOVERLAY, 0, STATIC
        ARGFRAME DOVERLAY, 0, STATIC
        EXTERN ZDO_ParseEPListRsp
        FUNCTION ZDO_ParseEPListRsp,0202H
        ARGFRAME ISTACK, 0, STACK
        ARGFRAME PSTACK, 0, STACK
        ARGFRAME XSTACK, 16, STACK
        ARGFRAME IOVERLAY, 0, STATIC
        ARGFRAME DOVERLAY, 0, STATIC
        EXTERN ZDO_RegisterForZDOMsg
        FUNCTION ZDO_RegisterForZDOMsg,0202H
        ARGFRAME ISTACK, 0, STACK
        ARGFRAME PSTACK, 0, STACK
        ARGFRAME XSTACK, 10, STACK
        ARGFRAME IOVERLAY, 0, STATIC
        ARGFRAME DOVERLAY, 0, STATIC
        EXTERN ZDP_MgmtPermitJoinReq
        FUNCTION ZDP_MgmtPermitJoinReq,0202H
        ARGFRAME ISTACK, 0, STACK
        ARGFRAME PSTACK, 0, STACK
        ARGFRAME XSTACK, 29, STACK
        ARGFRAME IOVERLAY, 0, STATIC
        ARGFRAME DOVERLAY, 0, STATIC
        EXTERN afRegister
        FUNCTION afRegister,0202H
        ARGFRAME ISTACK, 0, STACK
        ARGFRAME PSTACK, 0, STACK
        ARGFRAME XSTACK, 10, STACK
        ARGFRAME IOVERLAY, 0, STATIC
        ARGFRAME DOVERLAY, 0, STATIC
        EXTERN bindCapacity
        FUNCTION bindCapacity,0202H
        ARGFRAME ISTACK, 0, STACK
        ARGFRAME PSTACK, 0, STACK
        ARGFRAME XSTACK, 29, STACK
        ARGFRAME IOVERLAY, 0, STATIC
        ARGFRAME DOVERLAY, 0, STATIC
        EXTERN msg_RSSI
        EXTERN osal_mem_alloc
        FUNCTION osal_mem_alloc,0202H
        ARGFRAME ISTACK, 0, STACK
        ARGFRAME PSTACK, 0, STACK
        ARGFRAME XSTACK, 40, STACK
        ARGFRAME IOVERLAY, 0, STATIC
        ARGFRAME DOVERLAY, 0, STATIC
        EXTERN osal_mem_free
        FUNCTION osal_mem_free,0202H
        ARGFRAME ISTACK, 0, STACK
        ARGFRAME PSTACK, 0, STACK
        ARGFRAME XSTACK, 40, STACK
        ARGFRAME IOVERLAY, 0, STATIC
        ARGFRAME DOVERLAY, 0, STATIC
        EXTERN osal_msg_deallocate
        FUNCTION osal_msg_deallocate,0202H
        ARGFRAME ISTACK, 0, STACK
        ARGFRAME PSTACK, 0, STACK
        ARGFRAME XSTACK, 16, STACK
        ARGFRAME IOVERLAY, 0, STATIC
        ARGFRAME DOVERLAY, 0, STATIC
        EXTERN osal_msg_receive
        FUNCTION osal_msg_receive,0202H
        ARGFRAME ISTACK, 0, STACK
        ARGFRAME PSTACK, 0, STACK
        ARGFRAME XSTACK, 16, STACK
        ARGFRAME IOVERLAY, 0, STATIC
        ARGFRAME DOVERLAY, 0, STATIC
        EXTERN osal_set_event
        FUNCTION osal_set_event,0202H
        ARGFRAME ISTACK, 0, STACK
        ARGFRAME PSTACK, 0, STACK
        ARGFRAME XSTACK, 16, STACK
        ARGFRAME IOVERLAY, 0, STATIC
        ARGFRAME DOVERLAY, 0, STATIC
        EXTERN osal_start_timerEx
        FUNCTION osal_start_timerEx,0202H
        ARGFRAME ISTACK, 2, STACK
        ARGFRAME PSTACK, 0, STACK
        ARGFRAME XSTACK, 20, STACK
        ARGFRAME IOVERLAY, 0, STATIC
        ARGFRAME DOVERLAY, 0, STATIC
        EXTERN osal_stop_timerEx
        FUNCTION osal_stop_timerEx,0202H
        ARGFRAME ISTACK, 2, STACK
        ARGFRAME PSTACK, 0, STACK
        ARGFRAME XSTACK, 0, STACK
        ARGFRAME IOVERLAY, 0, STATIC
        ARGFRAME DOVERLAY, 0, STATIC
        EXTERN zclGeneral_RegisterCmdCallbacks
        FUNCTION zclGeneral_RegisterCmdCallbacks,0202H
        ARGFRAME ISTACK, 0, STACK
        ARGFRAME PSTACK, 0, STACK
        ARGFRAME XSTACK, 10, STACK
        ARGFRAME IOVERLAY, 0, STATIC
        ARGFRAME DOVERLAY, 0, STATIC
        EXTERN zclHA_Init
        FUNCTION zclHA_Init,0202H
        ARGFRAME ISTACK, 0, STACK
        ARGFRAME PSTACK, 0, STACK
        ARGFRAME XSTACK, 10, STACK
        ARGFRAME IOVERLAY, 0, STATIC
        ARGFRAME DOVERLAY, 0, STATIC
        EXTERN zclHA_LcdStatusLine1
        FUNCTION zclHA_LcdStatusLine1,0202H
        ARGFRAME ISTACK, 2, STACK
        ARGFRAME PSTACK, 0, STACK
        ARGFRAME XSTACK, 0, STACK
        ARGFRAME IOVERLAY, 0, STATIC
        ARGFRAME DOVERLAY, 0, STATIC
        EXTERN zclSampleHeatingCoolingUnit_Attrs
        EXTERN zclSampleHeatingCoolingUnit_IdentifyTime
        EXTERN zclSampleHeatingCoolingUnit_OnOff
        EXTERN zclSampleHeatingCoolingUnit_RunningState
        EXTERN zclSampleHeatingCoolingUnit_SimpleDesc
        EXTERN zcl_EZModeAction
        FUNCTION zcl_EZModeAction,0202H
        ARGFRAME ISTACK, 2, STACK
        ARGFRAME PSTACK, 0, STACK
        ARGFRAME XSTACK, 16, STACK
        ARGFRAME IOVERLAY, 0, STATIC
        ARGFRAME DOVERLAY, 0, STATIC
        EXTERN zcl_InvokeEZMode
        FUNCTION zcl_InvokeEZMode,0202H
        ARGFRAME ISTACK, 2, STACK
        ARGFRAME PSTACK, 0, STACK
        ARGFRAME XSTACK, 29, STACK
        ARGFRAME IOVERLAY, 0, STATIC
        ARGFRAME DOVERLAY, 0, STATIC
        EXTERN zcl_RegisterEZMode
        FUNCTION zcl_RegisterEZMode,0202H
        ARGFRAME ISTACK, 0, STACK
        ARGFRAME PSTACK, 0, STACK
        ARGFRAME XSTACK, 10, STACK
        ARGFRAME IOVERLAY, 0, STATIC
        ARGFRAME DOVERLAY, 0, STATIC
        EXTERN zcl_SendReportCmd
        FUNCTION zcl_SendReportCmd,0202H
        ARGFRAME ISTACK, 0, STACK
        ARGFRAME PSTACK, 0, STACK
        ARGFRAME XSTACK, 45, STACK
        ARGFRAME IOVERLAY, 0, STATIC
        ARGFRAME DOVERLAY, 0, STATIC
        EXTERN zcl_registerAttrList
        FUNCTION zcl_registerAttrList,0202H
        ARGFRAME ISTACK, 0, STACK
        ARGFRAME PSTACK, 0, STACK
        ARGFRAME XSTACK, 10, STACK
        ARGFRAME IOVERLAY, 0, STATIC
        ARGFRAME DOVERLAY, 0, STATIC
        EXTERN zcl_registerForMsg
        FUNCTION zcl_registerForMsg,0202H
        ARGFRAME ISTACK, 0, STACK
        ARGFRAME PSTACK, 0, STACK
        ARGFRAME XSTACK, 10, STACK
        ARGFRAME IOVERLAY, 0, STATIC
        ARGFRAME DOVERLAY, 0, STATIC
        EXTERN zgWriteStartupOptions
        FUNCTION zgWriteStartupOptions,0202H
        ARGFRAME ISTACK, 2, STACK
        ARGFRAME PSTACK, 0, STACK
        ARGFRAME XSTACK, 0, STACK
        ARGFRAME IOVERLAY, 0, STATIC
        ARGFRAME DOVERLAY, 0, STATIC

// D:\_GIT_COMBROS\[COMBROS] Z-Stack Home 1.2.2a.44539\Projects\zstack\HomeAutomation\SampleHeatingCoolingUnit\Source\zcl_sampleheatingcoolingunit.c
//    1 /**************************************************************************************************
//    2   Filename:       zcl_sampleheatingcoolingunit.c
//    3   Revised:        $Date: 2014-10-24 16:04:46 -0700 (Fri, 24 Oct 2014) $
//    4   Revision:       $Revision: 40796 $
//    5 
//    6 
//    7   Description:    Zigbee Cluster Library - sample device application.
//    8 
//    9 
//   10   Copyright 2013 Texas Instruments Incorporated. All rights reserved.
//   11 
//   12   IMPORTANT: Your use of this Software is limited to those specific rights
//   13   granted under the terms of a software license agreement between the user
//   14   who downloaded the software, his/her employer (which must be your employer)
//   15   and Texas Instruments Incorporated (the "License").  You may not use this
//   16   Software unless you agree to abide by the terms of the License. The License
//   17   limits your use, and you acknowledge, that the Software may not be modified,
//   18   copied or distributed unless embedded on a Texas Instruments microcontroller
//   19   or used solely and exclusively in conjunction with a Texas Instruments radio
//   20   frequency transceiver, which is integrated into your product.  Other than for
//   21   the foregoing purpose, you may not use, reproduce, copy, prepare derivative
//   22   works of, modify, distribute, perform, display or sell this Software and/or
//   23   its documentation for any purpose.
//   24 
//   25   YOU FURTHER ACKNOWLEDGE AND AGREE THAT THE SOFTWARE AND DOCUMENTATION ARE
//   26   PROVIDED “AS IS” WITHOUT WARRANTY OF ANY KIND, EITHER EXPRESS OR IMPLIED,
//   27   INCLUDING WITHOUT LIMITATION, ANY WARRANTY OF MERCHANTABILITY, TITLE,
//   28   NON-INFRINGEMENT AND FITNESS FOR A PARTICULAR PURPOSE. IN NO EVENT SHALL
//   29   TEXAS INSTRUMENTS OR ITS LICENSORS BE LIABLE OR OBLIGATED UNDER CONTRACT,
//   30   NEGLIGENCE, STRICT LIABILITY, CONTRIBUTION, BREACH OF WARRANTY, OR OTHER
//   31   LEGAL EQUITABLE THEORY ANY DIRECT OR INDIRECT DAMAGES OR EXPENSES
//   32   INCLUDING BUT NOT LIMITED TO ANY INCIDENTAL, SPECIAL, INDIRECT, PUNITIVE
//   33   OR CONSEQUENTIAL DAMAGES, LOST PROFITS OR LOST DATA, COST OF PROCUREMENT
//   34   OF SUBSTITUTE GOODS, TECHNOLOGY, SERVICES, OR ANY CLAIMS BY THIRD PARTIES
//   35   (INCLUDING BUT NOT LIMITED TO ANY DEFENSE THEREOF), OR OTHER SIMILAR COSTS.
//   36 
//   37   Should you have any questions regarding your right to use this Software,
//   38   contact Texas Instruments Incorporated at www.TI.com.
//   39 **************************************************************************************************/
//   40 
//   41 /*********************************************************************
//   42   This device will act as a heating and cooling unit
//   43 
//   44   ----------------------------------------
//   45   Main:
//   46     - SW2: Invoke EZMode
//   47     - SW4: Enable/Disable Permit Join
//   48     - SW5: Go to Help screen
//   49   ----------------------------------------
//   50 *********************************************************************/
//   51 
//   52 /*********************************************************************
//   53  * INCLUDES
//   54  */
//   55 #include "ZComDef.h"
//   56 #include "OSAL.h"
//   57 #include "AF.h"
//   58 #include "ZDApp.h"
//   59 #include "ZDObject.h"
//   60 #include "ZDProfile.h"
//   61 #include "MT_SYS.h"
//   62 
//   63 #include "zcl.h"
//   64 #include "zcl_general.h"
//   65 #include "zcl_ha.h"
//   66 #include "zcl_ezmode.h"
//   67 #include "zcl_ms.h"
//   68 #include "zcl_hvac.h"
//   69 
//   70 #include "zcl_sampleheatingcoolingunit.h"
//   71 
//   72 #include "onboard.h"
//   73 
//   74 /* HAL */
//   75 #include "hal_lcd.h"
//   76 #include "hal_led.h"
//   77 #include "hal_key.h"
//   78 
//   79 /* MY INCLUDES */
//   80 #include "MS_UART.h"
//   81 #include "MS_UART_CMD.h"
//   82 
//   83 /*********************************************************************
//   84  * MACROS
//   85  */
//   86 
//   87 /*********************************************************************
//   88  * CONSTANTS
//   89  */
//   90 /*********************************************************************
//   91  * TYPEDEFS
//   92  */
//   93 
//   94 /*********************************************************************
//   95  * GLOBAL VARIABLES
//   96  */

        RSEG XDATA_Z:XDATA:NOROOT(0)
        DATA8
//   97 uint8 zclSampleHeatingCoolingUnit_TaskID;
zclSampleHeatingCoolingUnit_TaskID:
        DS 1
        REQUIRE __INIT_XDATA_Z
//   98 

        RSEG XDATA_Z:XDATA:NOROOT(0)
        DATA8
//   99 uint8 zclSampleHeatingCoolingUnitSeqNum;
zclSampleHeatingCoolingUnitSeqNum:
        DS 1
        REQUIRE __INIT_XDATA_Z
//  100 

        RSEG XDATA_Z:XDATA:NOROOT(0)
        DATA8
//  101 static uint8 gPermitDuration = 0;
gPermitDuration:
        DS 1
        REQUIRE __INIT_XDATA_Z
//  102 
//  103 /*********************************************************************
//  104  * GLOBAL FUNCTIONS
//  105  */
//  106 
//  107 /*********************************************************************
//  108  * LOCAL VARIABLES
//  109  */

        RSEG XDATA_Z:XDATA:NOROOT(0)
        DATA8
//  110 afAddrType_t zclSampleHeatingCoolingUnit_DstAddr;
zclSampleHeatingCoolingUnit_DstAddr:
        DS 12
        REQUIRE __INIT_XDATA_Z
//  111 
//  112 // EZ-Mode setup
//  113 #ifdef ZCL_EZMODE
//  114 static void zclSampleHeatingCoolingUnit_ProcessZDOMsgs( zdoIncomingMsg_t *pMsg );
//  115 static void zclSampleHeatingCoolingUnit_EZModeCB( zlcEZMode_State_t state, zclEZMode_CBData_t *pData );
//  116 

        RSEG XDATA_ROM_C:CONST:REORDER:NOROOT(0)
        DATA8
//  117 static const zclEZMode_RegisterData_t zclSampleHeatingCoolingUnit_RegisterEZModeData =
zclSampleHeatingCoolingUnit_RegisterEZModeData:
        DATA16
        DW zclSampleHeatingCoolingUnit_TaskID
        DW 4
        DW 8
        DW zclSampleHeatingCoolingUnitSeqNum
        DW `??zclSampleHeatingCoolingUnit_EZModeCB::?relay`
//  118 {
//  119   &zclSampleHeatingCoolingUnit_TaskID,
//  120   SAMPLEHEATINGCOOLINGUNIT_EZMODE_NEXTSTATE_EVT,
//  121   SAMPLEHEATINGCOOLINGUNIT_EZMODE_TIMEOUT_EVT,
//  122   &zclSampleHeatingCoolingUnitSeqNum,
//  123   zclSampleHeatingCoolingUnit_EZModeCB
//  124 };
//  125 
//  126 // No ZCL_EZMODE, use EndDeviceBind
//  127 #else
//  128 
//  129 static cId_t bindingInClusters[] =
//  130 {
//  131   ZCL_CLUSTER_ID_HVAC_THERMOSTAT
//  132 };
//  133 #define ZCLSAMPLEHEATINGCOOLINGUNIT_BINDINGLIST   1
//  134 #endif  // ZCL_EZMODE
//  135 

        RSEG XDATA_I:XDATA:NOROOT(0)
//  136 devStates_t zclSampleHeatingCoolingUnit_NwkState = DEV_INIT;
zclSampleHeatingCoolingUnit_NwkState:
        DATA8
        DS 1
        REQUIRE `?<Initializer for zclSampleHeatingCoolingUnit_`
        REQUIRE __INIT_XDATA_I
//  137 

        RSEG XDATA_Z:XDATA:NOROOT(0)
        DATA8
//  138 uint8 giHeatingCoolingUnitScreenMode = HEATCOOLUNIT_MAINMODE;   // display main screen mode first
giHeatingCoolingUnitScreenMode:
        DS 1
        REQUIRE __INIT_XDATA_Z
//  139 

        RSEG XDATA_I:XDATA:NOROOT(0)
//  140 static uint8 aProcessCmd[] = { 1, 0, 0, 0 }; // used for reset command, { length + cmd0 + cmd1 + data }
aProcessCmd:
        DATA32
        DS 4
        REQUIRE `?<Initializer for aProcessCmd>`
        REQUIRE __INIT_XDATA_I
//  141 
//  142 // Test Endpoint to allow SYS_APP_MSGs

        RSEG XDATA_I:XDATA:NOROOT(0)
//  143 static endPointDesc_t sampleLight_TestEp =
sampleLight_TestEp:
        DATA8
        DS 6
        REQUIRE `?<Initializer for sampleLight_TestEp>`
        REQUIRE __INIT_XDATA_I
//  144 {
//  145   20,                                 // Test endpoint
//  146   &zclSampleHeatingCoolingUnit_TaskID,
//  147   (SimpleDescriptionFormat_t *)NULL,  // No Simple description for this test endpoint
//  148   (afNetworkLatencyReq_t)0            // No Network Latency req
//  149 };
//  150 
//  151 
//  152 /*********************************************************************
//  153  * LOCAL FUNCTIONS
//  154  */
//  155 static void zclSampleHeatingCoolingUnit_HandleKeys( byte shift, byte keys );
//  156 static void zclSampleHeatingCoolingUnit_BasicResetCB( void );
//  157 static void zclSampleHeatingCoolingUnit_IdentifyCB( zclIdentify_t *pCmd );
//  158 static void zclSampleHeatingCoolingUnit_IdentifyQueryRspCB( zclIdentifyQueryRsp_t *pRsp );
//  159 static void zclSampleHeatingCoolingUnit_OnOffCB( uint8 cmd );
//  160 static void zclSampleHeatingCoolingUnit_ProcessIdentifyTimeChange( void );
//  161 
//  162 // app display functions
//  163 void zclSampleHeatingCoolingUnit_LcdDisplayUpdate( void );
//  164 void zclSampleHeatingCoolingUnit_LcdDisplayMainMode( void );
//  165 void zclSampleHeatingCoolingUnit_LcdDisplayTempMode( void );
//  166 void zclSampleHeatingCoolingUnit_LcdDisplayHelpMode( void );
//  167 
//  168 // Functions to process ZCL Foundation incoming Command/Response messages
//  169 static void zclSampleHeatingCoolingUnit_ProcessIncomingMsg( zclIncomingMsg_t *msg );
//  170 #ifdef ZCL_READ
//  171 static uint8 zclSampleHeatingCoolingUnit_ProcessInReadRspCmd( zclIncomingMsg_t *pInMsg );
//  172 #endif
//  173 #ifdef ZCL_WRITE
//  174 static uint8 zclSampleHeatingCoolingUnit_ProcessInWriteRspCmd( zclIncomingMsg_t *pInMsg );
//  175 #endif
//  176 #ifdef ZCL_REPORT
//  177 static void zclSampleHeatingCoolingUnit_ProcessInReportCmd( zclIncomingMsg_t *pInMsg );
//  178 #endif
//  179 static uint8 zclSampleHeatingCoolingUnit_ProcessInDefaultRspCmd( zclIncomingMsg_t *pInMsg );
//  180 
//  181 /*********************************************************************
//  182  * STATUS STRINGS
//  183  */
//  184 #ifdef LCD_SUPPORTED

        RSEG XDATA_ROM_C:CONST:REORDER:NOROOT(0)
        DATA16
//  185 const char sClearLine[]    = " ";
sClearLine:
        DB " "

        RSEG XDATA_ROM_C:CONST:REORDER:NOROOT(0)
        DATA8
//  186 const char sDeviceName[]   = " Heat/Cool Unit";
sDeviceName:
        DB " Heat/Cool Unit"

        RSEG XDATA_ROM_C:CONST:REORDER:NOROOT(0)
        DATA8
//  187 const char sSwEZMode[]     = "SW2: EZ-Mode";
sSwEZMode:
        DB "SW2: EZ-Mode"

        RSEG XDATA_ROM_C:CONST:REORDER:NOROOT(0)
        DATA8
//  188 const char sSwHelp[]       = "SW5: Help";
sSwHelp:
        DB "SW5: Help"

        RSEG XDATA_ROM_C:CONST:REORDER:NOROOT(0)
        DATA8
//  189 const char sHeatMode[]     = "  HEATING MODE";
sHeatMode:
        DB "  HEATING MODE"

        RSEG XDATA_ROM_C:CONST:REORDER:NOROOT(0)
        DATA8
//  190 const char sCoolMode[]     = "  COOLING MODE";
sCoolMode:
        DB "  COOLING MODE"

        RSEG XDATA_ROM_C:CONST:REORDER:NOROOT(0)
        DATA8
//  191 const char sOffMode[]      = "   SYSTEM OFF";
sOffMode:
        DB "   SYSTEM OFF"
//  192 #endif
//  193 
//  194 /*********************************************************************
//  195  * ZCL General Profile Callback table
//  196  */

        RSEG XDATA_I:XDATA:NOROOT(0)
//  197 static zclGeneral_AppCallbacks_t zclSampleHeatingCoolingUnit_CmdCallbacks =
zclSampleHeatingCoolingUnit_CmdCallbacks:
        DATA8
        DS 24
        REQUIRE `?<Initializer for zclSampleHeatingCoolingUnit__1`
        REQUIRE __INIT_XDATA_I
//  198 {
//  199   zclSampleHeatingCoolingUnit_BasicResetCB,         // Basic Cluster Reset command
//  200   zclSampleHeatingCoolingUnit_IdentifyCB,           // Identify command
//  201 #ifdef ZCL_EZMODE
//  202   NULL,                                             // Identify EZ-Mode Invoke command
//  203   NULL,                                             // Identify Update Commission State command
//  204 #endif
//  205   NULL,                                             // Identify Trigger Effect command
//  206   zclSampleHeatingCoolingUnit_IdentifyQueryRspCB,   // Identify Query Response command
//  207   zclSampleHeatingCoolingUnit_OnOffCB,              // On/Off cluster command
//  208   NULL,                                             // On/Off cluster enhanced command Off with Effect
//  209   NULL,                                             // On/Off cluster enhanced command On with Recall Global Scene
//  210   NULL,                                             // On/Off cluster enhanced command On with Timed Off
//  211 #ifdef ZCL_LEVEL_CTRL
//  212   NULL,                                             // Level Control Move to Level command
//  213   NULL,                                             // Level Control Move command
//  214   NULL,                                             // Level Control Step command
//  215   NULL,                                             // Level Control Stop command
//  216 #endif
//  217 #ifdef ZCL_GROUPS
//  218   NULL,                                             // Group Response commands
//  219 #endif
//  220 #ifdef ZCL_SCENES
//  221   NULL,                                             // Scene Store Request command
//  222   NULL,                                             // Scene Recall Request command
//  223   NULL,                                             // Scene Response command
//  224 #endif
//  225 #ifdef ZCL_ALARMS
//  226   NULL,                                             // Alarm (Response) commands
//  227 #endif
//  228 #ifdef SE_UK_EXT
//  229   NULL,                                             // Get Event Log command
//  230   NULL,                                             // Publish Event Log command
//  231 #endif
//  232   NULL,                                             // RSSI Location command
//  233   NULL                                              // RSSI Location Response command
//  234 };
//  235 
//  236 /*********************************************************************
//  237  * @fn          zclSampleHeatingCoolingUnit_Init
//  238  *
//  239  * @brief       Initialization function for the zclGeneral layer.
//  240  *
//  241  * @param       none
//  242  *
//  243  * @return      none
//  244  */

        RSEG BANKED_CODE:CODE:NOROOT(0)
//  245 void zclSampleHeatingCoolingUnit_Init( byte task_id )
zclSampleHeatingCoolingUnit_Init:
          CFI Block cfiBlock0 Using cfiCommon0
          CFI Function zclSampleHeatingCoolingUnit_Init
        CODE
//  246 {
        FUNCALL zclSampleHeatingCoolingUnit_Init, NLME_GetCoordShortAddr
        LOCFRAME ISTACK, 0, STACK
        LOCFRAME PSTACK, 0, STACK
        LOCFRAME XSTACK, 10, STACK
        LOCFRAME IOVERLAY, 0, STATIC
        LOCFRAME DOVERLAY, 0, STATIC
        ARGFRAME ISTACK, 0, STACK
        ARGFRAME PSTACK, 0, STACK
        ARGFRAME XSTACK, 10, STACK
        ARGFRAME IOVERLAY, 0, STATIC
        ARGFRAME DOVERLAY, 0, STATIC
        FUNCALL zclSampleHeatingCoolingUnit_Init, zclHA_Init
        LOCFRAME ISTACK, 0, STACK
        LOCFRAME PSTACK, 0, STACK
        LOCFRAME XSTACK, 10, STACK
        LOCFRAME IOVERLAY, 0, STATIC
        LOCFRAME DOVERLAY, 0, STATIC
        ARGFRAME ISTACK, 0, STACK
        ARGFRAME PSTACK, 0, STACK
        ARGFRAME XSTACK, 10, STACK
        ARGFRAME IOVERLAY, 0, STATIC
        ARGFRAME DOVERLAY, 0, STATIC
        FUNCALL zclSampleHeatingCoolingUnit_Init, zclGeneral_RegisterCmdCallbacks
        LOCFRAME ISTACK, 0, STACK
        LOCFRAME PSTACK, 0, STACK
        LOCFRAME XSTACK, 10, STACK
        LOCFRAME IOVERLAY, 0, STATIC
        LOCFRAME DOVERLAY, 0, STATIC
        ARGFRAME ISTACK, 0, STACK
        ARGFRAME PSTACK, 0, STACK
        ARGFRAME XSTACK, 10, STACK
        ARGFRAME IOVERLAY, 0, STATIC
        ARGFRAME DOVERLAY, 0, STATIC
        FUNCALL zclSampleHeatingCoolingUnit_Init, zcl_registerAttrList
        LOCFRAME ISTACK, 0, STACK
        LOCFRAME PSTACK, 0, STACK
        LOCFRAME XSTACK, 10, STACK
        LOCFRAME IOVERLAY, 0, STATIC
        LOCFRAME DOVERLAY, 0, STATIC
        ARGFRAME ISTACK, 0, STACK
        ARGFRAME PSTACK, 0, STACK
        ARGFRAME XSTACK, 10, STACK
        ARGFRAME IOVERLAY, 0, STATIC
        ARGFRAME DOVERLAY, 0, STATIC
        FUNCALL zclSampleHeatingCoolingUnit_Init, zcl_registerForMsg
        LOCFRAME ISTACK, 0, STACK
        LOCFRAME PSTACK, 0, STACK
        LOCFRAME XSTACK, 10, STACK
        LOCFRAME IOVERLAY, 0, STATIC
        LOCFRAME DOVERLAY, 0, STATIC
        ARGFRAME ISTACK, 0, STACK
        ARGFRAME PSTACK, 0, STACK
        ARGFRAME XSTACK, 10, STACK
        ARGFRAME IOVERLAY, 0, STATIC
        ARGFRAME DOVERLAY, 0, STATIC
        FUNCALL zclSampleHeatingCoolingUnit_Init, zcl_RegisterEZMode
        LOCFRAME ISTACK, 0, STACK
        LOCFRAME PSTACK, 0, STACK
        LOCFRAME XSTACK, 10, STACK
        LOCFRAME IOVERLAY, 0, STATIC
        LOCFRAME DOVERLAY, 0, STATIC
        ARGFRAME ISTACK, 0, STACK
        ARGFRAME PSTACK, 0, STACK
        ARGFRAME XSTACK, 10, STACK
        ARGFRAME IOVERLAY, 0, STATIC
        ARGFRAME DOVERLAY, 0, STATIC
        FUNCALL zclSampleHeatingCoolingUnit_Init, ZDO_RegisterForZDOMsg
        LOCFRAME ISTACK, 0, STACK
        LOCFRAME PSTACK, 0, STACK
        LOCFRAME XSTACK, 10, STACK
        LOCFRAME IOVERLAY, 0, STATIC
        LOCFRAME DOVERLAY, 0, STATIC
        ARGFRAME ISTACK, 0, STACK
        ARGFRAME PSTACK, 0, STACK
        ARGFRAME XSTACK, 10, STACK
        ARGFRAME IOVERLAY, 0, STATIC
        ARGFRAME DOVERLAY, 0, STATIC
        FUNCALL zclSampleHeatingCoolingUnit_Init, RegisterForKeys
        LOCFRAME ISTACK, 0, STACK
        LOCFRAME PSTACK, 0, STACK
        LOCFRAME XSTACK, 10, STACK
        LOCFRAME IOVERLAY, 0, STATIC
        LOCFRAME DOVERLAY, 0, STATIC
        ARGFRAME ISTACK, 0, STACK
        ARGFRAME PSTACK, 0, STACK
        ARGFRAME XSTACK, 10, STACK
        ARGFRAME IOVERLAY, 0, STATIC
        ARGFRAME DOVERLAY, 0, STATIC
        FUNCALL zclSampleHeatingCoolingUnit_Init, afRegister
        LOCFRAME ISTACK, 0, STACK
        LOCFRAME PSTACK, 0, STACK
        LOCFRAME XSTACK, 10, STACK
        LOCFRAME IOVERLAY, 0, STATIC
        LOCFRAME DOVERLAY, 0, STATIC
        ARGFRAME ISTACK, 0, STACK
        ARGFRAME PSTACK, 0, STACK
        ARGFRAME XSTACK, 10, STACK
        ARGFRAME IOVERLAY, 0, STATIC
        ARGFRAME DOVERLAY, 0, STATIC
        FUNCALL zclSampleHeatingCoolingUnit_Init, HalLcdWriteString
        LOCFRAME ISTACK, 0, STACK
        LOCFRAME PSTACK, 0, STACK
        LOCFRAME XSTACK, 10, STACK
        LOCFRAME IOVERLAY, 0, STATIC
        LOCFRAME DOVERLAY, 0, STATIC
        ARGFRAME ISTACK, 0, STACK
        ARGFRAME PSTACK, 0, STACK
        ARGFRAME XSTACK, 10, STACK
        ARGFRAME IOVERLAY, 0, STATIC
        ARGFRAME DOVERLAY, 0, STATIC
        FUNCALL zclSampleHeatingCoolingUnit_Init, UART_Init
        LOCFRAME ISTACK, 0, STACK
        LOCFRAME PSTACK, 0, STACK
        LOCFRAME XSTACK, 10, STACK
        LOCFRAME IOVERLAY, 0, STATIC
        LOCFRAME DOVERLAY, 0, STATIC
        ARGFRAME ISTACK, 0, STACK
        ARGFRAME PSTACK, 0, STACK
        ARGFRAME XSTACK, 10, STACK
        ARGFRAME IOVERLAY, 0, STATIC
        ARGFRAME DOVERLAY, 0, STATIC
        FUNCALL zclSampleHeatingCoolingUnit_Init, osal_start_timerEx
        LOCFRAME ISTACK, 0, STACK
        LOCFRAME PSTACK, 0, STACK
        LOCFRAME XSTACK, 14, STACK
        LOCFRAME IOVERLAY, 0, STATIC
        LOCFRAME DOVERLAY, 0, STATIC
        ARGFRAME ISTACK, 0, STACK
        ARGFRAME PSTACK, 0, STACK
        ARGFRAME XSTACK, 14, STACK
        ARGFRAME IOVERLAY, 0, STATIC
        ARGFRAME DOVERLAY, 0, STATIC
        FUNCALL zclSampleHeatingCoolingUnit_Init, osal_start_timerEx
        LOCFRAME ISTACK, 0, STACK
        LOCFRAME PSTACK, 0, STACK
        LOCFRAME XSTACK, 14, STACK
        LOCFRAME IOVERLAY, 0, STATIC
        LOCFRAME DOVERLAY, 0, STATIC
        ARGFRAME ISTACK, 0, STACK
        ARGFRAME PSTACK, 0, STACK
        ARGFRAME XSTACK, 14, STACK
        ARGFRAME IOVERLAY, 0, STATIC
        ARGFRAME DOVERLAY, 0, STATIC
        FUNCALL zclSampleHeatingCoolingUnit_Init, NLME_GetShortAddr
        LOCFRAME ISTACK, 0, STACK
        LOCFRAME PSTACK, 0, STACK
        LOCFRAME XSTACK, 10, STACK
        LOCFRAME IOVERLAY, 0, STATIC
        LOCFRAME DOVERLAY, 0, STATIC
        ARGFRAME ISTACK, 0, STACK
        ARGFRAME PSTACK, 0, STACK
        ARGFRAME XSTACK, 10, STACK
        ARGFRAME IOVERLAY, 0, STATIC
        ARGFRAME DOVERLAY, 0, STATIC
        FUNCALL zclSampleHeatingCoolingUnit_Init, osal_set_event
        LOCFRAME ISTACK, 0, STACK
        LOCFRAME PSTACK, 0, STACK
        LOCFRAME XSTACK, 10, STACK
        LOCFRAME IOVERLAY, 0, STATIC
        LOCFRAME DOVERLAY, 0, STATIC
        ARGFRAME ISTACK, 0, STACK
        ARGFRAME PSTACK, 0, STACK
        ARGFRAME XSTACK, 10, STACK
        ARGFRAME IOVERLAY, 0, STATIC
        ARGFRAME DOVERLAY, 0, STATIC
        REQUIRE ?V0
        REQUIRE ?V1
        MOV     A,#-0xa
        LCALL   ?BANKED_ENTER_XDATA
          CFI DPH0 load(1, XDATA, add(CFA_XSP16, literal(-1)))
          CFI DPL0 load(1, XDATA, add(CFA_XSP16, literal(-2)))
          CFI ?BRET_EXT load(1, XDATA, add(CFA_XSP16, literal(-3)))
          CFI ?RET_HIGH load(1, XDATA, add(CFA_XSP16, literal(-4)))
          CFI ?RET_LOW load(1, XDATA, add(CFA_XSP16, literal(-5)))
          CFI R7 load(1, XDATA, add(CFA_XSP16, literal(-6)))
          CFI V1 load(1, XDATA, add(CFA_XSP16, literal(-7)))
          CFI V0 load(1, XDATA, add(CFA_XSP16, literal(-8)))
          CFI VB load(1, XDATA, add(CFA_XSP16, literal(-9)))
          CFI R6 load(1, XDATA, add(CFA_XSP16, literal(-10)))
          CFI CFA_SP SP+0
          CFI CFA_XSP16 add(XSP16, 10)
        ; Saved register size: 10
        ; Auto size: 0
        MOV     A,R1
        MOV     R6,A
//  247   zclSampleHeatingCoolingUnit_TaskID = task_id;
        MOV     DPTR,#zclSampleHeatingCoolingUnit_TaskID
        MOVX    @DPTR,A
//  248 
//  249   // Set destination address to Coordinator
//  250   zclSampleHeatingCoolingUnit_DstAddr.addrMode = (afAddrMode_t)Addr16Bit;
        MOV     DPTR,#zclSampleHeatingCoolingUnit_DstAddr + 8
        MOV     A,#0x2
        MOVX    @DPTR,A
//  251   zclSampleHeatingCoolingUnit_DstAddr.endPoint = APP_ROUTER_ENDPOINT;
        INC     DPTR
        MOV     A,#0x8
        MOVX    @DPTR,A
//  252   zclSampleHeatingCoolingUnit_DstAddr.addr.shortAddr = NLME_GetCoordShortAddr();
        ; Setup parameters for call to function NLME_GetCoordShortAddr
        LCALL   `??NLME_GetCoordShortAddr::?relay`; Banked call to: NLME_GetCoordShortAddr
        MOV     DPTR,#zclSampleHeatingCoolingUnit_DstAddr
        MOV     A,R2
        MOVX    @DPTR,A
        INC     DPTR
        MOV     A,R3
        MOVX    @DPTR,A
//  253 
//  254   // This app is part of the Home Automation Profile
//  255   zclHA_Init( &zclSampleHeatingCoolingUnit_SimpleDesc );
        ; Setup parameters for call to function zclHA_Init
        MOV     R2,#zclSampleHeatingCoolingUnit_SimpleDesc & 0xff
        MOV     R3,#(zclSampleHeatingCoolingUnit_SimpleDesc >> 8) & 0xff
        LCALL   `??zclHA_Init::?relay`; Banked call to: zclHA_Init
//  256 
//  257   // Register the ZCL General Cluster Library callback functions
//  258   zclGeneral_RegisterCmdCallbacks( SAMPLEHEATINGCOOLINGUNIT_ENDPOINT, &zclSampleHeatingCoolingUnit_CmdCallbacks );
        ; Setup parameters for call to function zclGeneral_RegisterCmdCallbacks
        MOV     R2,#zclSampleHeatingCoolingUnit_CmdCallbacks & 0xff
        MOV     R3,#(zclSampleHeatingCoolingUnit_CmdCallbacks >> 8) & 0xff
        MOV     R1,#0x1
        LCALL   `??zclGeneral_RegisterCmdCallbacks::?relay`; Banked call to: zclGeneral_RegisterCmdCallbacks
//  259 
//  260   // Register the application's attribute list
//  261   zcl_registerAttrList( SAMPLEHEATINGCOOLINGUNIT_ENDPOINT, SAMPLEHEATINGCOOLINGUNIT_MAX_ATTRIBUTES, zclSampleHeatingCoolingUnit_Attrs );
        ; Setup parameters for call to function zcl_registerAttrList
        MOV     R4,#zclSampleHeatingCoolingUnit_Attrs & 0xff
        MOV     R5,#(zclSampleHeatingCoolingUnit_Attrs >> 8) & 0xff
        MOV     R2,#0xf
        MOV     R1,#0x1
        LCALL   `??zcl_registerAttrList::?relay`; Banked call to: zcl_registerAttrList
//  262 
//  263   // Register the Application to receive the unprocessed Foundation command/response messages
//  264   zcl_registerForMsg( zclSampleHeatingCoolingUnit_TaskID );
        ; Setup parameters for call to function zcl_registerForMsg
        MOV     DPTR,#zclSampleHeatingCoolingUnit_TaskID
        MOVX    A,@DPTR
        MOV     R1,A
        LCALL   `??zcl_registerForMsg::?relay`; Banked call to: zcl_registerForMsg
//  265 
//  266 	#ifdef ZCL_EZMODE
//  267   // Register EZ-Mode
//  268   zcl_RegisterEZMode( &zclSampleHeatingCoolingUnit_RegisterEZModeData );
        ; Setup parameters for call to function zcl_RegisterEZMode
        MOV     R2,#zclSampleHeatingCoolingUnit_RegisterEZModeData & 0xff
        MOV     R3,#(zclSampleHeatingCoolingUnit_RegisterEZModeData >> 8) & 0xff
        LCALL   `??zcl_RegisterEZMode::?relay`; Banked call to: zcl_RegisterEZMode
//  269 
//  270   // Register with the ZDO to receive Match Descriptor Responses
//  271   ZDO_RegisterForZDOMsg(task_id, Match_Desc_rsp);
        ; Setup parameters for call to function ZDO_RegisterForZDOMsg
        MOV     R2,#0x6
        MOV     R3,#-0x80
        MOV     A,R6
        MOV     R1,A
        LCALL   `??ZDO_RegisterForZDOMsg::?relay`; Banked call to: ZDO_RegisterForZDOMsg
//  272 	#endif
//  273 
//  274   // Register for all key events - This app will handle all key events
//  275   RegisterForKeys( zclSampleHeatingCoolingUnit_TaskID );
        ; Setup parameters for call to function RegisterForKeys
        MOV     DPTR,#zclSampleHeatingCoolingUnit_TaskID
        MOVX    A,@DPTR
        MOV     R1,A
        LCALL   `??RegisterForKeys::?relay`; Banked call to: RegisterForKeys
//  276 
//  277   // Register for a test endpoint
//  278   afRegister( &sampleLight_TestEp );
        ; Setup parameters for call to function afRegister
        MOV     R2,#sampleLight_TestEp & 0xff
        MOV     R3,#(sampleLight_TestEp >> 8) & 0xff
        LCALL   `??afRegister::?relay`; Banked call to: afRegister
//  279 
//  280 	#ifdef LCD_SUPPORTED
//  281   // display the device name
//  282   HalLcdWriteString( (char *)sDeviceName, HAL_LCD_LINE_3 );
        ; Setup parameters for call to function HalLcdWriteString
        MOV     R1,#0x3
        MOV     R2,#sDeviceName & 0xff
        MOV     R3,#(sDeviceName >> 8) & 0xff
        LCALL   `??HalLcdWriteString::?relay`; Banked call to: HalLcdWriteString
//  283 	#endif
//  284 
//  285 	UART_Init(HAL_UART_PORT_0);
        ; Setup parameters for call to function UART_Init
        MOV     R1,#0x0
        LCALL   `??UART_Init::?relay`; Banked call to: UART_Init
//  286 	
//  287 	// Set timer for first UART Reply CMD event
//  288 	osal_start_timerEx( zclSampleHeatingCoolingUnit_TaskID, SAMPLEHEATINGCOOLINGUNIT_UART_REPLY_CMD_EVT, UART_PARSE_RX_PACKAGE_EVT_PERIOD );
        ; Setup parameters for call to function osal_start_timerEx
        MOV     DPTR,#__Constant_a
        LCALL   ?PUSH_XSTACK8_X_FOUR
          CFI CFA_XSP16 add(XSP16, 14)
        MOV     R2,#0x40
        MOV     R3,#0x0
        MOV     DPTR,#zclSampleHeatingCoolingUnit_TaskID
        MOVX    A,@DPTR
        MOV     R1,A
        LCALL   `??osal_start_timerEx::?relay`; Banked call to: osal_start_timerEx
        MOV     A,#0x4
        LCALL   ?DEALLOC_XSTACK8
          CFI CFA_XSP16 add(XSP16, 10)
//  289 
//  290 	// Set timer for first Check System event
//  291 	osal_start_timerEx( zclSampleHeatingCoolingUnit_TaskID, SAMPLEHEATINGCOOLINGUNIT_CHECK_SYSTEM_EVT, CHECK_SYSTEM_EVT_PERIOD );
        ; Setup parameters for call to function osal_start_timerEx
        MOV     DPTR,#__Constant_2710
        LCALL   ?PUSH_XSTACK8_X_FOUR
          CFI CFA_XSP16 add(XSP16, 14)
        MOV     R2,#-0x80
        MOV     R3,#0x0
        MOV     DPTR,#zclSampleHeatingCoolingUnit_TaskID
        MOVX    A,@DPTR
        MOV     R1,A
        LCALL   `??osal_start_timerEx::?relay`; Banked call to: osal_start_timerEx
        MOV     A,#0x4
        LCALL   ?DEALLOC_XSTACK8
          CFI CFA_XSP16 add(XSP16, 10)
//  292 
//  293 	// Set timer for first Join Setup event
//  294 	if (NLME_GetShortAddr() != 0xFFFE)
        ; Setup parameters for call to function NLME_GetShortAddr
        LCALL   `??NLME_GetShortAddr::?relay`; Banked call to: NLME_GetShortAddr
        MOV     ?V0,R2
        MOV     ?V1,R3
        MOV     A,#-0x2
        XRL     A,?V0
        JNZ     ??zclSampleHeatingCoolingUnit_Init_0
        MOV     A,#-0x1
        XRL     A,?V1
??zclSampleHeatingCoolingUnit_Init_0:
        JZ      ??zclSampleHeatingCoolingUnit_Init_1
//  295 	{
//  296 		osal_set_event( zclSampleHeatingCoolingUnit_TaskID, SAMPLEHEATINGCOOLINGUNIT_JOIN_SETUP_EVT );
        ; Setup parameters for call to function osal_set_event
        MOV     R2,#0x20
        MOV     R3,#0x0
        MOV     DPTR,#zclSampleHeatingCoolingUnit_TaskID
        MOVX    A,@DPTR
        MOV     R1,A
        LCALL   `??osal_set_event::?relay`; Banked call to: osal_set_event
//  297 	}
//  298 	
//  299 }
??zclSampleHeatingCoolingUnit_Init_1:
        MOV     R7,#0x2
        LJMP    ?BANKED_LEAVE_XDATA
          CFI EndBlock cfiBlock0
//  300 
//  301 /*********************************************************************
//  302  * @fn          zclSample_event_loop
//  303  *
//  304  * @brief       Event Loop Processor for zclGeneral.
//  305  *
//  306  * @param       none
//  307  *
//  308  * @return      none
//  309  */

        RSEG BANKED_CODE:CODE:NOROOT(0)
//  310 uint16 zclSampleHeatingCoolingUnit_event_loop( uint8 task_id, uint16 events )
zclSampleHeatingCoolingUnit_event_loop:
          CFI Block cfiBlock1 Using cfiCommon0
          CFI Function zclSampleHeatingCoolingUnit_event_loop
        CODE
//  311 {
        FUNCALL zclSampleHeatingCoolingUnit_event_loop, zclSampleHeatingCoolingUnit_ProcessIdentifyTimeChange
        LOCFRAME ISTACK, 0, STACK
        LOCFRAME PSTACK, 0, STACK
        LOCFRAME XSTACK, 16, STACK
        LOCFRAME IOVERLAY, 0, STATIC
        LOCFRAME DOVERLAY, 0, STATIC
        ARGFRAME ISTACK, 0, STACK
        ARGFRAME PSTACK, 0, STACK
        ARGFRAME XSTACK, 16, STACK
        ARGFRAME IOVERLAY, 0, STATIC
        ARGFRAME DOVERLAY, 0, STATIC
        FUNCALL zclSampleHeatingCoolingUnit_event_loop, UART_DebugPrint
        LOCFRAME ISTACK, 0, STACK
        LOCFRAME PSTACK, 0, STACK
        LOCFRAME XSTACK, 16, STACK
        LOCFRAME IOVERLAY, 0, STATIC
        LOCFRAME DOVERLAY, 0, STATIC
        ARGFRAME ISTACK, 0, STACK
        ARGFRAME PSTACK, 0, STACK
        ARGFRAME XSTACK, 16, STACK
        ARGFRAME IOVERLAY, 0, STATIC
        ARGFRAME DOVERLAY, 0, STATIC
        FUNCALL zclSampleHeatingCoolingUnit_event_loop, zclSampleHeatingCoolingUnit_LcdDisplayMainMode
        LOCFRAME ISTACK, 0, STACK
        LOCFRAME PSTACK, 0, STACK
        LOCFRAME XSTACK, 16, STACK
        LOCFRAME IOVERLAY, 0, STATIC
        LOCFRAME DOVERLAY, 0, STATIC
        ARGFRAME ISTACK, 0, STACK
        ARGFRAME PSTACK, 0, STACK
        ARGFRAME XSTACK, 16, STACK
        ARGFRAME IOVERLAY, 0, STATIC
        ARGFRAME DOVERLAY, 0, STATIC
        FUNCALL zclSampleHeatingCoolingUnit_event_loop, zcl_EZModeAction
        LOCFRAME ISTACK, 0, STACK
        LOCFRAME PSTACK, 0, STACK
        LOCFRAME XSTACK, 16, STACK
        LOCFRAME IOVERLAY, 0, STATIC
        LOCFRAME DOVERLAY, 0, STATIC
        ARGFRAME ISTACK, 0, STACK
        ARGFRAME PSTACK, 0, STACK
        ARGFRAME XSTACK, 16, STACK
        ARGFRAME IOVERLAY, 0, STATIC
        ARGFRAME DOVERLAY, 0, STATIC
        FUNCALL zclSampleHeatingCoolingUnit_event_loop, UART_DebugPrint
        LOCFRAME ISTACK, 0, STACK
        LOCFRAME PSTACK, 0, STACK
        LOCFRAME XSTACK, 16, STACK
        LOCFRAME IOVERLAY, 0, STATIC
        LOCFRAME DOVERLAY, 0, STATIC
        ARGFRAME ISTACK, 0, STACK
        ARGFRAME PSTACK, 0, STACK
        ARGFRAME XSTACK, 16, STACK
        ARGFRAME IOVERLAY, 0, STATIC
        ARGFRAME DOVERLAY, 0, STATIC
        FUNCALL zclSampleHeatingCoolingUnit_event_loop, osal_msg_deallocate
        LOCFRAME ISTACK, 0, STACK
        LOCFRAME PSTACK, 0, STACK
        LOCFRAME XSTACK, 16, STACK
        LOCFRAME IOVERLAY, 0, STATIC
        LOCFRAME DOVERLAY, 0, STATIC
        ARGFRAME ISTACK, 0, STACK
        ARGFRAME PSTACK, 0, STACK
        ARGFRAME XSTACK, 16, STACK
        ARGFRAME IOVERLAY, 0, STATIC
        ARGFRAME DOVERLAY, 0, STATIC
        FUNCALL zclSampleHeatingCoolingUnit_event_loop, osal_msg_receive
        LOCFRAME ISTACK, 0, STACK
        LOCFRAME PSTACK, 0, STACK
        LOCFRAME XSTACK, 16, STACK
        LOCFRAME IOVERLAY, 0, STATIC
        LOCFRAME DOVERLAY, 0, STATIC
        ARGFRAME ISTACK, 0, STACK
        ARGFRAME PSTACK, 0, STACK
        ARGFRAME XSTACK, 16, STACK
        ARGFRAME IOVERLAY, 0, STATIC
        ARGFRAME DOVERLAY, 0, STATIC
        FUNCALL zclSampleHeatingCoolingUnit_event_loop, ZDO_ParseEPListRsp
        LOCFRAME ISTACK, 0, STACK
        LOCFRAME PSTACK, 0, STACK
        LOCFRAME XSTACK, 16, STACK
        LOCFRAME IOVERLAY, 0, STATIC
        LOCFRAME DOVERLAY, 0, STATIC
        ARGFRAME ISTACK, 0, STACK
        ARGFRAME PSTACK, 0, STACK
        ARGFRAME XSTACK, 16, STACK
        ARGFRAME IOVERLAY, 0, STATIC
        ARGFRAME DOVERLAY, 0, STATIC
        FUNCALL zclSampleHeatingCoolingUnit_event_loop, zcl_EZModeAction
        LOCFRAME ISTACK, 0, STACK
        LOCFRAME PSTACK, 0, STACK
        LOCFRAME XSTACK, 16, STACK
        LOCFRAME IOVERLAY, 0, STATIC
        LOCFRAME DOVERLAY, 0, STATIC
        ARGFRAME ISTACK, 0, STACK
        ARGFRAME PSTACK, 0, STACK
        ARGFRAME XSTACK, 16, STACK
        ARGFRAME IOVERLAY, 0, STATIC
        ARGFRAME DOVERLAY, 0, STATIC
        FUNCALL zclSampleHeatingCoolingUnit_event_loop, osal_mem_free
        LOCFRAME ISTACK, 0, STACK
        LOCFRAME PSTACK, 0, STACK
        LOCFRAME XSTACK, 16, STACK
        LOCFRAME IOVERLAY, 0, STATIC
        LOCFRAME DOVERLAY, 0, STATIC
        ARGFRAME ISTACK, 0, STACK
        ARGFRAME PSTACK, 0, STACK
        ARGFRAME XSTACK, 16, STACK
        ARGFRAME IOVERLAY, 0, STATIC
        ARGFRAME DOVERLAY, 0, STATIC
        FUNCALL zclSampleHeatingCoolingUnit_event_loop, UART_DebugPrint
        LOCFRAME ISTACK, 0, STACK
        LOCFRAME PSTACK, 0, STACK
        LOCFRAME XSTACK, 16, STACK
        LOCFRAME IOVERLAY, 0, STATIC
        LOCFRAME DOVERLAY, 0, STATIC
        ARGFRAME ISTACK, 0, STACK
        ARGFRAME PSTACK, 0, STACK
        ARGFRAME XSTACK, 16, STACK
        ARGFRAME IOVERLAY, 0, STATIC
        ARGFRAME DOVERLAY, 0, STATIC
        FUNCALL zclSampleHeatingCoolingUnit_event_loop, zclSampleHeatingCoolingUnit_ProcessInReportCmd
        LOCFRAME ISTACK, 0, STACK
        LOCFRAME PSTACK, 0, STACK
        LOCFRAME XSTACK, 16, STACK
        LOCFRAME IOVERLAY, 0, STATIC
        LOCFRAME DOVERLAY, 0, STATIC
        ARGFRAME ISTACK, 0, STACK
        ARGFRAME PSTACK, 0, STACK
        ARGFRAME XSTACK, 16, STACK
        ARGFRAME IOVERLAY, 0, STATIC
        ARGFRAME DOVERLAY, 0, STATIC
        FUNCALL zclSampleHeatingCoolingUnit_event_loop, osal_mem_free
        LOCFRAME ISTACK, 0, STACK
        LOCFRAME PSTACK, 0, STACK
        LOCFRAME XSTACK, 16, STACK
        LOCFRAME IOVERLAY, 0, STATIC
        LOCFRAME DOVERLAY, 0, STATIC
        ARGFRAME ISTACK, 0, STACK
        ARGFRAME PSTACK, 0, STACK
        ARGFRAME XSTACK, 16, STACK
        ARGFRAME IOVERLAY, 0, STATIC
        ARGFRAME DOVERLAY, 0, STATIC
        FUNCALL zclSampleHeatingCoolingUnit_event_loop, UART_DebugPrint
        LOCFRAME ISTACK, 0, STACK
        LOCFRAME PSTACK, 0, STACK
        LOCFRAME XSTACK, 16, STACK
        LOCFRAME IOVERLAY, 0, STATIC
        LOCFRAME DOVERLAY, 0, STATIC
        ARGFRAME ISTACK, 0, STACK
        ARGFRAME PSTACK, 0, STACK
        ARGFRAME XSTACK, 16, STACK
        ARGFRAME IOVERLAY, 0, STATIC
        ARGFRAME DOVERLAY, 0, STATIC
        FUNCALL zclSampleHeatingCoolingUnit_event_loop, zclSampleHeatingCoolingUnit_HandleKeys
        LOCFRAME ISTACK, 0, STACK
        LOCFRAME PSTACK, 0, STACK
        LOCFRAME XSTACK, 16, STACK
        LOCFRAME IOVERLAY, 0, STATIC
        LOCFRAME DOVERLAY, 0, STATIC
        ARGFRAME ISTACK, 0, STACK
        ARGFRAME PSTACK, 0, STACK
        ARGFRAME XSTACK, 16, STACK
        ARGFRAME IOVERLAY, 0, STATIC
        ARGFRAME DOVERLAY, 0, STATIC
        FUNCALL zclSampleHeatingCoolingUnit_event_loop, UART_DebugPrint
        LOCFRAME ISTACK, 0, STACK
        LOCFRAME PSTACK, 0, STACK
        LOCFRAME XSTACK, 16, STACK
        LOCFRAME IOVERLAY, 0, STATIC
        LOCFRAME DOVERLAY, 0, STATIC
        ARGFRAME ISTACK, 0, STACK
        ARGFRAME PSTACK, 0, STACK
        ARGFRAME XSTACK, 16, STACK
        ARGFRAME IOVERLAY, 0, STATIC
        ARGFRAME DOVERLAY, 0, STATIC
        FUNCALL zclSampleHeatingCoolingUnit_event_loop, zclSampleHeatingCoolingUnit_LcdDisplayMainMode
        LOCFRAME ISTACK, 0, STACK
        LOCFRAME PSTACK, 0, STACK
        LOCFRAME XSTACK, 16, STACK
        LOCFRAME IOVERLAY, 0, STATIC
        LOCFRAME DOVERLAY, 0, STATIC
        ARGFRAME ISTACK, 0, STACK
        ARGFRAME PSTACK, 0, STACK
        ARGFRAME XSTACK, 16, STACK
        ARGFRAME IOVERLAY, 0, STATIC
        ARGFRAME DOVERLAY, 0, STATIC
        FUNCALL zclSampleHeatingCoolingUnit_event_loop, UART_DebugPrint
        LOCFRAME ISTACK, 0, STACK
        LOCFRAME PSTACK, 0, STACK
        LOCFRAME XSTACK, 16, STACK
        LOCFRAME IOVERLAY, 0, STATIC
        LOCFRAME DOVERLAY, 0, STATIC
        ARGFRAME ISTACK, 0, STACK
        ARGFRAME PSTACK, 0, STACK
        ARGFRAME XSTACK, 16, STACK
        ARGFRAME IOVERLAY, 0, STATIC
        ARGFRAME DOVERLAY, 0, STATIC
        FUNCALL zclSampleHeatingCoolingUnit_event_loop, zcl_EZModeAction
        LOCFRAME ISTACK, 0, STACK
        LOCFRAME PSTACK, 0, STACK
        LOCFRAME XSTACK, 16, STACK
        LOCFRAME IOVERLAY, 0, STATIC
        LOCFRAME DOVERLAY, 0, STATIC
        ARGFRAME ISTACK, 0, STACK
        ARGFRAME PSTACK, 0, STACK
        ARGFRAME XSTACK, 16, STACK
        ARGFRAME IOVERLAY, 0, STATIC
        ARGFRAME DOVERLAY, 0, STATIC
        FUNCALL zclSampleHeatingCoolingUnit_event_loop, UART_DebugPrint
        LOCFRAME ISTACK, 0, STACK
        LOCFRAME PSTACK, 0, STACK
        LOCFRAME XSTACK, 16, STACK
        LOCFRAME IOVERLAY, 0, STATIC
        LOCFRAME DOVERLAY, 0, STATIC
        ARGFRAME ISTACK, 0, STACK
        ARGFRAME PSTACK, 0, STACK
        ARGFRAME XSTACK, 16, STACK
        ARGFRAME IOVERLAY, 0, STATIC
        ARGFRAME DOVERLAY, 0, STATIC
        FUNCALL zclSampleHeatingCoolingUnit_event_loop, zcl_EZModeAction
        LOCFRAME ISTACK, 0, STACK
        LOCFRAME PSTACK, 0, STACK
        LOCFRAME XSTACK, 16, STACK
        LOCFRAME IOVERLAY, 0, STATIC
        LOCFRAME DOVERLAY, 0, STATIC
        ARGFRAME ISTACK, 0, STACK
        ARGFRAME PSTACK, 0, STACK
        ARGFRAME XSTACK, 16, STACK
        ARGFRAME IOVERLAY, 0, STATIC
        ARGFRAME DOVERLAY, 0, STATIC
        FUNCALL zclSampleHeatingCoolingUnit_event_loop, UART_DebugPrint
        LOCFRAME ISTACK, 0, STACK
        LOCFRAME PSTACK, 0, STACK
        LOCFRAME XSTACK, 16, STACK
        LOCFRAME IOVERLAY, 0, STATIC
        LOCFRAME DOVERLAY, 0, STATIC
        ARGFRAME ISTACK, 0, STACK
        ARGFRAME PSTACK, 0, STACK
        ARGFRAME XSTACK, 16, STACK
        ARGFRAME IOVERLAY, 0, STATIC
        ARGFRAME DOVERLAY, 0, STATIC
        FUNCALL zclSampleHeatingCoolingUnit_event_loop, zclSampleHeatingCoolingUnit_BindingProcess
        LOCFRAME ISTACK, 0, STACK
        LOCFRAME PSTACK, 0, STACK
        LOCFRAME XSTACK, 16, STACK
        LOCFRAME IOVERLAY, 0, STATIC
        LOCFRAME DOVERLAY, 0, STATIC
        ARGFRAME ISTACK, 0, STACK
        ARGFRAME PSTACK, 0, STACK
        ARGFRAME XSTACK, 16, STACK
        ARGFRAME IOVERLAY, 0, STATIC
        ARGFRAME DOVERLAY, 0, STATIC
        FUNCALL zclSampleHeatingCoolingUnit_event_loop, osal_start_timerEx
        LOCFRAME ISTACK, 0, STACK
        LOCFRAME PSTACK, 0, STACK
        LOCFRAME XSTACK, 20, STACK
        LOCFRAME IOVERLAY, 0, STATIC
        LOCFRAME DOVERLAY, 0, STATIC
        ARGFRAME ISTACK, 0, STACK
        ARGFRAME PSTACK, 0, STACK
        ARGFRAME XSTACK, 20, STACK
        ARGFRAME IOVERLAY, 0, STATIC
        ARGFRAME DOVERLAY, 0, STATIC
        FUNCALL zclSampleHeatingCoolingUnit_event_loop, zclSampleHeatingCoolingUnit_BindingProcess
        LOCFRAME ISTACK, 0, STACK
        LOCFRAME PSTACK, 0, STACK
        LOCFRAME XSTACK, 16, STACK
        LOCFRAME IOVERLAY, 0, STATIC
        LOCFRAME DOVERLAY, 0, STATIC
        ARGFRAME ISTACK, 0, STACK
        ARGFRAME PSTACK, 0, STACK
        ARGFRAME XSTACK, 16, STACK
        ARGFRAME IOVERLAY, 0, STATIC
        ARGFRAME DOVERLAY, 0, STATIC
        FUNCALL zclSampleHeatingCoolingUnit_event_loop, UART_DebugPrint
        LOCFRAME ISTACK, 0, STACK
        LOCFRAME PSTACK, 0, STACK
        LOCFRAME XSTACK, 16, STACK
        LOCFRAME IOVERLAY, 0, STATIC
        LOCFRAME DOVERLAY, 0, STATIC
        ARGFRAME ISTACK, 0, STACK
        ARGFRAME PSTACK, 0, STACK
        ARGFRAME XSTACK, 16, STACK
        ARGFRAME IOVERLAY, 0, STATIC
        ARGFRAME DOVERLAY, 0, STATIC
        FUNCALL zclSampleHeatingCoolingUnit_event_loop, UART_ParseRxPackage
        LOCFRAME ISTACK, 0, STACK
        LOCFRAME PSTACK, 0, STACK
        LOCFRAME XSTACK, 16, STACK
        LOCFRAME IOVERLAY, 0, STATIC
        LOCFRAME DOVERLAY, 0, STATIC
        ARGFRAME ISTACK, 0, STACK
        ARGFRAME PSTACK, 0, STACK
        ARGFRAME XSTACK, 16, STACK
        ARGFRAME IOVERLAY, 0, STATIC
        ARGFRAME DOVERLAY, 0, STATIC
        FUNCALL zclSampleHeatingCoolingUnit_event_loop, ZCMD_ReplyCMD
        LOCFRAME ISTACK, 0, STACK
        LOCFRAME PSTACK, 0, STACK
        LOCFRAME XSTACK, 16, STACK
        LOCFRAME IOVERLAY, 0, STATIC
        LOCFRAME DOVERLAY, 0, STATIC
        ARGFRAME ISTACK, 0, STACK
        ARGFRAME PSTACK, 0, STACK
        ARGFRAME XSTACK, 16, STACK
        ARGFRAME IOVERLAY, 0, STATIC
        ARGFRAME DOVERLAY, 0, STATIC
        FUNCALL zclSampleHeatingCoolingUnit_event_loop, osal_start_timerEx
        LOCFRAME ISTACK, 0, STACK
        LOCFRAME PSTACK, 0, STACK
        LOCFRAME XSTACK, 20, STACK
        LOCFRAME IOVERLAY, 0, STATIC
        LOCFRAME DOVERLAY, 0, STATIC
        ARGFRAME ISTACK, 0, STACK
        ARGFRAME PSTACK, 0, STACK
        ARGFRAME XSTACK, 20, STACK
        ARGFRAME IOVERLAY, 0, STATIC
        ARGFRAME DOVERLAY, 0, STATIC
        FUNCALL zclSampleHeatingCoolingUnit_event_loop, osal_set_event
        LOCFRAME ISTACK, 0, STACK
        LOCFRAME PSTACK, 0, STACK
        LOCFRAME XSTACK, 16, STACK
        LOCFRAME IOVERLAY, 0, STATIC
        LOCFRAME DOVERLAY, 0, STATIC
        ARGFRAME ISTACK, 0, STACK
        ARGFRAME PSTACK, 0, STACK
        ARGFRAME XSTACK, 16, STACK
        ARGFRAME IOVERLAY, 0, STATIC
        ARGFRAME DOVERLAY, 0, STATIC
        FUNCALL zclSampleHeatingCoolingUnit_event_loop, osal_start_timerEx
        LOCFRAME ISTACK, 0, STACK
        LOCFRAME PSTACK, 0, STACK
        LOCFRAME XSTACK, 20, STACK
        LOCFRAME IOVERLAY, 0, STATIC
        LOCFRAME DOVERLAY, 0, STATIC
        ARGFRAME ISTACK, 0, STACK
        ARGFRAME PSTACK, 0, STACK
        ARGFRAME XSTACK, 20, STACK
        ARGFRAME IOVERLAY, 0, STATIC
        ARGFRAME DOVERLAY, 0, STATIC
        REQUIRE ?V0
        REQUIRE ?V1
        REQUIRE ?V2
        REQUIRE ?V3
        REQUIRE ?V4
        REQUIRE ?V5
        MOV     A,#-0xe
        LCALL   ?BANKED_ENTER_XDATA
          CFI DPH0 load(1, XDATA, add(CFA_XSP16, literal(-1)))
          CFI DPL0 load(1, XDATA, add(CFA_XSP16, literal(-2)))
          CFI ?BRET_EXT load(1, XDATA, add(CFA_XSP16, literal(-3)))
          CFI ?RET_HIGH load(1, XDATA, add(CFA_XSP16, literal(-4)))
          CFI ?RET_LOW load(1, XDATA, add(CFA_XSP16, literal(-5)))
          CFI R7 load(1, XDATA, add(CFA_XSP16, literal(-6)))
          CFI V5 load(1, XDATA, add(CFA_XSP16, literal(-7)))
          CFI V4 load(1, XDATA, add(CFA_XSP16, literal(-8)))
          CFI V3 load(1, XDATA, add(CFA_XSP16, literal(-9)))
          CFI V2 load(1, XDATA, add(CFA_XSP16, literal(-10)))
          CFI V1 load(1, XDATA, add(CFA_XSP16, literal(-11)))
          CFI V0 load(1, XDATA, add(CFA_XSP16, literal(-12)))
          CFI VB load(1, XDATA, add(CFA_XSP16, literal(-13)))
          CFI R6 load(1, XDATA, add(CFA_XSP16, literal(-14)))
          CFI CFA_SP SP+0
          CFI CFA_XSP16 add(XSP16, 14)
        ; Saved register size: 14
        ; Auto size: 2
        MOV     A,#-0x2
        LCALL   ?ALLOC_XSTACK8
          CFI CFA_XSP16 add(XSP16, 16)
        MOV     A,R2
        MOV     R6,A
        MOV     A,R3
        MOV     R7,A
//  312   afIncomingMSGPacket_t *MSGpkt;
//  313 
//  314   (void)task_id;  // Intentionally unreferenced parameter
//  315 
//  316 	/*--------------------------------------------------------------------------*/
//  317   if ( events & SYS_EVENT_MSG )
        ANL     A,#0x80
        JNZ     ??zclSampleHeatingCoolingUnit_event_loop_0
//  318   {
//  319     while ( (MSGpkt = (afIncomingMSGPacket_t *)osal_msg_receive( zclSampleHeatingCoolingUnit_TaskID ) ) )
//  320     {
//  321 			msg_RSSI = MSGpkt->rssi;
//  322 		
//  323       switch ( MSGpkt->hdr.event )
//  324       {
//  325 				#ifdef ZCL_EZMODE
//  326         case ZDO_CB_MSG:
//  327           zclSampleHeatingCoolingUnit_ProcessZDOMsgs( (zdoIncomingMsg_t *)MSGpkt );
//  328 					UART_DebugPrint(HAL_UART_PORT_0, "[EVENT] ZDO_CB_MSG");
//  329           break;
//  330 				#endif
//  331 
//  332         case ZCL_INCOMING_MSG:
//  333           // Incoming ZCL Foundation command/response messages
//  334           zclSampleHeatingCoolingUnit_ProcessIncomingMsg( (zclIncomingMsg_t *)MSGpkt );
//  335 					UART_DebugPrint(HAL_UART_PORT_0, "[EVENT] ZCL_INCOMING_MSG");
//  336           break;
//  337 
//  338         case KEY_CHANGE:
//  339           zclSampleHeatingCoolingUnit_HandleKeys( ( (keyChange_t *)MSGpkt)->state, ( (keyChange_t *)MSGpkt)->keys );
//  340 					UART_DebugPrint(HAL_UART_PORT_0, "[EVENT] KEY_CHANGE");
//  341 					break;
//  342 
//  343         case ZDO_STATE_CHANGE:
//  344           zclSampleHeatingCoolingUnit_NwkState = (devStates_t)(MSGpkt->hdr.status);
//  345 
//  346 
//  347           // now on the network
//  348           if ( ( zclSampleHeatingCoolingUnit_NwkState == DEV_ZB_COORD ) ||
//  349                ( zclSampleHeatingCoolingUnit_NwkState == DEV_ROUTER )   ||
//  350                ( zclSampleHeatingCoolingUnit_NwkState == DEV_END_DEVICE ) )
//  351           {
//  352 						#ifndef HOLD_AUTO_START
//  353             giHeatingCoolingUnitScreenMode = HEATCOOLUNIT_MAINMODE;
//  354 
//  355             zclSampleHeatingCoolingUnit_LcdDisplayMainMode();
//  356 						#endif
//  357 						#ifdef ZCL_EZMODE
//  358             zcl_EZModeAction( EZMODE_ACTION_NETWORK_STARTED, NULL );
//  359 						#endif // ZCL_EZMODE
//  360 
//  361 						UART_DebugPrint(HAL_UART_PORT_0, "[EVENT] ZDO_STATE_CHANGE");
//  362           }
//  363           break;
//  364 
//  365         default:
//  366           break;
//  367       }
//  368 
//  369       // Release the memory
//  370       osal_msg_deallocate( (uint8 *)MSGpkt );
//  371     }
//  372 
//  373     // return unprocessed events
//  374     return (events ^ SYS_EVENT_MSG);
//  375   }
//  376 
//  377 	/*--------------------------------------------------------------------------*/
//  378   if ( events & SAMPLEHEATINGCOOLINGUNIT_IDENTIFY_TIMEOUT_EVT )
        MOV     A,R6
        MOV     C,0xE0 /* A   */.0
        JC      $+5
        LJMP    ??zclSampleHeatingCoolingUnit_event_loop_1 & 0xFFFF
//  379   {
//  380     if ( zclSampleHeatingCoolingUnit_IdentifyTime > 0 )
        LCALL   ?Subroutine8 & 0xFFFF
??CrossCallReturnLabel_8:
        MOV     A,R0
        ORL     A,R1
        JZ      ??zclSampleHeatingCoolingUnit_event_loop_2
//  381     {
//  382       zclSampleHeatingCoolingUnit_IdentifyTime--;
        MOV     DPTR,#zclSampleHeatingCoolingUnit_IdentifyTime
        MOVX    A,@DPTR
        ADD     A,#-0x1
        MOVX    @DPTR,A
        INC     DPTR
        MOVX    A,@DPTR
        ADDC    A,#-0x1
        MOVX    @DPTR,A
//  383     }
//  384 
//  385     zclSampleHeatingCoolingUnit_ProcessIdentifyTimeChange();
??zclSampleHeatingCoolingUnit_event_loop_2:
        ; Setup parameters for call to function zclSampleHeatingCoolingUnit_ProcessIdentifyTimeChange
        LCALL   ??zclSampleHeatingCoolingUnit_ProcessIdentifyTi; Banked call to: zclSampleHeatingCoolingUnit_ProcessIdentifyTimeChange
//  386 
//  387 		UART_DebugPrint(HAL_UART_PORT_0, "[EVENT] SAMPLEHEATINGCOOLINGUNIT_IDENTIFY_TIMEOUT_EVT");
        ; Setup parameters for call to function UART_DebugPrint
        MOV     R2,#`?<Constant "[EVENT] SAMPLEHEATING...">` & 0xff
        MOV     R3,#(`?<Constant "[EVENT] SAMPLEHEATING...">` >> 8) & 0xff
        MOV     R1,#0x0
        LCALL   `??UART_DebugPrint::?relay`; Banked call to: UART_DebugPrint
//  388 
//  389     return ( events ^ SAMPLEHEATINGCOOLINGUNIT_IDENTIFY_TIMEOUT_EVT );
        MOV     A,R6
        XRL     A,#0x1
        LJMP    ??zclSampleHeatingCoolingUnit_event_loop_3 & 0xFFFF
//  390   }
??zclSampleHeatingCoolingUnit_event_loop_4:
        INC     DPTR
        MOVX    A,@DPTR
        MOV     DPTR,#zclSampleHeatingCoolingUnit_NwkState
        MOVX    @DPTR,A
        XRL     A,#0x9
        JZ      ??zclSampleHeatingCoolingUnit_event_loop_5
        MOVX    A,@DPTR
        XRL     A,#0x7
        JZ      ??zclSampleHeatingCoolingUnit_event_loop_5
        MOVX    A,@DPTR
        XRL     A,#0x6
        JNZ     ??zclSampleHeatingCoolingUnit_event_loop_6
??zclSampleHeatingCoolingUnit_event_loop_5:
        MOV     DPTR,#giHeatingCoolingUnitScreenMode
        CLR     A
        MOVX    @DPTR,A
        ; Setup parameters for call to function zclSampleHeatingCoolingUnit_LcdDisplayMainMode
        LCALL   ??zclSampleHeatingCoolingUnit_LcdDisplayMainMod; Banked call to: zclSampleHeatingCoolingUnit_LcdDisplayMainMode
        ; Setup parameters for call to function zcl_EZModeAction
        MOV     R2,#0x0
        MOV     R3,#0x0
        MOV     R1,#0x2
        LCALL   `??zcl_EZModeAction::?relay`; Banked call to: zcl_EZModeAction
        ; Setup parameters for call to function UART_DebugPrint
        MOV     R2,#`?<Constant "[EVENT] ZDO_STATE_CHANGE">` & 0xff
        MOV     R3,#(`?<Constant "[EVENT] ZDO_STATE_CHANGE">` >> 8) & 0xff
??zclSampleHeatingCoolingUnit_event_loop_7:
        MOV     R1,#0x0
        LCALL   `??UART_DebugPrint::?relay`; Banked call to: UART_DebugPrint
??zclSampleHeatingCoolingUnit_event_loop_6:
        ; Setup parameters for call to function osal_msg_deallocate
        MOV     R2,?V0
        MOV     R3,?V1
        LCALL   `??osal_msg_deallocate::?relay`; Banked call to: osal_msg_deallocate
??zclSampleHeatingCoolingUnit_event_loop_0:
        ; Setup parameters for call to function osal_msg_receive
        MOV     DPTR,#zclSampleHeatingCoolingUnit_TaskID
        MOVX    A,@DPTR
        MOV     R1,A
        LCALL   `??osal_msg_receive::?relay`; Banked call to: osal_msg_receive
        MOV     ?V0,R2
        MOV     ?V1,R3
        MOV     A,R2
        ORL     A,?V1
        JNZ     $+5
        LJMP    ??zclSampleHeatingCoolingUnit_event_loop_8 & 0xFFFF
        MOV     A,R2
        ADD     A,#0x18
        MOV     DPL,A
        CLR     A
        ADDC    A,?V1
        MOV     DPH,A
        MOVX    A,@DPTR
        MOV     DPTR,#msg_RSSI
        MOVX    @DPTR,A
        MOV     DPL,R2
        MOV     DPH,R3
        MOVX    A,@DPTR
        ADD     A,#-0x34
        JZ      ??zclSampleHeatingCoolingUnit_event_loop_9
        ADD     A,#0x74
        JNZ     $+5
        LJMP    ??zclSampleHeatingCoolingUnit_event_loop_10 & 0xFFFF
        ADD     A,#-0x11
        JZ      ??zclSampleHeatingCoolingUnit_event_loop_4
        ADD     A,#-0x2
        JNZ     ??zclSampleHeatingCoolingUnit_event_loop_6
        MOV     A,R2
        ADD     A,#0xc
        MOV     DPL,A
        CLR     A
        ADDC    A,?V1
        MOV     DPH,A
        MOVX    A,@DPTR
        XRL     A,#0x6
        JNZ     ??zclSampleHeatingCoolingUnit_event_loop_11
        INC     DPTR
        MOVX    A,@DPTR
        XRL     A,#0x80
??zclSampleHeatingCoolingUnit_event_loop_11:
        JNZ     ??zclSampleHeatingCoolingUnit_event_loop_12
        ; Setup parameters for call to function ZDO_ParseEPListRsp
        LCALL   `??ZDO_ParseEPListRsp::?relay`; Banked call to: ZDO_ParseEPListRsp
        MOV     ?V2,R2
        MOV     ?V3,R3
        LCALL   ?Subroutine3 & 0xFFFF
??CrossCallReturnLabel_10:
        MOV     R1,#0x5
        LCALL   `??zcl_EZModeAction::?relay`; Banked call to: zcl_EZModeAction
        ; Setup parameters for call to function osal_mem_free
        MOV     R2,?V2
        MOV     R3,?V3
        LCALL   `??osal_mem_free::?relay`; Banked call to: osal_mem_free
??zclSampleHeatingCoolingUnit_event_loop_12:
        ; Setup parameters for call to function UART_DebugPrint
        MOV     R2,#`?<Constant "[EVENT] ZDO_CB_MSG">` & 0xff
        MOV     R3,#(`?<Constant "[EVENT] ZDO_CB_MSG">` >> 8) & 0xff
        SJMP    ??zclSampleHeatingCoolingUnit_event_loop_7
??zclSampleHeatingCoolingUnit_event_loop_9:
        MOV     A,R2
        ADD     A,#0x17
        MOV     ?V2,A
        CLR     A
        ADDC    A,?V1
        MOV     ?V3,A
        INC     DPTR
        INC     DPTR
        INC     DPTR
        INC     DPTR
        INC     DPTR
        INC     DPTR
        INC     DPTR
        MOVX    A,@DPTR
        DEC     A
        JZ      ??zclSampleHeatingCoolingUnit_event_loop_13
        ADD     A,#-0x3
        JZ      ??zclSampleHeatingCoolingUnit_event_loop_14
        ADD     A,#-0x6
        JNZ     ??zclSampleHeatingCoolingUnit_event_loop_15
        ; Setup parameters for call to function zclSampleHeatingCoolingUnit_ProcessInReportCmd
        LCALL   ??zclSampleHeatingCoolingUnit_ProcessInReportCm; Banked call to: zclSampleHeatingCoolingUnit_ProcessInReportCmd
        SJMP    ??zclSampleHeatingCoolingUnit_event_loop_15
??zclSampleHeatingCoolingUnit_event_loop_14:
        LCALL   ?Subroutine7 & 0xFFFF
??CrossCallReturnLabel_4:
        MOVX    A,@DPTR
        MOV     R1,A
        MOV     A,R0
        CLR     C
        SUBB    A,R1
        JNC     ??zclSampleHeatingCoolingUnit_event_loop_15
        INC     R0
        SJMP    ??CrossCallReturnLabel_4
??zclSampleHeatingCoolingUnit_event_loop_13:
        LCALL   ?Subroutine7 & 0xFFFF
??CrossCallReturnLabel_5:
        SJMP    ??zclSampleHeatingCoolingUnit_event_loop_16
??zclSampleHeatingCoolingUnit_event_loop_17:
        INC     R0
??zclSampleHeatingCoolingUnit_event_loop_16:
        MOVX    A,@DPTR
        MOV     R1,A
        MOV     A,R0
        CLR     C
        SUBB    A,R1
        JC      ??zclSampleHeatingCoolingUnit_event_loop_17
??zclSampleHeatingCoolingUnit_event_loop_15:
        MOV     DPL,?V2
        MOV     DPH,?V3
        MOVX    A,@DPTR
        MOV     R2,A
        INC     DPTR
        MOVX    A,@DPTR
        MOV     R3,A
        MOV     A,R2
        ORL     A,R3
        JZ      ??zclSampleHeatingCoolingUnit_event_loop_18
        ; Setup parameters for call to function osal_mem_free
        LCALL   `??osal_mem_free::?relay`; Banked call to: osal_mem_free
??zclSampleHeatingCoolingUnit_event_loop_18:
        ; Setup parameters for call to function UART_DebugPrint
        MOV     R2,#`?<Constant "[EVENT] ZCL_INCOMING_MSG">` & 0xff
        MOV     R3,#(`?<Constant "[EVENT] ZCL_INCOMING_MSG">` >> 8) & 0xff
        LJMP    ??zclSampleHeatingCoolingUnit_event_loop_7 & 0xFFFF
??zclSampleHeatingCoolingUnit_event_loop_10:
        ; Setup parameters for call to function zclSampleHeatingCoolingUnit_HandleKeys
        INC     DPTR
        INC     DPTR
        INC     DPTR
        MOVX    A,@DPTR
        MOV     R2,A
        MOV     DPL,?V0
        MOV     DPH,R3
        INC     DPTR
        INC     DPTR
        MOVX    A,@DPTR
        MOV     R1,A
        LCALL   `??zclSampleHeatingCoolingUnit_HandleKeys::?rela`; Banked call to: zclSampleHeatingCoolingUnit_HandleKeys
        ; Setup parameters for call to function UART_DebugPrint
        MOV     R2,#`?<Constant "[EVENT] KEY_CHANGE">` & 0xff
        MOV     R3,#(`?<Constant "[EVENT] KEY_CHANGE">` >> 8) & 0xff
        LJMP    ??zclSampleHeatingCoolingUnit_event_loop_7 & 0xFFFF
??zclSampleHeatingCoolingUnit_event_loop_8:
        MOV     A,R6
        MOV     R2,A
        MOV     A,R7
        XRL     A,#0x80
        LJMP    ??zclSampleHeatingCoolingUnit_event_loop_19 & 0xFFFF
//  391 
//  392 	/*--------------------------------------------------------------------------*/
//  393   if ( events & SAMPLEHEATINGCOOLINGUNIT_MAIN_SCREEN_EVT )
??zclSampleHeatingCoolingUnit_event_loop_1:
        ANL     A,#0x10
        JZ      ??zclSampleHeatingCoolingUnit_event_loop_20
//  394   {
//  395     giHeatingCoolingUnitScreenMode = HEATCOOLUNIT_MAINMODE;
        MOV     DPTR,#giHeatingCoolingUnitScreenMode
        CLR     A
        MOVX    @DPTR,A
//  396     zclSampleHeatingCoolingUnit_LcdDisplayMainMode();
        ; Setup parameters for call to function zclSampleHeatingCoolingUnit_LcdDisplayMainMode
        LCALL   ??zclSampleHeatingCoolingUnit_LcdDisplayMainMod; Banked call to: zclSampleHeatingCoolingUnit_LcdDisplayMainMode
//  397 
//  398 		if (FLAG_BINDING)
        MOV     DPTR,#FLAG_BINDING
        MOVX    A,@DPTR
        JZ      ??zclSampleHeatingCoolingUnit_event_loop_21
//  399 		{
//  400 			FLAG_BINDING = FALSE;
        CLR     A
        MOVX    @DPTR,A
//  401 			if (FLAG_HARD_BINDING)
        MOV     DPTR,#FLAG_HARD_BINDING
        MOVX    A,@DPTR
        JZ      ??zclSampleHeatingCoolingUnit_event_loop_21
//  402 			{
//  403 				FLAG_HARD_BINDING = FALSE;
        CLR     A
        MOVX    @DPTR,A
//  404 			}
//  405 		}
//  406 		UART_DebugPrint(HAL_UART_PORT_0, "[EVENT] SAMPLEHEATINGCOOLINGUNIT_MAIN_SCREEN_EVT");
??zclSampleHeatingCoolingUnit_event_loop_21:
        ; Setup parameters for call to function UART_DebugPrint
        MOV     R2,#`?<Constant "[EVENT] SAMPLEHEATING...">_1` & 0xff
        MOV     R3,#(`?<Constant "[EVENT] SAMPLEHEATING...">_1` >> 8) & 0xff
        MOV     R1,#0x0
        LCALL   `??UART_DebugPrint::?relay`; Banked call to: UART_DebugPrint
//  407 
//  408     return ( events ^ SAMPLEHEATINGCOOLINGUNIT_MAIN_SCREEN_EVT );
        MOV     A,R6
        XRL     A,#0x10
        LJMP    ??zclSampleHeatingCoolingUnit_event_loop_3 & 0xFFFF
//  409   }
//  410 
//  411 	/*--------------------------------------------------------------------------*/
//  412 	#ifdef ZCL_EZMODE
//  413   // going on to next state
//  414   if ( events & SAMPLEHEATINGCOOLINGUNIT_EZMODE_NEXTSTATE_EVT )
??zclSampleHeatingCoolingUnit_event_loop_20:
        MOV     A,R6
        ANL     A,#0x4
        JZ      ??zclSampleHeatingCoolingUnit_event_loop_22
//  415   {
//  416     zcl_EZModeAction ( EZMODE_ACTION_PROCESS, NULL );   // going on to next state
        ; Setup parameters for call to function zcl_EZModeAction
        MOV     R2,#0x0
        MOV     R3,#0x0
        MOV     R1,#0x1
        LCALL   `??zcl_EZModeAction::?relay`; Banked call to: zcl_EZModeAction
//  417 
//  418 		UART_DebugPrint(HAL_UART_PORT_0, "[EVENT] SAMPLEHEATINGCOOLINGUNIT_EZMODE_NEXTSTATE_EVT");
        ; Setup parameters for call to function UART_DebugPrint
        MOV     R2,#`?<Constant "[EVENT] SAMPLEHEATING...">_2` & 0xff
        MOV     R3,#(`?<Constant "[EVENT] SAMPLEHEATING...">_2` >> 8) & 0xff
        MOV     R1,#0x0
        LCALL   `??UART_DebugPrint::?relay`; Banked call to: UART_DebugPrint
//  419 		
//  420     return ( events ^ SAMPLEHEATINGCOOLINGUNIT_EZMODE_NEXTSTATE_EVT );
        MOV     A,R6
        XRL     A,#0x4
        LJMP    ??zclSampleHeatingCoolingUnit_event_loop_3 & 0xFFFF
//  421   }
//  422 
//  423 	/*--------------------------------------------------------------------------*/
//  424   // the overall EZMode timer expired, so we timed out
//  425   if ( events & SAMPLEHEATINGCOOLINGUNIT_EZMODE_TIMEOUT_EVT )
??zclSampleHeatingCoolingUnit_event_loop_22:
        MOV     A,R6
        ANL     A,#0x8
        JZ      ??zclSampleHeatingCoolingUnit_event_loop_23
//  426   {
//  427     zcl_EZModeAction ( EZMODE_ACTION_TIMED_OUT, NULL ); // EZ-Mode timed out
        ; Setup parameters for call to function zcl_EZModeAction
        MOV     R2,#0x0
        MOV     R3,#0x0
        MOV     R1,#0x63
        LCALL   `??zcl_EZModeAction::?relay`; Banked call to: zcl_EZModeAction
//  428     UART_DebugPrint(HAL_UART_PORT_0, "[EVENT] SAMPLEHEATINGCOOLINGUNIT_EZMODE_TIMEOUT_EVT");
        ; Setup parameters for call to function UART_DebugPrint
        MOV     R2,#`?<Constant "[EVENT] SAMPLEHEATING...">_3` & 0xff
        MOV     R3,#(`?<Constant "[EVENT] SAMPLEHEATING...">_3` >> 8) & 0xff
        MOV     R1,#0x0
        LCALL   `??UART_DebugPrint::?relay`; Banked call to: UART_DebugPrint
//  429     return ( events ^ SAMPLEHEATINGCOOLINGUNIT_EZMODE_TIMEOUT_EVT );
        MOV     A,R6
        XRL     A,#0x8
        LJMP    ??zclSampleHeatingCoolingUnit_event_loop_3 & 0xFFFF
//  430   }
//  431 	#endif // ZLC_EZMODE
//  432 
//  433 	/*--------------------------------------------------------------------------*/
//  434 	if ( events & SAMPLEHEATINGCOOLINGUNIT_JOIN_SETUP_EVT )
??zclSampleHeatingCoolingUnit_event_loop_23:
        MOV     A,R6
        ANL     A,#0x20
        JZ      ??zclSampleHeatingCoolingUnit_event_loop_24
//  435   {
//  436 		if (FLAG_JOIN_CONFIRM == FALSE && FLAG_BINDING == FALSE)
        MOV     DPTR,#FLAG_JOIN_CONFIRM
        MOVX    A,@DPTR
        JNZ     ??zclSampleHeatingCoolingUnit_event_loop_25
        MOV     DPTR,#FLAG_BINDING
        MOVX    A,@DPTR
        JNZ     ??zclSampleHeatingCoolingUnit_event_loop_26
//  437 		{
//  438 			zclSampleHeatingCoolingUnit_BindingProcess();
        ; Setup parameters for call to function zclSampleHeatingCoolingUnit_BindingProcess
        LCALL   `??zclSampleHeatingCoolingUnit_BindingProcess::?`; Banked call to: zclSampleHeatingCoolingUnit_BindingProcess
//  439 			// Stop binding after 5000ms (time for process...)
//  440 			osal_start_timerEx( zclSampleHeatingCoolingUnit_TaskID, SAMPLEHEATINGCOOLINGUNIT_JOIN_SETUP_EVT, 5000 );
        ; Setup parameters for call to function osal_start_timerEx
        MOV     DPTR,#__Constant_1388
        LCALL   ?PUSH_XSTACK8_X_FOUR
          CFI CFA_XSP16 add(XSP16, 20)
        MOV     R2,#0x20
        MOV     R3,#0x0
        MOV     DPTR,#zclSampleHeatingCoolingUnit_TaskID
        MOVX    A,@DPTR
        MOV     R1,A
        LCALL   `??osal_start_timerEx::?relay`; Banked call to: osal_start_timerEx
        MOV     A,#0x4
        LCALL   ?DEALLOC_XSTACK8
          CFI CFA_XSP16 add(XSP16, 16)
        SJMP    ??zclSampleHeatingCoolingUnit_event_loop_26
//  441 		}
//  442 		else if (FLAG_JOIN_CONFIRM == TRUE && FLAG_BINDING == TRUE)
??zclSampleHeatingCoolingUnit_event_loop_25:
        XRL     A,#0x1
        JNZ     ??zclSampleHeatingCoolingUnit_event_loop_26
        MOV     DPTR,#FLAG_BINDING
        MOVX    A,@DPTR
        XRL     A,#0x1
        JNZ     ??zclSampleHeatingCoolingUnit_event_loop_26
//  443 		{
//  444 			zclSampleHeatingCoolingUnit_BindingProcess();
        ; Setup parameters for call to function zclSampleHeatingCoolingUnit_BindingProcess
        LCALL   `??zclSampleHeatingCoolingUnit_BindingProcess::?`; Banked call to: zclSampleHeatingCoolingUnit_BindingProcess
//  445 		}
//  446 		
//  447 		UART_DebugPrint(HAL_UART_PORT_0, "SAMPLEHEATINGCOOLINGUNIT_JOIN_SETUP_EVT");
??zclSampleHeatingCoolingUnit_event_loop_26:
        ; Setup parameters for call to function UART_DebugPrint
        MOV     R2,#`?<Constant "SAMPLEHEATINGCOOLINGU...">` & 0xff
        MOV     R3,#(`?<Constant "SAMPLEHEATINGCOOLINGU...">` >> 8) & 0xff
        MOV     R1,#0x0
        LCALL   `??UART_DebugPrint::?relay`; Banked call to: UART_DebugPrint
//  448 
//  449     return ( events ^ SAMPLEHEATINGCOOLINGUNIT_JOIN_SETUP_EVT );
        MOV     A,R6
        XRL     A,#0x20
        SJMP    ??zclSampleHeatingCoolingUnit_event_loop_3
//  450   }
//  451 
//  452 	/*--------------------------------------------------------------------------*/
//  453 	if ( events & SAMPLEHEATINGCOOLINGUNIT_UART_REPLY_CMD_EVT )
??zclSampleHeatingCoolingUnit_event_loop_24:
        MOV     A,R6
        ANL     A,#0x40
        JZ      ??zclSampleHeatingCoolingUnit_event_loop_27
//  454   {
//  455 		// My apps
//  456 		if (UART_ParseRxPackage(HAL_UART_PORT_0))
        ; Setup parameters for call to function UART_ParseRxPackage
        MOV     R1,#0x0
        LCALL   `??UART_ParseRxPackage::?relay`; Banked call to: UART_ParseRxPackage
        MOV     A,R1
        JZ      ??zclSampleHeatingCoolingUnit_event_loop_28
//  457 		{
//  458 			ZCMD_ReplyCMD();
        ; Setup parameters for call to function ZCMD_ReplyCMD
        LCALL   `??ZCMD_ReplyCMD::?relay`; Banked call to: ZCMD_ReplyCMD
//  459 		}
//  460 
//  461 		// Restart timer
//  462     if ( UART_PARSE_RX_PACKAGE_EVT_PERIOD )
//  463     {
//  464       osal_start_timerEx( zclSampleHeatingCoolingUnit_TaskID, SAMPLEHEATINGCOOLINGUNIT_UART_REPLY_CMD_EVT, UART_PARSE_RX_PACKAGE_EVT_PERIOD );
??zclSampleHeatingCoolingUnit_event_loop_28:
        ; Setup parameters for call to function osal_start_timerEx
        MOV     DPTR,#__Constant_a
        LCALL   ?PUSH_XSTACK8_X_FOUR
          CFI CFA_XSP16 add(XSP16, 20)
        MOV     R2,#0x40
        MOV     R3,#0x0
        MOV     DPTR,#zclSampleHeatingCoolingUnit_TaskID
        MOVX    A,@DPTR
        MOV     R1,A
        LCALL   `??osal_start_timerEx::?relay`; Banked call to: osal_start_timerEx
        MOV     A,#0x4
        LCALL   ?DEALLOC_XSTACK8
          CFI CFA_XSP16 add(XSP16, 16)
//  465     }
//  466 		
//  467     return (events ^ SAMPLEHEATINGCOOLINGUNIT_UART_REPLY_CMD_EVT);
        MOV     A,R6
        XRL     A,#0x40
        SJMP    ??zclSampleHeatingCoolingUnit_event_loop_3
//  468   }
//  469 
//  470 	/*--------------------------------------------------------------------------*/
//  471 	if ( events & SAMPLEHEATINGCOOLINGUNIT_CHECK_SYSTEM_EVT )
??zclSampleHeatingCoolingUnit_event_loop_27:
        MOV     A,R6
        ANL     A,#0x80
        JZ      ??zclSampleHeatingCoolingUnit_event_loop_29
//  472   {
//  473   	// My apps
//  474 		if ( (FLAG_JOIN_CONFIRM == FALSE) || (FLAG_JOIN_CONFIRM == TRUE && FLAG_BINDING == TRUE && FLAG_HARD_BINDING == FALSE) )
        MOV     DPTR,#FLAG_JOIN_CONFIRM
        MOVX    A,@DPTR
        JZ      ??zclSampleHeatingCoolingUnit_event_loop_30
        XRL     A,#0x1
        JNZ     ??zclSampleHeatingCoolingUnit_event_loop_31
        MOV     DPTR,#FLAG_BINDING
        MOVX    A,@DPTR
        XRL     A,#0x1
        JNZ     ??zclSampleHeatingCoolingUnit_event_loop_31
        MOV     DPTR,#FLAG_HARD_BINDING
        MOVX    A,@DPTR
        JNZ     ??zclSampleHeatingCoolingUnit_event_loop_31
//  475 		{
//  476 			osal_set_event( zclSampleHeatingCoolingUnit_TaskID, SAMPLEHEATINGCOOLINGUNIT_JOIN_SETUP_EVT );
??zclSampleHeatingCoolingUnit_event_loop_30:
        ; Setup parameters for call to function osal_set_event
        MOV     R2,#0x20
        MOV     R3,#0x0
        MOV     DPTR,#zclSampleHeatingCoolingUnit_TaskID
        MOVX    A,@DPTR
        MOV     R1,A
        LCALL   `??osal_set_event::?relay`; Banked call to: osal_set_event
//  477 		}
//  478 
//  479     // Restart timer
//  480     if ( CHECK_SYSTEM_EVT_PERIOD )
//  481     {
//  482       osal_start_timerEx( zclSampleHeatingCoolingUnit_TaskID, SAMPLEHEATINGCOOLINGUNIT_CHECK_SYSTEM_EVT, CHECK_SYSTEM_EVT_PERIOD );
??zclSampleHeatingCoolingUnit_event_loop_31:
        ; Setup parameters for call to function osal_start_timerEx
        MOV     DPTR,#__Constant_2710
        LCALL   ?PUSH_XSTACK8_X_FOUR
          CFI CFA_XSP16 add(XSP16, 20)
        MOV     R2,#-0x80
        MOV     R3,#0x0
        MOV     DPTR,#zclSampleHeatingCoolingUnit_TaskID
        MOVX    A,@DPTR
        MOV     R1,A
        LCALL   `??osal_start_timerEx::?relay`; Banked call to: osal_start_timerEx
        MOV     A,#0x4
        LCALL   ?DEALLOC_XSTACK8
          CFI CFA_XSP16 add(XSP16, 16)
//  483     }
//  484 			 
//  485     return (events ^ SAMPLEHEATINGCOOLINGUNIT_CHECK_SYSTEM_EVT);
        MOV     A,R6
        XRL     A,#0x80
??zclSampleHeatingCoolingUnit_event_loop_3:
        MOV     R2,A
        MOV     A,R7
??zclSampleHeatingCoolingUnit_event_loop_19:
        MOV     R3,A
        SJMP    ??zclSampleHeatingCoolingUnit_event_loop_32
//  486   }
//  487 	/*--------------------------------------------------------------------------*/
//  488 
//  489   // Discard unknown events
//  490   return 0;
??zclSampleHeatingCoolingUnit_event_loop_29:
        MOV     R2,#0x0
        MOV     R3,#0x0
??zclSampleHeatingCoolingUnit_event_loop_32:
        MOV     A,#0x2
        LCALL   ?DEALLOC_XSTACK8
          CFI CFA_XSP16 add(XSP16, 14)
        MOV     R7,#0x6
        LJMP    ?BANKED_LEAVE_XDATA
//  491 }
          CFI EndBlock cfiBlock1

        RSEG BANKED_CODE:CODE:NOROOT(0)
?Subroutine8:
          CFI Block cfiCond2 Using cfiCommon0
          CFI Function zclSampleHeatingCoolingUnit_event_loop
          CFI Conditional ??CrossCallReturnLabel_8
          CFI R6 load(1, XDATA, add(CFA_XSP16, literal(-14)))
          CFI VB load(1, XDATA, add(CFA_XSP16, literal(-13)))
          CFI V0 load(1, XDATA, add(CFA_XSP16, literal(-12)))
          CFI V1 load(1, XDATA, add(CFA_XSP16, literal(-11)))
          CFI V2 load(1, XDATA, add(CFA_XSP16, literal(-10)))
          CFI V3 load(1, XDATA, add(CFA_XSP16, literal(-9)))
          CFI V4 load(1, XDATA, add(CFA_XSP16, literal(-8)))
          CFI V5 load(1, XDATA, add(CFA_XSP16, literal(-7)))
          CFI R7 load(1, XDATA, add(CFA_XSP16, literal(-6)))
          CFI ?RET_LOW load(1, XDATA, add(CFA_XSP16, literal(-5)))
          CFI ?RET_HIGH load(1, XDATA, add(CFA_XSP16, literal(-4)))
          CFI ?BRET_EXT load(1, XDATA, add(CFA_XSP16, literal(-3)))
          CFI DPL0 load(1, XDATA, add(CFA_XSP16, literal(-2)))
          CFI DPH0 load(1, XDATA, add(CFA_XSP16, literal(-1)))
          CFI CFA_SP SP+-2
          CFI CFA_XSP16 add(XSP16, 16)
          CFI Block cfiCond3 Using cfiCommon0
          CFI (cfiCond3) Function zclSampleHeatingCoolingUnit_ProcessIdentifyTimeChange
          CFI (cfiCond3) Conditional ??CrossCallReturnLabel_9
          CFI (cfiCond3) DPL0 Frame(CFA_SP, 4)
          CFI (cfiCond3) DPH0 Frame(CFA_SP, 5)
          CFI (cfiCond3) CFA_SP SP+-7
          CFI Block cfiPicker4 Using cfiCommon1
          CFI (cfiPicker4) NoFunction
          CFI (cfiPicker4) Picker
        MOV     DPTR,#zclSampleHeatingCoolingUnit_IdentifyTime
          CFI EndBlock cfiCond2
          CFI EndBlock cfiCond3
          CFI EndBlock cfiPicker4
        REQUIRE ??Subroutine10_0
        ; // Fall through to label ??Subroutine10_0

        RSEG BANKED_CODE:CODE:NOROOT(0)
??Subroutine10_0:
          CFI Block cfiCond5 Using cfiCommon0
          CFI Function zclSampleHeatingCoolingUnit_IdentifyCB
          CFI Conditional ??CrossCallReturnLabel_6
          CFI DPL0 Frame(CFA_SP, 4)
          CFI DPH0 Frame(CFA_SP, 5)
          CFI CFA_SP SP+-7
          CFI Block cfiCond6 Using cfiCommon0
          CFI (cfiCond6) Function zclSampleHeatingCoolingUnit_ProcessInReportCmd
          CFI (cfiCond6) Conditional ??CrossCallReturnLabel_7
          CFI (cfiCond6) R6 load(1, XDATA, add(CFA_XSP16, literal(-18)))
          CFI (cfiCond6) VB load(1, XDATA, add(CFA_XSP16, literal(-17)))
          CFI (cfiCond6) V0 load(1, XDATA, add(CFA_XSP16, literal(-16)))
          CFI (cfiCond6) V1 load(1, XDATA, add(CFA_XSP16, literal(-15)))
          CFI (cfiCond6) V2 load(1, XDATA, add(CFA_XSP16, literal(-14)))
          CFI (cfiCond6) V3 load(1, XDATA, add(CFA_XSP16, literal(-13)))
          CFI (cfiCond6) V4 load(1, XDATA, add(CFA_XSP16, literal(-12)))
          CFI (cfiCond6) V5 load(1, XDATA, add(CFA_XSP16, literal(-11)))
          CFI (cfiCond6) V6 load(1, XDATA, add(CFA_XSP16, literal(-10)))
          CFI (cfiCond6) V7 load(1, XDATA, add(CFA_XSP16, literal(-9)))
          CFI (cfiCond6) V8 load(1, XDATA, add(CFA_XSP16, literal(-8)))
          CFI (cfiCond6) V9 load(1, XDATA, add(CFA_XSP16, literal(-7)))
          CFI (cfiCond6) R7 load(1, XDATA, add(CFA_XSP16, literal(-6)))
          CFI (cfiCond6) ?RET_LOW load(1, XDATA, add(CFA_XSP16, literal(-5)))
          CFI (cfiCond6) ?RET_HIGH load(1, XDATA, add(CFA_XSP16, literal(-4)))
          CFI (cfiCond6) ?BRET_EXT load(1, XDATA, add(CFA_XSP16, literal(-3)))
          CFI (cfiCond6) DPL0 load(1, XDATA, add(CFA_XSP16, literal(-2)))
          CFI (cfiCond6) DPH0 load(1, XDATA, add(CFA_XSP16, literal(-1)))
          CFI (cfiCond6) CFA_SP SP+-2
          CFI (cfiCond6) CFA_XSP16 add(XSP16, 40)
          CFI Block cfiCond7 Using cfiCommon0
          CFI (cfiCond7) Function zclSampleHeatingCoolingUnit_event_loop
          CFI (cfiCond7) Conditional ??CrossCallReturnLabel_8
          CFI (cfiCond7) R6 load(1, XDATA, add(CFA_XSP16, literal(-14)))
          CFI (cfiCond7) VB load(1, XDATA, add(CFA_XSP16, literal(-13)))
          CFI (cfiCond7) V0 load(1, XDATA, add(CFA_XSP16, literal(-12)))
          CFI (cfiCond7) V1 load(1, XDATA, add(CFA_XSP16, literal(-11)))
          CFI (cfiCond7) V2 load(1, XDATA, add(CFA_XSP16, literal(-10)))
          CFI (cfiCond7) V3 load(1, XDATA, add(CFA_XSP16, literal(-9)))
          CFI (cfiCond7) V4 load(1, XDATA, add(CFA_XSP16, literal(-8)))
          CFI (cfiCond7) V5 load(1, XDATA, add(CFA_XSP16, literal(-7)))
          CFI (cfiCond7) R7 load(1, XDATA, add(CFA_XSP16, literal(-6)))
          CFI (cfiCond7) ?RET_LOW load(1, XDATA, add(CFA_XSP16, literal(-5)))
          CFI (cfiCond7) ?RET_HIGH load(1, XDATA, add(CFA_XSP16, literal(-4)))
          CFI (cfiCond7) ?BRET_EXT load(1, XDATA, add(CFA_XSP16, literal(-3)))
          CFI (cfiCond7) DPL0 load(1, XDATA, add(CFA_XSP16, literal(-2)))
          CFI (cfiCond7) DPH0 load(1, XDATA, add(CFA_XSP16, literal(-1)))
          CFI (cfiCond7) CFA_SP SP+-2
          CFI (cfiCond7) CFA_XSP16 add(XSP16, 16)
          CFI Block cfiCond8 Using cfiCommon0
          CFI (cfiCond8) Function zclSampleHeatingCoolingUnit_ProcessIdentifyTimeChange
          CFI (cfiCond8) Conditional ??CrossCallReturnLabel_9
          CFI (cfiCond8) DPL0 Frame(CFA_SP, 4)
          CFI (cfiCond8) DPH0 Frame(CFA_SP, 5)
          CFI (cfiCond8) CFA_SP SP+-7
          CFI Block cfiPicker9 Using cfiCommon1
          CFI (cfiPicker9) NoFunction
          CFI (cfiPicker9) Picker
        MOVX    A,@DPTR
        MOV     R0,A
        INC     DPTR
        MOVX    A,@DPTR
        MOV     R1,A
        RET
          CFI EndBlock cfiCond5
          CFI EndBlock cfiCond6
          CFI EndBlock cfiCond7
          CFI EndBlock cfiCond8
          CFI EndBlock cfiPicker9

        RSEG BANKED_CODE:CODE:NOROOT(0)
?Subroutine7:
          CFI Block cfiCond10 Using cfiCommon0
          CFI Function zclSampleHeatingCoolingUnit_event_loop
          CFI Conditional ??CrossCallReturnLabel_4
          CFI R6 load(1, XDATA, add(CFA_XSP16, literal(-14)))
          CFI VB load(1, XDATA, add(CFA_XSP16, literal(-13)))
          CFI V0 load(1, XDATA, add(CFA_XSP16, literal(-12)))
          CFI V1 load(1, XDATA, add(CFA_XSP16, literal(-11)))
          CFI V2 load(1, XDATA, add(CFA_XSP16, literal(-10)))
          CFI V3 load(1, XDATA, add(CFA_XSP16, literal(-9)))
          CFI V4 load(1, XDATA, add(CFA_XSP16, literal(-8)))
          CFI V5 load(1, XDATA, add(CFA_XSP16, literal(-7)))
          CFI R7 load(1, XDATA, add(CFA_XSP16, literal(-6)))
          CFI ?RET_LOW load(1, XDATA, add(CFA_XSP16, literal(-5)))
          CFI ?RET_HIGH load(1, XDATA, add(CFA_XSP16, literal(-4)))
          CFI ?BRET_EXT load(1, XDATA, add(CFA_XSP16, literal(-3)))
          CFI DPL0 load(1, XDATA, add(CFA_XSP16, literal(-2)))
          CFI DPH0 load(1, XDATA, add(CFA_XSP16, literal(-1)))
          CFI CFA_SP SP+-2
          CFI CFA_XSP16 add(XSP16, 16)
          CFI Block cfiCond11 Using cfiCommon0
          CFI (cfiCond11) Function zclSampleHeatingCoolingUnit_event_loop
          CFI (cfiCond11) Conditional ??CrossCallReturnLabel_5
          CFI (cfiCond11) R6 load(1, XDATA, add(CFA_XSP16, literal(-14)))
          CFI (cfiCond11) VB load(1, XDATA, add(CFA_XSP16, literal(-13)))
          CFI (cfiCond11) V0 load(1, XDATA, add(CFA_XSP16, literal(-12)))
          CFI (cfiCond11) V1 load(1, XDATA, add(CFA_XSP16, literal(-11)))
          CFI (cfiCond11) V2 load(1, XDATA, add(CFA_XSP16, literal(-10)))
          CFI (cfiCond11) V3 load(1, XDATA, add(CFA_XSP16, literal(-9)))
          CFI (cfiCond11) V4 load(1, XDATA, add(CFA_XSP16, literal(-8)))
          CFI (cfiCond11) V5 load(1, XDATA, add(CFA_XSP16, literal(-7)))
          CFI (cfiCond11) R7 load(1, XDATA, add(CFA_XSP16, literal(-6)))
          CFI (cfiCond11) ?RET_LOW load(1, XDATA, add(CFA_XSP16, literal(-5)))
          CFI (cfiCond11) ?RET_HIGH load(1, XDATA, add(CFA_XSP16, literal(-4)))
          CFI (cfiCond11) ?BRET_EXT load(1, XDATA, add(CFA_XSP16, literal(-3)))
          CFI (cfiCond11) DPL0 load(1, XDATA, add(CFA_XSP16, literal(-2)))
          CFI (cfiCond11) DPH0 load(1, XDATA, add(CFA_XSP16, literal(-1)))
          CFI (cfiCond11) CFA_SP SP+-2
          CFI (cfiCond11) CFA_XSP16 add(XSP16, 16)
          CFI Block cfiPicker12 Using cfiCommon1
          CFI (cfiPicker12) NoFunction
          CFI (cfiPicker12) Picker
        MOV     DPL,?V2
        MOV     DPH,?V3
        MOVX    A,@DPTR
        MOV     R0,A
        INC     DPTR
        MOVX    A,@DPTR
        MOV     R1,A
        MOV     DPL,R0
        MOV     DPH,R1
        MOV     R0,#0x0
        RET
          CFI EndBlock cfiCond10
          CFI EndBlock cfiCond11
          CFI EndBlock cfiPicker12

        RSEG BANKED_CODE:CODE:NOROOT(0)
?Subroutine3:
          CFI Block cfiCond13 Using cfiCommon0
          CFI Function zclSampleHeatingCoolingUnit_event_loop
          CFI Conditional ??CrossCallReturnLabel_10
          CFI R6 load(1, XDATA, add(CFA_XSP16, literal(-14)))
          CFI VB load(1, XDATA, add(CFA_XSP16, literal(-13)))
          CFI V0 load(1, XDATA, add(CFA_XSP16, literal(-12)))
          CFI V1 load(1, XDATA, add(CFA_XSP16, literal(-11)))
          CFI V2 load(1, XDATA, add(CFA_XSP16, literal(-10)))
          CFI V3 load(1, XDATA, add(CFA_XSP16, literal(-9)))
          CFI V4 load(1, XDATA, add(CFA_XSP16, literal(-8)))
          CFI V5 load(1, XDATA, add(CFA_XSP16, literal(-7)))
          CFI R7 load(1, XDATA, add(CFA_XSP16, literal(-6)))
          CFI ?RET_LOW load(1, XDATA, add(CFA_XSP16, literal(-5)))
          CFI ?RET_HIGH load(1, XDATA, add(CFA_XSP16, literal(-4)))
          CFI ?BRET_EXT load(1, XDATA, add(CFA_XSP16, literal(-3)))
          CFI DPL0 load(1, XDATA, add(CFA_XSP16, literal(-2)))
          CFI DPH0 load(1, XDATA, add(CFA_XSP16, literal(-1)))
          CFI CFA_SP SP+-2
          CFI CFA_XSP16 add(XSP16, 16)
          CFI Block cfiCond14 Using cfiCommon0
          CFI (cfiCond14) Function zclSampleHeatingCoolingUnit_IdentifyQueryRspCB
          CFI (cfiCond14) Conditional ??CrossCallReturnLabel_11
          CFI (cfiCond14) DPL0 Frame(CFA_SP, 4)
          CFI (cfiCond14) DPH0 Frame(CFA_SP, 5)
          CFI (cfiCond14) CFA_SP SP+-7
          CFI (cfiCond14) CFA_XSP16 add(XSP16, 2)
          CFI Block cfiPicker15 Using cfiCommon1
          CFI (cfiPicker15) NoFunction
          CFI (cfiPicker15) Picker
        MOV     DPL,?XSP + 0
        MOV     DPH,?XSP + 1
        MOV     A,R2
        MOVX    @DPTR,A
        INC     DPTR
        MOV     A,R3
          CFI EndBlock cfiCond13
          CFI EndBlock cfiCond14
          CFI EndBlock cfiPicker15
        REQUIRE ??Subroutine11_0
        ; // Fall through to label ??Subroutine11_0
//  492 
//  493 /*********************************************************************
//  494  * @fn      zclSampleHeatingCoolingUnit_HandleKeys
//  495  *
//  496  * @brief   Handles all key events for this device.
//  497  *
//  498  * @param   shift - true if in shift/alt.
//  499  * @param   keys - bit field for key events. Valid entries:
//  500  *                 HAL_KEY_SW_5
//  501  *                 HAL_KEY_SW_4
//  502  *                 HAL_KEY_SW_2
//  503  *
//  504  * @return  none
//  505  */

        RSEG BANKED_CODE:CODE:NOROOT(0)
??Subroutine11_0:
          CFI Block cfiCond16 Using cfiCommon0
          CFI Function zclSampleHeatingCoolingUnit_HandleKeys
          CFI Conditional ??CrossCallReturnLabel_12
          CFI R6 load(1, XDATA, add(CFA_XSP16, literal(-16)))
          CFI VB load(1, XDATA, add(CFA_XSP16, literal(-15)))
          CFI V0 load(1, XDATA, add(CFA_XSP16, literal(-14)))
          CFI V1 load(1, XDATA, add(CFA_XSP16, literal(-13)))
          CFI V2 load(1, XDATA, add(CFA_XSP16, literal(-12)))
          CFI V3 load(1, XDATA, add(CFA_XSP16, literal(-11)))
          CFI V4 load(1, XDATA, add(CFA_XSP16, literal(-10)))
          CFI V5 load(1, XDATA, add(CFA_XSP16, literal(-9)))
          CFI V6 load(1, XDATA, add(CFA_XSP16, literal(-8)))
          CFI V7 load(1, XDATA, add(CFA_XSP16, literal(-7)))
          CFI R7 load(1, XDATA, add(CFA_XSP16, literal(-6)))
          CFI ?RET_LOW load(1, XDATA, add(CFA_XSP16, literal(-5)))
          CFI ?RET_HIGH load(1, XDATA, add(CFA_XSP16, literal(-4)))
          CFI ?BRET_EXT load(1, XDATA, add(CFA_XSP16, literal(-3)))
          CFI DPL0 load(1, XDATA, add(CFA_XSP16, literal(-2)))
          CFI DPH0 load(1, XDATA, add(CFA_XSP16, literal(-1)))
          CFI CFA_SP SP+-2
          CFI CFA_XSP16 add(XSP16, 29)
          CFI Block cfiCond17 Using cfiCommon0
          CFI (cfiCond17) Function zclSampleHeatingCoolingUnit_BindingProcess
          CFI (cfiCond17) Conditional ??CrossCallReturnLabel_13
          CFI (cfiCond17) DPL0 Frame(CFA_SP, 4)
          CFI (cfiCond17) DPH0 Frame(CFA_SP, 5)
          CFI (cfiCond17) CFA_SP SP+-7
          CFI (cfiCond17) CFA_XSP16 add(XSP16, 9)
          CFI Block cfiCond18 Using cfiCommon0
          CFI (cfiCond18) Function zclSampleHeatingCoolingUnit_event_loop
          CFI (cfiCond18) Conditional ??CrossCallReturnLabel_10
          CFI (cfiCond18) R6 load(1, XDATA, add(CFA_XSP16, literal(-14)))
          CFI (cfiCond18) VB load(1, XDATA, add(CFA_XSP16, literal(-13)))
          CFI (cfiCond18) V0 load(1, XDATA, add(CFA_XSP16, literal(-12)))
          CFI (cfiCond18) V1 load(1, XDATA, add(CFA_XSP16, literal(-11)))
          CFI (cfiCond18) V2 load(1, XDATA, add(CFA_XSP16, literal(-10)))
          CFI (cfiCond18) V3 load(1, XDATA, add(CFA_XSP16, literal(-9)))
          CFI (cfiCond18) V4 load(1, XDATA, add(CFA_XSP16, literal(-8)))
          CFI (cfiCond18) V5 load(1, XDATA, add(CFA_XSP16, literal(-7)))
          CFI (cfiCond18) R7 load(1, XDATA, add(CFA_XSP16, literal(-6)))
          CFI (cfiCond18) ?RET_LOW load(1, XDATA, add(CFA_XSP16, literal(-5)))
          CFI (cfiCond18) ?RET_HIGH load(1, XDATA, add(CFA_XSP16, literal(-4)))
          CFI (cfiCond18) ?BRET_EXT load(1, XDATA, add(CFA_XSP16, literal(-3)))
          CFI (cfiCond18) DPL0 load(1, XDATA, add(CFA_XSP16, literal(-2)))
          CFI (cfiCond18) DPH0 load(1, XDATA, add(CFA_XSP16, literal(-1)))
          CFI (cfiCond18) CFA_SP SP+-2
          CFI (cfiCond18) CFA_XSP16 add(XSP16, 16)
          CFI Block cfiCond19 Using cfiCommon0
          CFI (cfiCond19) Function zclSampleHeatingCoolingUnit_IdentifyQueryRspCB
          CFI (cfiCond19) Conditional ??CrossCallReturnLabel_11
          CFI (cfiCond19) DPL0 Frame(CFA_SP, 4)
          CFI (cfiCond19) DPH0 Frame(CFA_SP, 5)
          CFI (cfiCond19) CFA_SP SP+-7
          CFI (cfiCond19) CFA_XSP16 add(XSP16, 2)
          CFI Block cfiPicker20 Using cfiCommon1
          CFI (cfiPicker20) NoFunction
          CFI (cfiPicker20) Picker
        MOVX    @DPTR,A
        ; Setup parameters for call to function zcl_EZModeAction
        ; Setup parameters for call to function zcl_EZModeAction
        ; Setup parameters for call to function zcl_InvokeEZMode
        ; Setup parameters for call to function zcl_InvokeEZMode
        MOV     R2,?XSP + 0
        MOV     R3,?XSP + 1
        RET
          CFI EndBlock cfiCond16
          CFI EndBlock cfiCond17
          CFI EndBlock cfiCond18
          CFI EndBlock cfiCond19
          CFI EndBlock cfiPicker20

        RSEG BANKED_CODE:CODE:NOROOT(0)
//  506 static void zclSampleHeatingCoolingUnit_HandleKeys( byte shift, byte keys )
zclSampleHeatingCoolingUnit_HandleKeys:
          CFI Block cfiBlock21 Using cfiCommon0
          CFI Function zclSampleHeatingCoolingUnit_HandleKeys
        CODE
//  507 {
        FUNCALL zclSampleHeatingCoolingUnit_HandleKeys, UART_DebugPrint
        LOCFRAME ISTACK, 0, STACK
        LOCFRAME PSTACK, 0, STACK
        LOCFRAME XSTACK, 29, STACK
        LOCFRAME IOVERLAY, 0, STATIC
        LOCFRAME DOVERLAY, 0, STATIC
        ARGFRAME ISTACK, 0, STACK
        ARGFRAME PSTACK, 0, STACK
        ARGFRAME XSTACK, 29, STACK
        ARGFRAME IOVERLAY, 0, STATIC
        ARGFRAME DOVERLAY, 0, STATIC
        FUNCALL zclSampleHeatingCoolingUnit_HandleKeys, bindCapacity
        LOCFRAME ISTACK, 0, STACK
        LOCFRAME PSTACK, 0, STACK
        LOCFRAME XSTACK, 29, STACK
        LOCFRAME IOVERLAY, 0, STATIC
        LOCFRAME DOVERLAY, 0, STATIC
        ARGFRAME ISTACK, 0, STACK
        ARGFRAME PSTACK, 0, STACK
        ARGFRAME XSTACK, 29, STACK
        ARGFRAME IOVERLAY, 0, STATIC
        ARGFRAME DOVERLAY, 0, STATIC
        FUNCALL zclSampleHeatingCoolingUnit_HandleKeys, UART_ZCmdPrintString
        LOCFRAME ISTACK, 0, STACK
        LOCFRAME PSTACK, 0, STACK
        LOCFRAME XSTACK, 29, STACK
        LOCFRAME IOVERLAY, 0, STATIC
        LOCFRAME DOVERLAY, 0, STATIC
        ARGFRAME ISTACK, 0, STACK
        ARGFRAME PSTACK, 0, STACK
        ARGFRAME XSTACK, 29, STACK
        ARGFRAME IOVERLAY, 0, STATIC
        ARGFRAME DOVERLAY, 0, STATIC
        FUNCALL zclSampleHeatingCoolingUnit_HandleKeys, UART_ZCmdPrintNum
        LOCFRAME ISTACK, 0, STACK
        LOCFRAME PSTACK, 0, STACK
        LOCFRAME XSTACK, 29, STACK
        LOCFRAME IOVERLAY, 0, STATIC
        LOCFRAME DOVERLAY, 0, STATIC
        ARGFRAME ISTACK, 0, STACK
        ARGFRAME PSTACK, 0, STACK
        ARGFRAME XSTACK, 29, STACK
        ARGFRAME IOVERLAY, 0, STATIC
        ARGFRAME DOVERLAY, 0, STATIC
        FUNCALL zclSampleHeatingCoolingUnit_HandleKeys, UART_ZCmdPrint
        LOCFRAME ISTACK, 0, STACK
        LOCFRAME PSTACK, 0, STACK
        LOCFRAME XSTACK, 29, STACK
        LOCFRAME IOVERLAY, 0, STATIC
        LOCFRAME DOVERLAY, 0, STATIC
        ARGFRAME ISTACK, 0, STACK
        ARGFRAME PSTACK, 0, STACK
        ARGFRAME XSTACK, 29, STACK
        ARGFRAME IOVERLAY, 0, STATIC
        ARGFRAME DOVERLAY, 0, STATIC
        FUNCALL zclSampleHeatingCoolingUnit_HandleKeys, GetBindingTableEntry
        LOCFRAME ISTACK, 0, STACK
        LOCFRAME PSTACK, 0, STACK
        LOCFRAME XSTACK, 29, STACK
        LOCFRAME IOVERLAY, 0, STATIC
        LOCFRAME DOVERLAY, 0, STATIC
        ARGFRAME ISTACK, 0, STACK
        ARGFRAME PSTACK, 0, STACK
        ARGFRAME XSTACK, 29, STACK
        ARGFRAME IOVERLAY, 0, STATIC
        ARGFRAME DOVERLAY, 0, STATIC
        FUNCALL zclSampleHeatingCoolingUnit_HandleKeys, UART_ZCmdPrintString
        LOCFRAME ISTACK, 0, STACK
        LOCFRAME PSTACK, 0, STACK
        LOCFRAME XSTACK, 29, STACK
        LOCFRAME IOVERLAY, 0, STATIC
        LOCFRAME DOVERLAY, 0, STATIC
        ARGFRAME ISTACK, 0, STACK
        ARGFRAME PSTACK, 0, STACK
        ARGFRAME XSTACK, 29, STACK
        ARGFRAME IOVERLAY, 0, STATIC
        ARGFRAME DOVERLAY, 0, STATIC
        FUNCALL zclSampleHeatingCoolingUnit_HandleKeys, UART_ZCmdPrintNum
        LOCFRAME ISTACK, 0, STACK
        LOCFRAME PSTACK, 0, STACK
        LOCFRAME XSTACK, 29, STACK
        LOCFRAME IOVERLAY, 0, STATIC
        LOCFRAME DOVERLAY, 0, STATIC
        ARGFRAME ISTACK, 0, STACK
        ARGFRAME PSTACK, 0, STACK
        ARGFRAME XSTACK, 29, STACK
        ARGFRAME IOVERLAY, 0, STATIC
        ARGFRAME DOVERLAY, 0, STATIC
        FUNCALL zclSampleHeatingCoolingUnit_HandleKeys, UART_ZCmdPrintString
        LOCFRAME ISTACK, 0, STACK
        LOCFRAME PSTACK, 0, STACK
        LOCFRAME XSTACK, 29, STACK
        LOCFRAME IOVERLAY, 0, STATIC
        LOCFRAME DOVERLAY, 0, STATIC
        ARGFRAME ISTACK, 0, STACK
        ARGFRAME PSTACK, 0, STACK
        ARGFRAME XSTACK, 29, STACK
        ARGFRAME IOVERLAY, 0, STATIC
        ARGFRAME DOVERLAY, 0, STATIC
        FUNCALL zclSampleHeatingCoolingUnit_HandleKeys, UART_ZCmdPrintNum
        LOCFRAME ISTACK, 0, STACK
        LOCFRAME PSTACK, 0, STACK
        LOCFRAME XSTACK, 29, STACK
        LOCFRAME IOVERLAY, 0, STATIC
        LOCFRAME DOVERLAY, 0, STATIC
        ARGFRAME ISTACK, 0, STACK
        ARGFRAME PSTACK, 0, STACK
        ARGFRAME XSTACK, 29, STACK
        ARGFRAME IOVERLAY, 0, STATIC
        ARGFRAME DOVERLAY, 0, STATIC
        FUNCALL zclSampleHeatingCoolingUnit_HandleKeys, UART_ZCmdPrint
        LOCFRAME ISTACK, 0, STACK
        LOCFRAME PSTACK, 0, STACK
        LOCFRAME XSTACK, 29, STACK
        LOCFRAME IOVERLAY, 0, STATIC
        LOCFRAME DOVERLAY, 0, STATIC
        ARGFRAME ISTACK, 0, STACK
        ARGFRAME PSTACK, 0, STACK
        ARGFRAME XSTACK, 29, STACK
        ARGFRAME IOVERLAY, 0, STATIC
        ARGFRAME DOVERLAY, 0, STATIC
        FUNCALL zclSampleHeatingCoolingUnit_HandleKeys, GetBindingTableEntry
        LOCFRAME ISTACK, 0, STACK
        LOCFRAME PSTACK, 0, STACK
        LOCFRAME XSTACK, 29, STACK
        LOCFRAME IOVERLAY, 0, STATIC
        LOCFRAME DOVERLAY, 0, STATIC
        ARGFRAME ISTACK, 0, STACK
        ARGFRAME PSTACK, 0, STACK
        ARGFRAME XSTACK, 29, STACK
        ARGFRAME IOVERLAY, 0, STATIC
        ARGFRAME DOVERLAY, 0, STATIC
        FUNCALL zclSampleHeatingCoolingUnit_HandleKeys, UART_ZCmdPrintString
        LOCFRAME ISTACK, 0, STACK
        LOCFRAME PSTACK, 0, STACK
        LOCFRAME XSTACK, 29, STACK
        LOCFRAME IOVERLAY, 0, STATIC
        LOCFRAME DOVERLAY, 0, STATIC
        ARGFRAME ISTACK, 0, STACK
        ARGFRAME PSTACK, 0, STACK
        ARGFRAME XSTACK, 29, STACK
        ARGFRAME IOVERLAY, 0, STATIC
        ARGFRAME DOVERLAY, 0, STATIC
        FUNCALL zclSampleHeatingCoolingUnit_HandleKeys, UART_ZCmdPrintNum
        LOCFRAME ISTACK, 0, STACK
        LOCFRAME PSTACK, 0, STACK
        LOCFRAME XSTACK, 29, STACK
        LOCFRAME IOVERLAY, 0, STATIC
        LOCFRAME DOVERLAY, 0, STATIC
        ARGFRAME ISTACK, 0, STACK
        ARGFRAME PSTACK, 0, STACK
        ARGFRAME XSTACK, 29, STACK
        ARGFRAME IOVERLAY, 0, STATIC
        ARGFRAME DOVERLAY, 0, STATIC
        FUNCALL zclSampleHeatingCoolingUnit_HandleKeys, UART_ZCmdPrintString
        LOCFRAME ISTACK, 0, STACK
        LOCFRAME PSTACK, 0, STACK
        LOCFRAME XSTACK, 29, STACK
        LOCFRAME IOVERLAY, 0, STATIC
        LOCFRAME DOVERLAY, 0, STATIC
        ARGFRAME ISTACK, 0, STACK
        ARGFRAME PSTACK, 0, STACK
        ARGFRAME XSTACK, 29, STACK
        ARGFRAME IOVERLAY, 0, STATIC
        ARGFRAME DOVERLAY, 0, STATIC
        FUNCALL zclSampleHeatingCoolingUnit_HandleKeys, UART_ZCmdPrintNum
        LOCFRAME ISTACK, 0, STACK
        LOCFRAME PSTACK, 0, STACK
        LOCFRAME XSTACK, 29, STACK
        LOCFRAME IOVERLAY, 0, STATIC
        LOCFRAME DOVERLAY, 0, STATIC
        ARGFRAME ISTACK, 0, STACK
        ARGFRAME PSTACK, 0, STACK
        ARGFRAME XSTACK, 29, STACK
        ARGFRAME IOVERLAY, 0, STATIC
        ARGFRAME DOVERLAY, 0, STATIC
        FUNCALL zclSampleHeatingCoolingUnit_HandleKeys, UART_ZCmdPrint
        LOCFRAME ISTACK, 0, STACK
        LOCFRAME PSTACK, 0, STACK
        LOCFRAME XSTACK, 29, STACK
        LOCFRAME IOVERLAY, 0, STATIC
        LOCFRAME DOVERLAY, 0, STATIC
        ARGFRAME ISTACK, 0, STACK
        ARGFRAME PSTACK, 0, STACK
        ARGFRAME XSTACK, 29, STACK
        ARGFRAME IOVERLAY, 0, STATIC
        ARGFRAME DOVERLAY, 0, STATIC
        FUNCALL zclSampleHeatingCoolingUnit_HandleKeys, GetBindingTableEntry
        LOCFRAME ISTACK, 0, STACK
        LOCFRAME PSTACK, 0, STACK
        LOCFRAME XSTACK, 29, STACK
        LOCFRAME IOVERLAY, 0, STATIC
        LOCFRAME DOVERLAY, 0, STATIC
        ARGFRAME ISTACK, 0, STACK
        ARGFRAME PSTACK, 0, STACK
        ARGFRAME XSTACK, 29, STACK
        ARGFRAME IOVERLAY, 0, STATIC
        ARGFRAME DOVERLAY, 0, STATIC
        FUNCALL zclSampleHeatingCoolingUnit_HandleKeys, UART_ZCmdPrintString
        LOCFRAME ISTACK, 0, STACK
        LOCFRAME PSTACK, 0, STACK
        LOCFRAME XSTACK, 29, STACK
        LOCFRAME IOVERLAY, 0, STATIC
        LOCFRAME DOVERLAY, 0, STATIC
        ARGFRAME ISTACK, 0, STACK
        ARGFRAME PSTACK, 0, STACK
        ARGFRAME XSTACK, 29, STACK
        ARGFRAME IOVERLAY, 0, STATIC
        ARGFRAME DOVERLAY, 0, STATIC
        FUNCALL zclSampleHeatingCoolingUnit_HandleKeys, UART_ZCmdPrintNum
        LOCFRAME ISTACK, 0, STACK
        LOCFRAME PSTACK, 0, STACK
        LOCFRAME XSTACK, 29, STACK
        LOCFRAME IOVERLAY, 0, STATIC
        LOCFRAME DOVERLAY, 0, STATIC
        ARGFRAME ISTACK, 0, STACK
        ARGFRAME PSTACK, 0, STACK
        ARGFRAME XSTACK, 29, STACK
        ARGFRAME IOVERLAY, 0, STATIC
        ARGFRAME DOVERLAY, 0, STATIC
        FUNCALL zclSampleHeatingCoolingUnit_HandleKeys, UART_ZCmdPrintString
        LOCFRAME ISTACK, 0, STACK
        LOCFRAME PSTACK, 0, STACK
        LOCFRAME XSTACK, 29, STACK
        LOCFRAME IOVERLAY, 0, STATIC
        LOCFRAME DOVERLAY, 0, STATIC
        ARGFRAME ISTACK, 0, STACK
        ARGFRAME PSTACK, 0, STACK
        ARGFRAME XSTACK, 29, STACK
        ARGFRAME IOVERLAY, 0, STATIC
        ARGFRAME DOVERLAY, 0, STATIC
        FUNCALL zclSampleHeatingCoolingUnit_HandleKeys, UART_ZCmdPrintNum
        LOCFRAME ISTACK, 0, STACK
        LOCFRAME PSTACK, 0, STACK
        LOCFRAME XSTACK, 29, STACK
        LOCFRAME IOVERLAY, 0, STATIC
        LOCFRAME DOVERLAY, 0, STATIC
        ARGFRAME ISTACK, 0, STACK
        ARGFRAME PSTACK, 0, STACK
        ARGFRAME XSTACK, 29, STACK
        ARGFRAME IOVERLAY, 0, STATIC
        ARGFRAME DOVERLAY, 0, STATIC
        FUNCALL zclSampleHeatingCoolingUnit_HandleKeys, UART_ZCmdPrint
        LOCFRAME ISTACK, 0, STACK
        LOCFRAME PSTACK, 0, STACK
        LOCFRAME XSTACK, 29, STACK
        LOCFRAME IOVERLAY, 0, STATIC
        LOCFRAME DOVERLAY, 0, STATIC
        ARGFRAME ISTACK, 0, STACK
        ARGFRAME PSTACK, 0, STACK
        ARGFRAME XSTACK, 29, STACK
        ARGFRAME IOVERLAY, 0, STATIC
        ARGFRAME DOVERLAY, 0, STATIC
        FUNCALL zclSampleHeatingCoolingUnit_HandleKeys, GetBindingTableEntry
        LOCFRAME ISTACK, 0, STACK
        LOCFRAME PSTACK, 0, STACK
        LOCFRAME XSTACK, 29, STACK
        LOCFRAME IOVERLAY, 0, STATIC
        LOCFRAME DOVERLAY, 0, STATIC
        ARGFRAME ISTACK, 0, STACK
        ARGFRAME PSTACK, 0, STACK
        ARGFRAME XSTACK, 29, STACK
        ARGFRAME IOVERLAY, 0, STATIC
        ARGFRAME DOVERLAY, 0, STATIC
        FUNCALL zclSampleHeatingCoolingUnit_HandleKeys, UART_ZCmdPrintString
        LOCFRAME ISTACK, 0, STACK
        LOCFRAME PSTACK, 0, STACK
        LOCFRAME XSTACK, 29, STACK
        LOCFRAME IOVERLAY, 0, STATIC
        LOCFRAME DOVERLAY, 0, STATIC
        ARGFRAME ISTACK, 0, STACK
        ARGFRAME PSTACK, 0, STACK
        ARGFRAME XSTACK, 29, STACK
        ARGFRAME IOVERLAY, 0, STATIC
        ARGFRAME DOVERLAY, 0, STATIC
        FUNCALL zclSampleHeatingCoolingUnit_HandleKeys, UART_ZCmdPrintNum
        LOCFRAME ISTACK, 0, STACK
        LOCFRAME PSTACK, 0, STACK
        LOCFRAME XSTACK, 29, STACK
        LOCFRAME IOVERLAY, 0, STATIC
        LOCFRAME DOVERLAY, 0, STATIC
        ARGFRAME ISTACK, 0, STACK
        ARGFRAME PSTACK, 0, STACK
        ARGFRAME XSTACK, 29, STACK
        ARGFRAME IOVERLAY, 0, STATIC
        ARGFRAME DOVERLAY, 0, STATIC
        FUNCALL zclSampleHeatingCoolingUnit_HandleKeys, UART_ZCmdPrintString
        LOCFRAME ISTACK, 0, STACK
        LOCFRAME PSTACK, 0, STACK
        LOCFRAME XSTACK, 29, STACK
        LOCFRAME IOVERLAY, 0, STATIC
        LOCFRAME DOVERLAY, 0, STATIC
        ARGFRAME ISTACK, 0, STACK
        ARGFRAME PSTACK, 0, STACK
        ARGFRAME XSTACK, 29, STACK
        ARGFRAME IOVERLAY, 0, STATIC
        ARGFRAME DOVERLAY, 0, STATIC
        FUNCALL zclSampleHeatingCoolingUnit_HandleKeys, UART_ZCmdPrintNum
        LOCFRAME ISTACK, 0, STACK
        LOCFRAME PSTACK, 0, STACK
        LOCFRAME XSTACK, 29, STACK
        LOCFRAME IOVERLAY, 0, STATIC
        LOCFRAME DOVERLAY, 0, STATIC
        ARGFRAME ISTACK, 0, STACK
        ARGFRAME PSTACK, 0, STACK
        ARGFRAME XSTACK, 29, STACK
        ARGFRAME IOVERLAY, 0, STATIC
        ARGFRAME DOVERLAY, 0, STATIC
        FUNCALL zclSampleHeatingCoolingUnit_HandleKeys, UART_ZCmdPrint
        LOCFRAME ISTACK, 0, STACK
        LOCFRAME PSTACK, 0, STACK
        LOCFRAME XSTACK, 29, STACK
        LOCFRAME IOVERLAY, 0, STATIC
        LOCFRAME DOVERLAY, 0, STATIC
        ARGFRAME ISTACK, 0, STACK
        ARGFRAME PSTACK, 0, STACK
        ARGFRAME XSTACK, 29, STACK
        ARGFRAME IOVERLAY, 0, STATIC
        ARGFRAME DOVERLAY, 0, STATIC
        FUNCALL zclSampleHeatingCoolingUnit_HandleKeys, UART_DebugPrint
        LOCFRAME ISTACK, 0, STACK
        LOCFRAME PSTACK, 0, STACK
        LOCFRAME XSTACK, 29, STACK
        LOCFRAME IOVERLAY, 0, STATIC
        LOCFRAME DOVERLAY, 0, STATIC
        ARGFRAME ISTACK, 0, STACK
        ARGFRAME PSTACK, 0, STACK
        ARGFRAME XSTACK, 29, STACK
        ARGFRAME IOVERLAY, 0, STATIC
        ARGFRAME DOVERLAY, 0, STATIC
        FUNCALL zclSampleHeatingCoolingUnit_HandleKeys, zcl_InvokeEZMode
        LOCFRAME ISTACK, 0, STACK
        LOCFRAME PSTACK, 0, STACK
        LOCFRAME XSTACK, 29, STACK
        LOCFRAME IOVERLAY, 0, STATIC
        LOCFRAME DOVERLAY, 0, STATIC
        ARGFRAME ISTACK, 0, STACK
        ARGFRAME PSTACK, 0, STACK
        ARGFRAME XSTACK, 29, STACK
        ARGFRAME IOVERLAY, 0, STATIC
        ARGFRAME DOVERLAY, 0, STATIC
        FUNCALL zclSampleHeatingCoolingUnit_HandleKeys, HalLcdWriteString
        LOCFRAME ISTACK, 0, STACK
        LOCFRAME PSTACK, 0, STACK
        LOCFRAME XSTACK, 29, STACK
        LOCFRAME IOVERLAY, 0, STATIC
        LOCFRAME DOVERLAY, 0, STATIC
        ARGFRAME ISTACK, 0, STACK
        ARGFRAME PSTACK, 0, STACK
        ARGFRAME XSTACK, 29, STACK
        ARGFRAME IOVERLAY, 0, STATIC
        ARGFRAME DOVERLAY, 0, STATIC
        FUNCALL zclSampleHeatingCoolingUnit_HandleKeys, NLME_GetShortAddr
        LOCFRAME ISTACK, 0, STACK
        LOCFRAME PSTACK, 0, STACK
        LOCFRAME XSTACK, 29, STACK
        LOCFRAME IOVERLAY, 0, STATIC
        LOCFRAME DOVERLAY, 0, STATIC
        ARGFRAME ISTACK, 0, STACK
        ARGFRAME PSTACK, 0, STACK
        ARGFRAME XSTACK, 29, STACK
        ARGFRAME IOVERLAY, 0, STATIC
        ARGFRAME DOVERLAY, 0, STATIC
        FUNCALL zclSampleHeatingCoolingUnit_HandleKeys, ZDP_MgmtPermitJoinReq
        LOCFRAME ISTACK, 0, STACK
        LOCFRAME PSTACK, 0, STACK
        LOCFRAME XSTACK, 29, STACK
        LOCFRAME IOVERLAY, 0, STATIC
        LOCFRAME DOVERLAY, 0, STATIC
        ARGFRAME ISTACK, 0, STACK
        ARGFRAME PSTACK, 0, STACK
        ARGFRAME XSTACK, 29, STACK
        ARGFRAME IOVERLAY, 0, STATIC
        ARGFRAME DOVERLAY, 0, STATIC
        FUNCALL zclSampleHeatingCoolingUnit_HandleKeys, zclSampleHeatingCoolingUnit_BasicResetCB
        LOCFRAME ISTACK, 0, STACK
        LOCFRAME PSTACK, 0, STACK
        LOCFRAME XSTACK, 29, STACK
        LOCFRAME IOVERLAY, 0, STATIC
        LOCFRAME DOVERLAY, 0, STATIC
        ARGFRAME ISTACK, 0, STACK
        ARGFRAME PSTACK, 0, STACK
        ARGFRAME XSTACK, 29, STACK
        ARGFRAME IOVERLAY, 0, STATIC
        ARGFRAME DOVERLAY, 0, STATIC
        FUNCALL zclSampleHeatingCoolingUnit_HandleKeys, HalLcdWriteString
        LOCFRAME ISTACK, 0, STACK
        LOCFRAME PSTACK, 0, STACK
        LOCFRAME XSTACK, 29, STACK
        LOCFRAME IOVERLAY, 0, STATIC
        LOCFRAME DOVERLAY, 0, STATIC
        ARGFRAME ISTACK, 0, STACK
        ARGFRAME PSTACK, 0, STACK
        ARGFRAME XSTACK, 29, STACK
        ARGFRAME IOVERLAY, 0, STATIC
        ARGFRAME DOVERLAY, 0, STATIC
        FUNCALL zclSampleHeatingCoolingUnit_HandleKeys, zclSampleHeatingCoolingUnit_LcdDisplayUpdate
        LOCFRAME ISTACK, 0, STACK
        LOCFRAME PSTACK, 0, STACK
        LOCFRAME XSTACK, 29, STACK
        LOCFRAME IOVERLAY, 0, STATIC
        LOCFRAME DOVERLAY, 0, STATIC
        ARGFRAME ISTACK, 0, STACK
        ARGFRAME PSTACK, 0, STACK
        ARGFRAME XSTACK, 29, STACK
        ARGFRAME IOVERLAY, 0, STATIC
        ARGFRAME DOVERLAY, 0, STATIC
        REQUIRE ?V0
        REQUIRE ?V1
        REQUIRE ?V2
        REQUIRE ?V3
        REQUIRE ?V4
        REQUIRE ?V5
        REQUIRE ?V6
        REQUIRE ?V7
        MOV     A,#-0x10
        LCALL   ?BANKED_ENTER_XDATA
          CFI DPH0 load(1, XDATA, add(CFA_XSP16, literal(-1)))
          CFI DPL0 load(1, XDATA, add(CFA_XSP16, literal(-2)))
          CFI ?BRET_EXT load(1, XDATA, add(CFA_XSP16, literal(-3)))
          CFI ?RET_HIGH load(1, XDATA, add(CFA_XSP16, literal(-4)))
          CFI ?RET_LOW load(1, XDATA, add(CFA_XSP16, literal(-5)))
          CFI R7 load(1, XDATA, add(CFA_XSP16, literal(-6)))
          CFI V7 load(1, XDATA, add(CFA_XSP16, literal(-7)))
          CFI V6 load(1, XDATA, add(CFA_XSP16, literal(-8)))
          CFI V5 load(1, XDATA, add(CFA_XSP16, literal(-9)))
          CFI V4 load(1, XDATA, add(CFA_XSP16, literal(-10)))
          CFI V3 load(1, XDATA, add(CFA_XSP16, literal(-11)))
          CFI V2 load(1, XDATA, add(CFA_XSP16, literal(-12)))
          CFI V1 load(1, XDATA, add(CFA_XSP16, literal(-13)))
          CFI V0 load(1, XDATA, add(CFA_XSP16, literal(-14)))
          CFI VB load(1, XDATA, add(CFA_XSP16, literal(-15)))
          CFI R6 load(1, XDATA, add(CFA_XSP16, literal(-16)))
          CFI CFA_SP SP+0
          CFI CFA_XSP16 add(XSP16, 16)
        ; Saved register size: 16
        ; Auto size: 13
        MOV     A,#-0xd
        LCALL   ?ALLOC_XSTACK8
          CFI CFA_XSP16 add(XSP16, 29)
        MOV     ?V3,R1
        MOV     ?V2,R2
//  508 	if ( keys & HAL_KEY_SW_6 ) //~ SW1 on board
        MOV     A,R2
        MOV     C,0xE0 /* A   */.5
        JC      $+5
        LJMP    ??zclSampleHeatingCoolingUnit_HandleKeys_0 & 0xFFFF
//  509 	{
//  510 		UART_DebugPrint(HAL_UART_PORT_0, "SW6");
        ; Setup parameters for call to function UART_DebugPrint
        MOV     R2,#`?<Constant "SW6">` & 0xff
        MOV     R3,#(`?<Constant "SW6">` >> 8) & 0xff
        MOV     R1,#0x0
        LCALL   `??UART_DebugPrint::?relay`; Banked call to: UART_DebugPrint
//  511 
//  512 		uint16 maxEntries;
//  513 		uint16 usedEntries;
//  514 		BindingEntry_t* current_BindingTableEntry;
//  515 
//  516 		bindCapacity(&maxEntries, &usedEntries);
        ; Setup parameters for call to function bindCapacity
        MOV     A,#0x9
        LCALL   ?XSTACK_DISP102_8
        MOV     A,#0xb
        LCALL   ?XSTACK_DISP101_8
        LCALL   `??bindCapacity::?relay`; Banked call to: bindCapacity
//  517 		UART_ZCmdPrintString(HAL_UART_PORT_0, "usedEntries: ");
        ; Setup parameters for call to function UART_ZCmdPrintString
        MOV     R2,#`?<Constant "usedEntries: ">` & 0xff
        MOV     R3,#(`?<Constant "usedEntries: ">` >> 8) & 0xff
        MOV     R1,#0x0
        LCALL   `??UART_ZCmdPrintString::?relay`; Banked call to: UART_ZCmdPrintString
//  518 		UART_ZCmdPrintNum		(HAL_UART_PORT_0, usedEntries);
        ; Setup parameters for call to function UART_ZCmdPrintNum
        MOV     A,#0x9
        LCALL   ?XSTACK_DISP0_8
        MOVX    A,@DPTR
        MOV     ?V0,A
        INC     DPTR
        MOVX    A,@DPTR
        MOV     R2,?V0
        MOV     R3,A
        CLR     A
        MOV     R4,A
        MOV     R5,A
        MOV     R1,A
        LCALL   `??UART_ZCmdPrintNum::?relay`; Banked call to: UART_ZCmdPrintNum
//  519 		UART_ZCmdPrint			(HAL_UART_PORT_0, "");
        MOV     ?V0,#`?<Constant "">` & 0xff
        MOV     ?V1,#(`?<Constant "">` >> 8) & 0xff
        ; Setup parameters for call to function UART_ZCmdPrint
        MOV     R2,?V0
        MOV     R3,?V1
        MOV     R1,#0x0
        LCALL   `??UART_ZCmdPrint::?relay`; Banked call to: UART_ZCmdPrint
//  520 
//  521 		current_BindingTableEntry = GetBindingTableEntry( 0 );
        ; Setup parameters for call to function GetBindingTableEntry
        MOV     R2,#0x0
        MOV     R3,#0x0
        LCALL   `??GetBindingTableEntry::?relay`; Banked call to: GetBindingTableEntry
        MOV     ?V4,R2
        MOV     ?V5,R3
        MOV     R6,?V4
        MOV     R7,?V5
//  522 		UART_ZCmdPrintString(HAL_UART_PORT_0, "Entry 0: ");
        ; Setup parameters for call to function UART_ZCmdPrintString
        MOV     R2,#`?<Constant "Entry 0: ">` & 0xff
        MOV     R3,#(`?<Constant "Entry 0: ">` >> 8) & 0xff
        MOV     R1,#0x0
        LCALL   `??UART_ZCmdPrintString::?relay`; Banked call to: UART_ZCmdPrintString
//  523 		UART_ZCmdPrintNum		(HAL_UART_PORT_0, current_BindingTableEntry[0].srcEP);
        ; Setup parameters for call to function UART_ZCmdPrintNum
        MOV     DPL,R6
        MOV     DPH,R7
        LCALL   ??Subroutine14_0 & 0xFFFF
??CrossCallReturnLabel_20:
        LCALL   `??UART_ZCmdPrintNum::?relay`; Banked call to: UART_ZCmdPrintNum
//  524 		UART_ZCmdPrintString(HAL_UART_PORT_0, " | ");
        MOV     ?V4,#`?<Constant " | ">` & 0xff
        MOV     ?V5,#(`?<Constant " | ">` >> 8) & 0xff
        ; Setup parameters for call to function UART_ZCmdPrintString
        MOV     R2,?V4
        MOV     R3,?V5
        MOV     R1,#0x0
        LCALL   `??UART_ZCmdPrintString::?relay`; Banked call to: UART_ZCmdPrintString
//  525 		UART_ZCmdPrintNum		(HAL_UART_PORT_0, current_BindingTableEntry[0].dstEP);
        ; Setup parameters for call to function UART_ZCmdPrintNum
        MOV     DPL,R6
        MOV     DPH,R7
        INC     DPTR
        INC     DPTR
        INC     DPTR
        INC     DPTR
        LCALL   ??Subroutine14_0 & 0xFFFF
??CrossCallReturnLabel_21:
        LCALL   `??UART_ZCmdPrintNum::?relay`; Banked call to: UART_ZCmdPrintNum
//  526 		UART_ZCmdPrint			(HAL_UART_PORT_0, "");
        ; Setup parameters for call to function UART_ZCmdPrint
        MOV     R2,?V0
        MOV     R3,?V1
        MOV     R1,#0x0
        LCALL   `??UART_ZCmdPrint::?relay`; Banked call to: UART_ZCmdPrint
//  527 
//  528 		current_BindingTableEntry = GetBindingTableEntry( 1 );
        ; Setup parameters for call to function GetBindingTableEntry
        MOV     R2,#0x1
        MOV     R3,#0x0
        LCALL   `??GetBindingTableEntry::?relay`; Banked call to: GetBindingTableEntry
        MOV     ?V6,R2
        MOV     ?V7,R3
        MOV     R6,?V6
        MOV     R7,?V7
//  529 		UART_ZCmdPrintString(HAL_UART_PORT_0, "Entry 1: ");
        ; Setup parameters for call to function UART_ZCmdPrintString
        MOV     R2,#`?<Constant "Entry 1: ">` & 0xff
        MOV     R3,#(`?<Constant "Entry 1: ">` >> 8) & 0xff
        MOV     R1,#0x0
        LCALL   `??UART_ZCmdPrintString::?relay`; Banked call to: UART_ZCmdPrintString
//  530 		UART_ZCmdPrintNum		(HAL_UART_PORT_0, current_BindingTableEntry[1].srcEP);
        ; Setup parameters for call to function UART_ZCmdPrintNum
        MOV     A,R6
        ADD     A,#0xe
        LCALL   ?Subroutine5 & 0xFFFF
??CrossCallReturnLabel_23:
        LCALL   `??UART_ZCmdPrintNum::?relay`; Banked call to: UART_ZCmdPrintNum
//  531 		UART_ZCmdPrintString(HAL_UART_PORT_0, " | ");
        ; Setup parameters for call to function UART_ZCmdPrintString
        MOV     R2,?V4
        MOV     R3,?V5
        MOV     R1,#0x0
        LCALL   `??UART_ZCmdPrintString::?relay`; Banked call to: UART_ZCmdPrintString
//  532 		UART_ZCmdPrintNum		(HAL_UART_PORT_0, current_BindingTableEntry[1].dstEP);
        ; Setup parameters for call to function UART_ZCmdPrintNum
        MOV     A,R6
        ADD     A,#0x12
        LCALL   ?Subroutine5 & 0xFFFF
??CrossCallReturnLabel_24:
        LCALL   `??UART_ZCmdPrintNum::?relay`; Banked call to: UART_ZCmdPrintNum
//  533 		UART_ZCmdPrint			(HAL_UART_PORT_0, "");
        ; Setup parameters for call to function UART_ZCmdPrint
        MOV     R2,?V0
        MOV     R3,?V1
        MOV     R1,#0x0
        LCALL   `??UART_ZCmdPrint::?relay`; Banked call to: UART_ZCmdPrint
//  534 
//  535 		current_BindingTableEntry = GetBindingTableEntry( 2 );
        ; Setup parameters for call to function GetBindingTableEntry
        MOV     R2,#0x2
        MOV     R3,#0x0
        LCALL   `??GetBindingTableEntry::?relay`; Banked call to: GetBindingTableEntry
        MOV     ?V6,R2
        MOV     ?V7,R3
        MOV     R6,?V6
        MOV     R7,?V7
//  536 		UART_ZCmdPrintString(HAL_UART_PORT_0, "Entry 2: ");
        ; Setup parameters for call to function UART_ZCmdPrintString
        MOV     R2,#`?<Constant "Entry 2: ">` & 0xff
        MOV     R3,#(`?<Constant "Entry 2: ">` >> 8) & 0xff
        MOV     R1,#0x0
        LCALL   `??UART_ZCmdPrintString::?relay`; Banked call to: UART_ZCmdPrintString
//  537 		UART_ZCmdPrintNum		(HAL_UART_PORT_0, current_BindingTableEntry[2].srcEP);
        ; Setup parameters for call to function UART_ZCmdPrintNum
        MOV     A,R6
        ADD     A,#0x1c
        LCALL   ?Subroutine5 & 0xFFFF
??CrossCallReturnLabel_25:
        LCALL   `??UART_ZCmdPrintNum::?relay`; Banked call to: UART_ZCmdPrintNum
//  538 		UART_ZCmdPrintString(HAL_UART_PORT_0, " | ");
        ; Setup parameters for call to function UART_ZCmdPrintString
        MOV     R2,?V4
        MOV     R3,?V5
        MOV     R1,#0x0
        LCALL   `??UART_ZCmdPrintString::?relay`; Banked call to: UART_ZCmdPrintString
//  539 		UART_ZCmdPrintNum		(HAL_UART_PORT_0, current_BindingTableEntry[2].dstEP);
        ; Setup parameters for call to function UART_ZCmdPrintNum
        MOV     A,R6
        ADD     A,#0x20
        LCALL   ?Subroutine5 & 0xFFFF
??CrossCallReturnLabel_26:
        LCALL   `??UART_ZCmdPrintNum::?relay`; Banked call to: UART_ZCmdPrintNum
//  540 		UART_ZCmdPrint			(HAL_UART_PORT_0, "");
        ; Setup parameters for call to function UART_ZCmdPrint
        MOV     R2,?V0
        MOV     R3,?V1
        MOV     R1,#0x0
        LCALL   `??UART_ZCmdPrint::?relay`; Banked call to: UART_ZCmdPrint
//  541 
//  542 		current_BindingTableEntry = GetBindingTableEntry( 3 );
        ; Setup parameters for call to function GetBindingTableEntry
        MOV     R2,#0x3
        MOV     R3,#0x0
        LCALL   `??GetBindingTableEntry::?relay`; Banked call to: GetBindingTableEntry
        MOV     ?V6,R2
        MOV     ?V7,R3
        MOV     R6,?V6
        MOV     R7,?V7
//  543 		UART_ZCmdPrintString(HAL_UART_PORT_0, "Entry 3: ");
        ; Setup parameters for call to function UART_ZCmdPrintString
        MOV     R2,#`?<Constant "Entry 3: ">` & 0xff
        MOV     R3,#(`?<Constant "Entry 3: ">` >> 8) & 0xff
        MOV     R1,#0x0
        LCALL   `??UART_ZCmdPrintString::?relay`; Banked call to: UART_ZCmdPrintString
//  544 		UART_ZCmdPrintNum		(HAL_UART_PORT_0, current_BindingTableEntry[3].srcEP);
        ; Setup parameters for call to function UART_ZCmdPrintNum
        MOV     A,R6
        ADD     A,#0x2a
        LCALL   ?Subroutine5 & 0xFFFF
??CrossCallReturnLabel_27:
        LCALL   `??UART_ZCmdPrintNum::?relay`; Banked call to: UART_ZCmdPrintNum
//  545 		UART_ZCmdPrintString(HAL_UART_PORT_0, " | ");
        ; Setup parameters for call to function UART_ZCmdPrintString
        MOV     R2,?V4
        MOV     R3,?V5
        MOV     R1,#0x0
        LCALL   `??UART_ZCmdPrintString::?relay`; Banked call to: UART_ZCmdPrintString
//  546 		UART_ZCmdPrintNum		(HAL_UART_PORT_0, current_BindingTableEntry[3].dstEP);
        ; Setup parameters for call to function UART_ZCmdPrintNum
        MOV     A,R6
        ADD     A,#0x2e
        LCALL   ?Subroutine5 & 0xFFFF
??CrossCallReturnLabel_28:
        LCALL   `??UART_ZCmdPrintNum::?relay`; Banked call to: UART_ZCmdPrintNum
//  547 		UART_ZCmdPrint			(HAL_UART_PORT_0, "");
        ; Setup parameters for call to function UART_ZCmdPrint
        MOV     R2,?V0
        MOV     R3,?V1
        MOV     R1,#0x0
        LCALL   `??UART_ZCmdPrint::?relay`; Banked call to: UART_ZCmdPrint
//  548 	}
//  549 
//  550   if ( keys & HAL_KEY_SW_8 ) //~ SW3 on board
??zclSampleHeatingCoolingUnit_HandleKeys_0:
        MOV     A,?V2
        MOV     C,0xE0 /* A   */.7
        JC      $+5
        LJMP    ??zclSampleHeatingCoolingUnit_HandleKeys_1 & 0xFFFF
//  551   {
//  552   	UART_DebugPrint(HAL_UART_PORT_0, "SW8");
        ; Setup parameters for call to function UART_DebugPrint
        MOV     R2,#`?<Constant "SW8">` & 0xff
        MOV     R3,#(`?<Constant "SW8">` >> 8) & 0xff
        MOV     R1,#0x0
        LCALL   `??UART_DebugPrint::?relay`; Banked call to: UART_DebugPrint
//  553     if ( ( giHeatingCoolingUnitScreenMode == HEATCOOLUNIT_MAINMODE ) ||
//  554          ( giHeatingCoolingUnitScreenMode == HEATCOOLUNIT_HELPMODE ) )
        MOV     DPTR,#giHeatingCoolingUnitScreenMode
        MOVX    A,@DPTR
        JZ      ??zclSampleHeatingCoolingUnit_HandleKeys_2
        XRL     A,#0x1
        JNZ     ??zclSampleHeatingCoolingUnit_HandleKeys_1
//  555     {
//  556       giHeatingCoolingUnitScreenMode = HEATCOOLUNIT_MAINMODE;
??zclSampleHeatingCoolingUnit_HandleKeys_2:
        CLR     A
        MOVX    @DPTR,A
//  557 
//  558 			FLAG_BINDING = !FLAG_BINDING;
        MOV     DPTR,#FLAG_BINDING
        MOVX    A,@DPTR
        JNZ     ??zclSampleHeatingCoolingUnit_HandleKeys_3
        MOV     A,#0x1
        SJMP    ??zclSampleHeatingCoolingUnit_HandleKeys_4
??zclSampleHeatingCoolingUnit_HandleKeys_3:
        CLR     A
??zclSampleHeatingCoolingUnit_HandleKeys_4:
        MOVX    @DPTR,A
//  559 			FLAG_HARD_BINDING = !FLAG_HARD_BINDING;
        MOV     DPTR,#FLAG_HARD_BINDING
        MOVX    A,@DPTR
        JNZ     ??zclSampleHeatingCoolingUnit_HandleKeys_5
        MOV     A,#0x1
        SJMP    ??zclSampleHeatingCoolingUnit_HandleKeys_6
??zclSampleHeatingCoolingUnit_HandleKeys_5:
        CLR     A
??zclSampleHeatingCoolingUnit_HandleKeys_6:
        LCALL   ?Subroutine2 & 0xFFFF
//  560 
//  561 		#ifdef ZCL_EZMODE
//  562       // Invoke EZ-Mode
//  563       zclEZMode_InvokeData_t ezModeData;
//  564 
//  565       // Invoke EZ-Mode
//  566       ezModeData.endpoint = SAMPLEHEATINGCOOLINGUNIT_ENDPOINT; // endpoint on which to invoke EZ-Mode
//  567       if ( ( zclSampleHeatingCoolingUnit_NwkState == DEV_ZB_COORD ) ||
//  568            ( zclSampleHeatingCoolingUnit_NwkState == DEV_ROUTER )   ||
//  569            ( zclSampleHeatingCoolingUnit_NwkState == DEV_END_DEVICE ) )
??CrossCallReturnLabel_0:
        JZ      ??zclSampleHeatingCoolingUnit_HandleKeys_7
        MOVX    A,@DPTR
        XRL     A,#0x7
        JZ      ??zclSampleHeatingCoolingUnit_HandleKeys_7
        MOVX    A,@DPTR
        XRL     A,#0x6
        JNZ     ??zclSampleHeatingCoolingUnit_HandleKeys_8
//  570       {
//  571         ezModeData.onNetwork = TRUE;      // node is already on the network
??zclSampleHeatingCoolingUnit_HandleKeys_7:
        MOV     A,#0x1
        LCALL   ?XSTACK_DISP0_8
        MOV     A,#0x1
        SJMP    ??zclSampleHeatingCoolingUnit_HandleKeys_9
//  572       }
//  573       else
//  574       {
//  575         ezModeData.onNetwork = FALSE;     // node is not yet on the network
??zclSampleHeatingCoolingUnit_HandleKeys_8:
        MOV     A,#0x1
        LCALL   ?XSTACK_DISP0_8
        CLR     A
??zclSampleHeatingCoolingUnit_HandleKeys_9:
        MOVX    @DPTR,A
//  576       }
//  577 			ezModeData.initiator = FALSE; 			 // Heating/Cooling Unit is a target
        MOV     A,#0x2
        LCALL   ?XSTACK_DISP0_8
        CLR     A
        MOVX    @DPTR,A
//  578 			ezModeData.numActiveInClusters = 0;
        MOV     A,#0x3
        LCALL   ?XSTACK_DISP0_8
        CLR     A
        MOVX    @DPTR,A
//  579 			ezModeData.pActiveInClusterIDs = NULL;
        MOV     A,#0x4
        LCALL   ?XSTACK_DISP0_8
        CLR     A
        MOVX    @DPTR,A
        INC     DPTR
        MOVX    @DPTR,A
//  580 			ezModeData.numActiveOutClusters = 0;	 // active output cluster
        MOV     A,#0x6
        LCALL   ?XSTACK_DISP0_8
        CLR     A
        MOVX    @DPTR,A
//  581 			ezModeData.pActiveOutClusterIDs = NULL;
        MOV     A,#0x7
        LCALL   ?XSTACK_DISP0_8
        CLR     A
        MOVX    @DPTR,A
        INC     DPTR
        LCALL   ??Subroutine11_0 & 0xFFFF
//  582 			zcl_InvokeEZMode( &ezModeData );
??CrossCallReturnLabel_12:
        LCALL   `??zcl_InvokeEZMode::?relay`; Banked call to: zcl_InvokeEZMode
//  583 
//  584 			#ifdef LCD_SUPPORTED
//  585       HalLcdWriteString( "EZMode", HAL_LCD_LINE_2 );
        ; Setup parameters for call to function HalLcdWriteString
        MOV     R1,#0x2
        MOV     R2,#`?<Constant "EZMode">` & 0xff
        MOV     R3,#(`?<Constant "EZMode">` >> 8) & 0xff
        LCALL   `??HalLcdWriteString::?relay`; Banked call to: HalLcdWriteString
//  586 			#endif
//  587 
//  588       // NOT ZCL_EZMODE, use EndDeviceBind
//  589 		#else
//  590       {
//  591         zAddrType_t dstAddr;
//  592         HalLedSet ( HAL_LED_4, HAL_LED_MODE_OFF );
//  593 
//  594         // Initiate an End Device Bind Request, this bind request will
//  595         // only use a cluster list that is important to binding.
//  596         dstAddr.addrMode = afAddr16Bit;
//  597         dstAddr.addr.shortAddr = 0;   // Coordinator makes the match
//  598         ZDP_EndDeviceBindReq( &dstAddr, NLME_GetShortAddr(),
//  599                              SAMPLEHEATINGCOOLINGUNIT_ENDPOINT,
//  600                              ZCL_HA_PROFILE_ID,
//  601                              ZCLSAMPLEHEATINGCOOLINGUNIT_BINDINGLIST, bindingInClusters,
//  602                              0, NULL,   // No Outgoing clusters to bind
//  603                              TRUE );
//  604       }
//  605 		#endif // ZCL_EZMODE
//  606     }
//  607   }
//  608 
//  609   if ( keys & HAL_KEY_SW_4 )
??zclSampleHeatingCoolingUnit_HandleKeys_1:
        MOV     A,?V2
        MOV     C,0xE0 /* A   */.3
        JNC     ??zclSampleHeatingCoolingUnit_HandleKeys_10
//  610   {
//  611     giHeatingCoolingUnitScreenMode = HEATCOOLUNIT_MAINMODE;
        MOV     DPTR,#giHeatingCoolingUnitScreenMode
        CLR     A
        MOVX    @DPTR,A
//  612 
//  613     if ( ( zclSampleHeatingCoolingUnit_NwkState == DEV_ZB_COORD ) ||
//  614         ( zclSampleHeatingCoolingUnit_NwkState == DEV_ROUTER ) )
        MOV     DPTR,#zclSampleHeatingCoolingUnit_NwkState
        MOVX    A,@DPTR
        XRL     A,#0x9
        JZ      ??zclSampleHeatingCoolingUnit_HandleKeys_11
        MOVX    A,@DPTR
        XRL     A,#0x7
        JNZ     ??zclSampleHeatingCoolingUnit_HandleKeys_10
//  615     {
//  616       zAddrType_t tmpAddr;
//  617 
//  618       tmpAddr.addrMode = Addr16Bit;
??zclSampleHeatingCoolingUnit_HandleKeys_11:
        MOV     A,#0x8
        LCALL   ?XSTACK_DISP0_8
        MOV     A,#0x2
        MOVX    @DPTR,A
//  619       tmpAddr.addr.shortAddr = NLME_GetShortAddr();
        ; Setup parameters for call to function NLME_GetShortAddr
        LCALL   `??NLME_GetShortAddr::?relay`; Banked call to: NLME_GetShortAddr
        MOV     DPL,?XSP + 0
        MOV     DPH,?XSP + 1
        MOV     A,R2
        MOVX    @DPTR,A
        INC     DPTR
        MOV     A,R3
        MOVX    @DPTR,A
//  620 
//  621       // toggle permit join
//  622       gPermitDuration = gPermitDuration ? 0 : 0xff;
        MOV     DPTR,#gPermitDuration
        MOVX    A,@DPTR
        JZ      ??zclSampleHeatingCoolingUnit_HandleKeys_12
        CLR     A
        SJMP    ??zclSampleHeatingCoolingUnit_HandleKeys_13
??zclSampleHeatingCoolingUnit_HandleKeys_12:
        MOV     A,#-0x1
??zclSampleHeatingCoolingUnit_HandleKeys_13:
        MOVX    @DPTR,A
//  623 
//  624       // Trust Center significance is always true
//  625       ZDP_MgmtPermitJoinReq( &tmpAddr, gPermitDuration, TRUE, FALSE );
        ; Setup parameters for call to function ZDP_MgmtPermitJoinReq
        MOV     R5,#0x0
        MOV     R4,#0x1
        MOVX    A,@DPTR
        MOV     R1,A
        MOV     R2,?XSP + 0
        MOV     R3,?XSP + 1
        LCALL   `??ZDP_MgmtPermitJoinReq::?relay`; Banked call to: ZDP_MgmtPermitJoinReq
//  626     }
//  627   }
//  628 
//  629   if ( shift && ( keys & HAL_KEY_SW_5 ) )
??zclSampleHeatingCoolingUnit_HandleKeys_10:
        MOV     A,?V3
        JZ      ??zclSampleHeatingCoolingUnit_HandleKeys_14
        MOV     A,?V2
        MOV     C,0xE0 /* A   */.2
        JNC     ??zclSampleHeatingCoolingUnit_HandleKeys_14
//  630   {
//  631     zclSampleHeatingCoolingUnit_BasicResetCB();
        ; Setup parameters for call to function zclSampleHeatingCoolingUnit_BasicResetCB
        LCALL   `??zclSampleHeatingCoolingUnit_BasicResetCB::?re`; Banked call to: zclSampleHeatingCoolingUnit_BasicResetCB
        SJMP    ??zclSampleHeatingCoolingUnit_HandleKeys_15
//  632   }
//  633   else if ( keys & HAL_KEY_SW_5 )
//  634   {
//  635     if ( keys & HAL_KEY_SW_5 )
??zclSampleHeatingCoolingUnit_HandleKeys_14:
        MOV     A,?V2
        MOV     C,0xE0 /* A   */.2
        JNC     ??zclSampleHeatingCoolingUnit_HandleKeys_15
//  636     {
//  637       if ( giHeatingCoolingUnitScreenMode == HEATCOOLUNIT_MAINMODE )
        MOV     DPTR,#giHeatingCoolingUnitScreenMode
        MOVX    A,@DPTR
        JNZ     ??zclSampleHeatingCoolingUnit_HandleKeys_16
//  638       {
//  639         giHeatingCoolingUnitScreenMode = HEATCOOLUNIT_HELPMODE;
        MOV     A,#0x1
        SJMP    ??zclSampleHeatingCoolingUnit_HandleKeys_17
//  640       }
//  641       else if ( giHeatingCoolingUnitScreenMode == HEATCOOLUNIT_HELPMODE )
??zclSampleHeatingCoolingUnit_HandleKeys_16:
        XRL     A,#0x1
        JNZ     ??zclSampleHeatingCoolingUnit_HandleKeys_15
//  642       {
//  643 #ifdef LCD_SUPPORTED
//  644         HalLcdWriteString( (char *)sClearLine, HAL_LCD_LINE_2 );
        ; Setup parameters for call to function HalLcdWriteString
        MOV     R1,#0x2
        MOV     R2,#sClearLine & 0xff
        MOV     R3,#(sClearLine >> 8) & 0xff
        LCALL   `??HalLcdWriteString::?relay`; Banked call to: HalLcdWriteString
//  645 #endif
//  646         giHeatingCoolingUnitScreenMode = HEATCOOLUNIT_MAINMODE;
        MOV     DPTR,#giHeatingCoolingUnitScreenMode
        CLR     A
??zclSampleHeatingCoolingUnit_HandleKeys_17:
        MOVX    @DPTR,A
//  647       }
//  648     }
//  649   }
//  650 
//  651   // update display
//  652   zclSampleHeatingCoolingUnit_LcdDisplayUpdate();
??zclSampleHeatingCoolingUnit_HandleKeys_15:
        ; Setup parameters for call to function zclSampleHeatingCoolingUnit_LcdDisplayUpdate
        LCALL   `??zclSampleHeatingCoolingUnit_LcdDisplayUpdate:`; Banked call to: zclSampleHeatingCoolingUnit_LcdDisplayUpdate
//  653 }
        MOV     A,#0xd
        LCALL   ?DEALLOC_XSTACK8
          CFI CFA_XSP16 add(XSP16, 16)
        MOV     R7,#0x8
        LJMP    ?BANKED_LEAVE_XDATA
          CFI EndBlock cfiBlock21
//  654 
//  655 /*********************************************************************
//  656  * @fn      zclSampleHeatingCoolingUnit_LcdDisplayUpdate
//  657  *
//  658  * @brief   Called to update the LCD display.
//  659  *
//  660  * @param   none
//  661  *
//  662  * @return  none
//  663  */

        RSEG BANKED_CODE:CODE:NOROOT(0)
//  664 void zclSampleHeatingCoolingUnit_LcdDisplayUpdate( void )
zclSampleHeatingCoolingUnit_LcdDisplayUpdate:
          CFI Block cfiBlock22 Using cfiCommon0
          CFI Function zclSampleHeatingCoolingUnit_LcdDisplayUpdate
        CODE
//  665 {
        FUNCALL zclSampleHeatingCoolingUnit_LcdDisplayUpdate, zclSampleHeatingCoolingUnit_LcdDisplayHelpMode
        LOCFRAME ISTACK, 2, STACK
        LOCFRAME PSTACK, 0, STACK
        LOCFRAME XSTACK, 0, STACK
        LOCFRAME IOVERLAY, 0, STATIC
        LOCFRAME DOVERLAY, 0, STATIC
        ARGFRAME ISTACK, 2, STACK
        ARGFRAME PSTACK, 0, STACK
        ARGFRAME XSTACK, 0, STACK
        ARGFRAME IOVERLAY, 0, STATIC
        ARGFRAME DOVERLAY, 0, STATIC
        FUNCALL zclSampleHeatingCoolingUnit_LcdDisplayUpdate, zclSampleHeatingCoolingUnit_LcdDisplayMainMode
        LOCFRAME ISTACK, 2, STACK
        LOCFRAME PSTACK, 0, STACK
        LOCFRAME XSTACK, 0, STACK
        LOCFRAME IOVERLAY, 0, STATIC
        LOCFRAME DOVERLAY, 0, STATIC
        ARGFRAME ISTACK, 2, STACK
        ARGFRAME PSTACK, 0, STACK
        ARGFRAME XSTACK, 0, STACK
        ARGFRAME IOVERLAY, 0, STATIC
        ARGFRAME DOVERLAY, 0, STATIC
        PUSH    DPL
          CFI DPL0 Frame(CFA_SP, 4)
          CFI CFA_SP SP+-4
        PUSH    DPH
          CFI DPH0 Frame(CFA_SP, 5)
          CFI CFA_SP SP+-5
        ; Saved register size: 2
        ; Auto size: 0
//  666   if ( giHeatingCoolingUnitScreenMode == HEATCOOLUNIT_HELPMODE )
        MOV     DPTR,#giHeatingCoolingUnitScreenMode
        MOVX    A,@DPTR
        XRL     A,#0x1
        JNZ     ??zclSampleHeatingCoolingUnit_LcdDisplayUpdate_0
//  667   {
//  668     zclSampleHeatingCoolingUnit_LcdDisplayHelpMode();
        ; Setup parameters for call to function zclSampleHeatingCoolingUnit_LcdDisplayHelpMode
        LCALL   ??zclSampleHeatingCoolingUnit_LcdDisplayHelpMod; Banked call to: zclSampleHeatingCoolingUnit_LcdDisplayHelpMode
        SJMP    ??zclSampleHeatingCoolingUnit_LcdDisplayUpdate_1
//  669   }
//  670   else
//  671   {
//  672     zclSampleHeatingCoolingUnit_LcdDisplayMainMode();
??zclSampleHeatingCoolingUnit_LcdDisplayUpdate_0:
        ; Setup parameters for call to function zclSampleHeatingCoolingUnit_LcdDisplayMainMode
        LCALL   ??zclSampleHeatingCoolingUnit_LcdDisplayMainMod; Banked call to: zclSampleHeatingCoolingUnit_LcdDisplayMainMode
//  673   }
//  674 }
??zclSampleHeatingCoolingUnit_LcdDisplayUpdate_1:
        LJMP    ??Subroutine12_0 & 0xFFFF
          CFI EndBlock cfiBlock22
//  675 
//  676 /*********************************************************************
//  677  * @fn      zclSampleHeatingCoolingUnit_LcdDisplayMainMode
//  678  *
//  679  * @brief   Called to display the main screen on the LCD.
//  680  *
//  681  * @param   none
//  682  *
//  683  * @return  none
//  684  */

        RSEG BANKED_CODE:CODE:NOROOT(0)
//  685 void zclSampleHeatingCoolingUnit_LcdDisplayMainMode( void )
zclSampleHeatingCoolingUnit_LcdDisplayMainMode:
          CFI Block cfiBlock23 Using cfiCommon0
          CFI Function zclSampleHeatingCoolingUnit_LcdDisplayMainMode
        CODE
//  686 {
        FUNCALL zclSampleHeatingCoolingUnit_LcdDisplayMainMode, zclHA_LcdStatusLine1
        LOCFRAME ISTACK, 2, STACK
        LOCFRAME PSTACK, 0, STACK
        LOCFRAME XSTACK, 0, STACK
        LOCFRAME IOVERLAY, 0, STATIC
        LOCFRAME DOVERLAY, 0, STATIC
        ARGFRAME ISTACK, 2, STACK
        ARGFRAME PSTACK, 0, STACK
        ARGFRAME XSTACK, 0, STACK
        ARGFRAME IOVERLAY, 0, STATIC
        ARGFRAME DOVERLAY, 0, STATIC
        FUNCALL zclSampleHeatingCoolingUnit_LcdDisplayMainMode, zclHA_LcdStatusLine1
        LOCFRAME ISTACK, 2, STACK
        LOCFRAME PSTACK, 0, STACK
        LOCFRAME XSTACK, 0, STACK
        LOCFRAME IOVERLAY, 0, STATIC
        LOCFRAME DOVERLAY, 0, STATIC
        ARGFRAME ISTACK, 2, STACK
        ARGFRAME PSTACK, 0, STACK
        ARGFRAME XSTACK, 0, STACK
        ARGFRAME IOVERLAY, 0, STATIC
        ARGFRAME DOVERLAY, 0, STATIC
        FUNCALL zclSampleHeatingCoolingUnit_LcdDisplayMainMode, zclHA_LcdStatusLine1
        LOCFRAME ISTACK, 2, STACK
        LOCFRAME PSTACK, 0, STACK
        LOCFRAME XSTACK, 0, STACK
        LOCFRAME IOVERLAY, 0, STATIC
        LOCFRAME DOVERLAY, 0, STATIC
        ARGFRAME ISTACK, 2, STACK
        ARGFRAME PSTACK, 0, STACK
        ARGFRAME XSTACK, 0, STACK
        ARGFRAME IOVERLAY, 0, STATIC
        ARGFRAME DOVERLAY, 0, STATIC
        FUNCALL zclSampleHeatingCoolingUnit_LcdDisplayMainMode, HalLcdWriteString
        LOCFRAME ISTACK, 2, STACK
        LOCFRAME PSTACK, 0, STACK
        LOCFRAME XSTACK, 0, STACK
        LOCFRAME IOVERLAY, 0, STATIC
        LOCFRAME DOVERLAY, 0, STATIC
        ARGFRAME ISTACK, 2, STACK
        ARGFRAME PSTACK, 0, STACK
        ARGFRAME XSTACK, 0, STACK
        ARGFRAME IOVERLAY, 0, STATIC
        ARGFRAME DOVERLAY, 0, STATIC
        FUNCALL zclSampleHeatingCoolingUnit_LcdDisplayMainMode, HalLcdWriteString
        LOCFRAME ISTACK, 2, STACK
        LOCFRAME PSTACK, 0, STACK
        LOCFRAME XSTACK, 0, STACK
        LOCFRAME IOVERLAY, 0, STATIC
        LOCFRAME DOVERLAY, 0, STATIC
        ARGFRAME ISTACK, 2, STACK
        ARGFRAME PSTACK, 0, STACK
        ARGFRAME XSTACK, 0, STACK
        ARGFRAME IOVERLAY, 0, STATIC
        ARGFRAME DOVERLAY, 0, STATIC
        FUNCALL zclSampleHeatingCoolingUnit_LcdDisplayMainMode, HalLcdWriteString
        LOCFRAME ISTACK, 2, STACK
        LOCFRAME PSTACK, 0, STACK
        LOCFRAME XSTACK, 0, STACK
        LOCFRAME IOVERLAY, 0, STATIC
        LOCFRAME DOVERLAY, 0, STATIC
        ARGFRAME ISTACK, 2, STACK
        ARGFRAME PSTACK, 0, STACK
        ARGFRAME XSTACK, 0, STACK
        ARGFRAME IOVERLAY, 0, STATIC
        ARGFRAME DOVERLAY, 0, STATIC
        FUNCALL zclSampleHeatingCoolingUnit_LcdDisplayMainMode, HalLcdWriteString
        LOCFRAME ISTACK, 2, STACK
        LOCFRAME PSTACK, 0, STACK
        LOCFRAME XSTACK, 0, STACK
        LOCFRAME IOVERLAY, 0, STATIC
        LOCFRAME DOVERLAY, 0, STATIC
        ARGFRAME ISTACK, 2, STACK
        ARGFRAME PSTACK, 0, STACK
        ARGFRAME XSTACK, 0, STACK
        ARGFRAME IOVERLAY, 0, STATIC
        ARGFRAME DOVERLAY, 0, STATIC
        FUNCALL zclSampleHeatingCoolingUnit_LcdDisplayMainMode, HalLcdWriteString
        LOCFRAME ISTACK, 2, STACK
        LOCFRAME PSTACK, 0, STACK
        LOCFRAME XSTACK, 0, STACK
        LOCFRAME IOVERLAY, 0, STATIC
        LOCFRAME DOVERLAY, 0, STATIC
        ARGFRAME ISTACK, 2, STACK
        ARGFRAME PSTACK, 0, STACK
        ARGFRAME XSTACK, 0, STACK
        ARGFRAME IOVERLAY, 0, STATIC
        ARGFRAME DOVERLAY, 0, STATIC
        FUNCALL zclSampleHeatingCoolingUnit_LcdDisplayMainMode, HalLcdWriteString
        LOCFRAME ISTACK, 2, STACK
        LOCFRAME PSTACK, 0, STACK
        LOCFRAME XSTACK, 0, STACK
        LOCFRAME IOVERLAY, 0, STATIC
        LOCFRAME DOVERLAY, 0, STATIC
        ARGFRAME ISTACK, 2, STACK
        ARGFRAME PSTACK, 0, STACK
        ARGFRAME XSTACK, 0, STACK
        ARGFRAME IOVERLAY, 0, STATIC
        ARGFRAME DOVERLAY, 0, STATIC
        PUSH    DPL
          CFI DPL0 Frame(CFA_SP, 4)
          CFI CFA_SP SP+-4
        PUSH    DPH
          CFI DPH0 Frame(CFA_SP, 5)
          CFI CFA_SP SP+-5
        ; Saved register size: 2
        ; Auto size: 0
//  687   if ( zclSampleHeatingCoolingUnit_NwkState == DEV_ZB_COORD )
        MOV     DPTR,#zclSampleHeatingCoolingUnit_NwkState
        MOVX    A,@DPTR
        XRL     A,#0x9
        JNZ     ??zclSampleHeatingCoolingUnit_LcdDisplayMainMod_1
//  688   {
//  689     zclHA_LcdStatusLine1( 0 );
        ; Setup parameters for call to function zclHA_LcdStatusLine1
        MOV     R1,#0x0
        SJMP    ??zclSampleHeatingCoolingUnit_LcdDisplayMainMod_2
//  690   }
//  691   else if ( zclSampleHeatingCoolingUnit_NwkState == DEV_ROUTER )
??zclSampleHeatingCoolingUnit_LcdDisplayMainMod_1:
        MOVX    A,@DPTR
        XRL     A,#0x7
        JNZ     ??zclSampleHeatingCoolingUnit_LcdDisplayMainMod_3
//  692   {
//  693     zclHA_LcdStatusLine1( 1 );
        ; Setup parameters for call to function zclHA_LcdStatusLine1
        MOV     R1,#0x1
        SJMP    ??zclSampleHeatingCoolingUnit_LcdDisplayMainMod_2
//  694   }
//  695   else if ( zclSampleHeatingCoolingUnit_NwkState == DEV_END_DEVICE )
??zclSampleHeatingCoolingUnit_LcdDisplayMainMod_3:
        MOVX    A,@DPTR
        XRL     A,#0x6
        JNZ     ??zclSampleHeatingCoolingUnit_LcdDisplayMainMod_4
//  696   {
//  697     zclHA_LcdStatusLine1( 2 );
        ; Setup parameters for call to function zclHA_LcdStatusLine1
        MOV     R1,#0x2
??zclSampleHeatingCoolingUnit_LcdDisplayMainMod_2:
        LCALL   `??zclHA_LcdStatusLine1::?relay`; Banked call to: zclHA_LcdStatusLine1
//  698   }
//  699 
//  700   // display current state of heating/cooling unit
//  701   if ( ( zclSampleHeatingCoolingUnit_RunningState == HVAC_THERMOSTAT_RUNNING_STATE_HEAT_1ST_STAGE_ON ) ||
//  702        ( zclSampleHeatingCoolingUnit_RunningState == HVAC_THERMOSTAT_RUNNING_STATE_HEAT_2ND_STAGE_ON ) ||
//  703        ( zclSampleHeatingCoolingUnit_RunningState == HVAC_THERMOSTAT_RUNNING_STATE_HEAT_3RD_STAGE_ON ) )
??zclSampleHeatingCoolingUnit_LcdDisplayMainMod_4:
        MOV     DPTR,#zclSampleHeatingCoolingUnit_RunningState
        MOVX    A,@DPTR
        XRL     A,#0x1
        JNZ     ??zclSampleHeatingCoolingUnit_LcdDisplayMainMod_5
        INC     DPTR
        MOVX    A,@DPTR
??zclSampleHeatingCoolingUnit_LcdDisplayMainMod_5:
        JZ      ??zclSampleHeatingCoolingUnit_LcdDisplayMainMod_6
        MOV     DPTR,#zclSampleHeatingCoolingUnit_RunningState
        MOVX    A,@DPTR
        XRL     A,#0x8
        JNZ     ??zclSampleHeatingCoolingUnit_LcdDisplayMainMod_7
        INC     DPTR
        MOVX    A,@DPTR
??zclSampleHeatingCoolingUnit_LcdDisplayMainMod_7:
        JZ      ??zclSampleHeatingCoolingUnit_LcdDisplayMainMod_6
        MOV     DPTR,#zclSampleHeatingCoolingUnit_RunningState
        MOVX    A,@DPTR
        XRL     A,#0x40
        JNZ     ??zclSampleHeatingCoolingUnit_LcdDisplayMainMod_8
        INC     DPTR
        MOVX    A,@DPTR
??zclSampleHeatingCoolingUnit_LcdDisplayMainMod_8:
        JNZ     ??zclSampleHeatingCoolingUnit_LcdDisplayMainMod_9
//  704   {
//  705 #ifdef LCD_SUPPORTED
//  706     HalLcdWriteString( (char *)sHeatMode, HAL_LCD_LINE_2 );
??zclSampleHeatingCoolingUnit_LcdDisplayMainMod_6:
        ; Setup parameters for call to function HalLcdWriteString
        MOV     R1,#0x2
        MOV     R2,#sHeatMode & 0xff
        MOV     R3,#(sHeatMode >> 8) & 0xff
        SJMP    ??zclSampleHeatingCoolingUnit_LcdDisplayMainMod_10
//  707 #endif
//  708   }
//  709   else if ( ( zclSampleHeatingCoolingUnit_RunningState == HVAC_THERMOSTAT_RUNNING_STATE_COOL_1ST_STAGE_ON ) ||
//  710             ( zclSampleHeatingCoolingUnit_RunningState == HVAC_THERMOSTAT_RUNNING_STATE_COOL_2ND_STAGE_ON ) ||
//  711             ( zclSampleHeatingCoolingUnit_RunningState == HVAC_THERMOSTAT_RUNNING_STATE_COOL_3RD_STAGE_ON ) )
??zclSampleHeatingCoolingUnit_LcdDisplayMainMod_9:
        MOV     DPTR,#zclSampleHeatingCoolingUnit_RunningState
        MOVX    A,@DPTR
        XRL     A,#0x2
        JNZ     ??zclSampleHeatingCoolingUnit_LcdDisplayMainMod_11
        INC     DPTR
        MOVX    A,@DPTR
??zclSampleHeatingCoolingUnit_LcdDisplayMainMod_11:
        JZ      ??zclSampleHeatingCoolingUnit_LcdDisplayMainMod_12
        MOV     DPTR,#zclSampleHeatingCoolingUnit_RunningState
        MOVX    A,@DPTR
        XRL     A,#0x10
        JNZ     ??zclSampleHeatingCoolingUnit_LcdDisplayMainMod_13
        INC     DPTR
        MOVX    A,@DPTR
??zclSampleHeatingCoolingUnit_LcdDisplayMainMod_13:
        JZ      ??zclSampleHeatingCoolingUnit_LcdDisplayMainMod_12
        MOV     DPTR,#zclSampleHeatingCoolingUnit_RunningState
        MOVX    A,@DPTR
        XRL     A,#0x80
        JNZ     ??zclSampleHeatingCoolingUnit_LcdDisplayMainMod_14
        INC     DPTR
        MOVX    A,@DPTR
??zclSampleHeatingCoolingUnit_LcdDisplayMainMod_14:
        JNZ     ??zclSampleHeatingCoolingUnit_LcdDisplayMainMod_15
//  712   {
//  713 #ifdef LCD_SUPPORTED
//  714     HalLcdWriteString( (char *)sCoolMode, HAL_LCD_LINE_2 );
??zclSampleHeatingCoolingUnit_LcdDisplayMainMod_12:
        ; Setup parameters for call to function HalLcdWriteString
        MOV     R1,#0x2
        MOV     R2,#sCoolMode & 0xff
        MOV     R3,#(sCoolMode >> 8) & 0xff
        SJMP    ??zclSampleHeatingCoolingUnit_LcdDisplayMainMod_10
//  715 #endif
//  716   }
//  717   else
//  718   {
//  719 #ifdef LCD_SUPPORTED
//  720     HalLcdWriteString( (char *)sOffMode, HAL_LCD_LINE_2 );
??zclSampleHeatingCoolingUnit_LcdDisplayMainMod_15:
        ; Setup parameters for call to function HalLcdWriteString
        MOV     R1,#0x2
        MOV     R2,#sOffMode & 0xff
        MOV     R3,#(sOffMode >> 8) & 0xff
??zclSampleHeatingCoolingUnit_LcdDisplayMainMod_10:
        LCALL   `??HalLcdWriteString::?relay`; Banked call to: HalLcdWriteString
//  721 #endif
//  722   }
//  723 
//  724 #ifdef LCD_SUPPORTED
//  725   if ( ( zclSampleHeatingCoolingUnit_NwkState == DEV_ZB_COORD ) ||
//  726        ( zclSampleHeatingCoolingUnit_NwkState == DEV_ROUTER ) )
        MOV     DPTR,#zclSampleHeatingCoolingUnit_NwkState
        MOVX    A,@DPTR
        XRL     A,#0x9
        JZ      ??zclSampleHeatingCoolingUnit_LcdDisplayMainMod_16
        MOVX    A,@DPTR
        XRL     A,#0x7
        JNZ     ??zclSampleHeatingCoolingUnit_LcdDisplayMainMod_17
//  727   {
//  728     // display help key with permit join status
//  729     if ( gPermitDuration )
??zclSampleHeatingCoolingUnit_LcdDisplayMainMod_16:
        MOV     DPTR,#gPermitDuration
        MOVX    A,@DPTR
        MOV     R1,#0x3
        JZ      ??zclSampleHeatingCoolingUnit_LcdDisplayMainMod_18
//  730     {
//  731       HalLcdWriteString("SW5: Help      *", HAL_LCD_LINE_3);
        ; Setup parameters for call to function HalLcdWriteString
        MOV     R2,#`?<Constant "SW5: Help      *">` & 0xff
        MOV     R3,#(`?<Constant "SW5: Help      *">` >> 8) & 0xff
        SJMP    ??zclSampleHeatingCoolingUnit_LcdDisplayMainMod_19
//  732     }
//  733     else
//  734     {
//  735       HalLcdWriteString("SW5: Help       ", HAL_LCD_LINE_3);
??zclSampleHeatingCoolingUnit_LcdDisplayMainMod_18:
        ; Setup parameters for call to function HalLcdWriteString
        MOV     R2,#`?<Constant "SW5: Help       ">` & 0xff
        MOV     R3,#(`?<Constant "SW5: Help       ">` >> 8) & 0xff
        SJMP    ??zclSampleHeatingCoolingUnit_LcdDisplayMainMod_19
//  736     }
//  737   }
//  738   else
//  739   {
//  740     // display help key
//  741     HalLcdWriteString( (char *)sSwHelp, HAL_LCD_LINE_3 );
??zclSampleHeatingCoolingUnit_LcdDisplayMainMod_17:
        ; Setup parameters for call to function HalLcdWriteString
        MOV     R1,#0x3
        MOV     R2,#sSwHelp & 0xff
        MOV     R3,#(sSwHelp >> 8) & 0xff
//  742   }
??zclSampleHeatingCoolingUnit_LcdDisplayMainMod_19:
        LJMP    ?Subroutine0 & 0xFFFF
//  743 #endif
//  744 }
          CFI EndBlock cfiBlock23
//  745 
//  746 /*********************************************************************
//  747  * @fn      zclSampleHeatingCoolingUnit_LcdDisplayHelpMode
//  748  *
//  749  * @brief   Called to display the SW options on the LCD.
//  750  *
//  751  * @param   none
//  752  *
//  753  * @return  none
//  754  */

        RSEG BANKED_CODE:CODE:NOROOT(0)
//  755 void zclSampleHeatingCoolingUnit_LcdDisplayHelpMode( void )
zclSampleHeatingCoolingUnit_LcdDisplayHelpMode:
          CFI Block cfiBlock24 Using cfiCommon0
          CFI Function zclSampleHeatingCoolingUnit_LcdDisplayHelpMode
        CODE
//  756 {
        FUNCALL zclSampleHeatingCoolingUnit_LcdDisplayHelpMode, HalLcdWriteString
        LOCFRAME ISTACK, 2, STACK
        LOCFRAME PSTACK, 0, STACK
        LOCFRAME XSTACK, 0, STACK
        LOCFRAME IOVERLAY, 0, STATIC
        LOCFRAME DOVERLAY, 0, STATIC
        ARGFRAME ISTACK, 2, STACK
        ARGFRAME PSTACK, 0, STACK
        ARGFRAME XSTACK, 0, STACK
        ARGFRAME IOVERLAY, 0, STATIC
        ARGFRAME DOVERLAY, 0, STATIC
        FUNCALL zclSampleHeatingCoolingUnit_LcdDisplayHelpMode, HalLcdWriteString
        LOCFRAME ISTACK, 2, STACK
        LOCFRAME PSTACK, 0, STACK
        LOCFRAME XSTACK, 0, STACK
        LOCFRAME IOVERLAY, 0, STATIC
        LOCFRAME DOVERLAY, 0, STATIC
        ARGFRAME ISTACK, 2, STACK
        ARGFRAME PSTACK, 0, STACK
        ARGFRAME XSTACK, 0, STACK
        ARGFRAME IOVERLAY, 0, STATIC
        ARGFRAME DOVERLAY, 0, STATIC
        FUNCALL zclSampleHeatingCoolingUnit_LcdDisplayHelpMode, HalLcdWriteString
        LOCFRAME ISTACK, 2, STACK
        LOCFRAME PSTACK, 0, STACK
        LOCFRAME XSTACK, 0, STACK
        LOCFRAME IOVERLAY, 0, STATIC
        LOCFRAME DOVERLAY, 0, STATIC
        ARGFRAME ISTACK, 2, STACK
        ARGFRAME PSTACK, 0, STACK
        ARGFRAME XSTACK, 0, STACK
        ARGFRAME IOVERLAY, 0, STATIC
        ARGFRAME DOVERLAY, 0, STATIC
        PUSH    DPL
          CFI DPL0 Frame(CFA_SP, 4)
          CFI CFA_SP SP+-4
        PUSH    DPH
          CFI DPH0 Frame(CFA_SP, 5)
          CFI CFA_SP SP+-5
        ; Saved register size: 2
        ; Auto size: 0
//  757 #ifdef LCD_SUPPORTED
//  758   HalLcdWriteString( (char *)sSwEZMode, HAL_LCD_LINE_1 );
        ; Setup parameters for call to function HalLcdWriteString
        MOV     R1,#0x1
        MOV     R2,#sSwEZMode & 0xff
        MOV     R3,#(sSwEZMode >> 8) & 0xff
        LCALL   `??HalLcdWriteString::?relay`; Banked call to: HalLcdWriteString
//  759   HalLcdWriteString( (char *)sClearLine, HAL_LCD_LINE_2 );
        ; Setup parameters for call to function HalLcdWriteString
        MOV     R1,#0x2
        MOV     R2,#sClearLine & 0xff
        MOV     R3,#(sClearLine >> 8) & 0xff
        LCALL   `??HalLcdWriteString::?relay`; Banked call to: HalLcdWriteString
//  760   HalLcdWriteString( (char *)sSwHelp, HAL_LCD_LINE_3 );
        ; Setup parameters for call to function HalLcdWriteString
        MOV     R1,#0x3
        MOV     R2,#sSwHelp & 0xff
        MOV     R3,#(sSwHelp >> 8) & 0xff
        SJMP    ?Subroutine0
//  761 #endif
//  762 }
          CFI EndBlock cfiBlock24
//  763 
//  764 /*********************************************************************
//  765  * @fn      zclSampleHeatingCoolingUnit_ProcessIdentifyTimeChange
//  766  *
//  767  * @brief   Called to process any change to the IdentifyTime attribute.
//  768  *
//  769  * @param   none
//  770  *
//  771  * @return  none
//  772  */

        RSEG BANKED_CODE:CODE:NOROOT(0)
//  773 static void zclSampleHeatingCoolingUnit_ProcessIdentifyTimeChange( void )
zclSampleHeatingCoolingUnit_ProcessIdentifyTimeChange:
          CFI Block cfiBlock25 Using cfiCommon0
          CFI Function zclSampleHeatingCoolingUnit_ProcessIdentifyTimeChange
        CODE
//  774 {
        FUNCALL zclSampleHeatingCoolingUnit_ProcessIdentifyTimeChange, osal_start_timerEx
        LOCFRAME ISTACK, 2, STACK
        LOCFRAME PSTACK, 0, STACK
        LOCFRAME XSTACK, 4, STACK
        LOCFRAME IOVERLAY, 0, STATIC
        LOCFRAME DOVERLAY, 0, STATIC
        ARGFRAME ISTACK, 2, STACK
        ARGFRAME PSTACK, 0, STACK
        ARGFRAME XSTACK, 4, STACK
        ARGFRAME IOVERLAY, 0, STATIC
        ARGFRAME DOVERLAY, 0, STATIC
        FUNCALL zclSampleHeatingCoolingUnit_ProcessIdentifyTimeChange, HalLedBlink
        LOCFRAME ISTACK, 2, STACK
        LOCFRAME PSTACK, 0, STACK
        LOCFRAME XSTACK, 0, STACK
        LOCFRAME IOVERLAY, 0, STATIC
        LOCFRAME DOVERLAY, 0, STATIC
        ARGFRAME ISTACK, 2, STACK
        ARGFRAME PSTACK, 0, STACK
        ARGFRAME XSTACK, 0, STACK
        ARGFRAME IOVERLAY, 0, STATIC
        ARGFRAME DOVERLAY, 0, STATIC
        FUNCALL zclSampleHeatingCoolingUnit_ProcessIdentifyTimeChange, HalLedSet
        LOCFRAME ISTACK, 2, STACK
        LOCFRAME PSTACK, 0, STACK
        LOCFRAME XSTACK, 0, STACK
        LOCFRAME IOVERLAY, 0, STATIC
        LOCFRAME DOVERLAY, 0, STATIC
        ARGFRAME ISTACK, 2, STACK
        ARGFRAME PSTACK, 0, STACK
        ARGFRAME XSTACK, 0, STACK
        ARGFRAME IOVERLAY, 0, STATIC
        ARGFRAME DOVERLAY, 0, STATIC
        FUNCALL zclSampleHeatingCoolingUnit_ProcessIdentifyTimeChange, HalLedSet
        LOCFRAME ISTACK, 2, STACK
        LOCFRAME PSTACK, 0, STACK
        LOCFRAME XSTACK, 0, STACK
        LOCFRAME IOVERLAY, 0, STATIC
        LOCFRAME DOVERLAY, 0, STATIC
        ARGFRAME ISTACK, 2, STACK
        ARGFRAME PSTACK, 0, STACK
        ARGFRAME XSTACK, 0, STACK
        ARGFRAME IOVERLAY, 0, STATIC
        ARGFRAME DOVERLAY, 0, STATIC
        FUNCALL zclSampleHeatingCoolingUnit_ProcessIdentifyTimeChange, osal_stop_timerEx
        LOCFRAME ISTACK, 2, STACK
        LOCFRAME PSTACK, 0, STACK
        LOCFRAME XSTACK, 0, STACK
        LOCFRAME IOVERLAY, 0, STATIC
        LOCFRAME DOVERLAY, 0, STATIC
        ARGFRAME ISTACK, 2, STACK
        ARGFRAME PSTACK, 0, STACK
        ARGFRAME XSTACK, 0, STACK
        ARGFRAME IOVERLAY, 0, STATIC
        ARGFRAME DOVERLAY, 0, STATIC
        PUSH    DPL
          CFI DPL0 Frame(CFA_SP, 4)
          CFI CFA_SP SP+-4
        PUSH    DPH
          CFI DPH0 Frame(CFA_SP, 5)
          CFI CFA_SP SP+-5
        ; Saved register size: 2
        ; Auto size: 0
//  775   if ( zclSampleHeatingCoolingUnit_IdentifyTime > 0 )
        LCALL   ?Subroutine8 & 0xFFFF
??CrossCallReturnLabel_9:
        MOV     A,R0
        ORL     A,R1
        JZ      ??zclSampleHeatingCoolingUnit_ProcessIdentifyTi_1
//  776   {
//  777     osal_start_timerEx( zclSampleHeatingCoolingUnit_TaskID, SAMPLEHEATINGCOOLINGUNIT_IDENTIFY_TIMEOUT_EVT, 1000 );
        ; Setup parameters for call to function osal_start_timerEx
        MOV     DPTR,#__Constant_3e8
        LCALL   ?PUSH_XSTACK8_X_FOUR
          CFI CFA_XSP16 add(XSP16, 4)
        MOV     R2,#0x1
        MOV     R3,#0x0
        MOV     DPTR,#zclSampleHeatingCoolingUnit_TaskID
        MOVX    A,@DPTR
        MOV     R1,A
        LCALL   `??osal_start_timerEx::?relay`; Banked call to: osal_start_timerEx
        MOV     A,#0x4
        LCALL   ?DEALLOC_XSTACK8
          CFI CFA_XSP16 XSP16+0
//  778     HalLedBlink ( HAL_LED_4, 0xFF, HAL_LED_DEFAULT_DUTY_CYCLE, HAL_LED_DEFAULT_FLASH_TIME );
        ; Setup parameters for call to function HalLedBlink
        MOV     R4,#-0x18
        MOV     R5,#0x3
        MOV     R3,#0x5
        MOV     R2,#-0x1
        MOV     R1,#0x8
        LCALL   `??HalLedBlink::?relay`; Banked call to: HalLedBlink
        SJMP    ??zclSampleHeatingCoolingUnit_ProcessIdentifyTi_2
//  779   }
//  780   else
//  781   {
//  782     if ( zclSampleHeatingCoolingUnit_OnOff )
??zclSampleHeatingCoolingUnit_ProcessIdentifyTi_1:
        MOV     DPTR,#zclSampleHeatingCoolingUnit_OnOff
        MOVX    A,@DPTR
        JZ      ??zclSampleHeatingCoolingUnit_ProcessIdentifyTi_3
//  783     {
//  784       HalLedSet ( HAL_LED_4, HAL_LED_MODE_ON );
        ; Setup parameters for call to function HalLedSet
        MOV     R2,#0x1
        SJMP    ??zclSampleHeatingCoolingUnit_ProcessIdentifyTi_4
//  785     }
//  786     else
//  787     {
//  788       HalLedSet ( HAL_LED_4, HAL_LED_MODE_OFF );
??zclSampleHeatingCoolingUnit_ProcessIdentifyTi_3:
        ; Setup parameters for call to function HalLedSet
        MOV     R2,#0x0
??zclSampleHeatingCoolingUnit_ProcessIdentifyTi_4:
        MOV     R1,#0x8
        LCALL   `??HalLedSet::?relay`; Banked call to: HalLedSet
//  789     }
//  790     osal_stop_timerEx( zclSampleHeatingCoolingUnit_TaskID, SAMPLEHEATINGCOOLINGUNIT_IDENTIFY_TIMEOUT_EVT );
        ; Setup parameters for call to function osal_stop_timerEx
        MOV     R2,#0x1
        MOV     R3,#0x0
        MOV     DPTR,#zclSampleHeatingCoolingUnit_TaskID
        MOVX    A,@DPTR
        MOV     R1,A
        LCALL   `??osal_stop_timerEx::?relay`; Banked call to: osal_stop_timerEx
//  791   }
//  792 }
??zclSampleHeatingCoolingUnit_ProcessIdentifyTi_2:
        SJMP    ??Subroutine12_0
          CFI EndBlock cfiBlock25
//  793 
//  794 /*********************************************************************
//  795  * @fn      zclSampleHeatingCoolingUnit_BasicResetCB
//  796  *
//  797  * @brief   Callback from the ZCL General Cluster Library
//  798  *          to set all the Basic Cluster attributes to default values.
//  799  *
//  800  * @param   none
//  801  *
//  802  * @return  none
//  803  */

        RSEG BANKED_CODE:CODE:NOROOT(0)
//  804 static void zclSampleHeatingCoolingUnit_BasicResetCB( void )
zclSampleHeatingCoolingUnit_BasicResetCB:
          CFI Block cfiBlock26 Using cfiCommon0
          CFI Function zclSampleHeatingCoolingUnit_BasicResetCB
        CODE
//  805 {
        FUNCALL zclSampleHeatingCoolingUnit_BasicResetCB, zgWriteStartupOptions
        LOCFRAME ISTACK, 2, STACK
        LOCFRAME PSTACK, 0, STACK
        LOCFRAME XSTACK, 0, STACK
        LOCFRAME IOVERLAY, 0, STATIC
        LOCFRAME DOVERLAY, 0, STATIC
        ARGFRAME ISTACK, 2, STACK
        ARGFRAME PSTACK, 0, STACK
        ARGFRAME XSTACK, 0, STACK
        ARGFRAME IOVERLAY, 0, STATIC
        ARGFRAME DOVERLAY, 0, STATIC
        FUNCALL zclSampleHeatingCoolingUnit_BasicResetCB, MT_SysCommandProcessing
        LOCFRAME ISTACK, 2, STACK
        LOCFRAME PSTACK, 0, STACK
        LOCFRAME XSTACK, 0, STACK
        LOCFRAME IOVERLAY, 0, STATIC
        LOCFRAME DOVERLAY, 0, STATIC
        ARGFRAME ISTACK, 2, STACK
        ARGFRAME PSTACK, 0, STACK
        ARGFRAME XSTACK, 0, STACK
        ARGFRAME IOVERLAY, 0, STATIC
        ARGFRAME DOVERLAY, 0, STATIC
        PUSH    DPL
          CFI DPL0 Frame(CFA_SP, 4)
          CFI CFA_SP SP+-4
        PUSH    DPH
          CFI DPH0 Frame(CFA_SP, 5)
          CFI CFA_SP SP+-5
        ; Saved register size: 2
        ; Auto size: 0
//  806   // Put device back to factory default settings
//  807   zgWriteStartupOptions( ZG_STARTUP_SET, 3 );   // bit set both default configuration and default network
        ; Setup parameters for call to function zgWriteStartupOptions
        MOV     R2,#0x3
        MOV     R1,#-0x1
        LCALL   `??zgWriteStartupOptions::?relay`; Banked call to: zgWriteStartupOptions
//  808 
//  809   // restart device
//  810   MT_SysCommandProcessing( aProcessCmd );
        ; Setup parameters for call to function MT_SysCommandProcessing
        MOV     R2,#aProcessCmd & 0xff
        MOV     R3,#(aProcessCmd >> 8) & 0xff
        LCALL   `??MT_SysCommandProcessing::?relay`; Banked call to: MT_SysCommandProcessing
//  811 }
        SJMP    ??Subroutine12_0
          CFI EndBlock cfiBlock26

        RSEG BANKED_CODE:CODE:NOROOT(0)
?Subroutine0:
          CFI Block cfiBlock27 Using cfiCommon0
          CFI NoFunction
          CFI CFA_SP SP+-5
          CFI DPL0 Frame(CFA_SP, 4)
          CFI DPH0 Frame(CFA_SP, 5)
        LCALL   `??HalLcdWriteString::?relay`; Banked call to: HalLcdWriteString
          CFI EndBlock cfiBlock27
        REQUIRE ??Subroutine12_0
        ; // Fall through to label ??Subroutine12_0

        RSEG BANKED_CODE:CODE:NOROOT(0)
??Subroutine12_0:
          CFI Block cfiBlock28 Using cfiCommon0
          CFI NoFunction
          CFI CFA_SP SP+-5
          CFI DPL0 Frame(CFA_SP, 4)
          CFI DPH0 Frame(CFA_SP, 5)
        POP     DPH
          CFI CFA_SP SP+-4
          CFI DPH0 SameValue
        POP     DPL
          CFI CFA_SP SP+-3
          CFI DPL0 SameValue
        LJMP    ?BRET
          CFI EndBlock cfiBlock28
//  812 
//  813 /*********************************************************************
//  814  * @fn      zclSampleHeatingCoolingUnit_IdentifyCB
//  815  *
//  816  * @brief   Callback from the ZCL General Cluster Library when
//  817  *          it received an Identity Command for this application.
//  818  *
//  819  * @param   srcAddr - source address and endpoint of the response message
//  820  * @param   identifyTime - the number of seconds to identify yourself
//  821  *
//  822  * @return  none
//  823  */

        RSEG BANKED_CODE:CODE:NOROOT(0)
//  824 static void zclSampleHeatingCoolingUnit_IdentifyCB( zclIdentify_t *pCmd )
zclSampleHeatingCoolingUnit_IdentifyCB:
          CFI Block cfiBlock29 Using cfiCommon0
          CFI Function zclSampleHeatingCoolingUnit_IdentifyCB
        CODE
//  825 {
        FUNCALL zclSampleHeatingCoolingUnit_IdentifyCB, zclSampleHeatingCoolingUnit_ProcessIdentifyTimeChange
        LOCFRAME ISTACK, 2, STACK
        LOCFRAME PSTACK, 0, STACK
        LOCFRAME XSTACK, 0, STACK
        LOCFRAME IOVERLAY, 0, STATIC
        LOCFRAME DOVERLAY, 0, STATIC
        ARGFRAME ISTACK, 2, STACK
        ARGFRAME PSTACK, 0, STACK
        ARGFRAME XSTACK, 0, STACK
        ARGFRAME IOVERLAY, 0, STATIC
        ARGFRAME DOVERLAY, 0, STATIC
        PUSH    DPL
          CFI DPL0 Frame(CFA_SP, 4)
          CFI CFA_SP SP+-4
        PUSH    DPH
          CFI DPH0 Frame(CFA_SP, 5)
          CFI CFA_SP SP+-5
        ; Saved register size: 2
        ; Auto size: 0
//  826   zclSampleHeatingCoolingUnit_IdentifyTime = pCmd->identifyTime;
        MOV     DPL,R2
        MOV     DPH,R3
        INC     DPTR
        INC     DPTR
        LCALL   ??Subroutine10_0 & 0xFFFF
??CrossCallReturnLabel_6:
        MOV     DPTR,#zclSampleHeatingCoolingUnit_IdentifyTime
        MOV     A,R0
        MOVX    @DPTR,A
        INC     DPTR
        MOV     A,R1
        MOVX    @DPTR,A
//  827   zclSampleHeatingCoolingUnit_ProcessIdentifyTimeChange();
        ; Setup parameters for call to function zclSampleHeatingCoolingUnit_ProcessIdentifyTimeChange
        LCALL   ??zclSampleHeatingCoolingUnit_ProcessIdentifyTi; Banked call to: zclSampleHeatingCoolingUnit_ProcessIdentifyTimeChange
//  828 }
        SJMP    ??Subroutine12_0
          CFI EndBlock cfiBlock29
//  829 
//  830 /*********************************************************************
//  831  * @fn      zclSampleHeatingCoolingUnit_IdentifyQueryRspCB
//  832  *
//  833  * @brief   Callback from the ZCL General Cluster Library when
//  834  *          it received an Identity Query Response Command for this application.
//  835  *
//  836  * @param   srcAddr - requestor's address
//  837  * @param   timeout - number of seconds to identify yourself (valid for query response)
//  838  *
//  839  * @return  none
//  840  */

        RSEG BANKED_CODE:CODE:NOROOT(0)
//  841 static void zclSampleHeatingCoolingUnit_IdentifyQueryRspCB(  zclIdentifyQueryRsp_t *pRsp )
zclSampleHeatingCoolingUnit_IdentifyQueryRspCB:
          CFI Block cfiBlock30 Using cfiCommon0
          CFI Function zclSampleHeatingCoolingUnit_IdentifyQueryRspCB
        CODE
//  842 {
        FUNCALL zclSampleHeatingCoolingUnit_IdentifyQueryRspCB, zcl_EZModeAction
        LOCFRAME ISTACK, 2, STACK
        LOCFRAME PSTACK, 0, STACK
        LOCFRAME XSTACK, 2, STACK
        LOCFRAME IOVERLAY, 0, STATIC
        LOCFRAME DOVERLAY, 0, STATIC
        ARGFRAME ISTACK, 2, STACK
        ARGFRAME PSTACK, 0, STACK
        ARGFRAME XSTACK, 2, STACK
        ARGFRAME IOVERLAY, 0, STATIC
        ARGFRAME DOVERLAY, 0, STATIC
        PUSH    DPL
          CFI DPL0 Frame(CFA_SP, 4)
          CFI CFA_SP SP+-4
        PUSH    DPH
          CFI DPH0 Frame(CFA_SP, 5)
          CFI CFA_SP SP+-5
        ; Saved register size: 2
        ; Auto size: 2
        MOV     A,#-0x2
        LCALL   ?ALLOC_XSTACK8
          CFI CFA_XSP16 add(XSP16, 2)
//  843   (void)pRsp;
//  844 #ifdef ZCL_EZMODE
//  845   {
//  846     zclEZMode_ActionData_t data;
//  847     data.pIdentifyQueryRsp = pRsp;
        LCALL   ?Subroutine3 & 0xFFFF
//  848     zcl_EZModeAction ( EZMODE_ACTION_IDENTIFY_QUERY_RSP, &data );
//  849   }
??CrossCallReturnLabel_11:
        MOV     R1,#0x4
        LCALL   `??zcl_EZModeAction::?relay`; Banked call to: zcl_EZModeAction
//  850 #endif
//  851 }
        MOV     A,#0x2
          CFI EndBlock cfiBlock30
        REQUIRE ?Subroutine1
        ; // Fall through to label ?Subroutine1

        RSEG BANKED_CODE:CODE:NOROOT(0)
?Subroutine1:
          CFI Block cfiBlock31 Using cfiCommon0
          CFI NoFunction
          CFI CFA_SP SP+-5
          CFI CFA_XSP16 add(XSP16, 2)
          CFI DPL0 Frame(CFA_SP, 4)
          CFI DPH0 Frame(CFA_SP, 5)
          CFI Invalid
        LCALL   ?DEALLOC_XSTACK8
          CFI CFA_XSP16 XSP16+0
          CFI Valid
        SJMP    ??Subroutine12_0
          CFI EndBlock cfiBlock31
//  852 
//  853 /*********************************************************************
//  854  * @fn      zclSampleHeatingCoolingUnit_OnOffCB
//  855  *
//  856  * @brief   Callback from the ZCL General Cluster Library when
//  857  *          it received an On/Off Command for this application.
//  858  *
//  859  * @param   cmd - COMMAND_ON, COMMAND_OFF or COMMAND_TOGGLE
//  860  *
//  861  * @return  none
//  862  */

        RSEG BANKED_CODE:CODE:NOROOT(0)
//  863 static void zclSampleHeatingCoolingUnit_OnOffCB( uint8 cmd )
zclSampleHeatingCoolingUnit_OnOffCB:
          CFI Block cfiBlock32 Using cfiCommon0
          CFI Function zclSampleHeatingCoolingUnit_OnOffCB
        CODE
//  864 {
        FUNCALL zclSampleHeatingCoolingUnit_OnOffCB, HalLedSet
        LOCFRAME ISTACK, 0, STACK
        LOCFRAME PSTACK, 0, STACK
        LOCFRAME XSTACK, 9, STACK
        LOCFRAME IOVERLAY, 0, STATIC
        LOCFRAME DOVERLAY, 0, STATIC
        ARGFRAME ISTACK, 0, STACK
        ARGFRAME PSTACK, 0, STACK
        ARGFRAME XSTACK, 9, STACK
        ARGFRAME IOVERLAY, 0, STATIC
        ARGFRAME DOVERLAY, 0, STATIC
        FUNCALL zclSampleHeatingCoolingUnit_OnOffCB, HalLedSet
        LOCFRAME ISTACK, 0, STACK
        LOCFRAME PSTACK, 0, STACK
        LOCFRAME XSTACK, 9, STACK
        LOCFRAME IOVERLAY, 0, STATIC
        LOCFRAME DOVERLAY, 0, STATIC
        ARGFRAME ISTACK, 0, STACK
        ARGFRAME PSTACK, 0, STACK
        ARGFRAME XSTACK, 9, STACK
        ARGFRAME IOVERLAY, 0, STATIC
        ARGFRAME DOVERLAY, 0, STATIC
        FUNCALL zclSampleHeatingCoolingUnit_OnOffCB, zclSampleHeatingCoolingUnit_LcdDisplayUpdate
        LOCFRAME ISTACK, 0, STACK
        LOCFRAME PSTACK, 0, STACK
        LOCFRAME XSTACK, 9, STACK
        LOCFRAME IOVERLAY, 0, STATIC
        LOCFRAME DOVERLAY, 0, STATIC
        ARGFRAME ISTACK, 0, STACK
        ARGFRAME PSTACK, 0, STACK
        ARGFRAME XSTACK, 9, STACK
        ARGFRAME IOVERLAY, 0, STATIC
        ARGFRAME DOVERLAY, 0, STATIC
        MOV     A,#-0x9
        LCALL   ?BANKED_ENTER_XDATA
          CFI DPH0 load(1, XDATA, add(CFA_XSP16, literal(-1)))
          CFI DPL0 load(1, XDATA, add(CFA_XSP16, literal(-2)))
          CFI ?BRET_EXT load(1, XDATA, add(CFA_XSP16, literal(-3)))
          CFI ?RET_HIGH load(1, XDATA, add(CFA_XSP16, literal(-4)))
          CFI ?RET_LOW load(1, XDATA, add(CFA_XSP16, literal(-5)))
          CFI R7 load(1, XDATA, add(CFA_XSP16, literal(-6)))
          CFI V0 load(1, XDATA, add(CFA_XSP16, literal(-7)))
          CFI VB load(1, XDATA, add(CFA_XSP16, literal(-8)))
          CFI R6 load(1, XDATA, add(CFA_XSP16, literal(-9)))
          CFI CFA_SP SP+0
          CFI CFA_XSP16 add(XSP16, 9)
        ; Saved register size: 9
        ; Auto size: 0
        MOV     A,R1
//  865 #ifdef ZCL_ON_OFF
//  866   // Turn off the unit
//  867   if ( cmd == COMMAND_OFF )
        JNZ     ??zclSampleHeatingCoolingUnit_OnOffCB_0
//  868   {
//  869     zclSampleHeatingCoolingUnit_RunningState = 0;   // unit is off
        MOV     DPTR,#zclSampleHeatingCoolingUnit_RunningState
        CLR     A
        MOVX    @DPTR,A
        INC     DPTR
        MOVX    @DPTR,A
//  870 
//  871     HalLedSet ( HAL_LED_1, HAL_LED_MODE_OFF );
        ; Setup parameters for call to function HalLedSet
        MOV     R2,A
        MOV     R1,#0x1
        LCALL   `??HalLedSet::?relay`; Banked call to: HalLedSet
//  872     HalLedSet ( HAL_LED_2, HAL_LED_MODE_OFF );
        ; Setup parameters for call to function HalLedSet
        MOV     R2,#0x0
        MOV     R1,#0x2
        LCALL   `??HalLedSet::?relay`; Banked call to: HalLedSet
//  873 
//  874     // update the display
//  875     zclSampleHeatingCoolingUnit_LcdDisplayUpdate();
        ; Setup parameters for call to function zclSampleHeatingCoolingUnit_LcdDisplayUpdate
        LCALL   `??zclSampleHeatingCoolingUnit_LcdDisplayUpdate:`; Banked call to: zclSampleHeatingCoolingUnit_LcdDisplayUpdate
//  876   }
//  877 #endif
//  878 }
??zclSampleHeatingCoolingUnit_OnOffCB_0:
        MOV     R7,#0x1
        LJMP    ?BANKED_LEAVE_XDATA
          CFI EndBlock cfiBlock32
//  879 
//  880 #ifdef ZCL_REPORT
//  881 /*********************************************************************
//  882  * @fn      zclSampleHeatingCoolingUnit_ProcessInReportCmd
//  883  *
//  884  * @brief   Process the "Profile" Report Command
//  885  *
//  886  * @param   pInMsg - incoming message to process
//  887  *
//  888  * @return  none
//  889  */

        RSEG BANKED_CODE:CODE:NOROOT(0)
//  890 static void zclSampleHeatingCoolingUnit_ProcessInReportCmd( zclIncomingMsg_t *pInMsg )
zclSampleHeatingCoolingUnit_ProcessInReportCmd:
          CFI Block cfiBlock33 Using cfiCommon0
          CFI Function zclSampleHeatingCoolingUnit_ProcessInReportCmd
        CODE
//  891 {
        FUNCALL zclSampleHeatingCoolingUnit_ProcessInReportCmd, HalLedBlink
        LOCFRAME ISTACK, 0, STACK
        LOCFRAME PSTACK, 0, STACK
        LOCFRAME XSTACK, 40, STACK
        LOCFRAME IOVERLAY, 0, STATIC
        LOCFRAME DOVERLAY, 0, STATIC
        ARGFRAME ISTACK, 0, STACK
        ARGFRAME PSTACK, 0, STACK
        ARGFRAME XSTACK, 40, STACK
        ARGFRAME IOVERLAY, 0, STATIC
        ARGFRAME DOVERLAY, 0, STATIC
        FUNCALL zclSampleHeatingCoolingUnit_ProcessInReportCmd, zclSampleHeatingCoolingUnit_LcdDisplayUpdate
        LOCFRAME ISTACK, 0, STACK
        LOCFRAME PSTACK, 0, STACK
        LOCFRAME XSTACK, 40, STACK
        LOCFRAME IOVERLAY, 0, STATIC
        LOCFRAME DOVERLAY, 0, STATIC
        ARGFRAME ISTACK, 0, STACK
        ARGFRAME PSTACK, 0, STACK
        ARGFRAME XSTACK, 40, STACK
        ARGFRAME IOVERLAY, 0, STATIC
        ARGFRAME DOVERLAY, 0, STATIC
        FUNCALL zclSampleHeatingCoolingUnit_ProcessInReportCmd, osal_mem_alloc
        LOCFRAME ISTACK, 0, STACK
        LOCFRAME PSTACK, 0, STACK
        LOCFRAME XSTACK, 40, STACK
        LOCFRAME IOVERLAY, 0, STATIC
        LOCFRAME DOVERLAY, 0, STATIC
        ARGFRAME ISTACK, 0, STACK
        ARGFRAME PSTACK, 0, STACK
        ARGFRAME XSTACK, 40, STACK
        ARGFRAME IOVERLAY, 0, STATIC
        ARGFRAME DOVERLAY, 0, STATIC
        FUNCALL zclSampleHeatingCoolingUnit_ProcessInReportCmd, zcl_SendReportCmd
        LOCFRAME ISTACK, 0, STACK
        LOCFRAME PSTACK, 0, STACK
        LOCFRAME XSTACK, 45, STACK
        LOCFRAME IOVERLAY, 0, STATIC
        LOCFRAME DOVERLAY, 0, STATIC
        ARGFRAME ISTACK, 0, STACK
        ARGFRAME PSTACK, 0, STACK
        ARGFRAME XSTACK, 45, STACK
        ARGFRAME IOVERLAY, 0, STATIC
        ARGFRAME DOVERLAY, 0, STATIC
        FUNCALL zclSampleHeatingCoolingUnit_ProcessInReportCmd, osal_mem_free
        LOCFRAME ISTACK, 0, STACK
        LOCFRAME PSTACK, 0, STACK
        LOCFRAME XSTACK, 40, STACK
        LOCFRAME IOVERLAY, 0, STATIC
        LOCFRAME DOVERLAY, 0, STATIC
        ARGFRAME ISTACK, 0, STACK
        ARGFRAME PSTACK, 0, STACK
        ARGFRAME XSTACK, 40, STACK
        ARGFRAME IOVERLAY, 0, STATIC
        ARGFRAME DOVERLAY, 0, STATIC
        FUNCALL zclSampleHeatingCoolingUnit_ProcessInReportCmd, HalLedBlink
        LOCFRAME ISTACK, 0, STACK
        LOCFRAME PSTACK, 0, STACK
        LOCFRAME XSTACK, 40, STACK
        LOCFRAME IOVERLAY, 0, STATIC
        LOCFRAME DOVERLAY, 0, STATIC
        ARGFRAME ISTACK, 0, STACK
        ARGFRAME PSTACK, 0, STACK
        ARGFRAME XSTACK, 40, STACK
        ARGFRAME IOVERLAY, 0, STATIC
        ARGFRAME DOVERLAY, 0, STATIC
        FUNCALL zclSampleHeatingCoolingUnit_ProcessInReportCmd, UART_ZCmdPrintString
        LOCFRAME ISTACK, 0, STACK
        LOCFRAME PSTACK, 0, STACK
        LOCFRAME XSTACK, 40, STACK
        LOCFRAME IOVERLAY, 0, STATIC
        LOCFRAME DOVERLAY, 0, STATIC
        ARGFRAME ISTACK, 0, STACK
        ARGFRAME PSTACK, 0, STACK
        ARGFRAME XSTACK, 40, STACK
        ARGFRAME IOVERLAY, 0, STATIC
        ARGFRAME DOVERLAY, 0, STATIC
        FUNCALL zclSampleHeatingCoolingUnit_ProcessInReportCmd, UART_ZCmdPrintNum
        LOCFRAME ISTACK, 0, STACK
        LOCFRAME PSTACK, 0, STACK
        LOCFRAME XSTACK, 40, STACK
        LOCFRAME IOVERLAY, 0, STATIC
        LOCFRAME DOVERLAY, 0, STATIC
        ARGFRAME ISTACK, 0, STACK
        ARGFRAME PSTACK, 0, STACK
        ARGFRAME XSTACK, 40, STACK
        ARGFRAME IOVERLAY, 0, STATIC
        ARGFRAME DOVERLAY, 0, STATIC
        FUNCALL zclSampleHeatingCoolingUnit_ProcessInReportCmd, UART_ZCmdPrintString
        LOCFRAME ISTACK, 0, STACK
        LOCFRAME PSTACK, 0, STACK
        LOCFRAME XSTACK, 40, STACK
        LOCFRAME IOVERLAY, 0, STATIC
        LOCFRAME DOVERLAY, 0, STATIC
        ARGFRAME ISTACK, 0, STACK
        ARGFRAME PSTACK, 0, STACK
        ARGFRAME XSTACK, 40, STACK
        ARGFRAME IOVERLAY, 0, STATIC
        ARGFRAME DOVERLAY, 0, STATIC
        FUNCALL zclSampleHeatingCoolingUnit_ProcessInReportCmd, UART_ZCmdPrintNum
        LOCFRAME ISTACK, 0, STACK
        LOCFRAME PSTACK, 0, STACK
        LOCFRAME XSTACK, 40, STACK
        LOCFRAME IOVERLAY, 0, STATIC
        LOCFRAME DOVERLAY, 0, STATIC
        ARGFRAME ISTACK, 0, STACK
        ARGFRAME PSTACK, 0, STACK
        ARGFRAME XSTACK, 40, STACK
        ARGFRAME IOVERLAY, 0, STATIC
        ARGFRAME DOVERLAY, 0, STATIC
        FUNCALL zclSampleHeatingCoolingUnit_ProcessInReportCmd, UART_ZCmdPrintString
        LOCFRAME ISTACK, 0, STACK
        LOCFRAME PSTACK, 0, STACK
        LOCFRAME XSTACK, 40, STACK
        LOCFRAME IOVERLAY, 0, STATIC
        LOCFRAME DOVERLAY, 0, STATIC
        ARGFRAME ISTACK, 0, STACK
        ARGFRAME PSTACK, 0, STACK
        ARGFRAME XSTACK, 40, STACK
        ARGFRAME IOVERLAY, 0, STATIC
        ARGFRAME DOVERLAY, 0, STATIC
        FUNCALL zclSampleHeatingCoolingUnit_ProcessInReportCmd, UART_ZCmdPrintNum
        LOCFRAME ISTACK, 0, STACK
        LOCFRAME PSTACK, 0, STACK
        LOCFRAME XSTACK, 40, STACK
        LOCFRAME IOVERLAY, 0, STATIC
        LOCFRAME DOVERLAY, 0, STATIC
        ARGFRAME ISTACK, 0, STACK
        ARGFRAME PSTACK, 0, STACK
        ARGFRAME XSTACK, 40, STACK
        ARGFRAME IOVERLAY, 0, STATIC
        ARGFRAME DOVERLAY, 0, STATIC
        FUNCALL zclSampleHeatingCoolingUnit_ProcessInReportCmd, UART_ZCmdPrintString
        LOCFRAME ISTACK, 0, STACK
        LOCFRAME PSTACK, 0, STACK
        LOCFRAME XSTACK, 40, STACK
        LOCFRAME IOVERLAY, 0, STATIC
        LOCFRAME DOVERLAY, 0, STATIC
        ARGFRAME ISTACK, 0, STACK
        ARGFRAME PSTACK, 0, STACK
        ARGFRAME XSTACK, 40, STACK
        ARGFRAME IOVERLAY, 0, STATIC
        ARGFRAME DOVERLAY, 0, STATIC
        FUNCALL zclSampleHeatingCoolingUnit_ProcessInReportCmd, UART_ZCmdPrintNum
        LOCFRAME ISTACK, 0, STACK
        LOCFRAME PSTACK, 0, STACK
        LOCFRAME XSTACK, 40, STACK
        LOCFRAME IOVERLAY, 0, STATIC
        LOCFRAME DOVERLAY, 0, STATIC
        ARGFRAME ISTACK, 0, STACK
        ARGFRAME PSTACK, 0, STACK
        ARGFRAME XSTACK, 40, STACK
        ARGFRAME IOVERLAY, 0, STATIC
        ARGFRAME DOVERLAY, 0, STATIC
        FUNCALL zclSampleHeatingCoolingUnit_ProcessInReportCmd, UART_ZCmdPrintString
        LOCFRAME ISTACK, 0, STACK
        LOCFRAME PSTACK, 0, STACK
        LOCFRAME XSTACK, 40, STACK
        LOCFRAME IOVERLAY, 0, STATIC
        LOCFRAME DOVERLAY, 0, STATIC
        ARGFRAME ISTACK, 0, STACK
        ARGFRAME PSTACK, 0, STACK
        ARGFRAME XSTACK, 40, STACK
        ARGFRAME IOVERLAY, 0, STATIC
        ARGFRAME DOVERLAY, 0, STATIC
        FUNCALL zclSampleHeatingCoolingUnit_ProcessInReportCmd, UART_ZCmdPrintNum
        LOCFRAME ISTACK, 0, STACK
        LOCFRAME PSTACK, 0, STACK
        LOCFRAME XSTACK, 40, STACK
        LOCFRAME IOVERLAY, 0, STATIC
        LOCFRAME DOVERLAY, 0, STATIC
        ARGFRAME ISTACK, 0, STACK
        ARGFRAME PSTACK, 0, STACK
        ARGFRAME XSTACK, 40, STACK
        ARGFRAME IOVERLAY, 0, STATIC
        ARGFRAME DOVERLAY, 0, STATIC
        FUNCALL zclSampleHeatingCoolingUnit_ProcessInReportCmd, UART_ZCmdPrintString
        LOCFRAME ISTACK, 0, STACK
        LOCFRAME PSTACK, 0, STACK
        LOCFRAME XSTACK, 40, STACK
        LOCFRAME IOVERLAY, 0, STATIC
        LOCFRAME DOVERLAY, 0, STATIC
        ARGFRAME ISTACK, 0, STACK
        ARGFRAME PSTACK, 0, STACK
        ARGFRAME XSTACK, 40, STACK
        ARGFRAME IOVERLAY, 0, STATIC
        ARGFRAME DOVERLAY, 0, STATIC
        FUNCALL zclSampleHeatingCoolingUnit_ProcessInReportCmd, UART_ZCmdPrintBuffer
        LOCFRAME ISTACK, 0, STACK
        LOCFRAME PSTACK, 0, STACK
        LOCFRAME XSTACK, 40, STACK
        LOCFRAME IOVERLAY, 0, STATIC
        LOCFRAME DOVERLAY, 0, STATIC
        ARGFRAME ISTACK, 0, STACK
        ARGFRAME PSTACK, 0, STACK
        ARGFRAME XSTACK, 40, STACK
        ARGFRAME IOVERLAY, 0, STATIC
        ARGFRAME DOVERLAY, 0, STATIC
        FUNCALL zclSampleHeatingCoolingUnit_ProcessInReportCmd, UART_ZCmdPrint
        LOCFRAME ISTACK, 0, STACK
        LOCFRAME PSTACK, 0, STACK
        LOCFRAME XSTACK, 40, STACK
        LOCFRAME IOVERLAY, 0, STATIC
        LOCFRAME DOVERLAY, 0, STATIC
        ARGFRAME ISTACK, 0, STACK
        ARGFRAME PSTACK, 0, STACK
        ARGFRAME XSTACK, 40, STACK
        ARGFRAME IOVERLAY, 0, STATIC
        ARGFRAME DOVERLAY, 0, STATIC
        REQUIRE ?V0
        REQUIRE ?V1
        REQUIRE ?V2
        REQUIRE ?V3
        REQUIRE ?V4
        REQUIRE ?V5
        REQUIRE ?V6
        REQUIRE ?V7
        REQUIRE ?V8
        REQUIRE ?V9
        MOV     A,#-0x12
        LCALL   ?BANKED_ENTER_XDATA
          CFI DPH0 load(1, XDATA, add(CFA_XSP16, literal(-1)))
          CFI DPL0 load(1, XDATA, add(CFA_XSP16, literal(-2)))
          CFI ?BRET_EXT load(1, XDATA, add(CFA_XSP16, literal(-3)))
          CFI ?RET_HIGH load(1, XDATA, add(CFA_XSP16, literal(-4)))
          CFI ?RET_LOW load(1, XDATA, add(CFA_XSP16, literal(-5)))
          CFI R7 load(1, XDATA, add(CFA_XSP16, literal(-6)))
          CFI V9 load(1, XDATA, add(CFA_XSP16, literal(-7)))
          CFI V8 load(1, XDATA, add(CFA_XSP16, literal(-8)))
          CFI V7 load(1, XDATA, add(CFA_XSP16, literal(-9)))
          CFI V6 load(1, XDATA, add(CFA_XSP16, literal(-10)))
          CFI V5 load(1, XDATA, add(CFA_XSP16, literal(-11)))
          CFI V4 load(1, XDATA, add(CFA_XSP16, literal(-12)))
          CFI V3 load(1, XDATA, add(CFA_XSP16, literal(-13)))
          CFI V2 load(1, XDATA, add(CFA_XSP16, literal(-14)))
          CFI V1 load(1, XDATA, add(CFA_XSP16, literal(-15)))
          CFI V0 load(1, XDATA, add(CFA_XSP16, literal(-16)))
          CFI VB load(1, XDATA, add(CFA_XSP16, literal(-17)))
          CFI R6 load(1, XDATA, add(CFA_XSP16, literal(-18)))
          CFI CFA_SP SP+0
          CFI CFA_XSP16 add(XSP16, 18)
        ; Saved register size: 18
        ; Auto size: 22
        MOV     A,#-0x16
        LCALL   ?ALLOC_XSTACK8
          CFI CFA_XSP16 add(XSP16, 40)
        MOV     A,R2
        MOV     R6,A
        MOV     A,R3
        MOV     R7,A
//  892   zclReportCmd_t *pInReportCmd;
//  893   pInReportCmd = (zclReportCmd_t *)pInMsg->attrCmd;
        MOV     A,R6
        ADD     A,#0x17
        MOV     DPL,A
        CLR     A
        ADDC    A,R7
        MOV     DPH,A
        LCALL   ??Subroutine10_0 & 0xFFFF
//  894 
//  895 	/*- THERMOSTAT DEMAND ------------------------------------------------------*/
//  896   if ( ( pInReportCmd->attrList[0].attrID == ATTRID_HVAC_THERMOSTAT_PI_HEATING_DEMAND ) &&
//  897        ( pInReportCmd->attrList[1].attrID == ATTRID_HVAC_THERMOSTAT_PI_COOLING_DEMAND ) &&
//  898        ( pInReportCmd->attrList[2].attrID == ATTRID_ENDPOINT) &&
//  899        ( pInReportCmd->attrList[2].attrData[0] == SAMPLEHEATINGCOOLINGUNIT_ENDPOINT 	 ) )
??CrossCallReturnLabel_7:
        MOV     DPL,R0
        MOV     DPH,R1
        INC     DPTR
        MOVX    A,@DPTR
        MOV     R2,A
        INC     DPTR
        MOVX    A,@DPTR
        MOV     R3,A
        MOV     A,R0
        ADD     A,#0x9
        MOV     ?V2,A
        CLR     A
        ADDC    A,R1
        MOV     ?V3,A
        MOV     A,R0
        ADD     A,#0x4
        MOV     ?V6,A
        CLR     A
        ADDC    A,R1
        MOV     ?V7,A
        MOV     A,R0
        ADD     A,#0x6
        MOV     ?V4,A
        CLR     A
        ADDC    A,R1
        MOV     ?V5,A
        MOV     A,#0x8
        XRL     A,R2
        ORL     A,R3
        JZ      $+5
        LJMP    ??zclSampleHeatingCoolingUnit_ProcessInReportCm_1 & 0xFFFF
        MOV     DPL,?V4
        MOV     DPH,?V5
        MOVX    A,@DPTR
        XRL     A,#0x7
        JNZ     ??zclSampleHeatingCoolingUnit_ProcessInReportCm_2
        INC     DPTR
        MOVX    A,@DPTR
??zclSampleHeatingCoolingUnit_ProcessInReportCm_2:
        JZ      $+5
        LJMP    ??zclSampleHeatingCoolingUnit_ProcessInReportCm_1 & 0xFFFF
        MOV     A,R0
        ADD     A,#0xb
        MOV     DPL,A
        CLR     A
        ADDC    A,R1
        MOV     DPH,A
        MOVX    A,@DPTR
        XRL     A,#0x1
        JNZ     ??zclSampleHeatingCoolingUnit_ProcessInReportCm_3
        INC     DPTR
        MOVX    A,@DPTR
        XRL     A,#0xa0
??zclSampleHeatingCoolingUnit_ProcessInReportCm_3:
        JZ      $+5
        LJMP    ??zclSampleHeatingCoolingUnit_ProcessInReportCm_1 & 0xFFFF
        MOV     A,R0
        ADD     A,#0xe
        MOV     DPL,A
        CLR     A
        ADDC    A,R1
        MOV     DPH,A
        LCALL   ??Subroutine13_0 & 0xFFFF
??CrossCallReturnLabel_14:
        XRL     A,#0x1
        JZ      $+5
        LJMP    ??zclSampleHeatingCoolingUnit_ProcessInReportCm_1 & 0xFFFF
//  900   {
//  901   	HalLedBlink ( HAL_LED_1, 1, 50, 500 );
        ; Setup parameters for call to function HalLedBlink
        MOV     R4,#-0xc
        MOV     R5,#0x1
        MOV     R3,#0x32
        MOV     R2,#0x1
        MOV     R1,#0x1
        LCALL   `??HalLedBlink::?relay`; Banked call to: HalLedBlink
//  902 		
//  903 		// check to see if heating/cooling unit should be off
//  904 	  if ( ( pInReportCmd->attrList[0].attrData[0] == 0 ) &&
//  905 	       ( pInReportCmd->attrList[1].attrData[0] == 0 ) )
        MOV     DPL,?V6
        MOV     DPH,?V7
        LCALL   ??Subroutine13_0 & 0xFFFF
??CrossCallReturnLabel_15:
        MOV     R0,A
        JNZ     ??zclSampleHeatingCoolingUnit_ProcessInReportCm_4
        MOV     DPL,?V2
        MOV     DPH,?V3
        MOVX    A,@DPTR
        MOV     R1,A
        INC     DPTR
        MOVX    A,@DPTR
        MOV     DPH,A
        MOV     DPL,R1
        MOVX    A,@DPTR
        JNZ     ??zclSampleHeatingCoolingUnit_ProcessInReportCm_4
//  906 	  {
//  907 	    // turn heating/cooling off
//  908 	    zclSampleHeatingCoolingUnit_RunningState = 0;
        MOV     DPTR,#zclSampleHeatingCoolingUnit_RunningState
        CLR     A
        MOVX    @DPTR,A
        INC     DPTR
        SJMP    ??zclSampleHeatingCoolingUnit_ProcessInReportCm_5
//  909 	  }
//  910 	  else
//  911 	  {
//  912 	    // check if unit needs to turn heat on or off
//  913 	    if ( pInReportCmd->attrList[0].attrData[0] > 0 )
??zclSampleHeatingCoolingUnit_ProcessInReportCm_4:
        MOV     A,R0
        JZ      ??zclSampleHeatingCoolingUnit_ProcessInReportCm_6
//  914 	    {
//  915 	      // turn heating on
//  916 	      zclSampleHeatingCoolingUnit_RunningState = HVAC_THERMOSTAT_RUNNING_STATE_HEAT_1ST_STAGE_ON;
        MOV     DPTR,#zclSampleHeatingCoolingUnit_RunningState
        MOV     A,#0x1
        MOVX    @DPTR,A
        INC     DPTR
        CLR     A
        MOVX    @DPTR,A
//  917 	    }
//  918 	    else if ( pInReportCmd->attrList[0].attrData[0] == 0 )
//  919 	    {
//  920 	      // turn heating off
//  921 	    }
//  922 
//  923 	    // check if unit needs to turn cool on or off
//  924 	    if ( pInReportCmd->attrList[1].attrData[0] > 0 )
??zclSampleHeatingCoolingUnit_ProcessInReportCm_6:
        LCALL   ?Subroutine6 & 0xFFFF
??CrossCallReturnLabel_16:
        JZ      ??zclSampleHeatingCoolingUnit_ProcessInReportCm_7
//  925 	    {
//  926 	      // turn cooling on
//  927 	      zclSampleHeatingCoolingUnit_RunningState = HVAC_THERMOSTAT_RUNNING_STATE_COOL_1ST_STAGE_ON;
        MOV     DPTR,#zclSampleHeatingCoolingUnit_RunningState
        MOV     A,#0x2
        MOVX    @DPTR,A
        INC     DPTR
        CLR     A
??zclSampleHeatingCoolingUnit_ProcessInReportCm_5:
        MOVX    @DPTR,A
//  928 	    }
//  929 	    else if ( pInReportCmd->attrList[1].attrData[0] == 0 )
//  930 	    {
//  931 	      // turn cooling off
//  932 	    }
//  933 	  }
//  934 
//  935 	  // update the display
//  936 	  zclSampleHeatingCoolingUnit_LcdDisplayUpdate();
??zclSampleHeatingCoolingUnit_ProcessInReportCm_7:
        ; Setup parameters for call to function zclSampleHeatingCoolingUnit_LcdDisplayUpdate
        LCALL   `??zclSampleHeatingCoolingUnit_LcdDisplayUpdate:`; Banked call to: zclSampleHeatingCoolingUnit_LcdDisplayUpdate
//  937 
//  938 		// Feedback
//  939 	  zclReportCmd_t *pReportCmd;
//  940 
//  941 		uint8 Feedback_Heating = 0xFF;
//  942 		uint8 Feedback_Cooling = 0xFF;
//  943 		uint16 Feedback = BUILD_UINT16(Feedback_Heating, Feedback_Cooling);
        MOV     DPL,?XSP + 0
        MOV     DPH,?XSP + 1
        MOV     A,#-0x1
        MOVX    @DPTR,A
        INC     DPTR
        MOVX    @DPTR,A
//  944 		
//  945 	  pReportCmd = osal_mem_alloc( sizeof(zclReportCmd_t) + 1 * sizeof(zclReport_t) );
        ; Setup parameters for call to function osal_mem_alloc
        MOV     R2,#0x6
        MOV     R3,#0x0
        LCALL   `??osal_mem_alloc::?relay`; Banked call to: osal_mem_alloc
        MOV     ?V0,R2
        MOV     ?V1,R3
//  946 	  if ( pReportCmd != NULL )
        MOV     A,R2
        ORL     A,?V1
        JZ      ??zclSampleHeatingCoolingUnit_ProcessInReportCm_8
//  947 	  {
//  948 	    pReportCmd->numAttr = 1;
        MOV     DPL,R2
        MOV     DPH,R3
        MOV     A,#0x1
        MOVX    @DPTR,A
//  949 			// Confirmation
//  950 			pReportCmd->attrList[0].attrID = ATTRID_HVAC_THERMOSTAT_RUNNING_STATE;
        INC     DPTR
        MOV     A,#0x29
        MOVX    @DPTR,A
        INC     DPTR
        CLR     A
        LCALL   ?Subroutine4 & 0xFFFF
//  951 	    pReportCmd->attrList[0].dataType = ZCL_DATATYPE_UINT16;
??CrossCallReturnLabel_2:
        MOV     A,#0x21
        LCALL   ?Subroutine4 & 0xFFFF
//  952 	    pReportCmd->attrList[0].attrData = (void *)(&Feedback);
??CrossCallReturnLabel_3:
        INC     DPTR
        MOV     A,?XSP + 0
        MOVX    @DPTR,A
        INC     DPTR
        MOV     A,?XSP + 1
        MOVX    @DPTR,A
//  953 
//  954 	    zcl_SendReportCmd( SAMPLEHEATINGCOOLINGUNIT_ENDPOINT, &zclSampleHeatingCoolingUnit_DstAddr,
//  955 	                       ZCL_CLUSTER_ID_HVAC_THERMOSTAT,
//  956 	                       pReportCmd, ZCL_FRAME_SERVER_CLIENT_DIR, TRUE, zclSampleHeatingCoolingUnitSeqNum++ );
        MOV     DPTR,#zclSampleHeatingCoolingUnitSeqNum
        MOVX    A,@DPTR
        MOV     R0,A
        MOV     A,#0x1
        ADD     A,R0
        MOVX    @DPTR,A
        ; Setup parameters for call to function zcl_SendReportCmd
        MOV     A,R0
        MOV     ?V2,A
        MOV     R0,#?V2
        LCALL   ?PUSH_XSTACK_I_ONE
          CFI CFA_XSP16 add(XSP16, 41)
        MOV     ?V2,#0x1
        MOV     R0,#?V2
        LCALL   ?PUSH_XSTACK_I_ONE
          CFI CFA_XSP16 add(XSP16, 42)
        MOV     R0,#?V2
        LCALL   ?PUSH_XSTACK_I_ONE
          CFI CFA_XSP16 add(XSP16, 43)
        MOV     R0,#?V0
        LCALL   ?PUSH_XSTACK_I_TWO
          CFI CFA_XSP16 add(XSP16, 45)
        MOV     R4,#0x1
        MOV     R5,#0x2
        MOV     R2,#zclSampleHeatingCoolingUnit_DstAddr & 0xff
        MOV     R3,#(zclSampleHeatingCoolingUnit_DstAddr >> 8) & 0xff
        MOV     R1,#0x1
        LCALL   `??zcl_SendReportCmd::?relay`; Banked call to: zcl_SendReportCmd
        MOV     A,#0x5
        LCALL   ?DEALLOC_XSTACK8
          CFI CFA_XSP16 add(XSP16, 40)
//  957 	  }
//  958 
//  959 	  osal_mem_free( pReportCmd );
??zclSampleHeatingCoolingUnit_ProcessInReportCm_8:
        ; Setup parameters for call to function osal_mem_free
        MOV     R2,?V0
        MOV     R3,?V1
        LCALL   `??osal_mem_free::?relay`; Banked call to: osal_mem_free
//  960 
//  961     return;
        LJMP    ??zclSampleHeatingCoolingUnit_ProcessInReportCm_9 & 0xFFFF
//  962   }	
//  963 	
//  964 	/*- FREE DATA --------------------------------------------------------------*/
//  965 	if ( pInReportCmd->attrList[0].attrID == ATTRID_FREE_DATA )
??zclSampleHeatingCoolingUnit_ProcessInReportCm_1:
        MOV     A,#0x3
        XRL     A,R2
        JNZ     ??zclSampleHeatingCoolingUnit_ProcessInReportCm_10
        MOV     A,#-0x60
        XRL     A,R3
??zclSampleHeatingCoolingUnit_ProcessInReportCm_10:
        JZ      $+5
        LJMP    ??zclSampleHeatingCoolingUnit_ProcessInReportCm_9 & 0xFFFF
//  966 	{
//  967 		HalLedBlink ( HAL_LED_2, 1, 50, 500 );
        ; Setup parameters for call to function HalLedBlink
        MOV     R4,#-0xc
        MOV     R5,#0x1
        MOV     R3,#0x32
        MOV     R2,#0x1
        MOV     R1,#0x2
        LCALL   `??HalLedBlink::?relay`; Banked call to: HalLedBlink
//  968 
//  969 		uint8 i;
//  970 		uint8 tmp_Data[20];
//  971 		
//  972 		if (FLAG_ECHO_RDATA)
        MOV     DPTR,#FLAG_ECHO_RDATA
        MOVX    A,@DPTR
        JNZ     $+5
        LJMP    ??zclSampleHeatingCoolingUnit_ProcessInReportCm_9 & 0xFFFF
//  973 		{
//  974 			UART_ZCmdPrintString(HAL_UART_PORT_0, "@ZBR:");
        ; Setup parameters for call to function UART_ZCmdPrintString
        MOV     R2,#`?<Constant "@ZBR:">` & 0xff
        MOV     R3,#(`?<Constant "@ZBR:">` >> 8) & 0xff
        MOV     R1,#0x0
        LCALL   `??UART_ZCmdPrintString::?relay`; Banked call to: UART_ZCmdPrintString
//  975 			UART_ZCmdPrintNum 	(HAL_UART_PORT_0, msg_RSSI);																// RSSI
        ; Setup parameters for call to function UART_ZCmdPrintNum
        MOV     DPTR,#msg_RSSI
        MOVX    A,@DPTR
        MOV     R2,A
        RLC     A
        SUBB    A,0xE0 /* A   */
        MOV     R3,A
        MOV     R4,A
        MOV     R5,A
        MOV     R1,#0x0
        LCALL   `??UART_ZCmdPrintNum::?relay`; Banked call to: UART_ZCmdPrintNum
//  976 			UART_ZCmdPrintString(HAL_UART_PORT_0, ";");
        MOV     ?V0,#`?<Constant ";">` & 0xff
        MOV     ?V1,#(`?<Constant ";">` >> 8) & 0xff
        ; Setup parameters for call to function UART_ZCmdPrintString
        MOV     R2,?V0
        MOV     R3,?V1
        MOV     R1,#0x0
        LCALL   `??UART_ZCmdPrintString::?relay`; Banked call to: UART_ZCmdPrintString
//  977 			UART_ZCmdPrintNum 	(HAL_UART_PORT_0, pInMsg->srcAddr.addr.shortAddr);					// shortAddr
        ; Setup parameters for call to function UART_ZCmdPrintNum
        MOV     DPL,R6
        MOV     DPH,R7
        INC     DPTR
        INC     DPTR
        INC     DPTR
        INC     DPTR
        INC     DPTR
        INC     DPTR
        INC     DPTR
        INC     DPTR
        INC     DPTR
        INC     DPTR
        MOVX    A,@DPTR
        MOV     ?V8,A
        INC     DPTR
        MOVX    A,@DPTR
        MOV     R2,?V8
        MOV     R3,A
        CLR     A
        MOV     R4,A
        MOV     R5,A
        MOV     R1,A
        LCALL   `??UART_ZCmdPrintNum::?relay`; Banked call to: UART_ZCmdPrintNum
//  978 			UART_ZCmdPrintString(HAL_UART_PORT_0, ";");
        ; Setup parameters for call to function UART_ZCmdPrintString
        MOV     R2,?V0
        MOV     R3,?V1
        MOV     R1,#0x0
        LCALL   `??UART_ZCmdPrintString::?relay`; Banked call to: UART_ZCmdPrintString
//  979 			UART_ZCmdPrintNum 	(HAL_UART_PORT_0, pInMsg->srcAddr.endPoint);								// endPoint
        ; Setup parameters for call to function UART_ZCmdPrintNum
        MOV     A,R6
        ADD     A,#0x13
        LCALL   ?Subroutine5 & 0xFFFF
??CrossCallReturnLabel_29:
        LCALL   `??UART_ZCmdPrintNum::?relay`; Banked call to: UART_ZCmdPrintNum
//  980 			UART_ZCmdPrintString(HAL_UART_PORT_0, ";");
        ; Setup parameters for call to function UART_ZCmdPrintString
        MOV     R2,?V0
        MOV     R3,?V1
        MOV     R1,#0x0
        LCALL   `??UART_ZCmdPrintString::?relay`; Banked call to: UART_ZCmdPrintString
//  981 			UART_ZCmdPrintNum 	(HAL_UART_PORT_0, pInReportCmd->attrList[1].attrID); 				// coordShortAddr
        ; Setup parameters for call to function UART_ZCmdPrintNum
        MOV     DPL,?V4
        MOV     DPH,?V5
        MOVX    A,@DPTR
        MOV     ?V4,A
        INC     DPTR
        MOVX    A,@DPTR
        MOV     R2,?V4
        MOV     R3,A
        CLR     A
        MOV     R4,A
        MOV     R5,A
        MOV     R1,A
        LCALL   `??UART_ZCmdPrintNum::?relay`; Banked call to: UART_ZCmdPrintNum
//  982 			UART_ZCmdPrintString(HAL_UART_PORT_0, ";"); 
        ; Setup parameters for call to function UART_ZCmdPrintString
        MOV     R2,?V0
        MOV     R3,?V1
        MOV     R1,#0x0
        LCALL   `??UART_ZCmdPrintString::?relay`; Banked call to: UART_ZCmdPrintString
//  983 			UART_ZCmdPrintNum 	(HAL_UART_PORT_0, pInReportCmd->attrList[1].attrData[0]); 	// data size
        ; Setup parameters for call to function UART_ZCmdPrintNum
        MOV     DPL,?V2
        MOV     DPH,?V3
        LCALL   ?Subroutine9 & 0xFFFF
??CrossCallReturnLabel_18:
        LCALL   ??Subroutine14_0 & 0xFFFF
??CrossCallReturnLabel_22:
        LCALL   `??UART_ZCmdPrintNum::?relay`; Banked call to: UART_ZCmdPrintNum
//  984 			UART_ZCmdPrintString(HAL_UART_PORT_0, ";");
        ; Setup parameters for call to function UART_ZCmdPrintString
        MOV     R2,?V0
        MOV     R3,?V1
        MOV     R1,#0x0
        LCALL   `??UART_ZCmdPrintString::?relay`; Banked call to: UART_ZCmdPrintString
//  985 			
//  986 			// eliminate DUMMY byte index[0]
//  987 			for (i = 1; i <= pInReportCmd->attrList[1].attrData[0]; i++)
        MOV     R2,#0x1
        SJMP    ??zclSampleHeatingCoolingUnit_ProcessInReportCm_11
//  988 			{
//  989 				tmp_Data[i-1] = pInReportCmd->attrList[0].attrData[i];
??zclSampleHeatingCoolingUnit_ProcessInReportCm_12:
        MOV     A,R2
        MOV     R0,A
        MOV     DPL,?V6
        MOV     DPH,?V7
        MOVX    A,@DPTR
        ADD     A,R0
        MOV     R3,A
        INC     DPTR
        MOVX    A,@DPTR
        ADDC    A,#0x0
        MOV     DPL,R3
        MOV     DPH,A
        MOVX    A,@DPTR
        PUSH    A
          CFI CFA_SP SP+-1
        MOV     A,#0x2
        LCALL   ?XSTACK_DISP0_8
        MOV     A,DPL
        ADD     A,R0
        MOV     R0,A
        CLR     A
        ADDC    A,DPH
        MOV     R1,A
        MOV     A,R0
        ADD     A,#-0x1
        MOV     DPL,A
        MOV     A,R1
        ADDC    A,#-0x1
        MOV     DPH,A
        POP     A
          CFI CFA_SP SP+0
        MOVX    @DPTR,A
//  990 			}
        INC     R2
??zclSampleHeatingCoolingUnit_ProcessInReportCm_11:
        LCALL   ?Subroutine6 & 0xFFFF
??CrossCallReturnLabel_17:
        MOV     R4,A
        CLR     C
        SUBB    A,R2
        JNC     ??zclSampleHeatingCoolingUnit_ProcessInReportCm_12
//  991 			UART_ZCmdPrintBuffer(HAL_UART_PORT_0, tmp_Data, pInReportCmd->attrList[1].attrData[0]); 	// Free Data
        ; Setup parameters for call to function UART_ZCmdPrintBuffer
        MOV     A,#0x2
        LCALL   ?XSTACK_DISP101_8
        MOV     R1,#0x0
        LCALL   `??UART_ZCmdPrintBuffer::?relay`; Banked call to: UART_ZCmdPrintBuffer
//  992 			UART_ZCmdPrint			(HAL_UART_PORT_0, "!");
        ; Setup parameters for call to function UART_ZCmdPrint
        MOV     R2,#`?<Constant "!">` & 0xff
        MOV     R3,#(`?<Constant "!">` >> 8) & 0xff
        MOV     R1,#0x0
        LCALL   `??UART_ZCmdPrint::?relay`; Banked call to: UART_ZCmdPrint
//  993 		}
//  994 		return;
//  995 	}
//  996 
//  997 	
//  998 }
??zclSampleHeatingCoolingUnit_ProcessInReportCm_9:
        MOV     A,#0x16
        LCALL   ?DEALLOC_XSTACK8
          CFI CFA_XSP16 add(XSP16, 18)
        MOV     R7,#0xa
        LJMP    ?BANKED_LEAVE_XDATA
          CFI EndBlock cfiBlock33

        RSEG BANKED_CODE:CODE:NOROOT(0)
?Subroutine6:
          CFI Block cfiCond34 Using cfiCommon0
          CFI Function zclSampleHeatingCoolingUnit_ProcessInReportCmd
          CFI Conditional ??CrossCallReturnLabel_16
          CFI R6 load(1, XDATA, add(CFA_XSP16, literal(-18)))
          CFI VB load(1, XDATA, add(CFA_XSP16, literal(-17)))
          CFI V0 load(1, XDATA, add(CFA_XSP16, literal(-16)))
          CFI V1 load(1, XDATA, add(CFA_XSP16, literal(-15)))
          CFI V2 load(1, XDATA, add(CFA_XSP16, literal(-14)))
          CFI V3 load(1, XDATA, add(CFA_XSP16, literal(-13)))
          CFI V4 load(1, XDATA, add(CFA_XSP16, literal(-12)))
          CFI V5 load(1, XDATA, add(CFA_XSP16, literal(-11)))
          CFI V6 load(1, XDATA, add(CFA_XSP16, literal(-10)))
          CFI V7 load(1, XDATA, add(CFA_XSP16, literal(-9)))
          CFI V8 load(1, XDATA, add(CFA_XSP16, literal(-8)))
          CFI V9 load(1, XDATA, add(CFA_XSP16, literal(-7)))
          CFI R7 load(1, XDATA, add(CFA_XSP16, literal(-6)))
          CFI ?RET_LOW load(1, XDATA, add(CFA_XSP16, literal(-5)))
          CFI ?RET_HIGH load(1, XDATA, add(CFA_XSP16, literal(-4)))
          CFI ?BRET_EXT load(1, XDATA, add(CFA_XSP16, literal(-3)))
          CFI DPL0 load(1, XDATA, add(CFA_XSP16, literal(-2)))
          CFI DPH0 load(1, XDATA, add(CFA_XSP16, literal(-1)))
          CFI CFA_SP SP+-2
          CFI CFA_XSP16 add(XSP16, 40)
          CFI Block cfiCond35 Using cfiCommon0
          CFI (cfiCond35) Function zclSampleHeatingCoolingUnit_ProcessInReportCmd
          CFI (cfiCond35) Conditional ??CrossCallReturnLabel_17
          CFI (cfiCond35) R6 load(1, XDATA, add(CFA_XSP16, literal(-18)))
          CFI (cfiCond35) VB load(1, XDATA, add(CFA_XSP16, literal(-17)))
          CFI (cfiCond35) V0 load(1, XDATA, add(CFA_XSP16, literal(-16)))
          CFI (cfiCond35) V1 load(1, XDATA, add(CFA_XSP16, literal(-15)))
          CFI (cfiCond35) V2 load(1, XDATA, add(CFA_XSP16, literal(-14)))
          CFI (cfiCond35) V3 load(1, XDATA, add(CFA_XSP16, literal(-13)))
          CFI (cfiCond35) V4 load(1, XDATA, add(CFA_XSP16, literal(-12)))
          CFI (cfiCond35) V5 load(1, XDATA, add(CFA_XSP16, literal(-11)))
          CFI (cfiCond35) V6 load(1, XDATA, add(CFA_XSP16, literal(-10)))
          CFI (cfiCond35) V7 load(1, XDATA, add(CFA_XSP16, literal(-9)))
          CFI (cfiCond35) V8 load(1, XDATA, add(CFA_XSP16, literal(-8)))
          CFI (cfiCond35) V9 load(1, XDATA, add(CFA_XSP16, literal(-7)))
          CFI (cfiCond35) R7 load(1, XDATA, add(CFA_XSP16, literal(-6)))
          CFI (cfiCond35) ?RET_LOW load(1, XDATA, add(CFA_XSP16, literal(-5)))
          CFI (cfiCond35) ?RET_HIGH load(1, XDATA, add(CFA_XSP16, literal(-4)))
          CFI (cfiCond35) ?BRET_EXT load(1, XDATA, add(CFA_XSP16, literal(-3)))
          CFI (cfiCond35) DPL0 load(1, XDATA, add(CFA_XSP16, literal(-2)))
          CFI (cfiCond35) DPH0 load(1, XDATA, add(CFA_XSP16, literal(-1)))
          CFI (cfiCond35) CFA_SP SP+-2
          CFI (cfiCond35) CFA_XSP16 add(XSP16, 40)
          CFI Block cfiPicker36 Using cfiCommon1
          CFI (cfiPicker36) NoFunction
          CFI (cfiPicker36) Picker
        MOV     DPL,?V2
        MOV     DPH,?V3
          CFI EndBlock cfiCond34
          CFI EndBlock cfiCond35
          CFI EndBlock cfiPicker36
        REQUIRE ??Subroutine13_0
        ; // Fall through to label ??Subroutine13_0

        RSEG BANKED_CODE:CODE:NOROOT(0)
??Subroutine13_0:
          CFI Block cfiCond37 Using cfiCommon0
          CFI Function zclSampleHeatingCoolingUnit_ProcessInReportCmd
          CFI Conditional ??CrossCallReturnLabel_14
          CFI R6 load(1, XDATA, add(CFA_XSP16, literal(-18)))
          CFI VB load(1, XDATA, add(CFA_XSP16, literal(-17)))
          CFI V0 load(1, XDATA, add(CFA_XSP16, literal(-16)))
          CFI V1 load(1, XDATA, add(CFA_XSP16, literal(-15)))
          CFI V2 load(1, XDATA, add(CFA_XSP16, literal(-14)))
          CFI V3 load(1, XDATA, add(CFA_XSP16, literal(-13)))
          CFI V4 load(1, XDATA, add(CFA_XSP16, literal(-12)))
          CFI V5 load(1, XDATA, add(CFA_XSP16, literal(-11)))
          CFI V6 load(1, XDATA, add(CFA_XSP16, literal(-10)))
          CFI V7 load(1, XDATA, add(CFA_XSP16, literal(-9)))
          CFI V8 load(1, XDATA, add(CFA_XSP16, literal(-8)))
          CFI V9 load(1, XDATA, add(CFA_XSP16, literal(-7)))
          CFI R7 load(1, XDATA, add(CFA_XSP16, literal(-6)))
          CFI ?RET_LOW load(1, XDATA, add(CFA_XSP16, literal(-5)))
          CFI ?RET_HIGH load(1, XDATA, add(CFA_XSP16, literal(-4)))
          CFI ?BRET_EXT load(1, XDATA, add(CFA_XSP16, literal(-3)))
          CFI DPL0 load(1, XDATA, add(CFA_XSP16, literal(-2)))
          CFI DPH0 load(1, XDATA, add(CFA_XSP16, literal(-1)))
          CFI CFA_SP SP+-2
          CFI CFA_XSP16 add(XSP16, 40)
          CFI Block cfiCond38 Using cfiCommon0
          CFI (cfiCond38) Function zclSampleHeatingCoolingUnit_ProcessInReportCmd
          CFI (cfiCond38) Conditional ??CrossCallReturnLabel_15
          CFI (cfiCond38) R6 load(1, XDATA, add(CFA_XSP16, literal(-18)))
          CFI (cfiCond38) VB load(1, XDATA, add(CFA_XSP16, literal(-17)))
          CFI (cfiCond38) V0 load(1, XDATA, add(CFA_XSP16, literal(-16)))
          CFI (cfiCond38) V1 load(1, XDATA, add(CFA_XSP16, literal(-15)))
          CFI (cfiCond38) V2 load(1, XDATA, add(CFA_XSP16, literal(-14)))
          CFI (cfiCond38) V3 load(1, XDATA, add(CFA_XSP16, literal(-13)))
          CFI (cfiCond38) V4 load(1, XDATA, add(CFA_XSP16, literal(-12)))
          CFI (cfiCond38) V5 load(1, XDATA, add(CFA_XSP16, literal(-11)))
          CFI (cfiCond38) V6 load(1, XDATA, add(CFA_XSP16, literal(-10)))
          CFI (cfiCond38) V7 load(1, XDATA, add(CFA_XSP16, literal(-9)))
          CFI (cfiCond38) V8 load(1, XDATA, add(CFA_XSP16, literal(-8)))
          CFI (cfiCond38) V9 load(1, XDATA, add(CFA_XSP16, literal(-7)))
          CFI (cfiCond38) R7 load(1, XDATA, add(CFA_XSP16, literal(-6)))
          CFI (cfiCond38) ?RET_LOW load(1, XDATA, add(CFA_XSP16, literal(-5)))
          CFI (cfiCond38) ?RET_HIGH load(1, XDATA, add(CFA_XSP16, literal(-4)))
          CFI (cfiCond38) ?BRET_EXT load(1, XDATA, add(CFA_XSP16, literal(-3)))
          CFI (cfiCond38) DPL0 load(1, XDATA, add(CFA_XSP16, literal(-2)))
          CFI (cfiCond38) DPH0 load(1, XDATA, add(CFA_XSP16, literal(-1)))
          CFI (cfiCond38) CFA_SP SP+-2
          CFI (cfiCond38) CFA_XSP16 add(XSP16, 40)
          CFI Block cfiCond39 Using cfiCommon0
          CFI (cfiCond39) Function zclSampleHeatingCoolingUnit_ProcessInReportCmd
          CFI (cfiCond39) Conditional ??CrossCallReturnLabel_16
          CFI (cfiCond39) R6 load(1, XDATA, add(CFA_XSP16, literal(-18)))
          CFI (cfiCond39) VB load(1, XDATA, add(CFA_XSP16, literal(-17)))
          CFI (cfiCond39) V0 load(1, XDATA, add(CFA_XSP16, literal(-16)))
          CFI (cfiCond39) V1 load(1, XDATA, add(CFA_XSP16, literal(-15)))
          CFI (cfiCond39) V2 load(1, XDATA, add(CFA_XSP16, literal(-14)))
          CFI (cfiCond39) V3 load(1, XDATA, add(CFA_XSP16, literal(-13)))
          CFI (cfiCond39) V4 load(1, XDATA, add(CFA_XSP16, literal(-12)))
          CFI (cfiCond39) V5 load(1, XDATA, add(CFA_XSP16, literal(-11)))
          CFI (cfiCond39) V6 load(1, XDATA, add(CFA_XSP16, literal(-10)))
          CFI (cfiCond39) V7 load(1, XDATA, add(CFA_XSP16, literal(-9)))
          CFI (cfiCond39) V8 load(1, XDATA, add(CFA_XSP16, literal(-8)))
          CFI (cfiCond39) V9 load(1, XDATA, add(CFA_XSP16, literal(-7)))
          CFI (cfiCond39) R7 load(1, XDATA, add(CFA_XSP16, literal(-6)))
          CFI (cfiCond39) ?RET_LOW load(1, XDATA, add(CFA_XSP16, literal(-5)))
          CFI (cfiCond39) ?RET_HIGH load(1, XDATA, add(CFA_XSP16, literal(-4)))
          CFI (cfiCond39) ?BRET_EXT load(1, XDATA, add(CFA_XSP16, literal(-3)))
          CFI (cfiCond39) DPL0 load(1, XDATA, add(CFA_XSP16, literal(-2)))
          CFI (cfiCond39) DPH0 load(1, XDATA, add(CFA_XSP16, literal(-1)))
          CFI (cfiCond39) CFA_SP SP+-2
          CFI (cfiCond39) CFA_XSP16 add(XSP16, 40)
          CFI Block cfiCond40 Using cfiCommon0
          CFI (cfiCond40) Function zclSampleHeatingCoolingUnit_ProcessInReportCmd
          CFI (cfiCond40) Conditional ??CrossCallReturnLabel_17
          CFI (cfiCond40) R6 load(1, XDATA, add(CFA_XSP16, literal(-18)))
          CFI (cfiCond40) VB load(1, XDATA, add(CFA_XSP16, literal(-17)))
          CFI (cfiCond40) V0 load(1, XDATA, add(CFA_XSP16, literal(-16)))
          CFI (cfiCond40) V1 load(1, XDATA, add(CFA_XSP16, literal(-15)))
          CFI (cfiCond40) V2 load(1, XDATA, add(CFA_XSP16, literal(-14)))
          CFI (cfiCond40) V3 load(1, XDATA, add(CFA_XSP16, literal(-13)))
          CFI (cfiCond40) V4 load(1, XDATA, add(CFA_XSP16, literal(-12)))
          CFI (cfiCond40) V5 load(1, XDATA, add(CFA_XSP16, literal(-11)))
          CFI (cfiCond40) V6 load(1, XDATA, add(CFA_XSP16, literal(-10)))
          CFI (cfiCond40) V7 load(1, XDATA, add(CFA_XSP16, literal(-9)))
          CFI (cfiCond40) V8 load(1, XDATA, add(CFA_XSP16, literal(-8)))
          CFI (cfiCond40) V9 load(1, XDATA, add(CFA_XSP16, literal(-7)))
          CFI (cfiCond40) R7 load(1, XDATA, add(CFA_XSP16, literal(-6)))
          CFI (cfiCond40) ?RET_LOW load(1, XDATA, add(CFA_XSP16, literal(-5)))
          CFI (cfiCond40) ?RET_HIGH load(1, XDATA, add(CFA_XSP16, literal(-4)))
          CFI (cfiCond40) ?BRET_EXT load(1, XDATA, add(CFA_XSP16, literal(-3)))
          CFI (cfiCond40) DPL0 load(1, XDATA, add(CFA_XSP16, literal(-2)))
          CFI (cfiCond40) DPH0 load(1, XDATA, add(CFA_XSP16, literal(-1)))
          CFI (cfiCond40) CFA_SP SP+-2
          CFI (cfiCond40) CFA_XSP16 add(XSP16, 40)
          CFI Block cfiPicker41 Using cfiCommon1
          CFI (cfiPicker41) NoFunction
          CFI (cfiPicker41) Picker
        LCALL   ?Subroutine9 & 0xFFFF
??CrossCallReturnLabel_19:
        MOVX    A,@DPTR
        RET
          CFI EndBlock cfiCond37
          CFI EndBlock cfiCond38
          CFI EndBlock cfiCond39
          CFI EndBlock cfiCond40
          CFI EndBlock cfiPicker41

        RSEG BANKED_CODE:CODE:NOROOT(0)
?Subroutine9:
          CFI Block cfiCond42 Using cfiCommon0
          CFI Function zclSampleHeatingCoolingUnit_ProcessInReportCmd
          CFI Conditional ??CrossCallReturnLabel_18
          CFI R6 load(1, XDATA, add(CFA_XSP16, literal(-18)))
          CFI VB load(1, XDATA, add(CFA_XSP16, literal(-17)))
          CFI V0 load(1, XDATA, add(CFA_XSP16, literal(-16)))
          CFI V1 load(1, XDATA, add(CFA_XSP16, literal(-15)))
          CFI V2 load(1, XDATA, add(CFA_XSP16, literal(-14)))
          CFI V3 load(1, XDATA, add(CFA_XSP16, literal(-13)))
          CFI V4 load(1, XDATA, add(CFA_XSP16, literal(-12)))
          CFI V5 load(1, XDATA, add(CFA_XSP16, literal(-11)))
          CFI V6 load(1, XDATA, add(CFA_XSP16, literal(-10)))
          CFI V7 load(1, XDATA, add(CFA_XSP16, literal(-9)))
          CFI V8 load(1, XDATA, add(CFA_XSP16, literal(-8)))
          CFI V9 load(1, XDATA, add(CFA_XSP16, literal(-7)))
          CFI R7 load(1, XDATA, add(CFA_XSP16, literal(-6)))
          CFI ?RET_LOW load(1, XDATA, add(CFA_XSP16, literal(-5)))
          CFI ?RET_HIGH load(1, XDATA, add(CFA_XSP16, literal(-4)))
          CFI ?BRET_EXT load(1, XDATA, add(CFA_XSP16, literal(-3)))
          CFI DPL0 load(1, XDATA, add(CFA_XSP16, literal(-2)))
          CFI DPH0 load(1, XDATA, add(CFA_XSP16, literal(-1)))
          CFI CFA_SP SP+-2
          CFI CFA_XSP16 add(XSP16, 40)
          CFI Block cfiCond43 Using cfiCommon0
          CFI (cfiCond43) Function zclSampleHeatingCoolingUnit_ProcessInReportCmd
          CFI (cfiCond43) Conditional ??CrossCallReturnLabel_19, ??CrossCallReturnLabel_16
          CFI (cfiCond43) R6 load(1, XDATA, add(CFA_XSP16, literal(-18)))
          CFI (cfiCond43) VB load(1, XDATA, add(CFA_XSP16, literal(-17)))
          CFI (cfiCond43) V0 load(1, XDATA, add(CFA_XSP16, literal(-16)))
          CFI (cfiCond43) V1 load(1, XDATA, add(CFA_XSP16, literal(-15)))
          CFI (cfiCond43) V2 load(1, XDATA, add(CFA_XSP16, literal(-14)))
          CFI (cfiCond43) V3 load(1, XDATA, add(CFA_XSP16, literal(-13)))
          CFI (cfiCond43) V4 load(1, XDATA, add(CFA_XSP16, literal(-12)))
          CFI (cfiCond43) V5 load(1, XDATA, add(CFA_XSP16, literal(-11)))
          CFI (cfiCond43) V6 load(1, XDATA, add(CFA_XSP16, literal(-10)))
          CFI (cfiCond43) V7 load(1, XDATA, add(CFA_XSP16, literal(-9)))
          CFI (cfiCond43) V8 load(1, XDATA, add(CFA_XSP16, literal(-8)))
          CFI (cfiCond43) V9 load(1, XDATA, add(CFA_XSP16, literal(-7)))
          CFI (cfiCond43) R7 load(1, XDATA, add(CFA_XSP16, literal(-6)))
          CFI (cfiCond43) ?RET_LOW load(1, XDATA, add(CFA_XSP16, literal(-5)))
          CFI (cfiCond43) ?RET_HIGH load(1, XDATA, add(CFA_XSP16, literal(-4)))
          CFI (cfiCond43) ?BRET_EXT load(1, XDATA, add(CFA_XSP16, literal(-3)))
          CFI (cfiCond43) DPL0 load(1, XDATA, add(CFA_XSP16, literal(-2)))
          CFI (cfiCond43) DPH0 load(1, XDATA, add(CFA_XSP16, literal(-1)))
          CFI (cfiCond43) CFA_SP SP+-4
          CFI (cfiCond43) CFA_XSP16 add(XSP16, 40)
          CFI Block cfiCond44 Using cfiCommon0
          CFI (cfiCond44) Function zclSampleHeatingCoolingUnit_ProcessInReportCmd
          CFI (cfiCond44) Conditional ??CrossCallReturnLabel_19, ??CrossCallReturnLabel_17
          CFI (cfiCond44) R6 load(1, XDATA, add(CFA_XSP16, literal(-18)))
          CFI (cfiCond44) VB load(1, XDATA, add(CFA_XSP16, literal(-17)))
          CFI (cfiCond44) V0 load(1, XDATA, add(CFA_XSP16, literal(-16)))
          CFI (cfiCond44) V1 load(1, XDATA, add(CFA_XSP16, literal(-15)))
          CFI (cfiCond44) V2 load(1, XDATA, add(CFA_XSP16, literal(-14)))
          CFI (cfiCond44) V3 load(1, XDATA, add(CFA_XSP16, literal(-13)))
          CFI (cfiCond44) V4 load(1, XDATA, add(CFA_XSP16, literal(-12)))
          CFI (cfiCond44) V5 load(1, XDATA, add(CFA_XSP16, literal(-11)))
          CFI (cfiCond44) V6 load(1, XDATA, add(CFA_XSP16, literal(-10)))
          CFI (cfiCond44) V7 load(1, XDATA, add(CFA_XSP16, literal(-9)))
          CFI (cfiCond44) V8 load(1, XDATA, add(CFA_XSP16, literal(-8)))
          CFI (cfiCond44) V9 load(1, XDATA, add(CFA_XSP16, literal(-7)))
          CFI (cfiCond44) R7 load(1, XDATA, add(CFA_XSP16, literal(-6)))
          CFI (cfiCond44) ?RET_LOW load(1, XDATA, add(CFA_XSP16, literal(-5)))
          CFI (cfiCond44) ?RET_HIGH load(1, XDATA, add(CFA_XSP16, literal(-4)))
          CFI (cfiCond44) ?BRET_EXT load(1, XDATA, add(CFA_XSP16, literal(-3)))
          CFI (cfiCond44) DPL0 load(1, XDATA, add(CFA_XSP16, literal(-2)))
          CFI (cfiCond44) DPH0 load(1, XDATA, add(CFA_XSP16, literal(-1)))
          CFI (cfiCond44) CFA_SP SP+-4
          CFI (cfiCond44) CFA_XSP16 add(XSP16, 40)
          CFI Block cfiCond45 Using cfiCommon0
          CFI (cfiCond45) Function zclSampleHeatingCoolingUnit_ProcessInReportCmd
          CFI (cfiCond45) Conditional ??CrossCallReturnLabel_19, ??CrossCallReturnLabel_14
          CFI (cfiCond45) R6 load(1, XDATA, add(CFA_XSP16, literal(-18)))
          CFI (cfiCond45) VB load(1, XDATA, add(CFA_XSP16, literal(-17)))
          CFI (cfiCond45) V0 load(1, XDATA, add(CFA_XSP16, literal(-16)))
          CFI (cfiCond45) V1 load(1, XDATA, add(CFA_XSP16, literal(-15)))
          CFI (cfiCond45) V2 load(1, XDATA, add(CFA_XSP16, literal(-14)))
          CFI (cfiCond45) V3 load(1, XDATA, add(CFA_XSP16, literal(-13)))
          CFI (cfiCond45) V4 load(1, XDATA, add(CFA_XSP16, literal(-12)))
          CFI (cfiCond45) V5 load(1, XDATA, add(CFA_XSP16, literal(-11)))
          CFI (cfiCond45) V6 load(1, XDATA, add(CFA_XSP16, literal(-10)))
          CFI (cfiCond45) V7 load(1, XDATA, add(CFA_XSP16, literal(-9)))
          CFI (cfiCond45) V8 load(1, XDATA, add(CFA_XSP16, literal(-8)))
          CFI (cfiCond45) V9 load(1, XDATA, add(CFA_XSP16, literal(-7)))
          CFI (cfiCond45) R7 load(1, XDATA, add(CFA_XSP16, literal(-6)))
          CFI (cfiCond45) ?RET_LOW load(1, XDATA, add(CFA_XSP16, literal(-5)))
          CFI (cfiCond45) ?RET_HIGH load(1, XDATA, add(CFA_XSP16, literal(-4)))
          CFI (cfiCond45) ?BRET_EXT load(1, XDATA, add(CFA_XSP16, literal(-3)))
          CFI (cfiCond45) DPL0 load(1, XDATA, add(CFA_XSP16, literal(-2)))
          CFI (cfiCond45) DPH0 load(1, XDATA, add(CFA_XSP16, literal(-1)))
          CFI (cfiCond45) CFA_SP SP+-4
          CFI (cfiCond45) CFA_XSP16 add(XSP16, 40)
          CFI Block cfiCond46 Using cfiCommon0
          CFI (cfiCond46) Function zclSampleHeatingCoolingUnit_ProcessInReportCmd
          CFI (cfiCond46) Conditional ??CrossCallReturnLabel_19, ??CrossCallReturnLabel_15
          CFI (cfiCond46) R6 load(1, XDATA, add(CFA_XSP16, literal(-18)))
          CFI (cfiCond46) VB load(1, XDATA, add(CFA_XSP16, literal(-17)))
          CFI (cfiCond46) V0 load(1, XDATA, add(CFA_XSP16, literal(-16)))
          CFI (cfiCond46) V1 load(1, XDATA, add(CFA_XSP16, literal(-15)))
          CFI (cfiCond46) V2 load(1, XDATA, add(CFA_XSP16, literal(-14)))
          CFI (cfiCond46) V3 load(1, XDATA, add(CFA_XSP16, literal(-13)))
          CFI (cfiCond46) V4 load(1, XDATA, add(CFA_XSP16, literal(-12)))
          CFI (cfiCond46) V5 load(1, XDATA, add(CFA_XSP16, literal(-11)))
          CFI (cfiCond46) V6 load(1, XDATA, add(CFA_XSP16, literal(-10)))
          CFI (cfiCond46) V7 load(1, XDATA, add(CFA_XSP16, literal(-9)))
          CFI (cfiCond46) V8 load(1, XDATA, add(CFA_XSP16, literal(-8)))
          CFI (cfiCond46) V9 load(1, XDATA, add(CFA_XSP16, literal(-7)))
          CFI (cfiCond46) R7 load(1, XDATA, add(CFA_XSP16, literal(-6)))
          CFI (cfiCond46) ?RET_LOW load(1, XDATA, add(CFA_XSP16, literal(-5)))
          CFI (cfiCond46) ?RET_HIGH load(1, XDATA, add(CFA_XSP16, literal(-4)))
          CFI (cfiCond46) ?BRET_EXT load(1, XDATA, add(CFA_XSP16, literal(-3)))
          CFI (cfiCond46) DPL0 load(1, XDATA, add(CFA_XSP16, literal(-2)))
          CFI (cfiCond46) DPH0 load(1, XDATA, add(CFA_XSP16, literal(-1)))
          CFI (cfiCond46) CFA_SP SP+-4
          CFI (cfiCond46) CFA_XSP16 add(XSP16, 40)
          CFI Block cfiPicker47 Using cfiCommon1
          CFI (cfiPicker47) NoFunction
          CFI (cfiPicker47) Picker
        MOVX    A,@DPTR
        MOV     R0,A
        INC     DPTR
        MOVX    A,@DPTR
        MOV     DPH,A
        MOV     DPL,R0
        RET
          CFI EndBlock cfiCond42
          CFI EndBlock cfiCond43
          CFI EndBlock cfiCond44
          CFI EndBlock cfiCond45
          CFI EndBlock cfiCond46
          CFI EndBlock cfiPicker47

        RSEG BANKED_CODE:CODE:NOROOT(0)
?Subroutine5:
          CFI Block cfiCond48 Using cfiCommon0
          CFI Function zclSampleHeatingCoolingUnit_HandleKeys
          CFI Conditional ??CrossCallReturnLabel_23
          CFI R6 load(1, XDATA, add(CFA_XSP16, literal(-16)))
          CFI VB load(1, XDATA, add(CFA_XSP16, literal(-15)))
          CFI V0 load(1, XDATA, add(CFA_XSP16, literal(-14)))
          CFI V1 load(1, XDATA, add(CFA_XSP16, literal(-13)))
          CFI V2 load(1, XDATA, add(CFA_XSP16, literal(-12)))
          CFI V3 load(1, XDATA, add(CFA_XSP16, literal(-11)))
          CFI V4 load(1, XDATA, add(CFA_XSP16, literal(-10)))
          CFI V5 load(1, XDATA, add(CFA_XSP16, literal(-9)))
          CFI V6 load(1, XDATA, add(CFA_XSP16, literal(-8)))
          CFI V7 load(1, XDATA, add(CFA_XSP16, literal(-7)))
          CFI R7 load(1, XDATA, add(CFA_XSP16, literal(-6)))
          CFI ?RET_LOW load(1, XDATA, add(CFA_XSP16, literal(-5)))
          CFI ?RET_HIGH load(1, XDATA, add(CFA_XSP16, literal(-4)))
          CFI ?BRET_EXT load(1, XDATA, add(CFA_XSP16, literal(-3)))
          CFI DPL0 load(1, XDATA, add(CFA_XSP16, literal(-2)))
          CFI DPH0 load(1, XDATA, add(CFA_XSP16, literal(-1)))
          CFI CFA_SP SP+-2
          CFI CFA_XSP16 add(XSP16, 29)
          CFI Block cfiCond49 Using cfiCommon0
          CFI (cfiCond49) Function zclSampleHeatingCoolingUnit_HandleKeys
          CFI (cfiCond49) Conditional ??CrossCallReturnLabel_24
          CFI (cfiCond49) R6 load(1, XDATA, add(CFA_XSP16, literal(-16)))
          CFI (cfiCond49) VB load(1, XDATA, add(CFA_XSP16, literal(-15)))
          CFI (cfiCond49) V0 load(1, XDATA, add(CFA_XSP16, literal(-14)))
          CFI (cfiCond49) V1 load(1, XDATA, add(CFA_XSP16, literal(-13)))
          CFI (cfiCond49) V2 load(1, XDATA, add(CFA_XSP16, literal(-12)))
          CFI (cfiCond49) V3 load(1, XDATA, add(CFA_XSP16, literal(-11)))
          CFI (cfiCond49) V4 load(1, XDATA, add(CFA_XSP16, literal(-10)))
          CFI (cfiCond49) V5 load(1, XDATA, add(CFA_XSP16, literal(-9)))
          CFI (cfiCond49) V6 load(1, XDATA, add(CFA_XSP16, literal(-8)))
          CFI (cfiCond49) V7 load(1, XDATA, add(CFA_XSP16, literal(-7)))
          CFI (cfiCond49) R7 load(1, XDATA, add(CFA_XSP16, literal(-6)))
          CFI (cfiCond49) ?RET_LOW load(1, XDATA, add(CFA_XSP16, literal(-5)))
          CFI (cfiCond49) ?RET_HIGH load(1, XDATA, add(CFA_XSP16, literal(-4)))
          CFI (cfiCond49) ?BRET_EXT load(1, XDATA, add(CFA_XSP16, literal(-3)))
          CFI (cfiCond49) DPL0 load(1, XDATA, add(CFA_XSP16, literal(-2)))
          CFI (cfiCond49) DPH0 load(1, XDATA, add(CFA_XSP16, literal(-1)))
          CFI (cfiCond49) CFA_SP SP+-2
          CFI (cfiCond49) CFA_XSP16 add(XSP16, 29)
          CFI Block cfiCond50 Using cfiCommon0
          CFI (cfiCond50) Function zclSampleHeatingCoolingUnit_HandleKeys
          CFI (cfiCond50) Conditional ??CrossCallReturnLabel_25
          CFI (cfiCond50) R6 load(1, XDATA, add(CFA_XSP16, literal(-16)))
          CFI (cfiCond50) VB load(1, XDATA, add(CFA_XSP16, literal(-15)))
          CFI (cfiCond50) V0 load(1, XDATA, add(CFA_XSP16, literal(-14)))
          CFI (cfiCond50) V1 load(1, XDATA, add(CFA_XSP16, literal(-13)))
          CFI (cfiCond50) V2 load(1, XDATA, add(CFA_XSP16, literal(-12)))
          CFI (cfiCond50) V3 load(1, XDATA, add(CFA_XSP16, literal(-11)))
          CFI (cfiCond50) V4 load(1, XDATA, add(CFA_XSP16, literal(-10)))
          CFI (cfiCond50) V5 load(1, XDATA, add(CFA_XSP16, literal(-9)))
          CFI (cfiCond50) V6 load(1, XDATA, add(CFA_XSP16, literal(-8)))
          CFI (cfiCond50) V7 load(1, XDATA, add(CFA_XSP16, literal(-7)))
          CFI (cfiCond50) R7 load(1, XDATA, add(CFA_XSP16, literal(-6)))
          CFI (cfiCond50) ?RET_LOW load(1, XDATA, add(CFA_XSP16, literal(-5)))
          CFI (cfiCond50) ?RET_HIGH load(1, XDATA, add(CFA_XSP16, literal(-4)))
          CFI (cfiCond50) ?BRET_EXT load(1, XDATA, add(CFA_XSP16, literal(-3)))
          CFI (cfiCond50) DPL0 load(1, XDATA, add(CFA_XSP16, literal(-2)))
          CFI (cfiCond50) DPH0 load(1, XDATA, add(CFA_XSP16, literal(-1)))
          CFI (cfiCond50) CFA_SP SP+-2
          CFI (cfiCond50) CFA_XSP16 add(XSP16, 29)
          CFI Block cfiCond51 Using cfiCommon0
          CFI (cfiCond51) Function zclSampleHeatingCoolingUnit_HandleKeys
          CFI (cfiCond51) Conditional ??CrossCallReturnLabel_26
          CFI (cfiCond51) R6 load(1, XDATA, add(CFA_XSP16, literal(-16)))
          CFI (cfiCond51) VB load(1, XDATA, add(CFA_XSP16, literal(-15)))
          CFI (cfiCond51) V0 load(1, XDATA, add(CFA_XSP16, literal(-14)))
          CFI (cfiCond51) V1 load(1, XDATA, add(CFA_XSP16, literal(-13)))
          CFI (cfiCond51) V2 load(1, XDATA, add(CFA_XSP16, literal(-12)))
          CFI (cfiCond51) V3 load(1, XDATA, add(CFA_XSP16, literal(-11)))
